
SDC_AVF_virus_14ww24_nolib.o:     file format elf64-x86-64

Disassembly of section .text:

00000000004000b0 <main-0x6000>:
	...

00000000004060b0 <main>:
  4060b0:	48 31 db             	xor    %rbx,%rbx
  4060b3:	48 31 c0             	xor    %rax,%rax
  4060b6:	b8 01 00 00 00       	mov    $0x1,%eax
  4060bb:	0f a2                	cpuid  
  4060bd:	c1 eb 18             	shr    $0x18,%ebx
  4060c0:	48 31 c9             	xor    %rcx,%rcx
  4060c3:	48 01 d9             	add    %rbx,%rcx
  4060c6:	48 c1 e1 19          	shl    $0x19,%rcx
  4060ca:	48 83 c1 07          	add    $0x7,%rcx

00000000004060ce <loop_delay>:
  4060ce:	90                   	nop    
  4060cf:	e2 fd                	loop   4060ce <loop_delay>

00000000004060d1 <no_delay>:
  4060d1:	48 31 c0             	xor    %rax,%rax
  4060d4:	48 31 c9             	xor    %rcx,%rcx
  4060d7:	48 31 d2             	xor    %rdx,%rdx
  4060da:	48 31 ff             	xor    %rdi,%rdi
  4060dd:	48 31 f6             	xor    %rsi,%rsi
  4060e0:	48 31 ed             	xor    %rbp,%rbp
  4060e3:	4d 31 c0             	xor    %r8,%r8
  4060e6:	4d 31 c9             	xor    %r9,%r9
  4060e9:	4d 31 d2             	xor    %r10,%r10
  4060ec:	4d 31 db             	xor    %r11,%r11
  4060ef:	4d 31 e4             	xor    %r12,%r12
  4060f2:	4d 31 ed             	xor    %r13,%r13
  4060f5:	4d 31 f6             	xor    %r14,%r14
  4060f8:	4d 31 ff             	xor    %r15,%r15
  4060fb:	0f 57 c0             	xorps  %xmm0,%xmm0
  4060fe:	0f 57 c9             	xorps  %xmm1,%xmm1
  406101:	0f 57 d2             	xorps  %xmm2,%xmm2
  406104:	0f 57 db             	xorps  %xmm3,%xmm3
  406107:	0f 57 e4             	xorps  %xmm4,%xmm4
  40610a:	0f 57 ed             	xorps  %xmm5,%xmm5
  40610d:	0f 57 f6             	xorps  %xmm6,%xmm6
  406110:	0f 57 ff             	xorps  %xmm7,%xmm7
  406113:	45 0f 57 c0          	xorps  %xmm8,%xmm8
  406117:	45 0f 57 c9          	xorps  %xmm9,%xmm9
  40611b:	45 0f 57 d2          	xorps  %xmm10,%xmm10
  40611f:	45 0f 57 db          	xorps  %xmm11,%xmm11
  406123:	45 0f 57 e4          	xorps  %xmm12,%xmm12
  406127:	45 0f 57 ed          	xorps  %xmm13,%xmm13
  40612b:	45 0f 57 f6          	xorps  %xmm14,%xmm14
  40612f:	45 0f 57 ff          	xorps  %xmm15,%xmm15
  406133:	0f ef c0             	pxor   %mm0,%mm0
  406136:	0f ef c9             	pxor   %mm1,%mm1
  406139:	0f ef d2             	pxor   %mm2,%mm2
  40613c:	0f ef db             	pxor   %mm3,%mm3
  40613f:	0f ef e4             	pxor   %mm4,%mm4
  406142:	0f ef ed             	pxor   %mm5,%mm5
  406145:	0f ef f6             	pxor   %mm6,%mm6
  406148:	0f ef ff             	pxor   %mm7,%mm7
  40614b:	c1 e3 0c             	shl    $0xc,%ebx
  40614e:	4d 31 f6             	xor    %r14,%r14
  406151:	49 01 de             	add    %rbx,%r14

0000000000406154 <loop_outer>:
  406154:	48 31 c0             	xor    %rax,%rax
  406157:	48 31 db             	xor    %rbx,%rbx
  40615a:	48 31 c9             	xor    %rcx,%rcx
  40615d:	48 31 d2             	xor    %rdx,%rdx
  406160:	4d 31 db             	xor    %r11,%r11
  406163:	49 81 c3 00 09 3d 00 	add    $0x3d0900,%r11

000000000040616a <loop_main>:
  40616a:	4c 8d 3c 25 b0 ce 50 	lea    0x50ceb0,%r15
  406171:	00 
  406172:	4d 01 f7             	add    %r14,%r15
  406175:	4c 8d 14 25 b0 ce 50 	lea    0x50ceb0,%r10
  40617c:	00 
  40617d:	4d 01 f2             	add    %r14,%r10
  406180:	48 31 c9             	xor    %rcx,%rcx
  406183:	48 83 c1 02          	add    $0x2,%rcx

0000000000406187 <sqrt_loop>:
  406187:	f3 0f 51 c8          	sqrtss %xmm0,%xmm1
  40618b:	f3 0f 51 d1          	sqrtss %xmm1,%xmm2
  40618f:	f3 0f 51 da          	sqrtss %xmm2,%xmm3
  406193:	f3 0f 51 e3          	sqrtss %xmm3,%xmm4
  406197:	f3 0f 51 ec          	sqrtss %xmm4,%xmm5
  40619b:	f3 0f 51 f5          	sqrtss %xmm5,%xmm6
  40619f:	f3 0f 51 fe          	sqrtss %xmm6,%xmm7
  4061a3:	f3 44 0f 51 c7       	sqrtss %xmm7,%xmm8
  4061a8:	f3 45 0f 51 c8       	sqrtss %xmm8,%xmm9
  4061ad:	f3 45 0f 51 d1       	sqrtss %xmm9,%xmm10
  4061b2:	f3 45 0f 51 da       	sqrtss %xmm10,%xmm11
  4061b7:	f3 45 0f 51 e3       	sqrtss %xmm11,%xmm12
  4061bc:	f3 45 0f 51 ec       	sqrtss %xmm12,%xmm13
  4061c1:	f3 45 0f 51 f5       	sqrtss %xmm13,%xmm14
  4061c6:	f3 45 0f 51 fe       	sqrtss %xmm14,%xmm15
  4061cb:	f3 41 0f 51 c7       	sqrtss %xmm15,%xmm0
  4061d0:	e2 b5                	loop   406187 <sqrt_loop>
  4061d2:	f3 0f 51 c8          	sqrtss %xmm0,%xmm1
  4061d6:	f3 0f 51 d1          	sqrtss %xmm1,%xmm2
  4061da:	f3 0f 51 da          	sqrtss %xmm2,%xmm3
  4061de:	f3 0f 51 e3          	sqrtss %xmm3,%xmm4
  4061e2:	f3 0f 51 ec          	sqrtss %xmm4,%xmm5
  4061e6:	f3 0f 51 f5          	sqrtss %xmm5,%xmm6
  4061ea:	f3 0f 51 fe          	sqrtss %xmm6,%xmm7
  4061ee:	f3 44 0f 51 c7       	sqrtss %xmm7,%xmm8
  4061f3:	f3 45 0f 51 c8       	sqrtss %xmm8,%xmm9
  4061f8:	f3 45 0f 51 d1       	sqrtss %xmm9,%xmm10
  4061fd:	f3 45 0f 51 da       	sqrtss %xmm10,%xmm11
  406202:	f3 45 0f 51 e3       	sqrtss %xmm11,%xmm12
  406207:	f3 45 0f 51 ec       	sqrtss %xmm12,%xmm13
  40620c:	f3 45 0f 51 f5       	sqrtss %xmm13,%xmm14
  406211:	f3 45 0f 51 fe       	sqrtss %xmm14,%xmm15
  406216:	f3 41 0f 51 c7       	sqrtss %xmm15,%xmm0
  40621b:	4d 31 ed             	xor    %r13,%r13
  40621e:	49 83 c5 04          	add    $0x4,%r13

0000000000406222 <store_loop>:
  406222:	4d 89 37             	mov    %r14,(%r15)
  406225:	49 83 c7 08          	add    $0x8,%r15
  406229:	49 ff cd             	dec    %r13
  40622c:	49 83 fd 00          	cmp    $0x0,%r13
  406230:	75 f0                	jne    406222 <store_loop>
  406232:	4d 31 e4             	xor    %r12,%r12
  406235:	49 83 c4 01          	add    $0x1,%r12

0000000000406239 <inc_loop>:
  406239:	48 83 c0 02          	add    $0x2,%rax
  40623d:	48 01 c3             	add    %rax,%rbx
  406240:	48 83 eb 02          	sub    $0x2,%rbx
  406244:	48 83 c3 03          	add    $0x3,%rbx
  406248:	48 01 da             	add    %rbx,%rdx
  40624b:	48 83 ea 03          	sub    $0x3,%rdx
  40624f:	48 83 c2 04          	add    $0x4,%rdx
  406253:	48 01 d7             	add    %rdx,%rdi
  406256:	48 83 ef 04          	sub    $0x4,%rdi
  40625a:	48 83 c7 05          	add    $0x5,%rdi
  40625e:	48 01 fe             	add    %rdi,%rsi
  406261:	48 83 ee 05          	sub    $0x5,%rsi
  406265:	48 83 c6 06          	add    $0x6,%rsi
  406269:	48 01 f5             	add    %rsi,%rbp
  40626c:	48 83 ed 06          	sub    $0x6,%rbp
  406270:	48 83 c5 07          	add    $0x7,%rbp
  406274:	49 01 e8             	add    %rbp,%r8
  406277:	49 83 e8 07          	sub    $0x7,%r8
  40627b:	49 83 c0 08          	add    $0x8,%r8
  40627f:	4d 01 c1             	add    %r8,%r9
  406282:	49 83 e9 08          	sub    $0x8,%r9
  406286:	49 83 c1 09          	add    $0x9,%r9
  40628a:	49 83 e9 09          	sub    $0x9,%r9
  40628e:	4d 01 c8             	add    %r9,%r8
  406291:	49 83 e8 08          	sub    $0x8,%r8
  406295:	4c 01 c5             	add    %r8,%rbp
  406298:	48 83 ed 07          	sub    $0x7,%rbp
  40629c:	48 01 ee             	add    %rbp,%rsi
  40629f:	48 83 ee 06          	sub    $0x6,%rsi
  4062a3:	48 01 f7             	add    %rsi,%rdi
  4062a6:	48 83 ef 05          	sub    $0x5,%rdi
  4062aa:	48 01 fa             	add    %rdi,%rdx
  4062ad:	48 83 ea 04          	sub    $0x4,%rdx
  4062b1:	48 01 d3             	add    %rdx,%rbx
  4062b4:	48 83 eb 03          	sub    $0x3,%rbx
  4062b8:	48 01 d8             	add    %rbx,%rax
  4062bb:	48 83 e8 02          	sub    $0x2,%rax
  4062bf:	49 ff cc             	dec    %r12
  4062c2:	49 83 fc 00          	cmp    $0x0,%r12
  4062c6:	0f 85 6d ff ff ff    	jne    406239 <inc_loop>
  4062cc:	4d 89 37             	mov    %r14,(%r15)
  4062cf:	49 83 c7 08          	add    $0x8,%r15
  4062d3:	4d 89 37             	mov    %r14,(%r15)
  4062d6:	49 83 c7 08          	add    $0x8,%r15
  4062da:	4d 89 37             	mov    %r14,(%r15)
  4062dd:	49 83 c7 08          	add    $0x8,%r15
  4062e1:	4d 89 37             	mov    %r14,(%r15)
  4062e4:	49 83 c7 08          	add    $0x8,%r15
  4062e8:	4d 89 37             	mov    %r14,(%r15)
  4062eb:	49 83 c7 08          	add    $0x8,%r15
  4062ef:	4d 89 37             	mov    %r14,(%r15)
  4062f2:	49 83 c7 08          	add    $0x8,%r15
  4062f6:	4d 89 37             	mov    %r14,(%r15)
  4062f9:	49 83 c7 08          	add    $0x8,%r15
  4062fd:	4d 89 37             	mov    %r14,(%r15)
  406300:	49 83 c7 08          	add    $0x8,%r15
  406304:	4d 89 37             	mov    %r14,(%r15)
  406307:	49 83 c7 08          	add    $0x8,%r15
  40630b:	4d 89 37             	mov    %r14,(%r15)
  40630e:	49 83 c7 08          	add    $0x8,%r15
  406312:	4d 89 37             	mov    %r14,(%r15)
  406315:	49 83 c7 08          	add    $0x8,%r15
  406319:	4d 89 37             	mov    %r14,(%r15)
  40631c:	4d 89 37             	mov    %r14,(%r15)
  40631f:	4d 89 37             	mov    %r14,(%r15)
  406322:	4d 89 37             	mov    %r14,(%r15)
  406325:	4d 89 37             	mov    %r14,(%r15)
  406328:	4d 89 37             	mov    %r14,(%r15)
  40632b:	4d 89 37             	mov    %r14,(%r15)
  40632e:	4d 89 37             	mov    %r14,(%r15)
  406331:	4d 89 37             	mov    %r14,(%r15)
  406334:	4d 89 37             	mov    %r14,(%r15)
  406337:	4d 89 37             	mov    %r14,(%r15)
  40633a:	4d 89 37             	mov    %r14,(%r15)
  40633d:	4d 89 37             	mov    %r14,(%r15)
  406340:	4d 89 37             	mov    %r14,(%r15)
  406343:	4d 89 37             	mov    %r14,(%r15)
  406346:	4d 89 37             	mov    %r14,(%r15)
  406349:	4d 89 37             	mov    %r14,(%r15)
  40634c:	4d 89 37             	mov    %r14,(%r15)
  40634f:	4d 89 37             	mov    %r14,(%r15)
  406352:	4d 89 37             	mov    %r14,(%r15)
  406355:	4d 89 37             	mov    %r14,(%r15)
  406358:	4d 89 37             	mov    %r14,(%r15)
  40635b:	4d 89 37             	mov    %r14,(%r15)
  40635e:	4d 89 37             	mov    %r14,(%r15)
  406361:	4d 89 37             	mov    %r14,(%r15)
  406364:	48 0f 6e c0          	movd   %rax,%mm0
  406368:	4d 31 e4             	xor    %r12,%r12
  40636b:	49 83 c4 01          	add    $0x1,%r12

000000000040636f <padd_loop>:
  40636f:	0f fd c8             	paddw  %mm0,%mm1
  406372:	0f fd d1             	paddw  %mm1,%mm2
  406375:	0f fd da             	paddw  %mm2,%mm3
  406378:	0f fd e3             	paddw  %mm3,%mm4
  40637b:	0f fd ec             	paddw  %mm4,%mm5
  40637e:	0f fd f5             	paddw  %mm5,%mm6
  406381:	0f fd fe             	paddw  %mm6,%mm7
  406384:	0f fd c7             	paddw  %mm7,%mm0
  406387:	49 ff cc             	dec    %r12
  40638a:	49 83 fc 00          	cmp    $0x0,%r12
  40638e:	75 df                	jne    40636f <padd_loop>
  406390:	4d 31 ff             	xor    %r15,%r15
  406393:	4d 01 f7             	add    %r14,%r15
  406396:	48 83 f8 00          	cmp    $0x0,%rax
  40639a:	0f 85 6c 02 00 00    	jne    40660c <loop_wrong_int>
  4063a0:	48 83 fb 00          	cmp    $0x0,%rbx
  4063a4:	0f 85 62 02 00 00    	jne    40660c <loop_wrong_int>
  4063aa:	48 83 f9 00          	cmp    $0x0,%rcx
  4063ae:	0f 85 58 02 00 00    	jne    40660c <loop_wrong_int>
  4063b4:	48 83 fa 00          	cmp    $0x0,%rdx
  4063b8:	0f 85 4e 02 00 00    	jne    40660c <loop_wrong_int>
  4063be:	48 83 ff 00          	cmp    $0x0,%rdi
  4063c2:	0f 85 44 02 00 00    	jne    40660c <loop_wrong_int>
  4063c8:	48 83 fe 00          	cmp    $0x0,%rsi
  4063cc:	0f 85 3a 02 00 00    	jne    40660c <loop_wrong_int>
  4063d2:	48 83 fd 00          	cmp    $0x0,%rbp
  4063d6:	0f 85 30 02 00 00    	jne    40660c <loop_wrong_int>
  4063dc:	49 83 f8 00          	cmp    $0x0,%r8
  4063e0:	0f 85 26 02 00 00    	jne    40660c <loop_wrong_int>
  4063e6:	49 83 f9 00          	cmp    $0x0,%r9
  4063ea:	0f 85 1c 02 00 00    	jne    40660c <loop_wrong_int>
  4063f0:	49 83 fc 00          	cmp    $0x0,%r12
  4063f4:	0f 85 12 02 00 00    	jne    40660c <loop_wrong_int>
  4063fa:	49 83 fd 00          	cmp    $0x0,%r13
  4063fe:	0f 85 08 02 00 00    	jne    40660c <loop_wrong_int>
  406404:	4d 39 fe             	cmp    %r15,%r14
  406407:	0f 85 ff 01 00 00    	jne    40660c <loop_wrong_int>
  40640d:	0f 56 c1             	orps   %xmm1,%xmm0
  406410:	0f 56 c2             	orps   %xmm2,%xmm0
  406413:	0f 56 c3             	orps   %xmm3,%xmm0
  406416:	0f 56 c4             	orps   %xmm4,%xmm0
  406419:	0f 56 c5             	orps   %xmm5,%xmm0
  40641c:	0f 56 c6             	orps   %xmm6,%xmm0
  40641f:	0f 56 c7             	orps   %xmm7,%xmm0
  406422:	41 0f 56 c0          	orps   %xmm8,%xmm0
  406426:	41 0f 56 c1          	orps   %xmm9,%xmm0
  40642a:	41 0f 56 c2          	orps   %xmm10,%xmm0
  40642e:	41 0f 56 c3          	orps   %xmm11,%xmm0
  406432:	41 0f 56 c4          	orps   %xmm12,%xmm0
  406436:	41 0f 56 c5          	orps   %xmm13,%xmm0
  40643a:	41 0f 56 c6          	orps   %xmm14,%xmm0
  40643e:	41 0f 56 c7          	orps   %xmm15,%xmm0
  406442:	66 0f c5 c0 00       	pextrw $0x0,%xmm0,%eax
  406447:	83 f8 00             	cmp    $0x0,%eax
  40644a:	0f 85 d7 01 00 00    	jne    406627 <loop_wrong_fp>
  406450:	66 0f c5 c0 01       	pextrw $0x1,%xmm0,%eax
  406455:	83 f8 00             	cmp    $0x0,%eax
  406458:	0f 85 c9 01 00 00    	jne    406627 <loop_wrong_fp>
  40645e:	66 0f c5 c0 02       	pextrw $0x2,%xmm0,%eax
  406463:	83 f8 00             	cmp    $0x0,%eax
  406466:	0f 85 bb 01 00 00    	jne    406627 <loop_wrong_fp>
  40646c:	66 0f c5 c0 03       	pextrw $0x3,%xmm0,%eax
  406471:	83 f8 00             	cmp    $0x0,%eax
  406474:	0f 85 ad 01 00 00    	jne    406627 <loop_wrong_fp>
  40647a:	66 0f c5 c0 04       	pextrw $0x4,%xmm0,%eax
  40647f:	83 f8 00             	cmp    $0x0,%eax
  406482:	0f 85 9f 01 00 00    	jne    406627 <loop_wrong_fp>
  406488:	66 0f c5 c0 05       	pextrw $0x5,%xmm0,%eax
  40648d:	83 f8 00             	cmp    $0x0,%eax
  406490:	0f 85 91 01 00 00    	jne    406627 <loop_wrong_fp>
  406496:	66 0f c5 c0 06       	pextrw $0x6,%xmm0,%eax
  40649b:	83 f8 00             	cmp    $0x0,%eax
  40649e:	0f 85 83 01 00 00    	jne    406627 <loop_wrong_fp>
  4064a4:	66 0f c5 c0 07       	pextrw $0x7,%xmm0,%eax
  4064a9:	83 f8 00             	cmp    $0x0,%eax
  4064ac:	0f 85 75 01 00 00    	jne    406627 <loop_wrong_fp>
  4064b2:	4d 8b 22             	mov    (%r10),%r12
  4064b5:	4d 39 fc             	cmp    %r15,%r12
  4064b8:	0f 85 84 01 00 00    	jne    406642 <loop_wrong_mem>
  4064be:	49 83 c2 08          	add    $0x8,%r10
  4064c2:	4d 8b 22             	mov    (%r10),%r12
  4064c5:	4d 39 fc             	cmp    %r15,%r12
  4064c8:	0f 85 74 01 00 00    	jne    406642 <loop_wrong_mem>
  4064ce:	49 83 c2 08          	add    $0x8,%r10
  4064d2:	4d 8b 22             	mov    (%r10),%r12
  4064d5:	4d 39 fc             	cmp    %r15,%r12
  4064d8:	0f 85 64 01 00 00    	jne    406642 <loop_wrong_mem>
  4064de:	49 83 c2 08          	add    $0x8,%r10
  4064e2:	4d 8b 22             	mov    (%r10),%r12
  4064e5:	4d 39 fc             	cmp    %r15,%r12
  4064e8:	0f 85 54 01 00 00    	jne    406642 <loop_wrong_mem>
  4064ee:	49 83 c2 08          	add    $0x8,%r10
  4064f2:	4d 8b 22             	mov    (%r10),%r12
  4064f5:	4d 39 fc             	cmp    %r15,%r12
  4064f8:	0f 85 44 01 00 00    	jne    406642 <loop_wrong_mem>
  4064fe:	49 83 c2 08          	add    $0x8,%r10
  406502:	4d 8b 22             	mov    (%r10),%r12
  406505:	4d 39 fc             	cmp    %r15,%r12
  406508:	0f 85 34 01 00 00    	jne    406642 <loop_wrong_mem>
  40650e:	49 83 c2 08          	add    $0x8,%r10
  406512:	4d 8b 22             	mov    (%r10),%r12
  406515:	4d 39 fc             	cmp    %r15,%r12
  406518:	0f 85 24 01 00 00    	jne    406642 <loop_wrong_mem>
  40651e:	49 83 c2 08          	add    $0x8,%r10
  406522:	4d 8b 22             	mov    (%r10),%r12
  406525:	4d 39 fc             	cmp    %r15,%r12
  406528:	0f 85 14 01 00 00    	jne    406642 <loop_wrong_mem>
  40652e:	49 83 c2 08          	add    $0x8,%r10
  406532:	4d 8b 22             	mov    (%r10),%r12
  406535:	4d 39 fc             	cmp    %r15,%r12
  406538:	0f 85 04 01 00 00    	jne    406642 <loop_wrong_mem>
  40653e:	49 83 c2 08          	add    $0x8,%r10
  406542:	4d 8b 22             	mov    (%r10),%r12
  406545:	4d 39 fc             	cmp    %r15,%r12
  406548:	0f 85 f4 00 00 00    	jne    406642 <loop_wrong_mem>
  40654e:	49 83 c2 08          	add    $0x8,%r10
  406552:	4d 8b 22             	mov    (%r10),%r12
  406555:	4d 39 fc             	cmp    %r15,%r12
  406558:	0f 85 e4 00 00 00    	jne    406642 <loop_wrong_mem>
  40655e:	49 83 c2 08          	add    $0x8,%r10
  406562:	4d 8b 22             	mov    (%r10),%r12
  406565:	4d 39 fc             	cmp    %r15,%r12
  406568:	0f 85 d4 00 00 00    	jne    406642 <loop_wrong_mem>
  40656e:	49 83 c2 08          	add    $0x8,%r10
  406572:	4d 8b 22             	mov    (%r10),%r12
  406575:	4d 39 fc             	cmp    %r15,%r12
  406578:	0f 85 c4 00 00 00    	jne    406642 <loop_wrong_mem>
  40657e:	49 83 c2 08          	add    $0x8,%r10
  406582:	4d 8b 22             	mov    (%r10),%r12
  406585:	4d 39 fc             	cmp    %r15,%r12
  406588:	0f 85 b4 00 00 00    	jne    406642 <loop_wrong_mem>
  40658e:	49 83 c2 08          	add    $0x8,%r10
  406592:	4d 8b 22             	mov    (%r10),%r12
  406595:	4d 39 fc             	cmp    %r15,%r12
  406598:	0f 85 a4 00 00 00    	jne    406642 <loop_wrong_mem>
  40659e:	49 83 c2 08          	add    $0x8,%r10
  4065a2:	4d 8b 22             	mov    (%r10),%r12
  4065a5:	4d 39 fc             	cmp    %r15,%r12
  4065a8:	0f 85 94 00 00 00    	jne    406642 <loop_wrong_mem>
  4065ae:	49 83 c2 08          	add    $0x8,%r10
  4065b2:	0f eb c1             	por    %mm1,%mm0
  4065b5:	0f eb c2             	por    %mm2,%mm0
  4065b8:	0f eb c3             	por    %mm3,%mm0
  4065bb:	0f eb c4             	por    %mm4,%mm0
  4065be:	0f eb c5             	por    %mm5,%mm0
  4065c1:	0f eb c6             	por    %mm6,%mm0
  4065c4:	0f eb c7             	por    %mm7,%mm0
  4065c7:	0f c5 c0 00          	pextrw $0x0,%mm0,%eax
  4065cb:	83 f8 00             	cmp    $0x0,%eax
  4065ce:	75 57                	jne    406627 <loop_wrong_fp>
  4065d0:	0f c5 c0 01          	pextrw $0x1,%mm0,%eax
  4065d4:	83 f8 00             	cmp    $0x0,%eax
  4065d7:	75 4e                	jne    406627 <loop_wrong_fp>
  4065d9:	0f c5 c0 02          	pextrw $0x2,%mm0,%eax
  4065dd:	83 f8 00             	cmp    $0x0,%eax
  4065e0:	75 45                	jne    406627 <loop_wrong_fp>
  4065e2:	0f c5 c0 03          	pextrw $0x3,%mm0,%eax
  4065e6:	83 f8 00             	cmp    $0x0,%eax
  4065e9:	75 3c                	jne    406627 <loop_wrong_fp>
  4065eb:	49 ff cb             	dec    %r11
  4065ee:	49 83 fb 00          	cmp    $0x0,%r11
  4065f2:	0f 85 72 fb ff ff    	jne    40616a <loop_main>
  4065f8:	48 31 c0             	xor    %rax,%rax
  4065fb:	4c 01 f0             	add    %r14,%rax
  4065fe:	48 c1 e8 0a          	shr    $0xa,%rax
  406602:	66 ba f8 03          	mov    $0x3f8,%dx
  406606:	ee                   	out    %al,(%dx)
  406607:	e9 48 fb ff ff       	jmpq   406154 <loop_outer>

000000000040660c <loop_wrong_int>:
  40660c:	48 31 c0             	xor    %rax,%rax
  40660f:	4c 01 f0             	add    %r14,%rax
  406612:	48 c1 e8 0a          	shr    $0xa,%rax
  406616:	48 31 db             	xor    %rbx,%rbx
  406619:	48 83 c3 01          	add    $0x1,%rbx
  40661d:	48 09 d8             	or     %rbx,%rax
  406620:	66 ba f8 03          	mov    $0x3f8,%dx
  406624:	ee                   	out    %al,(%dx)
  406625:	eb 36                	jmp    40665d <loop_exit>

0000000000406627 <loop_wrong_fp>:
  406627:	48 31 c0             	xor    %rax,%rax
  40662a:	4c 01 f0             	add    %r14,%rax
  40662d:	48 c1 e8 0a          	shr    $0xa,%rax
  406631:	48 31 db             	xor    %rbx,%rbx
  406634:	48 83 c3 02          	add    $0x2,%rbx
  406638:	48 09 d8             	or     %rbx,%rax
  40663b:	66 ba f8 03          	mov    $0x3f8,%dx
  40663f:	ee                   	out    %al,(%dx)
  406640:	eb 1b                	jmp    40665d <loop_exit>

0000000000406642 <loop_wrong_mem>:
  406642:	48 31 c0             	xor    %rax,%rax
  406645:	4c 01 f0             	add    %r14,%rax
  406648:	48 c1 e8 0a          	shr    $0xa,%rax
  40664c:	48 31 db             	xor    %rbx,%rbx
  40664f:	48 83 c3 03          	add    $0x3,%rbx
  406653:	48 09 d8             	or     %rbx,%rax
  406656:	66 ba f8 03          	mov    $0x3f8,%dx
  40665a:	ee                   	out    %al,(%dx)
  40665b:	eb 00                	jmp    40665d <loop_exit>

000000000040665d <loop_exit>:
  40665d:	90                   	nop    

000000000040665e <end_loop>:
  40665e:	90                   	nop    
  40665f:	eb fd                	jmp    40665e <end_loop>

0000000000406661 <msg_correct>:
  406661:	43 6f                	rex.XB outsl  %ds:(%rsi),(%dx)
  406663:	72 72                	jb     4066d7 <msg_wrong_mem+0x3e>
  406665:	65 63 74 0a 00       	movslq %gs:0x0(%rdx,%rcx,1),%esi

000000000040666a <msg_wrong_int>:
  40666a:	49 6e                	rex.WB outsb  %ds:(%rsi),(%dx)
  40666c:	63 6f 72             	movslq 0x72(%rdi),%ebp
  40666f:	72 65                	jb     4066d6 <msg_wrong_mem+0x3d>
  406671:	63 74 3a 20          	movslq 0x20(%rdx,%rdi,1),%esi
  406675:	49 6e                	rex.WB outsb  %ds:(%rsi),(%dx)
  406677:	74 65                	je     4066de <msg_wrong_mem+0x45>
  406679:	67                   	addr32
  40667a:	65                   	gs
  40667b:	72 0a                	jb     406687 <msg_wrong_fp+0x9>
	...

000000000040667e <msg_wrong_fp>:
  40667e:	49 6e                	rex.WB outsb  %ds:(%rsi),(%dx)
  406680:	63 6f 72             	movslq 0x72(%rdi),%ebp
  406683:	72 65                	jb     4066ea <msg_wrong_mem+0x51>
  406685:	63 74 3a 20          	movslq 0x20(%rdx,%rdi,1),%esi
  406689:	46 6c                	rex.RX insb   (%dx),%es:(%rdi)
  40668b:	6f                   	outsl  %ds:(%rsi),(%dx)
  40668c:	61                   	(bad)  
  40668d:	74 69                	je     4066f8 <msg_wrong_mem+0x5f>
  40668f:	6e                   	outsb  %ds:(%rsi),(%dx)
  406690:	67 20 70 6f          	addr32 and %dh,0x6f(%eax)
  406694:	69 6e 74 0a 00 49 6e 	imul   $0x6e49000a,0x74(%rsi),%ebp

0000000000406699 <msg_wrong_mem>:
  406699:	49 6e                	rex.WB outsb  %ds:(%rsi),(%dx)
  40669b:	63 6f 72             	movslq 0x72(%rdi),%ebp
  40669e:	72 65                	jb     406705 <msg_wrong_mem+0x6c>
  4066a0:	63 74 3a 20          	movslq 0x20(%rdx,%rdi,1),%esi
  4066a4:	4d                   	rex.WRB
  4066a5:	65                   	gs
  4066a6:	6d                   	insl   (%dx),%es:(%rdi)
  4066a7:	6f                   	outsl  %ds:(%rsi),(%dx)
  4066a8:	72 79                	jb     406723 <msg_wrong_mem+0x8a>
  4066aa:	20 0a                	and    %cl,(%rdx)
	...