
stupid.l:     file format elf64-x86-64

Disassembly of section .init:

000000000000b518 <_init>:
    b518:	48 83 ec 08          	sub    $0x8,%rsp
    b51c:	e8 13 01 00 00       	callq  b634 <_start+0x34>
    b521:	e8 72 01 00 00       	callq  b698 <_start+0x98>
    b526:	e8 1d 25 00 00       	callq  da48 <__libc_csu_init+0x98>
    b52b:	48 83 c4 08          	add    $0x8,%rsp
    b52f:	c3                   	retq   
Disassembly of section .plt:

000000000000b530 <__libc_start_main@plt-0x10>:
    b530:	ff 35 3a 3e 10 00    	pushq  1064506(%rip)        # 10f370 <_IO_stdin_used+0x1018d0>
    b536:	ff 25 3c 3e 10 00    	jmpq   *1064508(%rip)        # 10f378 <_IO_stdin_used+0x1018d8>
    b53c:	90                   	nop    
    b53d:	90                   	nop    
    b53e:	90                   	nop    
    b53f:	90                   	nop    

000000000000b540 <__libc_start_main@plt>:
    b540:	ff 25 3a 3e 10 00    	jmpq   *1064506(%rip)        # 10f380 <_IO_stdin_used+0x1018e0>
    b546:	68 00 00 00 00       	pushq  $0x0
    b54b:	e9 e0 ff ff ff       	jmpq   b530 <_init+0x18>

000000000000b550 <catgets@plt>:
    b550:	ff 25 32 3e 10 00    	jmpq   *1064498(%rip)        # 10f388 <_IO_stdin_used+0x1018e8>
    b556:	68 01 00 00 00       	pushq  $0x1
    b55b:	e9 d0 ff ff ff       	jmpq   b530 <_init+0x18>

000000000000b560 <vsprintf@plt>:
    b560:	ff 25 2a 3e 10 00    	jmpq   *1064490(%rip)        # 10f390 <_IO_stdin_used+0x1018f0>
    b566:	68 02 00 00 00       	pushq  $0x2
    b56b:	e9 c0 ff ff ff       	jmpq   b530 <_init+0x18>

000000000000b570 <getenv@plt>:
    b570:	ff 25 22 3e 10 00    	jmpq   *1064482(%rip)        # 10f398 <_IO_stdin_used+0x1018f8>
    b576:	68 03 00 00 00       	pushq  $0x3
    b57b:	e9 b0 ff ff ff       	jmpq   b530 <_init+0x18>

000000000000b580 <strncpy@plt>:
    b580:	ff 25 1a 3e 10 00    	jmpq   *1064474(%rip)        # 10f3a0 <_IO_stdin_used+0x101900>
    b586:	68 04 00 00 00       	pushq  $0x4
    b58b:	e9 a0 ff ff ff       	jmpq   b530 <_init+0x18>

000000000000b590 <setenv@plt>:
    b590:	ff 25 12 3e 10 00    	jmpq   *1064466(%rip)        # 10f3a8 <_IO_stdin_used+0x101908>
    b596:	68 05 00 00 00       	pushq  $0x5
    b59b:	e9 90 ff ff ff       	jmpq   b530 <_init+0x18>

000000000000b5a0 <fprintf@plt>:
    b5a0:	ff 25 0a 3e 10 00    	jmpq   *1064458(%rip)        # 10f3b0 <_IO_stdin_used+0x101910>
    b5a6:	68 06 00 00 00       	pushq  $0x6
    b5ab:	e9 80 ff ff ff       	jmpq   b530 <_init+0x18>

000000000000b5b0 <printf@plt>:
    b5b0:	ff 25 02 3e 10 00    	jmpq   *1064450(%rip)        # 10f3b8 <_IO_stdin_used+0x101918>
    b5b6:	68 07 00 00 00       	pushq  $0x7
    b5bb:	e9 70 ff ff ff       	jmpq   b530 <_init+0x18>

000000000000b5c0 <catopen@plt>:
    b5c0:	ff 25 fa 3d 10 00    	jmpq   *1064442(%rip)        # 10f3c0 <_IO_stdin_used+0x101920>
    b5c6:	68 08 00 00 00       	pushq  $0x8
    b5cb:	e9 60 ff ff ff       	jmpq   b530 <_init+0x18>

000000000000b5d0 <strchr@plt>:
    b5d0:	ff 25 f2 3d 10 00    	jmpq   *1064434(%rip)        # 10f3c8 <_IO_stdin_used+0x101928>
    b5d6:	68 09 00 00 00       	pushq  $0x9
    b5db:	e9 50 ff ff ff       	jmpq   b530 <_init+0x18>

000000000000b5e0 <memset@plt>:
    b5e0:	ff 25 ea 3d 10 00    	jmpq   *1064426(%rip)        # 10f3d0 <_IO_stdin_used+0x101930>
    b5e6:	68 0a 00 00 00       	pushq  $0xa
    b5eb:	e9 40 ff ff ff       	jmpq   b530 <_init+0x18>

000000000000b5f0 <exit@plt>:
    b5f0:	ff 25 e2 3d 10 00    	jmpq   *1064418(%rip)        # 10f3d8 <_IO_stdin_used+0x101938>
    b5f6:	68 0b 00 00 00       	pushq  $0xb
    b5fb:	e9 30 ff ff ff       	jmpq   b530 <_init+0x18>
Disassembly of section .text:

000000000000b600 <_start>:
    b600:	31 ed                	xor    %ebp,%ebp
    b602:	49 89 d1             	mov    %rdx,%r9
    b605:	5e                   	pop    %rsi
    b606:	48 89 e2             	mov    %rsp,%rdx
    b609:	48 83 e4 f0          	and    $0xfffffffffffffff0,%rsp
    b60d:	50                   	push   %rax
    b60e:	54                   	push   %rsp
    b60f:	49 c7 c0 e0 2b 40 00 	mov    $0x402be0,%r8
    b616:	48 c7 c1 f0 2b 40 00 	mov    $0x402bf0,%rcx
    b61d:	48 c7 c7 00 09 40 00 	mov    $0x400900,%rdi
    b624:	e8 0f ff ff ff       	callq  b538 <_init+0x20>
    b629:	f4                   	hlt    
    b62a:	90                   	nop    
    b62b:	90                   	nop    
    b62c:	48 83 ec 08          	sub    $0x8,%rsp
    b630:	48 8b 05 21 3d 10 00 	mov    1064225(%rip),%rax        # 10f358 <_IO_stdin_used+0x1018b8>
    b637:	48 85 c0             	test   %rax,%rax
    b63a:	74 02                	je     b63e <_start+0x3e>
    b63c:	ff d0                	callq  *%rax
    b63e:	48 83 c4 08          	add    $0x8,%rsp
    b642:	c3                   	retq   
    b643:	90                   	nop    
    b644:	90                   	nop    
    b645:	90                   	nop    
    b646:	90                   	nop    
    b647:	90                   	nop    
    b648:	90                   	nop    
    b649:	90                   	nop    
    b64a:	90                   	nop    
    b64b:	90                   	nop    
    b64c:	90                   	nop    
    b64d:	90                   	nop    
    b64e:	90                   	nop    
    b64f:	90                   	nop    
    b650:	80 3d 09 41 10 00 00 	cmpb   $0x0,1065225(%rip)        # 10f760 <__bss_start>
    b657:	55                   	push   %rbp
    b658:	48 89 e5             	mov    %rsp,%rbp
    b65b:	74 10                	je     b66d <_start+0x6d>
    b65d:	eb 24                	jmp    b683 <_start+0x83>
    b65f:	90                   	nop    
    b660:	48 83 c0 08          	add    $0x8,%rax
    b664:	48 89 05 85 3d 10 00 	mov    %rax,1064325(%rip)        # 10f3f0 <__dso_handle+0x8>
    b66b:	ff d2                	callq  *%rdx
    b66d:	48 8b 05 7c 3d 10 00 	mov    1064316(%rip),%rax        # 10f3f0 <__dso_handle+0x8>
    b674:	48 8b 10             	mov    (%rax),%rdx
    b677:	48 85 d2             	test   %rdx,%rdx
    b67a:	75 e4                	jne    b660 <_start+0x60>
    b67c:	c6 05 dd 40 10 00 01 	movb   $0x1,1065181(%rip)        # 10f760 <__bss_start>
    b683:	c9                   	leaveq 
    b684:	c3                   	retq   
    b685:	66 66 66 90          	xchg   %ax,%ax
    b689:	66 66 66 90          	xchg   %ax,%ax
    b68d:	66 66 90             	xchg   %ax,%ax
    b690:	55                   	push   %rbp
    b691:	48 83 3d df 3a 10 00 	cmpq   $0x0,1063647(%rip)        # 10f178 <_IO_stdin_used+0x1016d8>
    b698:	00 
    b699:	48 89 e5             	mov    %rsp,%rbp
    b69c:	74 1a                	je     b6b8 <_start+0xb8>
    b69e:	48 8b 05 ab 3c 10 00 	mov    1064107(%rip),%rax        # 10f350 <_IO_stdin_used+0x1018b0>
    b6a5:	48 85 c0             	test   %rax,%rax
    b6a8:	74 0e                	je     b6b8 <_start+0xb8>
    b6aa:	48 8d 3d c7 3a 10 00 	lea    1063623(%rip),%rdi        # 10f178 <_IO_stdin_used+0x1016d8>
    b6b1:	49 89 c3             	mov    %rax,%r11
    b6b4:	c9                   	leaveq 
    b6b5:	41 ff e3             	jmpq   *%r11
    b6b8:	c9                   	leaveq 
    b6b9:	c3                   	retq   
    b6ba:	90                   	nop    
    b6bb:	90                   	nop    
    b6bc:	90                   	nop    
    b6bd:	90                   	nop    
    b6be:	90                   	nop    
    b6bf:	90                   	nop    

000000000000b6c0 <main>:
    b6c0:	55                   	push   %rbp
    b6c1:	48 89 e5             	mov    %rsp,%rbp
    b6c4:	48 83 e4 80          	and    $0xffffffffffffff80,%rsp
    b6c8:	48 81 ec 80 00 00 00 	sub    $0x80,%rsp
    b6cf:	bf 03 00 00 00       	mov    $0x3,%edi
    b6d4:	e8 f7 1c 00 00       	callq  d3d0 <__intel_new_proc_init>
    b6d9:	0f ae 1c 24          	stmxcsr (%rsp)
    b6dd:	81 0c 24 40 80 00 00 	orl    $0x8040,(%rsp)
    b6e4:	0f ae 14 24          	ldmxcsr (%rsp)
    b6e8:	48 31 db             	xor    %rbx,%rbx
    b6eb:	31 c0                	xor    %eax,%eax
    b6ed:	b8 01 00 00 00       	mov    $0x1,%eax
    b6f2:	0f a2                	cpuid  
    b6f4:	c1 eb 18             	shr    $0x18,%ebx
    b6f7:	48 31 c9             	xor    %rcx,%rcx
    b6fa:	48 01 d9             	add    %rbx,%rcx
    b6fd:	48 c1 e1 19          	shl    $0x19,%rcx
    b701:	48 83 c1 07          	add    $0x7,%rcx
    b705:	90                   	nop    
    b706:	e2 fd                	loop   b705 <main+0x45>
    b708:	f2 0f 10 35 98 23 00 	movsd  9112(%rip),%xmm6        # daa8 <_IO_stdin_used+0x8>
    b70f:	00 
    b710:	f2 0f 10 2d 98 23 00 	movsd  9112(%rip),%xmm5        # dab0 <_IO_stdin_used+0x10>
    b717:	00 
    b718:	f2 0f 10 25 c0 23 00 	movsd  9152(%rip),%xmm4        # dae0 <_IO_stdin_used+0x40>
    b71f:	00 
    b720:	f2 0f 10 1d 90 23 00 	movsd  9104(%rip),%xmm3        # dab8 <_IO_stdin_used+0x18>
    b727:	00 
    b728:	31 db                	xor    %ebx,%ebx
    b72a:	f2 0f 10 15 8e 23 00 	movsd  9102(%rip),%xmm2        # dac0 <_IO_stdin_used+0x20>
    b731:	00 
    b732:	f2 0f 10 0d 8e 23 00 	movsd  9102(%rip),%xmm1        # dac8 <_IO_stdin_used+0x28>
    b739:	00 
    b73a:	f2 0f 10 05 8e 23 00 	movsd  9102(%rip),%xmm0        # dad0 <_IO_stdin_used+0x30>
    b741:	00 
    b742:	f2 0f 10 3d 8e 23 00 	movsd  9102(%rip),%xmm7        # dad8 <_IO_stdin_used+0x38>
    b749:	00 
    b74a:	f2 44 0f 10 1d 55 23 	movsd  9045(%rip),%xmm11        # daa8 <_IO_stdin_used+0x8>
    b751:	00 00 
    b753:	45 0f 28 eb          	movaps %xmm11,%xmm13
    b757:	41 0f 28 e3          	movaps %xmm11,%xmm4
    b75b:	f2 0f 10 1d 75 23 00 	movsd  9077(%rip),%xmm3        # dad8 <_IO_stdin_used+0x38>
    b762:	00 
    b763:	31 c0                	xor    %eax,%eax
    b765:	66 0f ef d2          	pxor   %xmm2,%xmm2
    b769:	f2 44 0f 10 0d 5e 23 	movsd  9054(%rip),%xmm9        # dad0 <_IO_stdin_used+0x30>
    b770:	00 00 
    b772:	f2 44 0f 10 15 4d 23 	movsd  9037(%rip),%xmm10        # dac8 <_IO_stdin_used+0x28>
    b779:	00 00 
    b77b:	f2 44 0f 10 35 3c 23 	movsd  9020(%rip),%xmm14        # dac0 <_IO_stdin_used+0x20>
    b782:	00 00 
    b784:	f2 44 0f 10 3d 2b 23 	movsd  9003(%rip),%xmm15        # dab8 <_IO_stdin_used+0x18>
    b78b:	00 00 
    b78d:	f2 44 0f 10 05 4a 23 	movsd  9034(%rip),%xmm8        # dae0 <_IO_stdin_used+0x40>
    b794:	00 00 
    b796:	f2 44 0f 10 25 11 23 	movsd  8977(%rip),%xmm12        # dab0 <_IO_stdin_used+0x10>
    b79d:	00 00 
    b79f:	66 0f ef c9          	pxor   %xmm1,%xmm1
    b7a3:	66 0f ef c0          	pxor   %xmm0,%xmm0
    b7a7:	f2 0f 11 44 24 10    	movsd  %xmm0,0x10(%rsp)
    b7ad:	f2 0f 11 4c 24 08    	movsd  %xmm1,0x8(%rsp)
    b7b3:	f2 0f 11 14 24       	movsd  %xmm2,(%rsp)
    b7b8:	31 d2                	xor    %edx,%edx
    b7ba:	66 0f ef ff          	pxor   %xmm7,%xmm7
    b7be:	66 0f ef f6          	pxor   %xmm6,%xmm6
    b7c2:	66 0f ef ed          	pxor   %xmm5,%xmm5
    b7c6:	f2 0f 2a c2          	cvtsi2sd %edx,%xmm0
    b7ca:	f2 44 0f 11 5c 24 18 	movsd  %xmm11,0x18(%rsp)
    b7d1:	45 0f 28 d3          	movaps %xmm11,%xmm10
    b7d5:	f2 41 0f 59 c4       	mulsd  %xmm12,%xmm0
    b7da:	31 c9                	xor    %ecx,%ecx
    b7dc:	f2 44 0f 5c d0       	subsd  %xmm0,%xmm10
    b7e1:	45 0f 28 ca          	movaps %xmm10,%xmm9
    b7e5:	f2 45 0f 59 ca       	mulsd  %xmm10,%xmm9
    b7ea:	f2 0f 2a c1          	cvtsi2sd %ecx,%xmm0
    b7ee:	f2 44 0f 11 6c 24 20 	movsd  %xmm13,0x20(%rsp)
    b7f5:	41 0f 28 dd          	movaps %xmm13,%xmm3
    b7f9:	f2 41 0f 59 c4       	mulsd  %xmm12,%xmm0
    b7fe:	41 0f 28 c9          	movaps %xmm9,%xmm1
    b802:	31 f6                	xor    %esi,%esi
    b804:	f2 0f 5c d8          	subsd  %xmm0,%xmm3
    b808:	0f 28 d3             	movaps %xmm3,%xmm2
    b80b:	f2 0f 59 d3          	mulsd  %xmm3,%xmm2
    b80f:	f2 0f 58 ca          	addsd  %xmm2,%xmm1
    b813:	f2 0f 51 c1          	sqrtsd %xmm1,%xmm0
    b817:	f2 44 0f 2a e6       	cvtsi2sd %esi,%xmm12
    b81c:	f2 44 0f 59 25 8b 22 	mulsd  8843(%rip),%xmm12        # dab0 <_IO_stdin_used+0x10>
    b823:	00 00 
    b825:	f2 44 0f 11 54 24 28 	movsd  %xmm10,0x28(%rsp)
    b82c:	f2 0f 11 5c 24 30    	movsd  %xmm3,0x30(%rsp)
    b832:	44 0f 28 fc          	movaps %xmm4,%xmm15
    b836:	ff c6                	inc    %esi
    b838:	f2 45 0f 5c fc       	subsd  %xmm12,%xmm15
    b83d:	f2 44 0f 11 7c 24 38 	movsd  %xmm15,0x38(%rsp)
    b844:	45 0f 28 f7          	movaps %xmm15,%xmm14
    b848:	44 0f 28 e1          	movaps %xmm1,%xmm12
    b84c:	f2 45 0f 59 f7       	mulsd  %xmm15,%xmm14
    b851:	f2 45 0f 58 e6       	addsd  %xmm14,%xmm12
    b856:	81 64 24 2c ff ff ff 	andl   $0x7fffffff,0x2c(%rsp)
    b85d:	7f 
    b85e:	f2 45 0f 51 ec       	sqrtsd %xmm12,%xmm13
    b863:	45 0f 28 dd          	movaps %xmm13,%xmm11
    b867:	45 0f 28 e0          	movaps %xmm8,%xmm12
    b86b:	f2 45 0f 59 dd       	mulsd  %xmm13,%xmm11
    b870:	f2 45 0f 5e e3       	divsd  %xmm11,%xmm12
    b875:	44 0f 28 da          	movaps %xmm2,%xmm11
    b879:	f2 45 0f 58 de       	addsd  %xmm14,%xmm11
    b87e:	f2 45 0f 58 f1       	addsd  %xmm9,%xmm14
    b883:	81 64 24 34 ff ff ff 	andl   $0x7fffffff,0x34(%rsp)
    b88a:	7f 
    b88b:	f2 45 0f 51 db       	sqrtsd %xmm11,%xmm11
    b890:	f2 45 0f 5e dd       	divsd  %xmm13,%xmm11
    b895:	f2 45 0f 59 dc       	mulsd  %xmm12,%xmm11
    b89a:	f2 45 0f 59 da       	mulsd  %xmm10,%xmm11
    b89f:	f2 44 0f 5e 5c 24 28 	divsd  0x28(%rsp),%xmm11
    b8a6:	f2 45 0f 51 f6       	sqrtsd %xmm14,%xmm14
    b8ab:	f2 45 0f 5e f5       	divsd  %xmm13,%xmm14
    b8b0:	f2 45 0f 59 f4       	mulsd  %xmm12,%xmm14
    b8b5:	f2 44 0f 59 f3       	mulsd  %xmm3,%xmm14
    b8ba:	f2 44 0f 5e 74 24 30 	divsd  0x30(%rsp),%xmm14
    b8c1:	81 64 24 3c ff ff ff 	andl   $0x7fffffff,0x3c(%rsp)
    b8c8:	7f 
    b8c9:	f2 41 0f 58 fb       	addsd  %xmm11,%xmm7
    b8ce:	f2 41 0f 58 f6       	addsd  %xmm14,%xmm6
    b8d3:	44 0f 28 f0          	movaps %xmm0,%xmm14
    b8d7:	f2 45 0f 5e f5       	divsd  %xmm13,%xmm14
    b8dc:	f2 45 0f 59 e6       	mulsd  %xmm14,%xmm12
    b8e1:	f2 45 0f 59 e7       	mulsd  %xmm15,%xmm12
    b8e6:	f2 44 0f 5e 64 24 38 	divsd  0x38(%rsp),%xmm12
    b8ed:	83 fe 0a             	cmp    $0xa,%esi
    b8f0:	f2 41 0f 58 ec       	addsd  %xmm12,%xmm5
    b8f5:	0f 8c 1c ff ff ff    	jl     b817 <main+0x157>
    b8fb:	f2 44 0f 10 6c 24 20 	movsd  0x20(%rsp),%xmm13
    b902:	f2 44 0f 10 25 a5 21 	movsd  8613(%rip),%xmm12        # dab0 <_IO_stdin_used+0x10>
    b909:	00 00 
    b90b:	ff c1                	inc    %ecx
    b90d:	83 f9 0a             	cmp    $0xa,%ecx
    b910:	0f 8c d4 fe ff ff    	jl     b7ea <main+0x12a>
    b916:	f2 44 0f 10 5c 24 18 	movsd  0x18(%rsp),%xmm11
    b91d:	ff c2                	inc    %edx
    b91f:	83 fa 0a             	cmp    $0xa,%edx
    b922:	0f 8c 9e fe ff ff    	jl     b7c6 <main+0x106>
    b928:	f2 0f 10 44 24 10    	movsd  0x10(%rsp),%xmm0
    b92e:	f2 0f 10 4c 24 08    	movsd  0x8(%rsp),%xmm1
    b934:	f2 0f 10 14 24       	movsd  (%rsp),%xmm2
    b939:	f2 0f 10 1d 97 21 00 	movsd  8599(%rip),%xmm3        # dad8 <_IO_stdin_used+0x38>
    b940:	00 
    b941:	ff c0                	inc    %eax
    b943:	3d e8 03 00 00       	cmp    $0x3e8,%eax
    b948:	f2 44 0f 10 0d 7f 21 	movsd  8575(%rip),%xmm9        # dad0 <_IO_stdin_used+0x30>
    b94f:	00 00 
    b951:	f2 44 0f 10 15 6e 21 	movsd  8558(%rip),%xmm10        # dac8 <_IO_stdin_used+0x28>
    b958:	00 00 
    b95a:	f2 44 0f 10 35 5d 21 	movsd  8541(%rip),%xmm14        # dac0 <_IO_stdin_used+0x20>
    b961:	00 00 
    b963:	f2 44 0f 10 3d 4c 21 	movsd  8524(%rip),%xmm15        # dab8 <_IO_stdin_used+0x18>
    b96a:	00 00 
    b96c:	f2 41 0f 59 ff       	mulsd  %xmm15,%xmm7
    b971:	f2 41 0f 5e ff       	divsd  %xmm15,%xmm7
    b976:	f2 41 0f 59 f7       	mulsd  %xmm15,%xmm6
    b97b:	f2 41 0f 5e f7       	divsd  %xmm15,%xmm6
    b980:	f2 41 0f 59 ef       	mulsd  %xmm15,%xmm5
    b985:	f2 41 0f 5e ef       	divsd  %xmm15,%xmm5
    b98a:	f2 0f 58 fa          	addsd  %xmm2,%xmm7
    b98e:	f2 0f 58 f1          	addsd  %xmm1,%xmm6
    b992:	f2 0f 58 e8          	addsd  %xmm0,%xmm5
    b996:	f2 0f 58 d7          	addsd  %xmm7,%xmm2
    b99a:	f2 41 0f 59 d6       	mulsd  %xmm14,%xmm2
    b99f:	f2 0f 59 fb          	mulsd  %xmm3,%xmm7
    b9a3:	f2 0f 58 ce          	addsd  %xmm6,%xmm1
    b9a7:	f2 41 0f 59 ce       	mulsd  %xmm14,%xmm1
    b9ac:	f2 0f 59 f3          	mulsd  %xmm3,%xmm6
    b9b0:	f2 44 0f 58 da       	addsd  %xmm2,%xmm11
    b9b5:	f2 44 0f 58 e9       	addsd  %xmm1,%xmm13
    b9ba:	f2 0f 58 c5          	addsd  %xmm5,%xmm0
    b9be:	f2 41 0f 59 c6       	mulsd  %xmm14,%xmm0
    b9c3:	f2 0f 59 eb          	mulsd  %xmm3,%xmm5
    b9c7:	f2 41 0f 58 f9       	addsd  %xmm9,%xmm7
    b9cc:	f2 0f 58 e0          	addsd  %xmm0,%xmm4
    b9d0:	f2 41 0f 58 f1       	addsd  %xmm9,%xmm6
    b9d5:	f2 41 0f 58 e9       	addsd  %xmm9,%xmm5
    b9da:	f2 0f 2c d7          	cvttsd2si %xmm7,%edx
    b9de:	f2 0f 2a d2          	cvtsi2sd %edx,%xmm2
    b9e2:	f2 41 0f 59 d2       	mulsd  %xmm10,%xmm2
    b9e7:	f2 0f 2c ce          	cvttsd2si %xmm6,%ecx
    b9eb:	f2 0f 2a c9          	cvtsi2sd %ecx,%xmm1
    b9ef:	f2 41 0f 59 ca       	mulsd  %xmm10,%xmm1
    b9f4:	f2 0f 2c f5          	cvttsd2si %xmm5,%esi
    b9f8:	f2 0f 2a c6          	cvtsi2sd %esi,%xmm0
    b9fc:	f2 41 0f 59 c2       	mulsd  %xmm10,%xmm0
    ba01:	0f 8c a0 fd ff ff    	jl     b7a7 <main+0xe7>
    ba07:	66 44 0f 2e 1d 98 20 	ucomisd 8344(%rip),%xmm11        # daa8 <_IO_stdin_used+0x8>
    ba0e:	00 00 
    ba10:	7a 02                	jp     ba14 <main+0x354>
    ba12:	74 1d                	je     ba31 <main+0x371>
    ba14:	31 c0                	xor    %eax,%eax
    ba16:	b8 01 00 00 00       	mov    $0x1,%eax
    ba1b:	0f a2                	cpuid  
    ba1d:	c1 eb 18             	shr    $0x18,%ebx
    ba20:	31 c0                	xor    %eax,%eax
    ba22:	01 d8                	add    %ebx,%eax
    ba24:	c1 e0 02             	shl    $0x2,%eax
    ba27:	66 ba f8 03          	mov    $0x3f8,%dx
    ba2b:	83 c0 01             	add    $0x1,%eax
    ba2e:	ee                   	out    %al,(%dx)
    ba2f:	eb 1a                	jmp    ba4b <main+0x38b>
    ba31:	31 c0                	xor    %eax,%eax
    ba33:	b8 01 00 00 00       	mov    $0x1,%eax
    ba38:	0f a2                	cpuid  
    ba3a:	c1 eb 18             	shr    $0x18,%ebx
    ba3d:	31 c0                	xor    %eax,%eax
    ba3f:	01 d8                	add    %ebx,%eax
    ba41:	c1 e0 02             	shl    $0x2,%eax
    ba44:	66 ba f8 03          	mov    $0x3f8,%dx
    ba48:	ee                   	out    %al,(%dx)
    ba49:	31 db                	xor    %ebx,%ebx
    ba4b:	ff c3                	inc    %ebx
    ba4d:	81 fb a0 86 01 00    	cmp    $0x186a0,%ebx
    ba53:	0f 8c f1 fc ff ff    	jl     b74a <main+0x8a>
    ba59:	e9 aa fc ff ff       	jmpq   b708 <main+0x48>
    ba5e:	66 90                	xchg   %ax,%ax

000000000000ba60 <main_test>:
    ba60:	56                   	push   %rsi
    ba61:	e8 0a 00 00 00       	callq  ba70 <lattice>
    ba66:	31 c0                	xor    %eax,%eax
    ba68:	59                   	pop    %rcx
    ba69:	c3                   	retq   
    ba6a:	66 66 90             	xchg   %ax,%ax
    ba6d:	66 66 90             	xchg   %ax,%ax

000000000000ba70 <lattice>:
    ba70:	55                   	push   %rbp
    ba71:	48 89 e5             	mov    %rsp,%rbp
    ba74:	48 81 ec b0 00 00 00 	sub    $0xb0,%rsp
    ba7b:	f2 0f 10 2d 65 20 00 	movsd  8293(%rip),%xmm5        # dae8 <_IO_stdin_used+0x48>
    ba82:	00 
    ba83:	f2 0f 10 25 65 20 00 	movsd  8293(%rip),%xmm4        # daf0 <_IO_stdin_used+0x50>
    ba8a:	00 
    ba8b:	f2 0f 10 1d 65 20 00 	movsd  8293(%rip),%xmm3        # daf8 <_IO_stdin_used+0x58>
    ba92:	00 
    ba93:	f2 0f 10 15 65 20 00 	movsd  8293(%rip),%xmm2        # db00 <_IO_stdin_used+0x60>
    ba9a:	00 
    ba9b:	f2 0f 10 0d 65 20 00 	movsd  8293(%rip),%xmm1        # db08 <_IO_stdin_used+0x68>
    baa2:	00 
    baa3:	f2 0f 10 05 65 20 00 	movsd  8293(%rip),%xmm0        # db10 <_IO_stdin_used+0x70>
    baaa:	00 
    baab:	f2 0f 10 35 65 20 00 	movsd  8293(%rip),%xmm6        # db18 <_IO_stdin_used+0x78>
    bab2:	00 
    bab3:	31 db                	xor    %ebx,%ebx
    bab5:	f2 0f 10 05 2b 20 00 	movsd  8235(%rip),%xmm0        # dae8 <_IO_stdin_used+0x48>
    babc:	00 
    babd:	0f 28 c8             	movaps %xmm0,%xmm1
    bac0:	0f 28 f0             	movaps %xmm0,%xmm6
    bac3:	f2 44 0f 10 15 4c 20 	movsd  8268(%rip),%xmm10        # db18 <_IO_stdin_used+0x78>
    baca:	00 00 
    bacc:	45 31 e4             	xor    %r12d,%r12d
    bacf:	66 0f ef ed          	pxor   %xmm5,%xmm5
    bad3:	f2 44 0f 10 1d 34 20 	movsd  8244(%rip),%xmm11        # db10 <_IO_stdin_used+0x70>
    bada:	00 00 
    badc:	f2 44 0f 10 25 23 20 	movsd  8227(%rip),%xmm12        # db08 <_IO_stdin_used+0x68>
    bae3:	00 00 
    bae5:	f2 44 0f 10 2d 12 20 	movsd  8210(%rip),%xmm13        # db00 <_IO_stdin_used+0x60>
    baec:	00 00 
    baee:	f2 44 0f 10 35 01 20 	movsd  8193(%rip),%xmm14        # daf8 <_IO_stdin_used+0x58>
    baf5:	00 00 
    baf7:	f2 0f 10 15 f1 1f 00 	movsd  8177(%rip),%xmm2        # daf0 <_IO_stdin_used+0x50>
    bafe:	00 
    baff:	66 0f ef e4          	pxor   %xmm4,%xmm4
    bb03:	66 0f ef db          	pxor   %xmm3,%xmm3
    bb07:	f2 0f 11 9d 60 ff ff 	movsd  %xmm3,0xffffffffffffff60(%rbp)
    bb0e:	ff 
    bb0f:	f2 0f 11 a5 58 ff ff 	movsd  %xmm4,0xffffffffffffff58(%rbp)
    bb16:	ff 
    bb17:	f2 0f 11 ad 50 ff ff 	movsd  %xmm5,0xffffffffffffff50(%rbp)
    bb1e:	ff 
    bb1f:	f2 0f 11 75 90       	movsd  %xmm6,0xffffffffffffff90(%rbp)
    bb24:	45 31 ed             	xor    %r13d,%r13d
    bb27:	66 0f ef ff          	pxor   %xmm7,%xmm7
    bb2b:	f2 0f 11 7d b0       	movsd  %xmm7,0xffffffffffffffb0(%rbp)
    bb30:	66 45 0f ef c0       	pxor   %xmm8,%xmm8
    bb35:	f2 44 0f 11 45 c0    	movsd  %xmm8,0xffffffffffffffc0(%rbp)
    bb3b:	66 45 0f ef c9       	pxor   %xmm9,%xmm9
    bb40:	f2 44 0f 11 4d b8    	movsd  %xmm9,0xffffffffffffffb8(%rbp)
    bb46:	f2 41 0f 2a dd       	cvtsi2sd %r13d,%xmm3
    bb4b:	f2 0f 11 85 68 ff ff 	movsd  %xmm0,0xffffffffffffff68(%rbp)
    bb52:	ff 
    bb53:	0f 28 e0             	movaps %xmm0,%xmm4
    bb56:	f2 0f 59 da          	mulsd  %xmm2,%xmm3
    bb5a:	45 31 f6             	xor    %r14d,%r14d
    bb5d:	f2 0f 5c e3          	subsd  %xmm3,%xmm4
    bb61:	f2 0f 11 65 a0       	movsd  %xmm4,0xffffffffffffffa0(%rbp)
    bb66:	0f 28 dc             	movaps %xmm4,%xmm3
    bb69:	f2 0f 59 dc          	mulsd  %xmm4,%xmm3
    bb6d:	f2 41 0f 2a e6       	cvtsi2sd %r14d,%xmm4
    bb72:	f2 0f 11 9d 78 ff ff 	movsd  %xmm3,0xffffffffffffff78(%rbp)
    bb79:	ff 
    bb7a:	f2 0f 11 8d 70 ff ff 	movsd  %xmm1,0xffffffffffffff70(%rbp)
    bb81:	ff 
    bb82:	f2 0f 59 e2          	mulsd  %xmm2,%xmm4
    bb86:	0f 28 f9             	movaps %xmm1,%xmm7
    bb89:	45 31 ff             	xor    %r15d,%r15d
    bb8c:	f2 0f 5c fc          	subsd  %xmm4,%xmm7
    bb90:	f2 0f 11 7d a8       	movsd  %xmm7,0xffffffffffffffa8(%rbp)
    bb95:	0f 28 ef             	movaps %xmm7,%xmm5
    bb98:	0f 28 e3             	movaps %xmm3,%xmm4
    bb9b:	f2 0f 59 ef          	mulsd  %xmm7,%xmm5
    bb9f:	f2 0f 11 6d 98       	movsd  %xmm5,0xffffffffffffff98(%rbp)
    bba4:	f2 0f 58 e5          	addsd  %xmm5,%xmm4
    bba8:	f2 0f 11 65 88       	movsd  %xmm4,0xffffffffffffff88(%rbp)
    bbad:	f2 44 0f 51 c4       	sqrtsd %xmm4,%xmm8
    bbb2:	f2 44 0f 11 45 80    	movsd  %xmm8,0xffffffffffffff80(%rbp)
    bbb8:	f2 41 0f 2a d7       	cvtsi2sd %r15d,%xmm2
    bbbd:	f2 0f 59 15 2b 1f 00 	mulsd  7979(%rip),%xmm2        # daf0 <_IO_stdin_used+0x50>
    bbc4:	00 
    bbc5:	f2 0f 10 4d 90       	movsd  0xffffffffffffff90(%rbp),%xmm1
    bbca:	f2 0f 10 5d 88       	movsd  0xffffffffffffff88(%rbp),%xmm3
    bbcf:	f2 0f 10 2d 49 1f 00 	movsd  8009(%rip),%xmm5        # db20 <_IO_stdin_used+0x80>
    bbd6:	00 
    bbd7:	f2 0f 5c ca          	subsd  %xmm2,%xmm1
    bbdb:	f2 0f 10 75 98       	movsd  0xffffffffffffff98(%rbp),%xmm6
    bbe0:	f2 0f 10 45 a0       	movsd  0xffffffffffffffa0(%rbp),%xmm0
    bbe5:	f2 0f 11 4d c8       	movsd  %xmm1,0xffffffffffffffc8(%rbp)
    bbea:	f2 0f 59 c9          	mulsd  %xmm1,%xmm1
    bbee:	f2 0f 11 4d f0       	movsd  %xmm1,0xfffffffffffffff0(%rbp)
    bbf3:	f2 0f 58 d9          	addsd  %xmm1,%xmm3
    bbf7:	f2 0f 51 e3          	sqrtsd %xmm3,%xmm4
    bbfb:	f2 0f 11 65 e0       	movsd  %xmm4,0xffffffffffffffe0(%rbp)
    bc00:	f2 0f 59 e4          	mulsd  %xmm4,%xmm4
    bc04:	f2 0f 5e ec          	divsd  %xmm4,%xmm5
    bc08:	f2 0f 11 6d e8       	movsd  %xmm5,0xffffffffffffffe8(%rbp)
    bc0d:	f2 0f 58 f1          	addsd  %xmm1,%xmm6
    bc11:	f2 0f 51 fe          	sqrtsd %xmm6,%xmm7
    bc15:	f2 0f 11 7d d0       	movsd  %xmm7,0xffffffffffffffd0(%rbp)
    bc1a:	e8 21 02 00 00       	callq  be40 <mabs>
    bc1f:	f2 0f 10 4d f0       	movsd  0xfffffffffffffff0(%rbp),%xmm1
    bc24:	f2 0f 58 8d 78 ff ff 	addsd  0xffffffffffffff78(%rbp),%xmm1
    bc2b:	ff 
    bc2c:	f2 0f 10 55 d0       	movsd  0xffffffffffffffd0(%rbp),%xmm2
    bc31:	f2 0f 5e 55 e0       	divsd  0xffffffffffffffe0(%rbp),%xmm2
    bc36:	f2 0f 59 55 e8       	mulsd  0xffffffffffffffe8(%rbp),%xmm2
    bc3b:	f2 0f 59 55 a0       	mulsd  0xffffffffffffffa0(%rbp),%xmm2
    bc40:	f2 0f 5e d0          	divsd  %xmm0,%xmm2
    bc44:	f2 0f 10 5d b0       	movsd  0xffffffffffffffb0(%rbp),%xmm3
    bc49:	f2 0f 10 45 a8       	movsd  0xffffffffffffffa8(%rbp),%xmm0
    bc4e:	f2 0f 51 c9          	sqrtsd %xmm1,%xmm1
    bc52:	f2 0f 11 4d d8       	movsd  %xmm1,0xffffffffffffffd8(%rbp)
    bc57:	f2 0f 58 da          	addsd  %xmm2,%xmm3
    bc5b:	f2 0f 11 5d b0       	movsd  %xmm3,0xffffffffffffffb0(%rbp)
    bc60:	e8 db 01 00 00       	callq  be40 <mabs>
    bc65:	f2 0f 10 4d e8       	movsd  0xffffffffffffffe8(%rbp),%xmm1
    bc6a:	f2 0f 59 4d a8       	mulsd  0xffffffffffffffa8(%rbp),%xmm1
    bc6f:	f2 0f 10 55 d8       	movsd  0xffffffffffffffd8(%rbp),%xmm2
    bc74:	f2 0f 5e 55 e0       	divsd  0xffffffffffffffe0(%rbp),%xmm2
    bc79:	f2 0f 59 ca          	mulsd  %xmm2,%xmm1
    bc7d:	f2 0f 5e c8          	divsd  %xmm0,%xmm1
    bc81:	f2 0f 10 5d c0       	movsd  0xffffffffffffffc0(%rbp),%xmm3
    bc86:	f2 0f 10 45 c8       	movsd  0xffffffffffffffc8(%rbp),%xmm0
    bc8b:	f2 0f 58 d9          	addsd  %xmm1,%xmm3
    bc8f:	f2 0f 11 5d c0       	movsd  %xmm3,0xffffffffffffffc0(%rbp)
    bc94:	e8 a7 01 00 00       	callq  be40 <mabs>
    bc99:	f2 0f 10 55 e8       	movsd  0xffffffffffffffe8(%rbp),%xmm2
    bc9e:	f2 0f 59 55 c8       	mulsd  0xffffffffffffffc8(%rbp),%xmm2
    bca3:	f2 0f 10 4d 80       	movsd  0xffffffffffffff80(%rbp),%xmm1
    bca8:	f2 0f 5e 4d e0       	divsd  0xffffffffffffffe0(%rbp),%xmm1
    bcad:	f2 0f 59 d1          	mulsd  %xmm1,%xmm2
    bcb1:	f2 0f 5e d0          	divsd  %xmm0,%xmm2
    bcb5:	41 ff c7             	inc    %r15d
    bcb8:	41 83 ff 0a          	cmp    $0xa,%r15d
    bcbc:	f2 0f 10 45 b8       	movsd  0xffffffffffffffb8(%rbp),%xmm0
    bcc1:	f2 0f 58 c2          	addsd  %xmm2,%xmm0
    bcc5:	f2 0f 11 45 b8       	movsd  %xmm0,0xffffffffffffffb8(%rbp)
    bcca:	0f 82 e8 fe ff ff    	jb     bbb8 <lattice+0x148>
    bcd0:	f2 0f 10 9d 78 ff ff 	movsd  0xffffffffffffff78(%rbp),%xmm3
    bcd7:	ff 
    bcd8:	f2 0f 10 8d 70 ff ff 	movsd  0xffffffffffffff70(%rbp),%xmm1
    bcdf:	ff 
    bce0:	f2 0f 10 15 08 1e 00 	movsd  7688(%rip),%xmm2        # daf0 <_IO_stdin_used+0x50>
    bce7:	00 
    bce8:	41 ff c6             	inc    %r14d
    bceb:	41 83 fe 0a          	cmp    $0xa,%r14d
    bcef:	0f 82 78 fe ff ff    	jb     bb6d <lattice+0xfd>
    bcf5:	f2 0f 10 85 68 ff ff 	movsd  0xffffffffffffff68(%rbp),%xmm0
    bcfc:	ff 
    bcfd:	41 ff c5             	inc    %r13d
    bd00:	41 83 fd 0a          	cmp    $0xa,%r13d
    bd04:	0f 82 3c fe ff ff    	jb     bb46 <lattice+0xd6>
    bd0a:	f2 44 0f 10 4d b8    	movsd  0xffffffffffffffb8(%rbp),%xmm9
    bd10:	f2 44 0f 10 45 c0    	movsd  0xffffffffffffffc0(%rbp),%xmm8
    bd16:	f2 0f 10 7d b0       	movsd  0xffffffffffffffb0(%rbp),%xmm7
    bd1b:	f2 0f 10 9d 60 ff ff 	movsd  0xffffffffffffff60(%rbp),%xmm3
    bd22:	ff 
    bd23:	41 ff c4             	inc    %r12d
    bd26:	41 81 fc e8 03 00 00 	cmp    $0x3e8,%r12d
    bd2d:	f2 0f 10 a5 58 ff ff 	movsd  0xffffffffffffff58(%rbp),%xmm4
    bd34:	ff 
    bd35:	f2 0f 10 ad 50 ff ff 	movsd  0xffffffffffffff50(%rbp),%xmm5
    bd3c:	ff 
    bd3d:	f2 0f 10 75 90       	movsd  0xffffffffffffff90(%rbp),%xmm6
    bd42:	f2 44 0f 10 15 cd 1d 	movsd  7629(%rip),%xmm10        # db18 <_IO_stdin_used+0x78>
    bd49:	00 00 
    bd4b:	f2 44 0f 10 1d bc 1d 	movsd  7612(%rip),%xmm11        # db10 <_IO_stdin_used+0x70>
    bd52:	00 00 
    bd54:	f2 44 0f 10 25 ab 1d 	movsd  7595(%rip),%xmm12        # db08 <_IO_stdin_used+0x68>
    bd5b:	00 00 
    bd5d:	f2 44 0f 10 2d 9a 1d 	movsd  7578(%rip),%xmm13        # db00 <_IO_stdin_used+0x60>
    bd64:	00 00 
    bd66:	f2 44 0f 10 35 89 1d 	movsd  7561(%rip),%xmm14        # daf8 <_IO_stdin_used+0x58>
    bd6d:	00 00 
    bd6f:	f2 41 0f 59 fe       	mulsd  %xmm14,%xmm7
    bd74:	f2 41 0f 5e fe       	divsd  %xmm14,%xmm7
    bd79:	f2 45 0f 59 c6       	mulsd  %xmm14,%xmm8
    bd7e:	f2 45 0f 5e c6       	divsd  %xmm14,%xmm8
    bd83:	f2 45 0f 59 ce       	mulsd  %xmm14,%xmm9
    bd88:	f2 45 0f 5e ce       	divsd  %xmm14,%xmm9
    bd8d:	f2 0f 58 fd          	addsd  %xmm5,%xmm7
    bd91:	f2 44 0f 58 c4       	addsd  %xmm4,%xmm8
    bd96:	f2 44 0f 58 cb       	addsd  %xmm3,%xmm9
    bd9b:	f2 0f 58 ef          	addsd  %xmm7,%xmm5
    bd9f:	f2 41 0f 59 ed       	mulsd  %xmm13,%xmm5
    bda4:	f2 41 0f 59 fa       	mulsd  %xmm10,%xmm7
    bda9:	f2 41 0f 58 e0       	addsd  %xmm8,%xmm4
    bdae:	f2 41 0f 59 e5       	mulsd  %xmm13,%xmm4
    bdb3:	f2 45 0f 59 c2       	mulsd  %xmm10,%xmm8
    bdb8:	f2 0f 58 c5          	addsd  %xmm5,%xmm0
    bdbc:	f2 0f 58 cc          	addsd  %xmm4,%xmm1
    bdc0:	f2 41 0f 58 d9       	addsd  %xmm9,%xmm3
    bdc5:	f2 41 0f 59 dd       	mulsd  %xmm13,%xmm3
    bdca:	f2 45 0f 59 ca       	mulsd  %xmm10,%xmm9
    bdcf:	f2 41 0f 58 fb       	addsd  %xmm11,%xmm7
    bdd4:	f2 0f 58 f3          	addsd  %xmm3,%xmm6
    bdd8:	f2 45 0f 58 c3       	addsd  %xmm11,%xmm8
    bddd:	f2 45 0f 58 cb       	addsd  %xmm11,%xmm9
    bde2:	f2 0f 2c c7          	cvttsd2si %xmm7,%eax
    bde6:	f2 0f 2a e8          	cvtsi2sd %eax,%xmm5
    bdea:	f2 41 0f 59 ec       	mulsd  %xmm12,%xmm5
    bdef:	f2 41 0f 2c d0       	cvttsd2si %xmm8,%edx
    bdf4:	f2 0f 2a e2          	cvtsi2sd %edx,%xmm4
    bdf8:	f2 41 0f 59 e4       	mulsd  %xmm12,%xmm4
    bdfd:	f2 41 0f 2c c9       	cvttsd2si %xmm9,%ecx
    be02:	f2 0f 2a d9          	cvtsi2sd %ecx,%xmm3
    be06:	f2 41 0f 59 dc       	mulsd  %xmm12,%xmm3
    be0b:	0f 82 f6 fc ff ff    	jb     bb07 <lattice+0x97>
    be11:	66 0f 2e 05 cf 1c 00 	ucomisd 7375(%rip),%xmm0        # dae8 <_IO_stdin_used+0x48>
    be18:	00 
    be19:	7a 02                	jp     be1d <lattice+0x3ad>
    be1b:	74 07                	je     be24 <lattice+0x3b4>
    be1d:	e8 5e 00 00 00       	callq  be80 <sdc>
    be22:	eb 05                	jmp    be29 <lattice+0x3b9>
    be24:	e8 37 00 00 00       	callq  be60 <correct>
    be29:	ff c3                	inc    %ebx
    be2b:	81 fb a0 86 01 00    	cmp    $0x186a0,%ebx
    be31:	0f 82 7e fc ff ff    	jb     bab5 <lattice+0x45>
    be37:	e9 77 fc ff ff       	jmpq   bab3 <lattice+0x43>
    be3c:	66 66 66 90          	xchg   %ax,%ax

000000000000be40 <mabs>:
    be40:	f2 0f 11 44 24 f8    	movsd  %xmm0,0xfffffffffffffff8(%rsp)
    be46:	81 64 24 fc ff ff ff 	andl   $0x7fffffff,0xfffffffffffffffc(%rsp)
    be4d:	7f 
    be4e:	f2 0f 10 44 24 f8    	movsd  0xfffffffffffffff8(%rsp),%xmm0
    be54:	c3                   	retq   
    be55:	66 66 66 90          	xchg   %ax,%ax
    be59:	66 66 66 90          	xchg   %ax,%ax
    be5d:	66 66 90             	xchg   %ax,%ax

000000000000be60 <correct>:
    be60:	31 c0                	xor    %eax,%eax
    be62:	b8 01 00 00 00       	mov    $0x1,%eax
    be67:	0f a2                	cpuid  
    be69:	c1 eb 18             	shr    $0x18,%ebx
    be6c:	31 c0                	xor    %eax,%eax
    be6e:	01 d8                	add    %ebx,%eax
    be70:	c1 e0 02             	shl    $0x2,%eax
    be73:	66 ba f8 03          	mov    $0x3f8,%dx
    be77:	ee                   	out    %al,(%dx)
    be78:	31 db                	xor    %ebx,%ebx
    be7a:	c3                   	retq   
    be7b:	66 66 90             	xchg   %ax,%ax
    be7e:	66 90                	xchg   %ax,%ax

000000000000be80 <sdc>:
    be80:	31 c0                	xor    %eax,%eax
    be82:	b8 01 00 00 00       	mov    $0x1,%eax
    be87:	0f a2                	cpuid  
    be89:	c1 eb 18             	shr    $0x18,%ebx
    be8c:	31 c0                	xor    %eax,%eax
    be8e:	01 d8                	add    %ebx,%eax
    be90:	c1 e0 02             	shl    $0x2,%eax
    be93:	66 ba f8 03          	mov    $0x3f8,%dx
    be97:	83 c0 01             	add    $0x1,%eax
    be9a:	ee                   	out    %al,(%dx)
    be9b:	c3                   	retq   
    be9c:	66 66 66 90          	xchg   %ax,%ax

000000000000bea0 <start_delay>:
    bea0:	31 c0                	xor    %eax,%eax
    bea2:	b8 01 00 00 00       	mov    $0x1,%eax
    bea7:	0f a2                	cpuid  
    bea9:	c1 eb 12             	shr    $0x12,%ebx
    beac:	31 c9                	xor    %ecx,%ecx
    beae:	01 d9                	add    %ebx,%ecx
    beb0:	48 c1 e1 14          	shl    $0x14,%rcx
    beb4:	e2 fe                	loop   beb4 <start_delay+0x14>
    beb6:	c3                   	retq   
    beb7:	66 66 90             	xchg   %ax,%ax
    beba:	66 66 90             	xchg   %ax,%ax
    bebd:	66 66 90             	xchg   %ax,%ax

