
lattice_64bit.l:     file format elf64-x86-64

Disassembly of section .init:

000000000000b518 <_init>:
    b518:	48 83 ec 08          	sub    $0x8,%rsp
    b51c:	e8 13 01 00 00       	callq  b634 <_start+0x34>
    b521:	e8 72 01 00 00       	callq  b698 <_start+0x98>
    b526:	e8 ed 24 00 00       	callq  da18 <__libc_csu_init+0x98>
    b52b:	48 83 c4 08          	add    $0x8,%rsp
    b52f:	c3                   	retq   
Disassembly of section .plt:

000000000000b530 <__libc_start_main@plt-0x10>:
    b530:	ff 35 c2 3e 10 00    	pushq  1064642(%rip)        # 10f3f8 <_IO_stdin_used+0x101998>
    b536:	ff 25 c4 3e 10 00    	jmpq   *1064644(%rip)        # 10f400 <_IO_stdin_used+0x1019a0>
    b53c:	90                   	nop    
    b53d:	90                   	nop    
    b53e:	90                   	nop    
    b53f:	90                   	nop    

000000000000b540 <__libc_start_main@plt>:
    b540:	ff 25 c2 3e 10 00    	jmpq   *1064642(%rip)        # 10f408 <_IO_stdin_used+0x1019a8>
    b546:	68 00 00 00 00       	pushq  $0x0
    b54b:	e9 e0 ff ff ff       	jmpq   b530 <_init+0x18>

000000000000b550 <catgets@plt>:
    b550:	ff 25 ba 3e 10 00    	jmpq   *1064634(%rip)        # 10f410 <_IO_stdin_used+0x1019b0>
    b556:	68 01 00 00 00       	pushq  $0x1
    b55b:	e9 d0 ff ff ff       	jmpq   b530 <_init+0x18>

000000000000b560 <vsprintf@plt>:
    b560:	ff 25 b2 3e 10 00    	jmpq   *1064626(%rip)        # 10f418 <_IO_stdin_used+0x1019b8>
    b566:	68 02 00 00 00       	pushq  $0x2
    b56b:	e9 c0 ff ff ff       	jmpq   b530 <_init+0x18>

000000000000b570 <getenv@plt>:
    b570:	ff 25 aa 3e 10 00    	jmpq   *1064618(%rip)        # 10f420 <_IO_stdin_used+0x1019c0>
    b576:	68 03 00 00 00       	pushq  $0x3
    b57b:	e9 b0 ff ff ff       	jmpq   b530 <_init+0x18>

000000000000b580 <strncpy@plt>:
    b580:	ff 25 a2 3e 10 00    	jmpq   *1064610(%rip)        # 10f428 <_IO_stdin_used+0x1019c8>
    b586:	68 04 00 00 00       	pushq  $0x4
    b58b:	e9 a0 ff ff ff       	jmpq   b530 <_init+0x18>

000000000000b590 <setenv@plt>:
    b590:	ff 25 9a 3e 10 00    	jmpq   *1064602(%rip)        # 10f430 <_IO_stdin_used+0x1019d0>
    b596:	68 05 00 00 00       	pushq  $0x5
    b59b:	e9 90 ff ff ff       	jmpq   b530 <_init+0x18>

000000000000b5a0 <fprintf@plt>:
    b5a0:	ff 25 92 3e 10 00    	jmpq   *1064594(%rip)        # 10f438 <_IO_stdin_used+0x1019d8>
    b5a6:	68 06 00 00 00       	pushq  $0x6
    b5ab:	e9 80 ff ff ff       	jmpq   b530 <_init+0x18>

000000000000b5b0 <printf@plt>:
    b5b0:	ff 25 8a 3e 10 00    	jmpq   *1064586(%rip)        # 10f440 <_IO_stdin_used+0x1019e0>
    b5b6:	68 07 00 00 00       	pushq  $0x7
    b5bb:	e9 70 ff ff ff       	jmpq   b530 <_init+0x18>

000000000000b5c0 <catopen@plt>:
    b5c0:	ff 25 82 3e 10 00    	jmpq   *1064578(%rip)        # 10f448 <_IO_stdin_used+0x1019e8>
    b5c6:	68 08 00 00 00       	pushq  $0x8
    b5cb:	e9 60 ff ff ff       	jmpq   b530 <_init+0x18>

000000000000b5d0 <strchr@plt>:
    b5d0:	ff 25 7a 3e 10 00    	jmpq   *1064570(%rip)        # 10f450 <_IO_stdin_used+0x1019f0>
    b5d6:	68 09 00 00 00       	pushq  $0x9
    b5db:	e9 50 ff ff ff       	jmpq   b530 <_init+0x18>

000000000000b5e0 <memset@plt>:
    b5e0:	ff 25 72 3e 10 00    	jmpq   *1064562(%rip)        # 10f458 <_IO_stdin_used+0x1019f8>
    b5e6:	68 0a 00 00 00       	pushq  $0xa
    b5eb:	e9 40 ff ff ff       	jmpq   b530 <_init+0x18>

000000000000b5f0 <exit@plt>:
    b5f0:	ff 25 6a 3e 10 00    	jmpq   *1064554(%rip)        # 10f460 <__data_start>
    b5f6:	68 0b 00 00 00       	pushq  $0xb
    b5fb:	e9 30 ff ff ff       	jmpq   b530 <_init+0x18>
Disassembly of section .text:

000000000000b600 <_start>:
    b600:	31 ed                	xor    %ebp,%ebp
    b602:	49 89 d1             	mov    %rdx,%r9
    b605:	5e                   	pop    %rsi
    b606:	48 89 e2             	mov    %rsp,%rdx
    b609:	48 83 e4 f0          	and    $0xfffffffffffffff0,%rsp
    b60d:	50                   	push   %rax
    b60e:	54                   	push   %rsp
    b60f:	49 c7 c0 b0 2b 40 00 	mov    $0x402bb0,%r8
    b616:	48 c7 c1 c0 2b 40 00 	mov    $0x402bc0,%rcx
    b61d:	48 c7 c7 00 09 40 00 	mov    $0x400900,%rdi
    b624:	e8 0f ff ff ff       	callq  b538 <_init+0x20>
    b629:	f4                   	hlt    
    b62a:	90                   	nop    
    b62b:	90                   	nop    
    b62c:	48 83 ec 08          	sub    $0x8,%rsp
    b630:	48 8b 05 a9 3d 10 00 	mov    1064361(%rip),%rax        # 10f3e0 <_IO_stdin_used+0x101980>
    b637:	48 85 c0             	test   %rax,%rax
    b63a:	74 02                	je     b63e <_start+0x3e>
    b63c:	ff d0                	callq  *%rax
    b63e:	48 83 c4 08          	add    $0x8,%rsp
    b642:	c3                   	retq   
    b643:	90                   	nop    
    b644:	90                   	nop    
    b645:	90                   	nop    
    b646:	90                   	nop    
    b647:	90                   	nop    
    b648:	90                   	nop    
    b649:	90                   	nop    
    b64a:	90                   	nop    
    b64b:	90                   	nop    
    b64c:	90                   	nop    
    b64d:	90                   	nop    
    b64e:	90                   	nop    
    b64f:	90                   	nop    
    b650:	80 3d 89 41 10 00 00 	cmpb   $0x0,1065353(%rip)        # 10f7e0 <__bss_start>
    b657:	55                   	push   %rbp
    b658:	48 89 e5             	mov    %rsp,%rbp
    b65b:	74 10                	je     b66d <_start+0x6d>
    b65d:	eb 24                	jmp    b683 <_start+0x83>
    b65f:	90                   	nop    
    b660:	48 83 c0 08          	add    $0x8,%rax
    b664:	48 89 05 05 3e 10 00 	mov    %rax,1064453(%rip)        # 10f470 <__dso_handle+0x8>
    b66b:	ff d2                	callq  *%rdx
    b66d:	48 8b 05 fc 3d 10 00 	mov    1064444(%rip),%rax        # 10f470 <__dso_handle+0x8>
    b674:	48 8b 10             	mov    (%rax),%rdx
    b677:	48 85 d2             	test   %rdx,%rdx
    b67a:	75 e4                	jne    b660 <_start+0x60>
    b67c:	c6 05 5d 41 10 00 01 	movb   $0x1,1065309(%rip)        # 10f7e0 <__bss_start>
    b683:	c9                   	leaveq 
    b684:	c3                   	retq   
    b685:	66 66 66 90          	xchg   %ax,%ax
    b689:	66 66 66 90          	xchg   %ax,%ax
    b68d:	66 66 90             	xchg   %ax,%ax
    b690:	55                   	push   %rbp
    b691:	48 83 3d 67 3b 10 00 	cmpq   $0x0,1063783(%rip)        # 10f200 <_IO_stdin_used+0x1017a0>
    b698:	00 
    b699:	48 89 e5             	mov    %rsp,%rbp
    b69c:	74 1a                	je     b6b8 <_start+0xb8>
    b69e:	48 8b 05 33 3d 10 00 	mov    1064243(%rip),%rax        # 10f3d8 <_IO_stdin_used+0x101978>
    b6a5:	48 85 c0             	test   %rax,%rax
    b6a8:	74 0e                	je     b6b8 <_start+0xb8>
    b6aa:	48 8d 3d 4f 3b 10 00 	lea    1063759(%rip),%rdi        # 10f200 <_IO_stdin_used+0x1017a0>
    b6b1:	49 89 c3             	mov    %rax,%r11
    b6b4:	c9                   	leaveq 
    b6b5:	41 ff e3             	jmpq   *%r11
    b6b8:	c9                   	leaveq 
    b6b9:	c3                   	retq   
    b6ba:	90                   	nop    
    b6bb:	90                   	nop    
    b6bc:	90                   	nop    
    b6bd:	90                   	nop    
    b6be:	90                   	nop    
    b6bf:	90                   	nop    

000000000000b6c0 <main>:
    b6c0:	55                   	push   %rbp
    b6c1:	48 89 e5             	mov    %rsp,%rbp
    b6c4:	48 83 e4 80          	and    $0xffffffffffffff80,%rsp
    b6c8:	41 54                	push   %r12
    b6ca:	48 83 ec 78          	sub    $0x78,%rsp
    b6ce:	bf 03 00 00 00       	mov    $0x3,%edi
    b6d3:	e8 c8 1c 00 00       	callq  d3a0 <__intel_new_proc_init>
    b6d8:	0f ae 1c 24          	stmxcsr (%rsp)
    b6dc:	81 0c 24 40 80 00 00 	orl    $0x8040,(%rsp)
    b6e3:	0f ae 14 24          	ldmxcsr (%rsp)
    b6e7:	48 31 db             	xor    %rbx,%rbx
    b6ea:	31 c0                	xor    %eax,%eax
    b6ec:	b8 01 00 00 00       	mov    $0x1,%eax
    b6f1:	0f a2                	cpuid  
    b6f3:	c1 eb 18             	shr    $0x18,%ebx
    b6f6:	48 31 c9             	xor    %rcx,%rcx
    b6f9:	48 01 d9             	add    %rbx,%rcx
    b6fc:	48 c1 e1 19          	shl    $0x19,%rcx
    b700:	48 83 c1 07          	add    $0x7,%rcx
    b704:	90                   	nop    
    b705:	e2 fd                	loop   b704 <main+0x44>
    b707:	f2 0f 10 2d 59 23 00 	movsd  9049(%rip),%xmm5        # da68 <_IO_stdin_used+0x8>
    b70e:	00 
    b70f:	f2 0f 10 25 59 23 00 	movsd  9049(%rip),%xmm4        # da70 <_IO_stdin_used+0x10>
    b716:	00 
    b717:	f2 0f 10 1d 59 23 00 	movsd  9049(%rip),%xmm3        # da78 <_IO_stdin_used+0x18>
    b71e:	00 
    b71f:	f2 0f 10 15 59 23 00 	movsd  9049(%rip),%xmm2        # da80 <_IO_stdin_used+0x20>
    b726:	00 
    b727:	45 31 e4             	xor    %r12d,%r12d
    b72a:	f2 0f 10 0d 56 23 00 	movsd  9046(%rip),%xmm1        # da88 <_IO_stdin_used+0x28>
    b731:	00 
    b732:	f2 0f 10 05 56 23 00 	movsd  9046(%rip),%xmm0        # da90 <_IO_stdin_used+0x30>
    b739:	00 
    b73a:	f2 0f 10 35 56 23 00 	movsd  9046(%rip),%xmm6        # da98 <_IO_stdin_used+0x38>
    b741:	00 
    b742:	f2 0f 10 3d 1e 23 00 	movsd  8990(%rip),%xmm7        # da68 <_IO_stdin_used+0x8>
    b749:	00 
    b74a:	0f 28 f7             	movaps %xmm7,%xmm6
    b74d:	f2 44 0f 10 15 42 23 	movsd  9026(%rip),%xmm10        # da98 <_IO_stdin_used+0x38>
    b754:	00 00 
    b756:	f2 0f 10 05 32 23 00 	movsd  9010(%rip),%xmm0        # da90 <_IO_stdin_used+0x30>
    b75d:	00 
    b75e:	31 c0                	xor    %eax,%eax
    b760:	66 0f ef ed          	pxor   %xmm5,%xmm5
    b764:	f2 0f 10 0d 1c 23 00 	movsd  8988(%rip),%xmm1        # da88 <_IO_stdin_used+0x28>
    b76b:	00 
    b76c:	f2 0f 10 15 0c 23 00 	movsd  8972(%rip),%xmm2        # da80 <_IO_stdin_used+0x20>
    b773:	00 
    b774:	f2 0f 10 1d fc 22 00 	movsd  8956(%rip),%xmm3        # da78 <_IO_stdin_used+0x18>
    b77b:	00 
    b77c:	f2 44 0f 10 1d eb 22 	movsd  8939(%rip),%xmm11        # da70 <_IO_stdin_used+0x10>
    b783:	00 00 
    b785:	66 0f ef e4          	pxor   %xmm4,%xmm4
    b789:	31 d2                	xor    %edx,%edx
    b78b:	66 45 0f ef c9       	pxor   %xmm9,%xmm9
    b790:	66 45 0f ef c0       	pxor   %xmm8,%xmm8
    b795:	f2 0f 2a c2          	cvtsi2sd %edx,%xmm0
    b799:	44 0f 28 f7          	movaps %xmm7,%xmm14
    b79d:	f2 41 0f 59 c3       	mulsd  %xmm11,%xmm0
    b7a2:	31 c9                	xor    %ecx,%ecx
    b7a4:	f2 44 0f 5c f0       	subsd  %xmm0,%xmm14
    b7a9:	45 0f 28 ee          	movaps %xmm14,%xmm13
    b7ad:	f2 45 0f 59 ee       	mulsd  %xmm14,%xmm13
    b7b2:	f2 45 0f 51 e5       	sqrtsd %xmm13,%xmm12
    b7b7:	f2 0f 2a d9          	cvtsi2sd %ecx,%xmm3
    b7bb:	f2 44 0f 11 34 24    	movsd  %xmm14,(%rsp)
    b7c1:	44 0f 28 fe          	movaps %xmm6,%xmm15
    b7c5:	f2 41 0f 59 db       	mulsd  %xmm11,%xmm3
    b7ca:	41 0f 28 c5          	movaps %xmm13,%xmm0
    b7ce:	ff c1                	inc    %ecx
    b7d0:	f2 44 0f 5c fb       	subsd  %xmm3,%xmm15
    b7d5:	f2 0f 10 1d c3 22 00 	movsd  8899(%rip),%xmm3        # daa0 <_IO_stdin_used+0x40>
    b7dc:	00 
    b7dd:	f2 44 0f 11 7c 24 08 	movsd  %xmm15,0x8(%rsp)
    b7e4:	41 0f 28 cf          	movaps %xmm15,%xmm1
    b7e8:	f2 41 0f 59 cf       	mulsd  %xmm15,%xmm1
    b7ed:	f2 0f 58 c1          	addsd  %xmm1,%xmm0
    b7f1:	81 64 24 04 ff ff ff 	andl   $0x7fffffff,0x4(%rsp)
    b7f8:	7f 
    b7f9:	f2 0f 51 d0          	sqrtsd %xmm0,%xmm2
    b7fd:	0f 28 c2             	movaps %xmm2,%xmm0
    b800:	f2 0f 59 c2          	mulsd  %xmm2,%xmm0
    b804:	f2 0f 5e d8          	divsd  %xmm0,%xmm3
    b808:	81 64 24 0c ff ff ff 	andl   $0x7fffffff,0xc(%rsp)
    b80f:	7f 
    b810:	f2 0f 51 c1          	sqrtsd %xmm1,%xmm0
    b814:	f2 0f 5e c2          	divsd  %xmm2,%xmm0
    b818:	f2 0f 59 c3          	mulsd  %xmm3,%xmm0
    b81c:	f2 41 0f 59 c6       	mulsd  %xmm14,%xmm0
    b821:	0f 28 c8             	movaps %xmm0,%xmm1
    b824:	f2 0f 5e 0c 24       	divsd  (%rsp),%xmm1
    b829:	f2 44 0f 11 34 24    	movsd  %xmm14,(%rsp)
    b82f:	81 64 24 04 ff ff ff 	andl   $0x7fffffff,0x4(%rsp)
    b836:	7f 
    b837:	f2 44 0f 58 c9       	addsd  %xmm1,%xmm9
    b83c:	41 0f 28 cc          	movaps %xmm12,%xmm1
    b840:	f2 0f 5e ca          	divsd  %xmm2,%xmm1
    b844:	f2 0f 59 d9          	mulsd  %xmm1,%xmm3
    b848:	0f 28 c8             	movaps %xmm0,%xmm1
    b84b:	f2 0f 5e 0c 24       	divsd  (%rsp),%xmm1
    b850:	f2 44 0f 11 34 24    	movsd  %xmm14,(%rsp)
    b856:	f2 41 0f 59 df       	mulsd  %xmm15,%xmm3
    b85b:	0f 28 d3             	movaps %xmm3,%xmm2
    b85e:	f2 0f 5e 54 24 08    	divsd  0x8(%rsp),%xmm2
    b864:	f2 44 0f 11 7c 24 08 	movsd  %xmm15,0x8(%rsp)
    b86b:	81 64 24 04 ff ff ff 	andl   $0x7fffffff,0x4(%rsp)
    b872:	7f 
    b873:	f2 44 0f 58 c2       	addsd  %xmm2,%xmm8
    b878:	0f 28 d3             	movaps %xmm3,%xmm2
    b87b:	81 64 24 0c ff ff ff 	andl   $0x7fffffff,0xc(%rsp)
    b882:	7f 
    b883:	f2 0f 5e 54 24 08    	divsd  0x8(%rsp),%xmm2
    b889:	f2 44 0f 11 7c 24 08 	movsd  %xmm15,0x8(%rsp)
    b890:	f2 44 0f 58 c9       	addsd  %xmm1,%xmm9
    b895:	0f 28 c8             	movaps %xmm0,%xmm1
    b898:	f2 0f 5e 0c 24       	divsd  (%rsp),%xmm1
    b89d:	f2 44 0f 11 34 24    	movsd  %xmm14,(%rsp)
    b8a3:	81 64 24 0c ff ff ff 	andl   $0x7fffffff,0xc(%rsp)
    b8aa:	7f 
    b8ab:	f2 44 0f 58 c2       	addsd  %xmm2,%xmm8
    b8b0:	0f 28 d3             	movaps %xmm3,%xmm2
    b8b3:	f2 0f 5e 54 24 08    	divsd  0x8(%rsp),%xmm2
    b8b9:	f2 44 0f 11 7c 24 08 	movsd  %xmm15,0x8(%rsp)
    b8c0:	81 64 24 04 ff ff ff 	andl   $0x7fffffff,0x4(%rsp)
    b8c7:	7f 
    b8c8:	f2 44 0f 58 c9       	addsd  %xmm1,%xmm9
    b8cd:	0f 28 c8             	movaps %xmm0,%xmm1
    b8d0:	f2 0f 5e 0c 24       	divsd  (%rsp),%xmm1
    b8d5:	f2 44 0f 11 34 24    	movsd  %xmm14,(%rsp)
    b8db:	81 64 24 0c ff ff ff 	andl   $0x7fffffff,0xc(%rsp)
    b8e2:	7f 
    b8e3:	f2 44 0f 58 c2       	addsd  %xmm2,%xmm8
    b8e8:	0f 28 d3             	movaps %xmm3,%xmm2
    b8eb:	f2 0f 5e 54 24 08    	divsd  0x8(%rsp),%xmm2
    b8f1:	f2 44 0f 11 7c 24 08 	movsd  %xmm15,0x8(%rsp)
    b8f8:	81 64 24 04 ff ff ff 	andl   $0x7fffffff,0x4(%rsp)
    b8ff:	7f 
    b900:	f2 44 0f 58 c9       	addsd  %xmm1,%xmm9
    b905:	0f 28 c8             	movaps %xmm0,%xmm1
    b908:	f2 0f 5e 0c 24       	divsd  (%rsp),%xmm1
    b90d:	f2 44 0f 11 34 24    	movsd  %xmm14,(%rsp)
    b913:	81 64 24 0c ff ff ff 	andl   $0x7fffffff,0xc(%rsp)
    b91a:	7f 
    b91b:	f2 44 0f 58 c2       	addsd  %xmm2,%xmm8
    b920:	0f 28 d3             	movaps %xmm3,%xmm2
    b923:	f2 0f 5e 54 24 08    	divsd  0x8(%rsp),%xmm2
    b929:	f2 44 0f 11 7c 24 08 	movsd  %xmm15,0x8(%rsp)
    b930:	81 64 24 04 ff ff ff 	andl   $0x7fffffff,0x4(%rsp)
    b937:	7f 
    b938:	f2 44 0f 58 c9       	addsd  %xmm1,%xmm9
    b93d:	0f 28 c8             	movaps %xmm0,%xmm1
    b940:	f2 0f 5e 0c 24       	divsd  (%rsp),%xmm1
    b945:	f2 44 0f 11 34 24    	movsd  %xmm14,(%rsp)
    b94b:	81 64 24 0c ff ff ff 	andl   $0x7fffffff,0xc(%rsp)
    b952:	7f 
    b953:	f2 44 0f 58 c2       	addsd  %xmm2,%xmm8
    b958:	0f 28 d3             	movaps %xmm3,%xmm2
    b95b:	f2 0f 5e 54 24 08    	divsd  0x8(%rsp),%xmm2
    b961:	f2 44 0f 11 7c 24 08 	movsd  %xmm15,0x8(%rsp)
    b968:	81 64 24 04 ff ff ff 	andl   $0x7fffffff,0x4(%rsp)
    b96f:	7f 
    b970:	f2 44 0f 58 c9       	addsd  %xmm1,%xmm9
    b975:	0f 28 c8             	movaps %xmm0,%xmm1
    b978:	f2 0f 5e 0c 24       	divsd  (%rsp),%xmm1
    b97d:	f2 44 0f 11 34 24    	movsd  %xmm14,(%rsp)
    b983:	81 64 24 0c ff ff ff 	andl   $0x7fffffff,0xc(%rsp)
    b98a:	7f 
    b98b:	f2 44 0f 58 c2       	addsd  %xmm2,%xmm8
    b990:	0f 28 d3             	movaps %xmm3,%xmm2
    b993:	f2 0f 5e 54 24 08    	divsd  0x8(%rsp),%xmm2
    b999:	f2 44 0f 11 7c 24 08 	movsd  %xmm15,0x8(%rsp)
    b9a0:	81 64 24 04 ff ff ff 	andl   $0x7fffffff,0x4(%rsp)
    b9a7:	7f 
    b9a8:	f2 44 0f 58 c9       	addsd  %xmm1,%xmm9
    b9ad:	0f 28 c8             	movaps %xmm0,%xmm1
    b9b0:	f2 0f 5e 0c 24       	divsd  (%rsp),%xmm1
    b9b5:	f2 44 0f 11 34 24    	movsd  %xmm14,(%rsp)
    b9bb:	81 64 24 0c ff ff ff 	andl   $0x7fffffff,0xc(%rsp)
    b9c2:	7f 
    b9c3:	f2 44 0f 58 c2       	addsd  %xmm2,%xmm8
    b9c8:	0f 28 d3             	movaps %xmm3,%xmm2
    b9cb:	f2 0f 5e 54 24 08    	divsd  0x8(%rsp),%xmm2
    b9d1:	f2 44 0f 11 7c 24 08 	movsd  %xmm15,0x8(%rsp)
    b9d8:	81 64 24 04 ff ff ff 	andl   $0x7fffffff,0x4(%rsp)
    b9df:	7f 
    b9e0:	f2 44 0f 58 c9       	addsd  %xmm1,%xmm9
    b9e5:	0f 28 c8             	movaps %xmm0,%xmm1
    b9e8:	f2 0f 5e 0c 24       	divsd  (%rsp),%xmm1
    b9ed:	f2 44 0f 11 34 24    	movsd  %xmm14,(%rsp)
    b9f3:	81 64 24 0c ff ff ff 	andl   $0x7fffffff,0xc(%rsp)
    b9fa:	7f 
    b9fb:	f2 44 0f 58 c2       	addsd  %xmm2,%xmm8
    ba00:	0f 28 d3             	movaps %xmm3,%xmm2
    ba03:	f2 0f 5e 54 24 08    	divsd  0x8(%rsp),%xmm2
    ba09:	f2 44 0f 11 7c 24 08 	movsd  %xmm15,0x8(%rsp)
    ba10:	81 64 24 04 ff ff ff 	andl   $0x7fffffff,0x4(%rsp)
    ba17:	7f 
    ba18:	f2 0f 5e 04 24       	divsd  (%rsp),%xmm0
    ba1d:	81 64 24 0c ff ff ff 	andl   $0x7fffffff,0xc(%rsp)
    ba24:	7f 
    ba25:	f2 0f 5e 5c 24 08    	divsd  0x8(%rsp),%xmm3
    ba2b:	f2 44 0f 58 c9       	addsd  %xmm1,%xmm9
    ba30:	f2 44 0f 58 c2       	addsd  %xmm2,%xmm8
    ba35:	f2 44 0f 58 c8       	addsd  %xmm0,%xmm9
    ba3a:	f2 44 0f 58 c3       	addsd  %xmm3,%xmm8
    ba3f:	83 f9 0a             	cmp    $0xa,%ecx
    ba42:	0f 82 6f fd ff ff    	jb     b7b7 <main+0xf7>
    ba48:	ff c2                	inc    %edx
    ba4a:	83 fa 0a             	cmp    $0xa,%edx
    ba4d:	0f 82 42 fd ff ff    	jb     b795 <main+0xd5>
    ba53:	f2 0f 10 05 35 20 00 	movsd  8245(%rip),%xmm0        # da90 <_IO_stdin_used+0x30>
    ba5a:	00 
    ba5b:	f2 0f 10 0d 25 20 00 	movsd  8229(%rip),%xmm1        # da88 <_IO_stdin_used+0x28>
    ba62:	00 
    ba63:	f2 0f 10 15 15 20 00 	movsd  8213(%rip),%xmm2        # da80 <_IO_stdin_used+0x20>
    ba6a:	00 
    ba6b:	f2 0f 10 1d 05 20 00 	movsd  8197(%rip),%xmm3        # da78 <_IO_stdin_used+0x18>
    ba72:	00 
    ba73:	f2 44 0f 59 cb       	mulsd  %xmm3,%xmm9
    ba78:	f2 44 0f 5e cb       	divsd  %xmm3,%xmm9
    ba7d:	f2 44 0f 59 c3       	mulsd  %xmm3,%xmm8
    ba82:	f2 44 0f 5e c3       	divsd  %xmm3,%xmm8
    ba87:	f2 44 0f 58 cd       	addsd  %xmm5,%xmm9
    ba8c:	f2 41 0f 58 e9       	addsd  %xmm9,%xmm5
    ba91:	f2 0f 59 ea          	mulsd  %xmm2,%xmm5
    ba95:	f2 45 0f 59 ca       	mulsd  %xmm10,%xmm9
    ba9a:	f2 44 0f 58 c4       	addsd  %xmm4,%xmm8
    ba9f:	f2 0f 58 fd          	addsd  %xmm5,%xmm7
    baa3:	f2 41 0f 58 e0       	addsd  %xmm8,%xmm4
    baa8:	f2 0f 59 e2          	mulsd  %xmm2,%xmm4
    baac:	f2 45 0f 59 c2       	mulsd  %xmm10,%xmm8
    bab1:	f2 44 0f 58 c8       	addsd  %xmm0,%xmm9
    bab6:	f2 0f 58 f4          	addsd  %xmm4,%xmm6
    baba:	f2 44 0f 58 c0       	addsd  %xmm0,%xmm8
    babf:	ff c0                	inc    %eax
    bac1:	3d e8 03 00 00       	cmp    $0x3e8,%eax
    bac6:	f2 41 0f 2c d1       	cvttsd2si %xmm9,%edx
    bacb:	f2 0f 2a ea          	cvtsi2sd %edx,%xmm5
    bacf:	f2 0f 59 e9          	mulsd  %xmm1,%xmm5
    bad3:	f2 41 0f 2c c8       	cvttsd2si %xmm8,%ecx
    bad8:	f2 0f 2a e1          	cvtsi2sd %ecx,%xmm4
    badc:	f2 0f 59 e1          	mulsd  %xmm1,%xmm4
    bae0:	0f 82 a3 fc ff ff    	jb     b789 <main+0xc9>
    bae6:	66 0f 2e 3d 7a 1f 00 	ucomisd 8058(%rip),%xmm7        # da68 <_IO_stdin_used+0x8>
    baed:	00 
    baee:	7a 02                	jp     baf2 <main+0x432>
    baf0:	74 21                	je     bb13 <main+0x453>
    baf2:	bf 34 2d 40 00       	mov    $0x402d34,%edi
    baf7:	31 c0                	xor    %eax,%eax
    baf9:	e8 aa fa ff ff       	callq  b5a8 <fprintf@plt+0x8>
    bafe:	41 ff c4             	inc    %r12d
    bb01:	41 81 fc a0 86 01 00 	cmp    $0x186a0,%r12d
    bb08:	0f 82 34 fc ff ff    	jb     b742 <main+0x82>
    bb0e:	e9 f4 fb ff ff       	jmpq   b707 <main+0x47>
    bb13:	66 0f 2e 35 4d 1f 00 	ucomisd 8013(%rip),%xmm6        # da68 <_IO_stdin_used+0x8>
    bb1a:	00 
    bb1b:	75 d5                	jne    baf2 <main+0x432>
    bb1d:	7a d3                	jp     baf2 <main+0x432>
    bb1f:	bf 28 2d 40 00       	mov    $0x402d28,%edi
    bb24:	31 c0                	xor    %eax,%eax
    bb26:	e8 7d fa ff ff       	callq  b5a8 <fprintf@plt+0x8>
    bb2b:	eb d1                	jmp    bafe <main+0x43e>
    bb2d:	66 66 90             	xchg   %ax,%ax

000000000000bb30 <main_test>:
    bb30:	56                   	push   %rsi
    bb31:	e8 0a 00 00 00       	callq  bb40 <lattice>
    bb36:	31 c0                	xor    %eax,%eax
    bb38:	59                   	pop    %rcx
    bb39:	c3                   	retq   
    bb3a:	66 66 90             	xchg   %ax,%ax
    bb3d:	66 66 90             	xchg   %ax,%ax

000000000000bb40 <lattice>:
    bb40:	41 57                	push   %r15
    bb42:	41 56                	push   %r14
    bb44:	41 55                	push   %r13
    bb46:	41 54                	push   %r12
    bb48:	55                   	push   %rbp
    bb49:	48 83 ec 70          	sub    $0x70,%rsp
    bb4d:	f2 0f 10 2d 53 1f 00 	movsd  8019(%rip),%xmm5        # daa8 <_IO_stdin_used+0x48>
    bb54:	00 
    bb55:	f2 0f 10 25 53 1f 00 	movsd  8019(%rip),%xmm4        # dab0 <_IO_stdin_used+0x50>
    bb5c:	00 
    bb5d:	f2 0f 10 1d 53 1f 00 	movsd  8019(%rip),%xmm3        # dab8 <_IO_stdin_used+0x58>
    bb64:	00 
    bb65:	f2 0f 10 15 53 1f 00 	movsd  8019(%rip),%xmm2        # dac0 <_IO_stdin_used+0x60>
    bb6c:	00 
    bb6d:	f2 0f 10 0d 53 1f 00 	movsd  8019(%rip),%xmm1        # dac8 <_IO_stdin_used+0x68>
    bb74:	00 
    bb75:	f2 0f 10 05 53 1f 00 	movsd  8019(%rip),%xmm0        # dad0 <_IO_stdin_used+0x70>
    bb7c:	00 
    bb7d:	f2 0f 10 35 53 1f 00 	movsd  8019(%rip),%xmm6        # dad8 <_IO_stdin_used+0x78>
    bb84:	00 
    bb85:	31 ed                	xor    %ebp,%ebp
    bb87:	f2 0f 10 25 19 1f 00 	movsd  7961(%rip),%xmm4        # daa8 <_IO_stdin_used+0x48>
    bb8e:	00 
    bb8f:	0f 28 c4             	movaps %xmm4,%xmm0
    bb92:	f2 0f 10 3d 3e 1f 00 	movsd  7998(%rip),%xmm7        # dad8 <_IO_stdin_used+0x78>
    bb99:	00 
    bb9a:	f2 44 0f 10 05 2d 1f 	movsd  7981(%rip),%xmm8        # dad0 <_IO_stdin_used+0x70>
    bba1:	00 00 
    bba3:	45 31 e4             	xor    %r12d,%r12d
    bba6:	66 0f ef db          	pxor   %xmm3,%xmm3
    bbaa:	f2 44 0f 10 0d 15 1f 	movsd  7957(%rip),%xmm9        # dac8 <_IO_stdin_used+0x68>
    bbb1:	00 00 
    bbb3:	f2 44 0f 10 15 04 1f 	movsd  7940(%rip),%xmm10        # dac0 <_IO_stdin_used+0x60>
    bbba:	00 00 
    bbbc:	f2 44 0f 10 1d f3 1e 	movsd  7923(%rip),%xmm11        # dab8 <_IO_stdin_used+0x58>
    bbc3:	00 00 
    bbc5:	f2 0f 10 0d e3 1e 00 	movsd  7907(%rip),%xmm1        # dab0 <_IO_stdin_used+0x50>
    bbcc:	00 
    bbcd:	66 0f ef d2          	pxor   %xmm2,%xmm2
    bbd1:	f2 0f 11 54 24 08    	movsd  %xmm2,0x8(%rsp)
    bbd7:	f2 0f 11 1c 24       	movsd  %xmm3,(%rsp)
    bbdc:	45 31 ed             	xor    %r13d,%r13d
    bbdf:	66 0f ef ed          	pxor   %xmm5,%xmm5
    bbe3:	f2 0f 11 6c 24 60    	movsd  %xmm5,0x60(%rsp)
    bbe9:	66 0f ef f6          	pxor   %xmm6,%xmm6
    bbed:	f2 0f 11 74 24 58    	movsd  %xmm6,0x58(%rsp)
    bbf3:	f2 41 0f 2a d5       	cvtsi2sd %r13d,%xmm2
    bbf8:	f2 0f 11 64 24 10    	movsd  %xmm4,0x10(%rsp)
    bbfe:	0f 28 ec             	movaps %xmm4,%xmm5
    bc01:	f2 0f 59 d1          	mulsd  %xmm1,%xmm2
    bc05:	45 31 f6             	xor    %r14d,%r14d
    bc08:	f2 0f 5c ea          	subsd  %xmm2,%xmm5
    bc0c:	0f 28 dd             	movaps %xmm5,%xmm3
    bc0f:	f2 0f 59 dd          	mulsd  %xmm5,%xmm3
    bc13:	f2 0f 51 d3          	sqrtsd %xmm3,%xmm2
    bc17:	f2 41 0f 2a f6       	cvtsi2sd %r14d,%xmm6
    bc1c:	f2 0f 11 54 24 28    	movsd  %xmm2,0x28(%rsp)
    bc22:	f2 0f 11 5c 24 20    	movsd  %xmm3,0x20(%rsp)
    bc28:	f2 0f 11 6c 24 30    	movsd  %xmm5,0x30(%rsp)
    bc2e:	f2 0f 11 44 24 18    	movsd  %xmm0,0x18(%rsp)
    bc34:	f2 0f 59 f1          	mulsd  %xmm1,%xmm6
    bc38:	44 0f 28 d8          	movaps %xmm0,%xmm11
    bc3c:	0f 28 fb             	movaps %xmm3,%xmm7
    bc3f:	45 31 ff             	xor    %r15d,%r15d
    bc42:	f2 44 0f 5c de       	subsd  %xmm6,%xmm11
    bc47:	f2 44 0f 11 5c 24 50 	movsd  %xmm11,0x50(%rsp)
    bc4e:	45 0f 28 c3          	movaps %xmm11,%xmm8
    bc52:	f2 45 0f 59 c3       	mulsd  %xmm11,%xmm8
    bc57:	f2 41 0f 58 f8       	addsd  %xmm8,%xmm7
    bc5c:	f2 44 0f 51 d7       	sqrtsd %xmm7,%xmm10
    bc61:	45 0f 28 ca          	movaps %xmm10,%xmm9
    bc65:	f2 0f 10 3d 73 1e 00 	movsd  7795(%rip),%xmm7        # dae0 <_IO_stdin_used+0x80>
    bc6c:	00 
    bc6d:	f2 45 0f 59 ca       	mulsd  %xmm10,%xmm9
    bc72:	f2 41 0f 5e f9       	divsd  %xmm9,%xmm7
    bc77:	f2 0f 11 7c 24 38    	movsd  %xmm7,0x38(%rsp)
    bc7d:	f2 41 0f 51 f0       	sqrtsd %xmm8,%xmm6
    bc82:	f2 41 0f 5e f2       	divsd  %xmm10,%xmm6
    bc87:	44 0f 28 c2          	movaps %xmm2,%xmm8
    bc8b:	f2 45 0f 5e c2       	divsd  %xmm10,%xmm8
    bc90:	f2 44 0f 11 44 24 48 	movsd  %xmm8,0x48(%rsp)
    bc97:	f2 0f 59 f7          	mulsd  %xmm7,%xmm6
    bc9b:	f2 0f 59 f5          	mulsd  %xmm5,%xmm6
    bc9f:	f2 0f 11 74 24 40    	movsd  %xmm6,0x40(%rsp)
    bca5:	f2 0f 10 44 24 30    	movsd  0x30(%rsp),%xmm0
    bcab:	e8 80 01 00 00       	callq  be30 <mabs>
    bcb0:	f2 0f 10 4c 24 40    	movsd  0x40(%rsp),%xmm1
    bcb6:	f2 0f 5e c8          	divsd  %xmm0,%xmm1
    bcba:	f2 0f 10 54 24 60    	movsd  0x60(%rsp),%xmm2
    bcc0:	f2 0f 10 44 24 50    	movsd  0x50(%rsp),%xmm0
    bcc6:	f2 0f 58 d1          	addsd  %xmm1,%xmm2
    bcca:	f2 0f 11 54 24 60    	movsd  %xmm2,0x60(%rsp)
    bcd0:	e8 5b 01 00 00       	callq  be30 <mabs>
    bcd5:	f2 0f 10 4c 24 38    	movsd  0x38(%rsp),%xmm1
    bcdb:	f2 0f 59 4c 24 50    	mulsd  0x50(%rsp),%xmm1
    bce1:	f2 0f 59 4c 24 48    	mulsd  0x48(%rsp),%xmm1
    bce7:	f2 0f 5e c8          	divsd  %xmm0,%xmm1
    bceb:	f2 0f 10 44 24 58    	movsd  0x58(%rsp),%xmm0
    bcf1:	41 ff c7             	inc    %r15d
    bcf4:	f2 0f 58 c1          	addsd  %xmm1,%xmm0
    bcf8:	f2 0f 11 44 24 58    	movsd  %xmm0,0x58(%rsp)
    bcfe:	41 83 ff 0a          	cmp    $0xa,%r15d
    bd02:	72 a1                	jb     bca5 <lattice+0x165>
    bd04:	f2 0f 10 54 24 28    	movsd  0x28(%rsp),%xmm2
    bd0a:	f2 0f 10 5c 24 20    	movsd  0x20(%rsp),%xmm3
    bd10:	f2 0f 10 6c 24 30    	movsd  0x30(%rsp),%xmm5
    bd16:	f2 0f 10 44 24 18    	movsd  0x18(%rsp),%xmm0
    bd1c:	41 ff c6             	inc    %r14d
    bd1f:	41 83 fe 0a          	cmp    $0xa,%r14d
    bd23:	f2 0f 10 0d 85 1d 00 	movsd  7557(%rip),%xmm1        # dab0 <_IO_stdin_used+0x50>
    bd2a:	00 
    bd2b:	0f 82 e6 fe ff ff    	jb     bc17 <lattice+0xd7>
    bd31:	f2 0f 10 64 24 10    	movsd  0x10(%rsp),%xmm4
    bd37:	41 ff c5             	inc    %r13d
    bd3a:	41 83 fd 0a          	cmp    $0xa,%r13d
    bd3e:	0f 82 af fe ff ff    	jb     bbf3 <lattice+0xb3>
    bd44:	f2 0f 10 74 24 58    	movsd  0x58(%rsp),%xmm6
    bd4a:	f2 0f 10 6c 24 60    	movsd  0x60(%rsp),%xmm5
    bd50:	f2 0f 10 54 24 08    	movsd  0x8(%rsp),%xmm2
    bd56:	f2 0f 10 1c 24       	movsd  (%rsp),%xmm3
    bd5b:	41 ff c4             	inc    %r12d
    bd5e:	41 81 fc e8 03 00 00 	cmp    $0x3e8,%r12d
    bd65:	f2 0f 10 3d 6b 1d 00 	movsd  7531(%rip),%xmm7        # dad8 <_IO_stdin_used+0x78>
    bd6c:	00 
    bd6d:	f2 44 0f 10 05 5a 1d 	movsd  7514(%rip),%xmm8        # dad0 <_IO_stdin_used+0x70>
    bd74:	00 00 
    bd76:	f2 44 0f 10 0d 49 1d 	movsd  7497(%rip),%xmm9        # dac8 <_IO_stdin_used+0x68>
    bd7d:	00 00 
    bd7f:	f2 44 0f 10 15 38 1d 	movsd  7480(%rip),%xmm10        # dac0 <_IO_stdin_used+0x60>
    bd86:	00 00 
    bd88:	f2 44 0f 10 1d 27 1d 	movsd  7463(%rip),%xmm11        # dab8 <_IO_stdin_used+0x58>
    bd8f:	00 00 
    bd91:	f2 41 0f 59 eb       	mulsd  %xmm11,%xmm5
    bd96:	f2 41 0f 5e eb       	divsd  %xmm11,%xmm5
    bd9b:	f2 41 0f 59 f3       	mulsd  %xmm11,%xmm6
    bda0:	f2 41 0f 5e f3       	divsd  %xmm11,%xmm6
    bda5:	f2 0f 58 eb          	addsd  %xmm3,%xmm5
    bda9:	f2 0f 58 dd          	addsd  %xmm5,%xmm3
    bdad:	f2 41 0f 59 da       	mulsd  %xmm10,%xmm3
    bdb2:	f2 0f 59 ef          	mulsd  %xmm7,%xmm5
    bdb6:	f2 0f 58 f2          	addsd  %xmm2,%xmm6
    bdba:	f2 0f 58 e3          	addsd  %xmm3,%xmm4
    bdbe:	f2 0f 58 d6          	addsd  %xmm6,%xmm2
    bdc2:	f2 41 0f 59 d2       	mulsd  %xmm10,%xmm2
    bdc7:	f2 0f 59 f7          	mulsd  %xmm7,%xmm6
    bdcb:	f2 41 0f 58 e8       	addsd  %xmm8,%xmm5
    bdd0:	f2 0f 58 c2          	addsd  %xmm2,%xmm0
    bdd4:	f2 41 0f 58 f0       	addsd  %xmm8,%xmm6
    bdd9:	f2 0f 2c c5          	cvttsd2si %xmm5,%eax
    bddd:	f2 0f 2a d8          	cvtsi2sd %eax,%xmm3
    bde1:	f2 41 0f 59 d9       	mulsd  %xmm9,%xmm3
    bde6:	f2 0f 2c d6          	cvttsd2si %xmm6,%edx
    bdea:	f2 0f 2a d2          	cvtsi2sd %edx,%xmm2
    bdee:	f2 41 0f 59 d1       	mulsd  %xmm9,%xmm2
    bdf3:	0f 82 d8 fd ff ff    	jb     bbd1 <lattice+0x91>
    bdf9:	66 0f 2e 25 a7 1c 00 	ucomisd 7335(%rip),%xmm4        # daa8 <_IO_stdin_used+0x48>
    be00:	00 
    be01:	7a 02                	jp     be05 <lattice+0x2c5>
    be03:	74 18                	je     be1d <lattice+0x2dd>
    be05:	e8 56 00 00 00       	callq  be60 <sdc>
    be0a:	ff c5                	inc    %ebp
    be0c:	81 fd a0 86 01 00    	cmp    $0x186a0,%ebp
    be12:	0f 82 6f fd ff ff    	jb     bb87 <lattice+0x47>
    be18:	e9 68 fd ff ff       	jmpq   bb85 <lattice+0x45>
    be1d:	66 0f 2e 05 83 1c 00 	ucomisd 7299(%rip),%xmm0        # daa8 <_IO_stdin_used+0x48>
    be24:	00 
    be25:	75 de                	jne    be05 <lattice+0x2c5>
    be27:	7a dc                	jp     be05 <lattice+0x2c5>
    be29:	e8 22 00 00 00       	callq  be50 <correct>
    be2e:	eb da                	jmp    be0a <lattice+0x2ca>

000000000000be30 <mabs>:
    be30:	f2 0f 11 44 24 f8    	movsd  %xmm0,0xfffffffffffffff8(%rsp)
    be36:	81 64 24 fc ff ff ff 	andl   $0x7fffffff,0xfffffffffffffffc(%rsp)
    be3d:	7f 
    be3e:	f2 0f 10 44 24 f8    	movsd  0xfffffffffffffff8(%rsp),%xmm0
    be44:	c3                   	retq   
    be45:	66 66 66 90          	xchg   %ax,%ax
    be49:	66 66 66 90          	xchg   %ax,%ax
    be4d:	66 66 90             	xchg   %ax,%ax

000000000000be50 <correct>:
    be50:	56                   	push   %rsi
    be51:	bf 28 2d 40 00       	mov    $0x402d28,%edi
    be56:	31 c0                	xor    %eax,%eax
    be58:	e8 4b f7 ff ff       	callq  b5a8 <fprintf@plt+0x8>
    be5d:	59                   	pop    %rcx
    be5e:	c3                   	retq   
    be5f:	90                   	nop    

000000000000be60 <sdc>:
    be60:	56                   	push   %rsi
    be61:	bf 34 2d 40 00       	mov    $0x402d34,%edi
    be66:	31 c0                	xor    %eax,%eax
    be68:	e8 3b f7 ff ff       	callq  b5a8 <fprintf@plt+0x8>
    be6d:	59                   	pop    %rcx
    be6e:	c3                   	retq   
    be6f:	90                   	nop    

000000000000be70 <start_delay>:
    be70:	31 c0                	xor    %eax,%eax
    be72:	b8 01 00 00 00       	mov    $0x1,%eax
    be77:	0f a2                	cpuid  
    be79:	c1 eb 12             	shr    $0x12,%ebx
    be7c:	31 c9                	xor    %ecx,%ecx
    be7e:	01 d9                	add    %ebx,%ecx
    be80:	48 c1 e1 14          	shl    $0x14,%rcx
    be84:	e2 fe                	loop   be84 <start_delay+0x14>
    be86:	c3                   	retq   
    be87:	66 66 90             	xchg   %ax,%ax
    be8a:	66 66 90             	xchg   %ax,%ax
    be8d:	66 66 90             	xchg   %ax,%ax

000000000000be90 <__intel_proc_init_N.A>:
    be90:	48 81 ec 08 02 00 00 	sub    $0x208,%rsp
    be97:	bf 01 00 00 00       	mov    $0x1,%edi
    be9c:	33 f6                	xor    %esi,%esi
    be9e:	33 d2                	xor    %edx,%edx
    bea0:	33 c0                	xor    %eax,%eax
    bea2:	e8 29 15 00 00       	callq  d3d0 <irc__print>
    bea7:	bf 01 00 00 00       	mov    $0x1,%edi
    beac:	be 17 00 00 00       	mov    $0x17,%esi
    beb1:	33 d2                	xor    %edx,%edx
    beb3:	33 c0                	xor    %eax,%eax
    beb5:	e8 16 15 00 00       	callq  d3d0 <irc__print>
    beba:	bf 2d 00 00 00       	mov    $0x2d,%edi
    bebf:	33 f6                	xor    %esi,%esi
    bec1:	33 c0                	xor    %eax,%eax
    bec3:	e8 58 17 00 00       	callq  d620 <irc__get_msg>
    bec8:	48 8d 3c 24          	lea    (%rsp),%rdi
    becc:	48 89 c6             	mov    %rax,%rsi
    becf:	ba 00 02 00 00       	mov    $0x200,%edx
    bed4:	e8 9f f6 ff ff       	callq  b578 <getenv@plt+0x8>
    bed9:	48 8d 0c 24          	lea    (%rsp),%rcx
    bedd:	bf 01 00 00 00       	mov    $0x1,%edi
    bee2:	be 18 00 00 00       	mov    $0x18,%esi
    bee7:	89 fa                	mov    %edi,%edx
    bee9:	33 c0                	xor    %eax,%eax
    beeb:	e8 e0 14 00 00       	callq  d3d0 <irc__print>
    bef0:	bf 01 00 00 00       	mov    $0x1,%edi
    bef5:	33 f6                	xor    %esi,%esi
    bef7:	33 d2                	xor    %edx,%edx
    bef9:	33 c0                	xor    %eax,%eax
    befb:	e8 d0 14 00 00       	callq  d3d0 <irc__print>
    bf00:	bf 01 00 00 00       	mov    $0x1,%edi
    bf05:	e8 de f6 ff ff       	callq  b5e8 <memset@plt+0x8>
    bf0a:	90                   	nop    
    bf0b:	48 8d 74 26 00       	lea    0x0(%rsi),%rsi

000000000000bf10 <__intel_proc_init_N.J>:
    bf10:	48 81 ec 08 02 00 00 	sub    $0x208,%rsp
    bf17:	48 8d 3c 24          	lea    (%rsp),%rdi
    bf1b:	33 f6                	xor    %esi,%esi
    bf1d:	ba 00 02 00 00       	mov    $0x200,%edx
    bf22:	e8 b1 f6 ff ff       	callq  b5d8 <strchr@plt+0x8>
    bf27:	0f ae 04 24          	fxsave (%rsp)
    bf2b:	8b 54 24 1c          	mov    0x1c(%rsp),%edx
    bf2f:	0f ae 9c 24 00 02 00 	stmxcsr 0x200(%rsp)
    bf36:	00 
    bf37:	8b 84 24 00 02 00 00 	mov    0x200(%rsp),%eax
    bf3e:	83 e2 40             	and    $0x40,%edx
    bf41:	0d 00 80 00 00       	or     $0x8000,%eax
    bf46:	89 84 24 00 02 00 00 	mov    %eax,0x200(%rsp)
    bf4d:	0f ae 94 24 00 02 00 	ldmxcsr 0x200(%rsp)
    bf54:	00 
    bf55:	85 d2                	test   %edx,%edx
    bf57:	74 21                	je     bf7a <__intel_proc_init_N.J+0x6a>
    bf59:	0f ae 9c 24 00 02 00 	stmxcsr 0x200(%rsp)
    bf60:	00 
    bf61:	8b 84 24 00 02 00 00 	mov    0x200(%rsp),%eax
    bf68:	83 c8 40             	or     $0x40,%eax
    bf6b:	89 84 24 00 02 00 00 	mov    %eax,0x200(%rsp)
    bf72:	0f ae 94 24 00 02 00 	ldmxcsr 0x200(%rsp)
    bf79:	00 
    bf7a:	48 81 c4 08 02 00 00 	add    $0x208,%rsp
    bf81:	c3                   	retq   
    bf82:	48 8d b6 00 00 00 00 	lea    0x0(%rsi),%rsi
    bf89:	48 8d bf 00 00 00 00 	lea    0x0(%rdi),%rdi

000000000000bf90 <__intel_proc_init_N.K>:
    bf90:	0f ae 5c 24 f8       	stmxcsr 0xfffffffffffffff8(%rsp)
    bf95:	8b 44 24 f8          	mov    0xfffffffffffffff8(%rsp),%eax
    bf99:	0d 00 80 00 00       	or     $0x8000,%eax
    bf9e:	89 44 24 f8          	mov    %eax,0xfffffffffffffff8(%rsp)
    bfa2:	0f ae 54 24 f8       	ldmxcsr 0xfffffffffffffff8(%rsp)
    bfa7:	0f ae 5c 24 f8       	stmxcsr 0xfffffffffffffff8(%rsp)
    bfac:	8b 44 24 f8          	mov    0xfffffffffffffff8(%rsp),%eax
    bfb0:	83 c8 40             	or     $0x40,%eax
    bfb3:	89 44 24 f8          	mov    %eax,0xfffffffffffffff8(%rsp)
    bfb7:	0f ae 54 24 f8       	ldmxcsr 0xfffffffffffffff8(%rsp)
    bfbc:	c3                   	retq   
    bfbd:	48 89 f6             	mov    %rsi,%rsi

000000000000bfc0 <__intel_proc_init_N.L>:
    bfc0:	0f ae 5c 24 f8       	stmxcsr 0xfffffffffffffff8(%rsp)
    bfc5:	8b 44 24 f8          	mov    0xfffffffffffffff8(%rsp),%eax
    bfc9:	0d 00 80 00 00       	or     $0x8000,%eax
    bfce:	89 44 24 f8          	mov    %eax,0xfffffffffffffff8(%rsp)
    bfd2:	0f ae 54 24 f8       	ldmxcsr 0xfffffffffffffff8(%rsp)
    bfd7:	0f ae 5c 24 f8       	stmxcsr 0xfffffffffffffff8(%rsp)
    bfdc:	8b 44 24 f8          	mov    0xfffffffffffffff8(%rsp),%eax
    bfe0:	83 c8 40             	or     $0x40,%eax
    bfe3:	89 44 24 f8          	mov    %eax,0xfffffffffffffff8(%rsp)
    bfe7:	0f ae 54 24 f8       	ldmxcsr 0xfffffffffffffff8(%rsp)
    bfec:	c3                   	retq   
    bfed:	48 89 f6             	mov    %rsi,%rsi

000000000000bff0 <__intel_proc_init_N>:
    bff0:	48 8b 05 d1 33 10 00 	mov    1061841(%rip),%rax        # 10f3c8 <_IO_stdin_used+0x101968>
    bff7:	8b 00                	mov    (%rax),%eax
    bff9:	a9 00 f8 ff ff       	test   $0xfffff800,%eax
    bffe:	0f 85 bc ff ff ff    	jne    bfc0 <__intel_proc_init_N.L>
    c004:	a9 00 04 00 00       	test   $0x400,%eax
    c009:	0f 85 81 ff ff ff    	jne    bf90 <__intel_proc_init_N.K>
    c00f:	a9 00 fe ff ff       	test   $0xfffffe00,%eax
    c014:	0f 85 f6 fe ff ff    	jne    bf10 <__intel_proc_init_N.J>
    c01a:	a9 ff ff ff ff       	test   $0xffffffff,%eax
    c01f:	0f 85 6b fe ff ff    	jne    be90 <__intel_proc_init_N.A>
    c025:	48 83 ec 08          	sub    $0x8,%rsp
    c029:	e8 e2 17 00 00       	callq  d810 <__intel_cpu_indicator_init>
    c02e:	48 83 c4 08          	add    $0x8,%rsp
    c032:	eb bc                	jmp    bff0 <__intel_proc_init_N>
    c034:	90                   	nop    
    c035:	48 8d 74 26 00       	lea    0x0(%rsi),%rsi
    c03a:	90                   	nop    
    c03b:	48 8d 7c 27 00       	lea    0x0(%rdi),%rdi

000000000000c040 <__intel_new_proc_init_N.A>:
    c040:	48 81 ec 08 02 00 00 	sub    $0x208,%rsp
    c047:	bf 01 00 00 00       	mov    $0x1,%edi
    c04c:	33 f6                	xor    %esi,%esi
    c04e:	33 d2                	xor    %edx,%edx
    c050:	33 c0                	xor    %eax,%eax
    c052:	e8 79 13 00 00       	callq  d3d0 <irc__print>
    c057:	bf 01 00 00 00       	mov    $0x1,%edi
    c05c:	be 17 00 00 00       	mov    $0x17,%esi
    c061:	33 d2                	xor    %edx,%edx
    c063:	33 c0                	xor    %eax,%eax
    c065:	e8 66 13 00 00       	callq  d3d0 <irc__print>
    c06a:	bf 2d 00 00 00       	mov    $0x2d,%edi
    c06f:	33 f6                	xor    %esi,%esi
    c071:	33 c0                	xor    %eax,%eax
    c073:	e8 a8 15 00 00       	callq  d620 <irc__get_msg>
    c078:	48 8d 3c 24          	lea    (%rsp),%rdi
    c07c:	48 89 c6             	mov    %rax,%rsi
    c07f:	ba 00 02 00 00       	mov    $0x200,%edx
    c084:	e8 ef f4 ff ff       	callq  b578 <getenv@plt+0x8>
    c089:	48 8d 0c 24          	lea    (%rsp),%rcx
    c08d:	bf 01 00 00 00       	mov    $0x1,%edi
    c092:	be 18 00 00 00       	mov    $0x18,%esi
    c097:	89 fa                	mov    %edi,%edx
    c099:	33 c0                	xor    %eax,%eax
    c09b:	e8 30 13 00 00       	callq  d3d0 <irc__print>
    c0a0:	bf 01 00 00 00       	mov    $0x1,%edi
    c0a5:	33 f6                	xor    %esi,%esi
    c0a7:	33 d2                	xor    %edx,%edx
    c0a9:	33 c0                	xor    %eax,%eax
    c0ab:	e8 20 13 00 00       	callq  d3d0 <irc__print>
    c0b0:	bf 01 00 00 00       	mov    $0x1,%edi
    c0b5:	e8 2e f5 ff ff       	callq  b5e8 <memset@plt+0x8>
    c0ba:	90                   	nop    
    c0bb:	48 8d 74 26 00       	lea    0x0(%rsi),%rsi

000000000000c0c0 <__intel_new_proc_init_N.J>:
    c0c0:	41 57                	push   %r15
    c0c2:	41 56                	push   %r14
    c0c4:	55                   	push   %rbp
    c0c5:	48 81 ec 10 02 00 00 	sub    $0x210,%rsp
    c0cc:	41 89 ff             	mov    %edi,%r15d
    c0cf:	44 89 fd             	mov    %r15d,%ebp
    c0d2:	83 e5 02             	and    $0x2,%ebp
    c0d5:	45 89 fe             	mov    %r15d,%r14d
    c0d8:	41 83 e6 04          	and    $0x4,%r14d
    c0dc:	85 ed                	test   %ebp,%ebp
    c0de:	75 05                	jne    c0e5 <__intel_new_proc_init_N.J+0x25>
    c0e0:	45 85 f6             	test   %r14d,%r14d
    c0e3:	74 2c                	je     c111 <__intel_new_proc_init_N.J+0x51>
    c0e5:	48 8d 3c 24          	lea    (%rsp),%rdi
    c0e9:	33 f6                	xor    %esi,%esi
    c0eb:	ba 00 02 00 00       	mov    $0x200,%edx
    c0f0:	e8 e3 f4 ff ff       	callq  b5d8 <strchr@plt+0x8>
    c0f5:	0f ae 04 24          	fxsave (%rsp)
    c0f9:	8b 54 24 1c          	mov    0x1c(%rsp),%edx
    c0fd:	33 c9                	xor    %ecx,%ecx
    c0ff:	89 d0                	mov    %edx,%eax
    c101:	83 e0 40             	and    $0x40,%eax
    c104:	0f 44 e9             	cmove  %ecx,%ebp
    c107:	81 e2 00 00 02 00    	and    $0x20000,%edx
    c10d:	44 0f 44 f1          	cmove  %ecx,%r14d
    c111:	41 f7 c7 01 00 00 00 	test   $0x1,%r15d
    c118:	75 5a                	jne    c174 <__intel_new_proc_init_N.J+0xb4>
    c11a:	85 ed                	test   %ebp,%ebp
    c11c:	74 21                	je     c13f <__intel_new_proc_init_N.J+0x7f>
    c11e:	0f ae 9c 24 00 02 00 	stmxcsr 0x200(%rsp)
    c125:	00 
    c126:	8b 84 24 00 02 00 00 	mov    0x200(%rsp),%eax
    c12d:	83 c8 40             	or     $0x40,%eax
    c130:	89 84 24 00 02 00 00 	mov    %eax,0x200(%rsp)
    c137:	0f ae 94 24 00 02 00 	ldmxcsr 0x200(%rsp)
    c13e:	00 
    c13f:	45 85 f6             	test   %r14d,%r14d
    c142:	74 23                	je     c167 <__intel_new_proc_init_N.J+0xa7>
    c144:	0f ae 9c 24 00 02 00 	stmxcsr 0x200(%rsp)
    c14b:	00 
    c14c:	8b 84 24 00 02 00 00 	mov    0x200(%rsp),%eax
    c153:	0d 00 00 02 00       	or     $0x20000,%eax
    c158:	89 84 24 00 02 00 00 	mov    %eax,0x200(%rsp)
    c15f:	0f ae 94 24 00 02 00 	ldmxcsr 0x200(%rsp)
    c166:	00 
    c167:	48 81 c4 10 02 00 00 	add    $0x210,%rsp
    c16e:	5d                   	pop    %rbp
    c16f:	41 5e                	pop    %r14
    c171:	41 5f                	pop    %r15
    c173:	c3                   	retq   
    c174:	0f ae 9c 24 00 02 00 	stmxcsr 0x200(%rsp)
    c17b:	00 
    c17c:	8b 84 24 00 02 00 00 	mov    0x200(%rsp),%eax
    c183:	0d 00 80 00 00       	or     $0x8000,%eax
    c188:	89 84 24 00 02 00 00 	mov    %eax,0x200(%rsp)
    c18f:	0f ae 94 24 00 02 00 	ldmxcsr 0x200(%rsp)
    c196:	00 
    c197:	eb 81                	jmp    c11a <__intel_new_proc_init_N.J+0x5a>
    c199:	48 8d b6 00 00 00 00 	lea    0x0(%rsi),%rsi

000000000000c1a0 <__intel_new_proc_init_N.K>:
    c1a0:	41 57                	push   %r15
    c1a2:	41 56                	push   %r14
    c1a4:	55                   	push   %rbp
    c1a5:	48 81 ec 10 02 00 00 	sub    $0x210,%rsp
    c1ac:	41 89 ff             	mov    %edi,%r15d
    c1af:	44 89 fd             	mov    %r15d,%ebp
    c1b2:	83 e5 02             	and    $0x2,%ebp
    c1b5:	45 89 fe             	mov    %r15d,%r14d
    c1b8:	41 83 e6 04          	and    $0x4,%r14d
    c1bc:	74 2c                	je     c1ea <__intel_new_proc_init_N.K+0x4a>
    c1be:	48 8d 3c 24          	lea    (%rsp),%rdi
    c1c2:	33 f6                	xor    %esi,%esi
    c1c4:	ba 00 02 00 00       	mov    $0x200,%edx
    c1c9:	e8 0a f4 ff ff       	callq  b5d8 <strchr@plt+0x8>
    c1ce:	0f ae 04 24          	fxsave (%rsp)
    c1d2:	8b 54 24 1c          	mov    0x1c(%rsp),%edx
    c1d6:	33 c9                	xor    %ecx,%ecx
    c1d8:	89 d0                	mov    %edx,%eax
    c1da:	83 e0 40             	and    $0x40,%eax
    c1dd:	0f 44 e9             	cmove  %ecx,%ebp
    c1e0:	81 e2 00 00 02 00    	and    $0x20000,%edx
    c1e6:	44 0f 44 f1          	cmove  %ecx,%r14d
    c1ea:	41 f7 c7 01 00 00 00 	test   $0x1,%r15d
    c1f1:	75 5a                	jne    c24d <__intel_new_proc_init_N.K+0xad>
    c1f3:	85 ed                	test   %ebp,%ebp
    c1f5:	74 21                	je     c218 <__intel_new_proc_init_N.K+0x78>
    c1f7:	0f ae 9c 24 00 02 00 	stmxcsr 0x200(%rsp)
    c1fe:	00 
    c1ff:	8b 84 24 00 02 00 00 	mov    0x200(%rsp),%eax
    c206:	83 c8 40             	or     $0x40,%eax
    c209:	89 84 24 00 02 00 00 	mov    %eax,0x200(%rsp)
    c210:	0f ae 94 24 00 02 00 	ldmxcsr 0x200(%rsp)
    c217:	00 
    c218:	45 85 f6             	test   %r14d,%r14d
    c21b:	74 23                	je     c240 <__intel_new_proc_init_N.K+0xa0>
    c21d:	0f ae 9c 24 00 02 00 	stmxcsr 0x200(%rsp)
    c224:	00 
    c225:	8b 84 24 00 02 00 00 	mov    0x200(%rsp),%eax
    c22c:	0d 00 00 02 00       	or     $0x20000,%eax
    c231:	89 84 24 00 02 00 00 	mov    %eax,0x200(%rsp)
    c238:	0f ae 94 24 00 02 00 	ldmxcsr 0x200(%rsp)
    c23f:	00 
    c240:	48 81 c4 10 02 00 00 	add    $0x210,%rsp
    c247:	5d                   	pop    %rbp
    c248:	41 5e                	pop    %r14
    c24a:	41 5f                	pop    %r15
    c24c:	c3                   	retq   
    c24d:	0f ae 9c 24 00 02 00 	stmxcsr 0x200(%rsp)
    c254:	00 
    c255:	8b 84 24 00 02 00 00 	mov    0x200(%rsp),%eax
    c25c:	0d 00 80 00 00       	or     $0x8000,%eax
    c261:	89 84 24 00 02 00 00 	mov    %eax,0x200(%rsp)
    c268:	0f ae 94 24 00 02 00 	ldmxcsr 0x200(%rsp)
    c26f:	00 
    c270:	eb 81                	jmp    c1f3 <__intel_new_proc_init_N.K+0x53>
    c272:	48 8d b6 00 00 00 00 	lea    0x0(%rsi),%rsi
    c279:	48 8d bf 00 00 00 00 	lea    0x0(%rdi),%rdi

000000000000c280 <__intel_new_proc_init_N.L>:
    c280:	41 57                	push   %r15
    c282:	41 56                	push   %r14
    c284:	55                   	push   %rbp
    c285:	48 81 ec 10 02 00 00 	sub    $0x210,%rsp
    c28c:	41 89 ff             	mov    %edi,%r15d
    c28f:	44 89 fd             	mov    %r15d,%ebp
    c292:	83 e5 02             	and    $0x2,%ebp
    c295:	45 89 fe             	mov    %r15d,%r14d
    c298:	41 83 e6 04          	and    $0x4,%r14d
    c29c:	74 2c                	je     c2ca <__intel_new_proc_init_N.L+0x4a>
    c29e:	48 8d 3c 24          	lea    (%rsp),%rdi
    c2a2:	33 f6                	xor    %esi,%esi
    c2a4:	ba 00 02 00 00       	mov    $0x200,%edx
    c2a9:	e8 2a f3 ff ff       	callq  b5d8 <strchr@plt+0x8>
    c2ae:	0f ae 04 24          	fxsave (%rsp)
    c2b2:	8b 54 24 1c          	mov    0x1c(%rsp),%edx
    c2b6:	33 c9                	xor    %ecx,%ecx
    c2b8:	89 d0                	mov    %edx,%eax
    c2ba:	83 e0 40             	and    $0x40,%eax
    c2bd:	0f 44 e9             	cmove  %ecx,%ebp
    c2c0:	81 e2 00 00 02 00    	and    $0x20000,%edx
    c2c6:	44 0f 44 f1          	cmove  %ecx,%r14d
    c2ca:	41 f7 c7 01 00 00 00 	test   $0x1,%r15d
    c2d1:	75 5a                	jne    c32d <__intel_new_proc_init_N.L+0xad>
    c2d3:	85 ed                	test   %ebp,%ebp
    c2d5:	74 21                	je     c2f8 <__intel_new_proc_init_N.L+0x78>
    c2d7:	0f ae 9c 24 00 02 00 	stmxcsr 0x200(%rsp)
    c2de:	00 
    c2df:	8b 84 24 00 02 00 00 	mov    0x200(%rsp),%eax
    c2e6:	83 c8 40             	or     $0x40,%eax
    c2e9:	89 84 24 00 02 00 00 	mov    %eax,0x200(%rsp)
    c2f0:	0f ae 94 24 00 02 00 	ldmxcsr 0x200(%rsp)
    c2f7:	00 
    c2f8:	45 85 f6             	test   %r14d,%r14d
    c2fb:	74 23                	je     c320 <__intel_new_proc_init_N.L+0xa0>
    c2fd:	0f ae 9c 24 00 02 00 	stmxcsr 0x200(%rsp)
    c304:	00 
    c305:	8b 84 24 00 02 00 00 	mov    0x200(%rsp),%eax
    c30c:	0d 00 00 02 00       	or     $0x20000,%eax
    c311:	89 84 24 00 02 00 00 	mov    %eax,0x200(%rsp)
    c318:	0f ae 94 24 00 02 00 	ldmxcsr 0x200(%rsp)
    c31f:	00 
    c320:	48 81 c4 10 02 00 00 	add    $0x210,%rsp
    c327:	5d                   	pop    %rbp
    c328:	41 5e                	pop    %r14
    c32a:	41 5f                	pop    %r15
    c32c:	c3                   	retq   
    c32d:	0f ae 9c 24 00 02 00 	stmxcsr 0x200(%rsp)
    c334:	00 
    c335:	8b 84 24 00 02 00 00 	mov    0x200(%rsp),%eax
    c33c:	0d 00 80 00 00       	or     $0x8000,%eax
    c341:	89 84 24 00 02 00 00 	mov    %eax,0x200(%rsp)
    c348:	0f ae 94 24 00 02 00 	ldmxcsr 0x200(%rsp)
    c34f:	00 
    c350:	eb 81                	jmp    c2d3 <__intel_new_proc_init_N.L+0x53>
    c352:	48 8d b6 00 00 00 00 	lea    0x0(%rsi),%rsi
    c359:	48 8d bf 00 00 00 00 	lea    0x0(%rdi),%rdi

000000000000c360 <__intel_new_proc_init_N>:
    c360:	48 8b 05 61 30 10 00 	mov    1060961(%rip),%rax        # 10f3c8 <_IO_stdin_used+0x101968>
    c367:	8b 00                	mov    (%rax),%eax
    c369:	a9 00 f8 ff ff       	test   $0xfffff800,%eax
    c36e:	0f 85 0c ff ff ff    	jne    c280 <__intel_new_proc_init_N.L>
    c374:	a9 00 04 00 00       	test   $0x400,%eax
    c379:	0f 85 21 fe ff ff    	jne    c1a0 <__intel_new_proc_init_N.K>
    c37f:	a9 00 fe ff ff       	test   $0xfffffe00,%eax
    c384:	0f 85 36 fd ff ff    	jne    c0c0 <__intel_new_proc_init_N.J>
    c38a:	a9 ff ff ff ff       	test   $0xffffffff,%eax
    c38f:	0f 85 ab fc ff ff    	jne    c040 <__intel_new_proc_init_N.A>
    c395:	48 83 ec 08          	sub    $0x8,%rsp
    c399:	e8 72 14 00 00       	callq  d810 <__intel_cpu_indicator_init>
    c39e:	48 83 c4 08          	add    $0x8,%rsp
    c3a2:	eb bc                	jmp    c360 <__intel_new_proc_init_N>
    c3a4:	90                   	nop    
    c3a5:	48 8d 74 26 00       	lea    0x0(%rsi),%rsi
    c3aa:	90                   	nop    
    c3ab:	48 8d 7c 27 00       	lea    0x0(%rdi),%rdi

000000000000c3b0 <__intel_proc_init_B.A>:
    c3b0:	48 81 ec 08 02 00 00 	sub    $0x208,%rsp
    c3b7:	bf 01 00 00 00       	mov    $0x1,%edi
    c3bc:	33 f6                	xor    %esi,%esi
    c3be:	33 d2                	xor    %edx,%edx
    c3c0:	33 c0                	xor    %eax,%eax
    c3c2:	e8 09 10 00 00       	callq  d3d0 <irc__print>
    c3c7:	bf 01 00 00 00       	mov    $0x1,%edi
    c3cc:	be 17 00 00 00       	mov    $0x17,%esi
    c3d1:	33 d2                	xor    %edx,%edx
    c3d3:	33 c0                	xor    %eax,%eax
    c3d5:	e8 f6 0f 00 00       	callq  d3d0 <irc__print>
    c3da:	bf 2c 00 00 00       	mov    $0x2c,%edi
    c3df:	33 f6                	xor    %esi,%esi
    c3e1:	33 c0                	xor    %eax,%eax
    c3e3:	e8 38 12 00 00       	callq  d620 <irc__get_msg>
    c3e8:	48 8d 3c 24          	lea    (%rsp),%rdi
    c3ec:	48 89 c6             	mov    %rax,%rsi
    c3ef:	ba 00 02 00 00       	mov    $0x200,%edx
    c3f4:	e8 7f f1 ff ff       	callq  b578 <getenv@plt+0x8>
    c3f9:	48 8d 0c 24          	lea    (%rsp),%rcx
    c3fd:	bf 01 00 00 00       	mov    $0x1,%edi
    c402:	be 18 00 00 00       	mov    $0x18,%esi
    c407:	89 fa                	mov    %edi,%edx
    c409:	33 c0                	xor    %eax,%eax
    c40b:	e8 c0 0f 00 00       	callq  d3d0 <irc__print>
    c410:	bf 01 00 00 00       	mov    $0x1,%edi
    c415:	33 f6                	xor    %esi,%esi
    c417:	33 d2                	xor    %edx,%edx
    c419:	33 c0                	xor    %eax,%eax
    c41b:	e8 b0 0f 00 00       	callq  d3d0 <irc__print>
    c420:	bf 01 00 00 00       	mov    $0x1,%edi
    c425:	e8 be f1 ff ff       	callq  b5e8 <memset@plt+0x8>
    c42a:	90                   	nop    
    c42b:	48 8d 74 26 00       	lea    0x0(%rsi),%rsi

000000000000c430 <__intel_proc_init_B.J>:
    c430:	48 81 ec 08 02 00 00 	sub    $0x208,%rsp
    c437:	48 8d 3c 24          	lea    (%rsp),%rdi
    c43b:	33 f6                	xor    %esi,%esi
    c43d:	ba 00 02 00 00       	mov    $0x200,%edx
    c442:	e8 91 f1 ff ff       	callq  b5d8 <strchr@plt+0x8>
    c447:	0f ae 04 24          	fxsave (%rsp)
    c44b:	8b 54 24 1c          	mov    0x1c(%rsp),%edx
    c44f:	0f ae 9c 24 00 02 00 	stmxcsr 0x200(%rsp)
    c456:	00 
    c457:	8b 84 24 00 02 00 00 	mov    0x200(%rsp),%eax
    c45e:	83 e2 40             	and    $0x40,%edx
    c461:	0d 00 80 00 00       	or     $0x8000,%eax
    c466:	89 84 24 00 02 00 00 	mov    %eax,0x200(%rsp)
    c46d:	0f ae 94 24 00 02 00 	ldmxcsr 0x200(%rsp)
    c474:	00 
    c475:	85 d2                	test   %edx,%edx
    c477:	74 21                	je     c49a <__intel_proc_init_B.J+0x6a>
    c479:	0f ae 9c 24 00 02 00 	stmxcsr 0x200(%rsp)
    c480:	00 
    c481:	8b 84 24 00 02 00 00 	mov    0x200(%rsp),%eax
    c488:	83 c8 40             	or     $0x40,%eax
    c48b:	89 84 24 00 02 00 00 	mov    %eax,0x200(%rsp)
    c492:	0f ae 94 24 00 02 00 	ldmxcsr 0x200(%rsp)
    c499:	00 
    c49a:	48 81 c4 08 02 00 00 	add    $0x208,%rsp
    c4a1:	c3                   	retq   
    c4a2:	48 8d b6 00 00 00 00 	lea    0x0(%rsi),%rsi
    c4a9:	48 8d bf 00 00 00 00 	lea    0x0(%rdi),%rdi

000000000000c4b0 <__intel_proc_init_B.K>:
    c4b0:	0f ae 5c 24 f8       	stmxcsr 0xfffffffffffffff8(%rsp)
    c4b5:	8b 44 24 f8          	mov    0xfffffffffffffff8(%rsp),%eax
    c4b9:	0d 00 80 00 00       	or     $0x8000,%eax
    c4be:	89 44 24 f8          	mov    %eax,0xfffffffffffffff8(%rsp)
    c4c2:	0f ae 54 24 f8       	ldmxcsr 0xfffffffffffffff8(%rsp)
    c4c7:	0f ae 5c 24 f8       	stmxcsr 0xfffffffffffffff8(%rsp)
    c4cc:	8b 44 24 f8          	mov    0xfffffffffffffff8(%rsp),%eax
    c4d0:	83 c8 40             	or     $0x40,%eax
    c4d3:	89 44 24 f8          	mov    %eax,0xfffffffffffffff8(%rsp)
    c4d7:	0f ae 54 24 f8       	ldmxcsr 0xfffffffffffffff8(%rsp)
    c4dc:	c3                   	retq   
    c4dd:	48 89 f6             	mov    %rsi,%rsi

000000000000c4e0 <__intel_proc_init_B.L>:
    c4e0:	0f ae 5c 24 f8       	stmxcsr 0xfffffffffffffff8(%rsp)
    c4e5:	8b 44 24 f8          	mov    0xfffffffffffffff8(%rsp),%eax
    c4e9:	0d 00 80 00 00       	or     $0x8000,%eax
    c4ee:	89 44 24 f8          	mov    %eax,0xfffffffffffffff8(%rsp)
    c4f2:	0f ae 54 24 f8       	ldmxcsr 0xfffffffffffffff8(%rsp)
    c4f7:	0f ae 5c 24 f8       	stmxcsr 0xfffffffffffffff8(%rsp)
    c4fc:	8b 44 24 f8          	mov    0xfffffffffffffff8(%rsp),%eax
    c500:	83 c8 40             	or     $0x40,%eax
    c503:	89 44 24 f8          	mov    %eax,0xfffffffffffffff8(%rsp)
    c507:	0f ae 54 24 f8       	ldmxcsr 0xfffffffffffffff8(%rsp)
    c50c:	c3                   	retq   
    c50d:	48 89 f6             	mov    %rsi,%rsi

000000000000c510 <__intel_proc_init_B>:
    c510:	48 8b 05 b1 2e 10 00 	mov    1060529(%rip),%rax        # 10f3c8 <_IO_stdin_used+0x101968>
    c517:	8b 00                	mov    (%rax),%eax
    c519:	a9 00 f8 ff ff       	test   $0xfffff800,%eax
    c51e:	0f 85 bc ff ff ff    	jne    c4e0 <__intel_proc_init_B.L>
    c524:	a9 00 04 00 00       	test   $0x400,%eax
    c529:	0f 85 81 ff ff ff    	jne    c4b0 <__intel_proc_init_B.K>
    c52f:	a9 00 fe ff ff       	test   $0xfffffe00,%eax
    c534:	0f 85 f6 fe ff ff    	jne    c430 <__intel_proc_init_B.J>
    c53a:	a9 ff ff ff ff       	test   $0xffffffff,%eax
    c53f:	0f 85 6b fe ff ff    	jne    c3b0 <__intel_proc_init_B.A>
    c545:	48 83 ec 08          	sub    $0x8,%rsp
    c549:	e8 c2 12 00 00       	callq  d810 <__intel_cpu_indicator_init>
    c54e:	48 83 c4 08          	add    $0x8,%rsp
    c552:	eb bc                	jmp    c510 <__intel_proc_init_B>
    c554:	90                   	nop    
    c555:	48 8d 74 26 00       	lea    0x0(%rsi),%rsi
    c55a:	90                   	nop    
    c55b:	48 8d 7c 27 00       	lea    0x0(%rdi),%rdi

000000000000c560 <__intel_new_proc_init_B.A>:
    c560:	48 81 ec 08 02 00 00 	sub    $0x208,%rsp
    c567:	bf 01 00 00 00       	mov    $0x1,%edi
    c56c:	33 f6                	xor    %esi,%esi
    c56e:	33 d2                	xor    %edx,%edx
    c570:	33 c0                	xor    %eax,%eax
    c572:	e8 59 0e 00 00       	callq  d3d0 <irc__print>
    c577:	bf 01 00 00 00       	mov    $0x1,%edi
    c57c:	be 17 00 00 00       	mov    $0x17,%esi
    c581:	33 d2                	xor    %edx,%edx
    c583:	33 c0                	xor    %eax,%eax
    c585:	e8 46 0e 00 00       	callq  d3d0 <irc__print>
    c58a:	bf 2c 00 00 00       	mov    $0x2c,%edi
    c58f:	33 f6                	xor    %esi,%esi
    c591:	33 c0                	xor    %eax,%eax
    c593:	e8 88 10 00 00       	callq  d620 <irc__get_msg>
    c598:	48 8d 3c 24          	lea    (%rsp),%rdi
    c59c:	48 89 c6             	mov    %rax,%rsi
    c59f:	ba 00 02 00 00       	mov    $0x200,%edx
    c5a4:	e8 cf ef ff ff       	callq  b578 <getenv@plt+0x8>
    c5a9:	48 8d 0c 24          	lea    (%rsp),%rcx
    c5ad:	bf 01 00 00 00       	mov    $0x1,%edi
    c5b2:	be 18 00 00 00       	mov    $0x18,%esi
    c5b7:	89 fa                	mov    %edi,%edx
    c5b9:	33 c0                	xor    %eax,%eax
    c5bb:	e8 10 0e 00 00       	callq  d3d0 <irc__print>
    c5c0:	bf 01 00 00 00       	mov    $0x1,%edi
    c5c5:	33 f6                	xor    %esi,%esi
    c5c7:	33 d2                	xor    %edx,%edx
    c5c9:	33 c0                	xor    %eax,%eax
    c5cb:	e8 00 0e 00 00       	callq  d3d0 <irc__print>
    c5d0:	bf 01 00 00 00       	mov    $0x1,%edi
    c5d5:	e8 0e f0 ff ff       	callq  b5e8 <memset@plt+0x8>
    c5da:	90                   	nop    
    c5db:	48 8d 74 26 00       	lea    0x0(%rsi),%rsi

000000000000c5e0 <__intel_new_proc_init_B.J>:
    c5e0:	41 57                	push   %r15
    c5e2:	41 56                	push   %r14
    c5e4:	55                   	push   %rbp
    c5e5:	48 81 ec 10 02 00 00 	sub    $0x210,%rsp
    c5ec:	41 89 ff             	mov    %edi,%r15d
    c5ef:	44 89 fd             	mov    %r15d,%ebp
    c5f2:	83 e5 02             	and    $0x2,%ebp
    c5f5:	45 89 fe             	mov    %r15d,%r14d
    c5f8:	41 83 e6 04          	and    $0x4,%r14d
    c5fc:	85 ed                	test   %ebp,%ebp
    c5fe:	75 05                	jne    c605 <__intel_new_proc_init_B.J+0x25>
    c600:	45 85 f6             	test   %r14d,%r14d
    c603:	74 2c                	je     c631 <__intel_new_proc_init_B.J+0x51>
    c605:	48 8d 3c 24          	lea    (%rsp),%rdi
    c609:	33 f6                	xor    %esi,%esi
    c60b:	ba 00 02 00 00       	mov    $0x200,%edx
    c610:	e8 c3 ef ff ff       	callq  b5d8 <strchr@plt+0x8>
    c615:	0f ae 04 24          	fxsave (%rsp)
    c619:	8b 54 24 1c          	mov    0x1c(%rsp),%edx
    c61d:	33 c9                	xor    %ecx,%ecx
    c61f:	89 d0                	mov    %edx,%eax
    c621:	83 e0 40             	and    $0x40,%eax
    c624:	0f 44 e9             	cmove  %ecx,%ebp
    c627:	81 e2 00 00 02 00    	and    $0x20000,%edx
    c62d:	44 0f 44 f1          	cmove  %ecx,%r14d
    c631:	41 f7 c7 01 00 00 00 	test   $0x1,%r15d
    c638:	75 5a                	jne    c694 <__intel_new_proc_init_B.J+0xb4>
    c63a:	85 ed                	test   %ebp,%ebp
    c63c:	74 21                	je     c65f <__intel_new_proc_init_B.J+0x7f>
    c63e:	0f ae 9c 24 00 02 00 	stmxcsr 0x200(%rsp)
    c645:	00 
    c646:	8b 84 24 00 02 00 00 	mov    0x200(%rsp),%eax
    c64d:	83 c8 40             	or     $0x40,%eax
    c650:	89 84 24 00 02 00 00 	mov    %eax,0x200(%rsp)
    c657:	0f ae 94 24 00 02 00 	ldmxcsr 0x200(%rsp)
    c65e:	00 
    c65f:	45 85 f6             	test   %r14d,%r14d
    c662:	74 23                	je     c687 <__intel_new_proc_init_B.J+0xa7>
    c664:	0f ae 9c 24 00 02 00 	stmxcsr 0x200(%rsp)
    c66b:	00 
    c66c:	8b 84 24 00 02 00 00 	mov    0x200(%rsp),%eax
    c673:	0d 00 00 02 00       	or     $0x20000,%eax
    c678:	89 84 24 00 02 00 00 	mov    %eax,0x200(%rsp)
    c67f:	0f ae 94 24 00 02 00 	ldmxcsr 0x200(%rsp)
    c686:	00 
    c687:	48 81 c4 10 02 00 00 	add    $0x210,%rsp
    c68e:	5d                   	pop    %rbp
    c68f:	41 5e                	pop    %r14
    c691:	41 5f                	pop    %r15
    c693:	c3                   	retq   
    c694:	0f ae 9c 24 00 02 00 	stmxcsr 0x200(%rsp)
    c69b:	00 
    c69c:	8b 84 24 00 02 00 00 	mov    0x200(%rsp),%eax
    c6a3:	0d 00 80 00 00       	or     $0x8000,%eax
    c6a8:	89 84 24 00 02 00 00 	mov    %eax,0x200(%rsp)
    c6af:	0f ae 94 24 00 02 00 	ldmxcsr 0x200(%rsp)
    c6b6:	00 
    c6b7:	eb 81                	jmp    c63a <__intel_new_proc_init_B.J+0x5a>
    c6b9:	48 8d b6 00 00 00 00 	lea    0x0(%rsi),%rsi

000000000000c6c0 <__intel_new_proc_init_B.K>:
    c6c0:	41 57                	push   %r15
    c6c2:	41 56                	push   %r14
    c6c4:	55                   	push   %rbp
    c6c5:	48 81 ec 10 02 00 00 	sub    $0x210,%rsp
    c6cc:	41 89 ff             	mov    %edi,%r15d
    c6cf:	44 89 fd             	mov    %r15d,%ebp
    c6d2:	83 e5 02             	and    $0x2,%ebp
    c6d5:	45 89 fe             	mov    %r15d,%r14d
    c6d8:	41 83 e6 04          	and    $0x4,%r14d
    c6dc:	74 2c                	je     c70a <__intel_new_proc_init_B.K+0x4a>
    c6de:	48 8d 3c 24          	lea    (%rsp),%rdi
    c6e2:	33 f6                	xor    %esi,%esi
    c6e4:	ba 00 02 00 00       	mov    $0x200,%edx
    c6e9:	e8 ea ee ff ff       	callq  b5d8 <strchr@plt+0x8>
    c6ee:	0f ae 04 24          	fxsave (%rsp)
    c6f2:	8b 54 24 1c          	mov    0x1c(%rsp),%edx
    c6f6:	33 c9                	xor    %ecx,%ecx
    c6f8:	89 d0                	mov    %edx,%eax
    c6fa:	83 e0 40             	and    $0x40,%eax
    c6fd:	0f 44 e9             	cmove  %ecx,%ebp
    c700:	81 e2 00 00 02 00    	and    $0x20000,%edx
    c706:	44 0f 44 f1          	cmove  %ecx,%r14d
    c70a:	41 f7 c7 01 00 00 00 	test   $0x1,%r15d
    c711:	75 5a                	jne    c76d <__intel_new_proc_init_B.K+0xad>
    c713:	85 ed                	test   %ebp,%ebp
    c715:	74 21                	je     c738 <__intel_new_proc_init_B.K+0x78>
    c717:	0f ae 9c 24 00 02 00 	stmxcsr 0x200(%rsp)
    c71e:	00 
    c71f:	8b 84 24 00 02 00 00 	mov    0x200(%rsp),%eax
    c726:	83 c8 40             	or     $0x40,%eax
    c729:	89 84 24 00 02 00 00 	mov    %eax,0x200(%rsp)
    c730:	0f ae 94 24 00 02 00 	ldmxcsr 0x200(%rsp)
    c737:	00 
    c738:	45 85 f6             	test   %r14d,%r14d
    c73b:	74 23                	je     c760 <__intel_new_proc_init_B.K+0xa0>
    c73d:	0f ae 9c 24 00 02 00 	stmxcsr 0x200(%rsp)
    c744:	00 
    c745:	8b 84 24 00 02 00 00 	mov    0x200(%rsp),%eax
    c74c:	0d 00 00 02 00       	or     $0x20000,%eax
    c751:	89 84 24 00 02 00 00 	mov    %eax,0x200(%rsp)
    c758:	0f ae 94 24 00 02 00 	ldmxcsr 0x200(%rsp)
    c75f:	00 
    c760:	48 81 c4 10 02 00 00 	add    $0x210,%rsp
    c767:	5d                   	pop    %rbp
    c768:	41 5e                	pop    %r14
    c76a:	41 5f                	pop    %r15
    c76c:	c3                   	retq   
    c76d:	0f ae 9c 24 00 02 00 	stmxcsr 0x200(%rsp)
    c774:	00 
    c775:	8b 84 24 00 02 00 00 	mov    0x200(%rsp),%eax
    c77c:	0d 00 80 00 00       	or     $0x8000,%eax
    c781:	89 84 24 00 02 00 00 	mov    %eax,0x200(%rsp)
    c788:	0f ae 94 24 00 02 00 	ldmxcsr 0x200(%rsp)
    c78f:	00 
    c790:	eb 81                	jmp    c713 <__intel_new_proc_init_B.K+0x53>
    c792:	48 8d b6 00 00 00 00 	lea    0x0(%rsi),%rsi
    c799:	48 8d bf 00 00 00 00 	lea    0x0(%rdi),%rdi

000000000000c7a0 <__intel_new_proc_init_B.L>:
    c7a0:	41 57                	push   %r15
    c7a2:	41 56                	push   %r14
    c7a4:	55                   	push   %rbp
    c7a5:	48 81 ec 10 02 00 00 	sub    $0x210,%rsp
    c7ac:	41 89 ff             	mov    %edi,%r15d
    c7af:	44 89 fd             	mov    %r15d,%ebp
    c7b2:	83 e5 02             	and    $0x2,%ebp
    c7b5:	45 89 fe             	mov    %r15d,%r14d
    c7b8:	41 83 e6 04          	and    $0x4,%r14d
    c7bc:	74 2c                	je     c7ea <__intel_new_proc_init_B.L+0x4a>
    c7be:	48 8d 3c 24          	lea    (%rsp),%rdi
    c7c2:	33 f6                	xor    %esi,%esi
    c7c4:	ba 00 02 00 00       	mov    $0x200,%edx
    c7c9:	e8 0a ee ff ff       	callq  b5d8 <strchr@plt+0x8>
    c7ce:	0f ae 04 24          	fxsave (%rsp)
    c7d2:	8b 54 24 1c          	mov    0x1c(%rsp),%edx
    c7d6:	33 c9                	xor    %ecx,%ecx
    c7d8:	89 d0                	mov    %edx,%eax
    c7da:	83 e0 40             	and    $0x40,%eax
    c7dd:	0f 44 e9             	cmove  %ecx,%ebp
    c7e0:	81 e2 00 00 02 00    	and    $0x20000,%edx
    c7e6:	44 0f 44 f1          	cmove  %ecx,%r14d
    c7ea:	41 f7 c7 01 00 00 00 	test   $0x1,%r15d
    c7f1:	75 5a                	jne    c84d <__intel_new_proc_init_B.L+0xad>
    c7f3:	85 ed                	test   %ebp,%ebp
    c7f5:	74 21                	je     c818 <__intel_new_proc_init_B.L+0x78>
    c7f7:	0f ae 9c 24 00 02 00 	stmxcsr 0x200(%rsp)
    c7fe:	00 
    c7ff:	8b 84 24 00 02 00 00 	mov    0x200(%rsp),%eax
    c806:	83 c8 40             	or     $0x40,%eax
    c809:	89 84 24 00 02 00 00 	mov    %eax,0x200(%rsp)
    c810:	0f ae 94 24 00 02 00 	ldmxcsr 0x200(%rsp)
    c817:	00 
    c818:	45 85 f6             	test   %r14d,%r14d
    c81b:	74 23                	je     c840 <__intel_new_proc_init_B.L+0xa0>
    c81d:	0f ae 9c 24 00 02 00 	stmxcsr 0x200(%rsp)
    c824:	00 
    c825:	8b 84 24 00 02 00 00 	mov    0x200(%rsp),%eax
    c82c:	0d 00 00 02 00       	or     $0x20000,%eax
    c831:	89 84 24 00 02 00 00 	mov    %eax,0x200(%rsp)
    c838:	0f ae 94 24 00 02 00 	ldmxcsr 0x200(%rsp)
    c83f:	00 
    c840:	48 81 c4 10 02 00 00 	add    $0x210,%rsp
    c847:	5d                   	pop    %rbp
    c848:	41 5e                	pop    %r14
    c84a:	41 5f                	pop    %r15
    c84c:	c3                   	retq   
    c84d:	0f ae 9c 24 00 02 00 	stmxcsr 0x200(%rsp)
    c854:	00 
    c855:	8b 84 24 00 02 00 00 	mov    0x200(%rsp),%eax
    c85c:	0d 00 80 00 00       	or     $0x8000,%eax
    c861:	89 84 24 00 02 00 00 	mov    %eax,0x200(%rsp)
    c868:	0f ae 94 24 00 02 00 	ldmxcsr 0x200(%rsp)
    c86f:	00 
    c870:	eb 81                	jmp    c7f3 <__intel_new_proc_init_B.L+0x53>
    c872:	48 8d b6 00 00 00 00 	lea    0x0(%rsi),%rsi
    c879:	48 8d bf 00 00 00 00 	lea    0x0(%rdi),%rdi

000000000000c880 <__intel_new_proc_init_B>:
    c880:	48 8b 05 41 2b 10 00 	mov    1059649(%rip),%rax        # 10f3c8 <_IO_stdin_used+0x101968>
    c887:	8b 00                	mov    (%rax),%eax
    c889:	a9 00 f8 ff ff       	test   $0xfffff800,%eax
    c88e:	0f 85 0c ff ff ff    	jne    c7a0 <__intel_new_proc_init_B.L>
    c894:	a9 00 04 00 00       	test   $0x400,%eax
    c899:	0f 85 21 fe ff ff    	jne    c6c0 <__intel_new_proc_init_B.K>
    c89f:	a9 00 fe ff ff       	test   $0xfffffe00,%eax
    c8a4:	0f 85 36 fd ff ff    	jne    c5e0 <__intel_new_proc_init_B.J>
    c8aa:	a9 ff ff ff ff       	test   $0xffffffff,%eax
    c8af:	0f 85 ab fc ff ff    	jne    c560 <__intel_new_proc_init_B.A>
    c8b5:	48 83 ec 08          	sub    $0x8,%rsp
    c8b9:	e8 52 0f 00 00       	callq  d810 <__intel_cpu_indicator_init>
    c8be:	48 83 c4 08          	add    $0x8,%rsp
    c8c2:	eb bc                	jmp    c880 <__intel_new_proc_init_B>
    c8c4:	90                   	nop    
    c8c5:	48 8d 74 26 00       	lea    0x0(%rsi),%rsi
    c8ca:	90                   	nop    
    c8cb:	48 8d 7c 27 00       	lea    0x0(%rdi),%rdi

000000000000c8d0 <__intel_proc_init_P.A>:
    c8d0:	48 81 ec 08 02 00 00 	sub    $0x208,%rsp
    c8d7:	bf 01 00 00 00       	mov    $0x1,%edi
    c8dc:	33 f6                	xor    %esi,%esi
    c8de:	33 d2                	xor    %edx,%edx
    c8e0:	33 c0                	xor    %eax,%eax
    c8e2:	e8 e9 0a 00 00       	callq  d3d0 <irc__print>
    c8e7:	bf 01 00 00 00       	mov    $0x1,%edi
    c8ec:	be 17 00 00 00       	mov    $0x17,%esi
    c8f1:	33 d2                	xor    %edx,%edx
    c8f3:	33 c0                	xor    %eax,%eax
    c8f5:	e8 d6 0a 00 00       	callq  d3d0 <irc__print>
    c8fa:	bf 2b 00 00 00       	mov    $0x2b,%edi
    c8ff:	33 f6                	xor    %esi,%esi
    c901:	33 c0                	xor    %eax,%eax
    c903:	e8 18 0d 00 00       	callq  d620 <irc__get_msg>
    c908:	48 8d 3c 24          	lea    (%rsp),%rdi
    c90c:	48 89 c6             	mov    %rax,%rsi
    c90f:	ba 00 02 00 00       	mov    $0x200,%edx
    c914:	e8 5f ec ff ff       	callq  b578 <getenv@plt+0x8>
    c919:	48 8d 0c 24          	lea    (%rsp),%rcx
    c91d:	bf 01 00 00 00       	mov    $0x1,%edi
    c922:	be 18 00 00 00       	mov    $0x18,%esi
    c927:	89 fa                	mov    %edi,%edx
    c929:	33 c0                	xor    %eax,%eax
    c92b:	e8 a0 0a 00 00       	callq  d3d0 <irc__print>
    c930:	bf 01 00 00 00       	mov    $0x1,%edi
    c935:	33 f6                	xor    %esi,%esi
    c937:	33 d2                	xor    %edx,%edx
    c939:	33 c0                	xor    %eax,%eax
    c93b:	e8 90 0a 00 00       	callq  d3d0 <irc__print>
    c940:	bf 01 00 00 00       	mov    $0x1,%edi
    c945:	e8 9e ec ff ff       	callq  b5e8 <memset@plt+0x8>
    c94a:	90                   	nop    
    c94b:	48 8d 74 26 00       	lea    0x0(%rsi),%rsi

000000000000c950 <__intel_proc_init_P.L>:
    c950:	0f ae 5c 24 f8       	stmxcsr 0xfffffffffffffff8(%rsp)
    c955:	8b 44 24 f8          	mov    0xfffffffffffffff8(%rsp),%eax
    c959:	0d 00 80 00 00       	or     $0x8000,%eax
    c95e:	89 44 24 f8          	mov    %eax,0xfffffffffffffff8(%rsp)
    c962:	0f ae 54 24 f8       	ldmxcsr 0xfffffffffffffff8(%rsp)
    c967:	0f ae 5c 24 f8       	stmxcsr 0xfffffffffffffff8(%rsp)
    c96c:	8b 44 24 f8          	mov    0xfffffffffffffff8(%rsp),%eax
    c970:	83 c8 40             	or     $0x40,%eax
    c973:	89 44 24 f8          	mov    %eax,0xfffffffffffffff8(%rsp)
    c977:	0f ae 54 24 f8       	ldmxcsr 0xfffffffffffffff8(%rsp)
    c97c:	c3                   	retq   
    c97d:	48 89 f6             	mov    %rsi,%rsi

000000000000c980 <__intel_proc_init_P>:
    c980:	48 8b 05 41 2a 10 00 	mov    1059393(%rip),%rax        # 10f3c8 <_IO_stdin_used+0x101968>
    c987:	8b 00                	mov    (%rax),%eax
    c989:	a9 00 f8 ff ff       	test   $0xfffff800,%eax
    c98e:	0f 85 bc ff ff ff    	jne    c950 <__intel_proc_init_P.L>
    c994:	a9 ff ff ff ff       	test   $0xffffffff,%eax
    c999:	0f 85 31 ff ff ff    	jne    c8d0 <__intel_proc_init_P.A>
    c99f:	48 83 ec 08          	sub    $0x8,%rsp
    c9a3:	e8 68 0e 00 00       	callq  d810 <__intel_cpu_indicator_init>
    c9a8:	48 83 c4 08          	add    $0x8,%rsp
    c9ac:	eb d2                	jmp    c980 <__intel_proc_init_P>
    c9ae:	90                   	nop    
    c9af:	90                   	nop    

000000000000c9b0 <__intel_new_proc_init_P.A>:
    c9b0:	48 81 ec 08 02 00 00 	sub    $0x208,%rsp
    c9b7:	bf 01 00 00 00       	mov    $0x1,%edi
    c9bc:	33 f6                	xor    %esi,%esi
    c9be:	33 d2                	xor    %edx,%edx
    c9c0:	33 c0                	xor    %eax,%eax
    c9c2:	e8 09 0a 00 00       	callq  d3d0 <irc__print>
    c9c7:	bf 01 00 00 00       	mov    $0x1,%edi
    c9cc:	be 17 00 00 00       	mov    $0x17,%esi
    c9d1:	33 d2                	xor    %edx,%edx
    c9d3:	33 c0                	xor    %eax,%eax
    c9d5:	e8 f6 09 00 00       	callq  d3d0 <irc__print>
    c9da:	bf 2b 00 00 00       	mov    $0x2b,%edi
    c9df:	33 f6                	xor    %esi,%esi
    c9e1:	33 c0                	xor    %eax,%eax
    c9e3:	e8 38 0c 00 00       	callq  d620 <irc__get_msg>
    c9e8:	48 8d 3c 24          	lea    (%rsp),%rdi
    c9ec:	48 89 c6             	mov    %rax,%rsi
    c9ef:	ba 00 02 00 00       	mov    $0x200,%edx
    c9f4:	e8 7f eb ff ff       	callq  b578 <getenv@plt+0x8>
    c9f9:	48 8d 0c 24          	lea    (%rsp),%rcx
    c9fd:	bf 01 00 00 00       	mov    $0x1,%edi
    ca02:	be 18 00 00 00       	mov    $0x18,%esi
    ca07:	89 fa                	mov    %edi,%edx
    ca09:	33 c0                	xor    %eax,%eax
    ca0b:	e8 c0 09 00 00       	callq  d3d0 <irc__print>
    ca10:	bf 01 00 00 00       	mov    $0x1,%edi
    ca15:	33 f6                	xor    %esi,%esi
    ca17:	33 d2                	xor    %edx,%edx
    ca19:	33 c0                	xor    %eax,%eax
    ca1b:	e8 b0 09 00 00       	callq  d3d0 <irc__print>
    ca20:	bf 01 00 00 00       	mov    $0x1,%edi
    ca25:	e8 be eb ff ff       	callq  b5e8 <memset@plt+0x8>
    ca2a:	90                   	nop    
    ca2b:	48 8d 74 26 00       	lea    0x0(%rsi),%rsi

000000000000ca30 <__intel_new_proc_init_P.L>:
    ca30:	41 57                	push   %r15
    ca32:	41 56                	push   %r14
    ca34:	55                   	push   %rbp
    ca35:	48 81 ec 10 02 00 00 	sub    $0x210,%rsp
    ca3c:	41 89 ff             	mov    %edi,%r15d
    ca3f:	44 89 fd             	mov    %r15d,%ebp
    ca42:	83 e5 02             	and    $0x2,%ebp
    ca45:	45 89 fe             	mov    %r15d,%r14d
    ca48:	41 83 e6 04          	and    $0x4,%r14d
    ca4c:	74 2c                	je     ca7a <__intel_new_proc_init_P.L+0x4a>
    ca4e:	48 8d 3c 24          	lea    (%rsp),%rdi
    ca52:	33 f6                	xor    %esi,%esi
    ca54:	ba 00 02 00 00       	mov    $0x200,%edx
    ca59:	e8 7a eb ff ff       	callq  b5d8 <strchr@plt+0x8>
    ca5e:	0f ae 04 24          	fxsave (%rsp)
    ca62:	8b 54 24 1c          	mov    0x1c(%rsp),%edx
    ca66:	33 c9                	xor    %ecx,%ecx
    ca68:	89 d0                	mov    %edx,%eax
    ca6a:	83 e0 40             	and    $0x40,%eax
    ca6d:	0f 44 e9             	cmove  %ecx,%ebp
    ca70:	81 e2 00 00 02 00    	and    $0x20000,%edx
    ca76:	44 0f 44 f1          	cmove  %ecx,%r14d
    ca7a:	41 f7 c7 01 00 00 00 	test   $0x1,%r15d
    ca81:	75 5a                	jne    cadd <__intel_new_proc_init_P.L+0xad>
    ca83:	85 ed                	test   %ebp,%ebp
    ca85:	74 21                	je     caa8 <__intel_new_proc_init_P.L+0x78>
    ca87:	0f ae 9c 24 00 02 00 	stmxcsr 0x200(%rsp)
    ca8e:	00 
    ca8f:	8b 84 24 00 02 00 00 	mov    0x200(%rsp),%eax
    ca96:	83 c8 40             	or     $0x40,%eax
    ca99:	89 84 24 00 02 00 00 	mov    %eax,0x200(%rsp)
    caa0:	0f ae 94 24 00 02 00 	ldmxcsr 0x200(%rsp)
    caa7:	00 
    caa8:	45 85 f6             	test   %r14d,%r14d
    caab:	74 23                	je     cad0 <__intel_new_proc_init_P.L+0xa0>
    caad:	0f ae 9c 24 00 02 00 	stmxcsr 0x200(%rsp)
    cab4:	00 
    cab5:	8b 84 24 00 02 00 00 	mov    0x200(%rsp),%eax
    cabc:	0d 00 00 02 00       	or     $0x20000,%eax
    cac1:	89 84 24 00 02 00 00 	mov    %eax,0x200(%rsp)
    cac8:	0f ae 94 24 00 02 00 	ldmxcsr 0x200(%rsp)
    cacf:	00 
    cad0:	48 81 c4 10 02 00 00 	add    $0x210,%rsp
    cad7:	5d                   	pop    %rbp
    cad8:	41 5e                	pop    %r14
    cada:	41 5f                	pop    %r15
    cadc:	c3                   	retq   
    cadd:	0f ae 9c 24 00 02 00 	stmxcsr 0x200(%rsp)
    cae4:	00 
    cae5:	8b 84 24 00 02 00 00 	mov    0x200(%rsp),%eax
    caec:	0d 00 80 00 00       	or     $0x8000,%eax
    caf1:	89 84 24 00 02 00 00 	mov    %eax,0x200(%rsp)
    caf8:	0f ae 94 24 00 02 00 	ldmxcsr 0x200(%rsp)
    caff:	00 
    cb00:	eb 81                	jmp    ca83 <__intel_new_proc_init_P.L+0x53>
    cb02:	48 8d b6 00 00 00 00 	lea    0x0(%rsi),%rsi
    cb09:	48 8d bf 00 00 00 00 	lea    0x0(%rdi),%rdi

000000000000cb10 <__intel_new_proc_init_P>:
    cb10:	48 8b 05 b1 28 10 00 	mov    1058993(%rip),%rax        # 10f3c8 <_IO_stdin_used+0x101968>
    cb17:	8b 00                	mov    (%rax),%eax
    cb19:	a9 00 f8 ff ff       	test   $0xfffff800,%eax
    cb1e:	0f 85 0c ff ff ff    	jne    ca30 <__intel_new_proc_init_P.L>
    cb24:	a9 ff ff ff ff       	test   $0xffffffff,%eax
    cb29:	0f 85 81 fe ff ff    	jne    c9b0 <__intel_new_proc_init_P.A>
    cb2f:	48 83 ec 08          	sub    $0x8,%rsp
    cb33:	e8 d8 0c 00 00       	callq  d810 <__intel_cpu_indicator_init>
    cb38:	48 83 c4 08          	add    $0x8,%rsp
    cb3c:	eb d2                	jmp    cb10 <__intel_new_proc_init_P>
    cb3e:	90                   	nop    
    cb3f:	90                   	nop    

000000000000cb40 <__intel_proc_init_T.A>:
    cb40:	48 81 ec 08 02 00 00 	sub    $0x208,%rsp
    cb47:	bf 01 00 00 00       	mov    $0x1,%edi
    cb4c:	33 f6                	xor    %esi,%esi
    cb4e:	33 d2                	xor    %edx,%edx
    cb50:	33 c0                	xor    %eax,%eax
    cb52:	e8 79 08 00 00       	callq  d3d0 <irc__print>
    cb57:	bf 01 00 00 00       	mov    $0x1,%edi
    cb5c:	be 17 00 00 00       	mov    $0x17,%esi
    cb61:	33 d2                	xor    %edx,%edx
    cb63:	33 c0                	xor    %eax,%eax
    cb65:	e8 66 08 00 00       	callq  d3d0 <irc__print>
    cb6a:	bf 2a 00 00 00       	mov    $0x2a,%edi
    cb6f:	33 f6                	xor    %esi,%esi
    cb71:	33 c0                	xor    %eax,%eax
    cb73:	e8 a8 0a 00 00       	callq  d620 <irc__get_msg>
    cb78:	48 8d 3c 24          	lea    (%rsp),%rdi
    cb7c:	48 89 c6             	mov    %rax,%rsi
    cb7f:	ba 00 02 00 00       	mov    $0x200,%edx
    cb84:	e8 ef e9 ff ff       	callq  b578 <getenv@plt+0x8>
    cb89:	48 8d 0c 24          	lea    (%rsp),%rcx
    cb8d:	bf 01 00 00 00       	mov    $0x1,%edi
    cb92:	be 18 00 00 00       	mov    $0x18,%esi
    cb97:	89 fa                	mov    %edi,%edx
    cb99:	33 c0                	xor    %eax,%eax
    cb9b:	e8 30 08 00 00       	callq  d3d0 <irc__print>
    cba0:	bf 01 00 00 00       	mov    $0x1,%edi
    cba5:	33 f6                	xor    %esi,%esi
    cba7:	33 d2                	xor    %edx,%edx
    cba9:	33 c0                	xor    %eax,%eax
    cbab:	e8 20 08 00 00       	callq  d3d0 <irc__print>
    cbb0:	bf 01 00 00 00       	mov    $0x1,%edi
    cbb5:	e8 2e ea ff ff       	callq  b5e8 <memset@plt+0x8>
    cbba:	90                   	nop    
    cbbb:	48 8d 74 26 00       	lea    0x0(%rsi),%rsi

000000000000cbc0 <__intel_proc_init_T.M>:
    cbc0:	0f ae 5c 24 f8       	stmxcsr 0xfffffffffffffff8(%rsp)
    cbc5:	8b 44 24 f8          	mov    0xfffffffffffffff8(%rsp),%eax
    cbc9:	0d 00 80 00 00       	or     $0x8000,%eax
    cbce:	89 44 24 f8          	mov    %eax,0xfffffffffffffff8(%rsp)
    cbd2:	0f ae 54 24 f8       	ldmxcsr 0xfffffffffffffff8(%rsp)
    cbd7:	0f ae 5c 24 f8       	stmxcsr 0xfffffffffffffff8(%rsp)
    cbdc:	8b 44 24 f8          	mov    0xfffffffffffffff8(%rsp),%eax
    cbe0:	83 c8 40             	or     $0x40,%eax
    cbe3:	89 44 24 f8          	mov    %eax,0xfffffffffffffff8(%rsp)
    cbe7:	0f ae 54 24 f8       	ldmxcsr 0xfffffffffffffff8(%rsp)
    cbec:	c3                   	retq   
    cbed:	48 89 f6             	mov    %rsi,%rsi

000000000000cbf0 <__intel_proc_init_T>:
    cbf0:	48 8b 05 d1 27 10 00 	mov    1058769(%rip),%rax        # 10f3c8 <_IO_stdin_used+0x101968>
    cbf7:	8b 00                	mov    (%rax),%eax
    cbf9:	a9 00 f0 ff ff       	test   $0xfffff000,%eax
    cbfe:	0f 85 bc ff ff ff    	jne    cbc0 <__intel_proc_init_T.M>
    cc04:	a9 ff ff ff ff       	test   $0xffffffff,%eax
    cc09:	0f 85 31 ff ff ff    	jne    cb40 <__intel_proc_init_T.A>
    cc0f:	48 83 ec 08          	sub    $0x8,%rsp
    cc13:	e8 f8 0b 00 00       	callq  d810 <__intel_cpu_indicator_init>
    cc18:	48 83 c4 08          	add    $0x8,%rsp
    cc1c:	eb d2                	jmp    cbf0 <__intel_proc_init_T>
    cc1e:	90                   	nop    
    cc1f:	90                   	nop    

000000000000cc20 <__intel_new_proc_init_T.A>:
    cc20:	48 81 ec 08 02 00 00 	sub    $0x208,%rsp
    cc27:	bf 01 00 00 00       	mov    $0x1,%edi
    cc2c:	33 f6                	xor    %esi,%esi
    cc2e:	33 d2                	xor    %edx,%edx
    cc30:	33 c0                	xor    %eax,%eax
    cc32:	e8 99 07 00 00       	callq  d3d0 <irc__print>
    cc37:	bf 01 00 00 00       	mov    $0x1,%edi
    cc3c:	be 17 00 00 00       	mov    $0x17,%esi
    cc41:	33 d2                	xor    %edx,%edx
    cc43:	33 c0                	xor    %eax,%eax
    cc45:	e8 86 07 00 00       	callq  d3d0 <irc__print>
    cc4a:	bf 2a 00 00 00       	mov    $0x2a,%edi
    cc4f:	33 f6                	xor    %esi,%esi
    cc51:	33 c0                	xor    %eax,%eax
    cc53:	e8 c8 09 00 00       	callq  d620 <irc__get_msg>
    cc58:	48 8d 3c 24          	lea    (%rsp),%rdi
    cc5c:	48 89 c6             	mov    %rax,%rsi
    cc5f:	ba 00 02 00 00       	mov    $0x200,%edx
    cc64:	e8 0f e9 ff ff       	callq  b578 <getenv@plt+0x8>
    cc69:	48 8d 0c 24          	lea    (%rsp),%rcx
    cc6d:	bf 01 00 00 00       	mov    $0x1,%edi
    cc72:	be 18 00 00 00       	mov    $0x18,%esi
    cc77:	89 fa                	mov    %edi,%edx
    cc79:	33 c0                	xor    %eax,%eax
    cc7b:	e8 50 07 00 00       	callq  d3d0 <irc__print>
    cc80:	bf 01 00 00 00       	mov    $0x1,%edi
    cc85:	33 f6                	xor    %esi,%esi
    cc87:	33 d2                	xor    %edx,%edx
    cc89:	33 c0                	xor    %eax,%eax
    cc8b:	e8 40 07 00 00       	callq  d3d0 <irc__print>
    cc90:	bf 01 00 00 00       	mov    $0x1,%edi
    cc95:	e8 4e e9 ff ff       	callq  b5e8 <memset@plt+0x8>
    cc9a:	90                   	nop    
    cc9b:	48 8d 74 26 00       	lea    0x0(%rsi),%rsi

000000000000cca0 <__intel_new_proc_init_T.M>:
    cca0:	41 57                	push   %r15
    cca2:	41 56                	push   %r14
    cca4:	55                   	push   %rbp
    cca5:	48 81 ec 10 02 00 00 	sub    $0x210,%rsp
    ccac:	41 89 ff             	mov    %edi,%r15d
    ccaf:	44 89 fd             	mov    %r15d,%ebp
    ccb2:	83 e5 02             	and    $0x2,%ebp
    ccb5:	45 89 fe             	mov    %r15d,%r14d
    ccb8:	41 83 e6 04          	and    $0x4,%r14d
    ccbc:	74 2c                	je     ccea <__intel_new_proc_init_T.M+0x4a>
    ccbe:	48 8d 3c 24          	lea    (%rsp),%rdi
    ccc2:	33 f6                	xor    %esi,%esi
    ccc4:	ba 00 02 00 00       	mov    $0x200,%edx
    ccc9:	e8 0a e9 ff ff       	callq  b5d8 <strchr@plt+0x8>
    ccce:	0f ae 04 24          	fxsave (%rsp)
    ccd2:	8b 54 24 1c          	mov    0x1c(%rsp),%edx
    ccd6:	33 c9                	xor    %ecx,%ecx
    ccd8:	89 d0                	mov    %edx,%eax
    ccda:	83 e0 40             	and    $0x40,%eax
    ccdd:	0f 44 e9             	cmove  %ecx,%ebp
    cce0:	81 e2 00 00 02 00    	and    $0x20000,%edx
    cce6:	44 0f 44 f1          	cmove  %ecx,%r14d
    ccea:	41 f7 c7 01 00 00 00 	test   $0x1,%r15d
    ccf1:	75 5a                	jne    cd4d <__intel_new_proc_init_T.M+0xad>
    ccf3:	85 ed                	test   %ebp,%ebp
    ccf5:	74 21                	je     cd18 <__intel_new_proc_init_T.M+0x78>
    ccf7:	0f ae 9c 24 00 02 00 	stmxcsr 0x200(%rsp)
    ccfe:	00 
    ccff:	8b 84 24 00 02 00 00 	mov    0x200(%rsp),%eax
    cd06:	83 c8 40             	or     $0x40,%eax
    cd09:	89 84 24 00 02 00 00 	mov    %eax,0x200(%rsp)
    cd10:	0f ae 94 24 00 02 00 	ldmxcsr 0x200(%rsp)
    cd17:	00 
    cd18:	45 85 f6             	test   %r14d,%r14d
    cd1b:	74 23                	je     cd40 <__intel_new_proc_init_T.M+0xa0>
    cd1d:	0f ae 9c 24 00 02 00 	stmxcsr 0x200(%rsp)
    cd24:	00 
    cd25:	8b 84 24 00 02 00 00 	mov    0x200(%rsp),%eax
    cd2c:	0d 00 00 02 00       	or     $0x20000,%eax
    cd31:	89 84 24 00 02 00 00 	mov    %eax,0x200(%rsp)
    cd38:	0f ae 94 24 00 02 00 	ldmxcsr 0x200(%rsp)
    cd3f:	00 
    cd40:	48 81 c4 10 02 00 00 	add    $0x210,%rsp
    cd47:	5d                   	pop    %rbp
    cd48:	41 5e                	pop    %r14
    cd4a:	41 5f                	pop    %r15
    cd4c:	c3                   	retq   
    cd4d:	0f ae 9c 24 00 02 00 	stmxcsr 0x200(%rsp)
    cd54:	00 
    cd55:	8b 84 24 00 02 00 00 	mov    0x200(%rsp),%eax
    cd5c:	0d 00 80 00 00       	or     $0x8000,%eax
    cd61:	89 84 24 00 02 00 00 	mov    %eax,0x200(%rsp)
    cd68:	0f ae 94 24 00 02 00 	ldmxcsr 0x200(%rsp)
    cd6f:	00 
    cd70:	eb 81                	jmp    ccf3 <__intel_new_proc_init_T.M+0x53>
    cd72:	48 8d b6 00 00 00 00 	lea    0x0(%rsi),%rsi
    cd79:	48 8d bf 00 00 00 00 	lea    0x0(%rdi),%rdi

000000000000cd80 <__intel_new_proc_init_T>:
    cd80:	48 8b 05 41 26 10 00 	mov    1058369(%rip),%rax        # 10f3c8 <_IO_stdin_used+0x101968>
    cd87:	8b 00                	mov    (%rax),%eax
    cd89:	a9 00 f0 ff ff       	test   $0xfffff000,%eax
    cd8e:	0f 85 0c ff ff ff    	jne    cca0 <__intel_new_proc_init_T.M>
    cd94:	a9 ff ff ff ff       	test   $0xffffffff,%eax
    cd99:	0f 85 81 fe ff ff    	jne    cc20 <__intel_new_proc_init_T.A>
    cd9f:	48 83 ec 08          	sub    $0x8,%rsp
    cda3:	e8 68 0a 00 00       	callq  d810 <__intel_cpu_indicator_init>
    cda8:	48 83 c4 08          	add    $0x8,%rsp
    cdac:	eb d2                	jmp    cd80 <__intel_new_proc_init_T>
    cdae:	90                   	nop    
    cdaf:	90                   	nop    

000000000000cdb0 <__intel_new_proc_init_S.A>:
    cdb0:	48 81 ec 08 02 00 00 	sub    $0x208,%rsp
    cdb7:	bf 01 00 00 00       	mov    $0x1,%edi
    cdbc:	33 f6                	xor    %esi,%esi
    cdbe:	33 d2                	xor    %edx,%edx
    cdc0:	33 c0                	xor    %eax,%eax
    cdc2:	e8 09 06 00 00       	callq  d3d0 <irc__print>
    cdc7:	bf 01 00 00 00       	mov    $0x1,%edi
    cdcc:	be 17 00 00 00       	mov    $0x17,%esi
    cdd1:	33 d2                	xor    %edx,%edx
    cdd3:	33 c0                	xor    %eax,%eax
    cdd5:	e8 f6 05 00 00       	callq  d3d0 <irc__print>
    cdda:	bf 2e 00 00 00       	mov    $0x2e,%edi
    cddf:	33 f6                	xor    %esi,%esi
    cde1:	33 c0                	xor    %eax,%eax
    cde3:	e8 38 08 00 00       	callq  d620 <irc__get_msg>
    cde8:	48 8d 3c 24          	lea    (%rsp),%rdi
    cdec:	48 89 c6             	mov    %rax,%rsi
    cdef:	ba 00 02 00 00       	mov    $0x200,%edx
    cdf4:	e8 7f e7 ff ff       	callq  b578 <getenv@plt+0x8>
    cdf9:	48 8d 0c 24          	lea    (%rsp),%rcx
    cdfd:	bf 01 00 00 00       	mov    $0x1,%edi
    ce02:	be 18 00 00 00       	mov    $0x18,%esi
    ce07:	89 fa                	mov    %edi,%edx
    ce09:	33 c0                	xor    %eax,%eax
    ce0b:	e8 c0 05 00 00       	callq  d3d0 <irc__print>
    ce10:	bf 01 00 00 00       	mov    $0x1,%edi
    ce15:	33 f6                	xor    %esi,%esi
    ce17:	33 d2                	xor    %edx,%edx
    ce19:	33 c0                	xor    %eax,%eax
    ce1b:	e8 b0 05 00 00       	callq  d3d0 <irc__print>
    ce20:	bf 01 00 00 00       	mov    $0x1,%edi
    ce25:	e8 be e7 ff ff       	callq  b5e8 <memset@plt+0x8>
    ce2a:	90                   	nop    
    ce2b:	48 8d 74 26 00       	lea    0x0(%rsi),%rsi

000000000000ce30 <__intel_new_proc_init_S.N>:
    ce30:	41 57                	push   %r15
    ce32:	41 56                	push   %r14
    ce34:	55                   	push   %rbp
    ce35:	48 81 ec 10 02 00 00 	sub    $0x210,%rsp
    ce3c:	41 89 ff             	mov    %edi,%r15d
    ce3f:	44 89 fd             	mov    %r15d,%ebp
    ce42:	83 e5 02             	and    $0x2,%ebp
    ce45:	45 89 fe             	mov    %r15d,%r14d
    ce48:	41 83 e6 04          	and    $0x4,%r14d
    ce4c:	74 2c                	je     ce7a <__intel_new_proc_init_S.N+0x4a>
    ce4e:	48 8d 3c 24          	lea    (%rsp),%rdi
    ce52:	33 f6                	xor    %esi,%esi
    ce54:	ba 00 02 00 00       	mov    $0x200,%edx
    ce59:	e8 7a e7 ff ff       	callq  b5d8 <strchr@plt+0x8>
    ce5e:	0f ae 04 24          	fxsave (%rsp)
    ce62:	8b 54 24 1c          	mov    0x1c(%rsp),%edx
    ce66:	33 c9                	xor    %ecx,%ecx
    ce68:	89 d0                	mov    %edx,%eax
    ce6a:	83 e0 40             	and    $0x40,%eax
    ce6d:	0f 44 e9             	cmove  %ecx,%ebp
    ce70:	81 e2 00 00 02 00    	and    $0x20000,%edx
    ce76:	44 0f 44 f1          	cmove  %ecx,%r14d
    ce7a:	41 f7 c7 01 00 00 00 	test   $0x1,%r15d
    ce81:	75 5a                	jne    cedd <__intel_new_proc_init_S.N+0xad>
    ce83:	85 ed                	test   %ebp,%ebp
    ce85:	74 21                	je     cea8 <__intel_new_proc_init_S.N+0x78>
    ce87:	0f ae 9c 24 00 02 00 	stmxcsr 0x200(%rsp)
    ce8e:	00 
    ce8f:	8b 84 24 00 02 00 00 	mov    0x200(%rsp),%eax
    ce96:	83 c8 40             	or     $0x40,%eax
    ce99:	89 84 24 00 02 00 00 	mov    %eax,0x200(%rsp)
    cea0:	0f ae 94 24 00 02 00 	ldmxcsr 0x200(%rsp)
    cea7:	00 
    cea8:	45 85 f6             	test   %r14d,%r14d
    ceab:	74 23                	je     ced0 <__intel_new_proc_init_S.N+0xa0>
    cead:	0f ae 9c 24 00 02 00 	stmxcsr 0x200(%rsp)
    ceb4:	00 
    ceb5:	8b 84 24 00 02 00 00 	mov    0x200(%rsp),%eax
    cebc:	0d 00 00 02 00       	or     $0x20000,%eax
    cec1:	89 84 24 00 02 00 00 	mov    %eax,0x200(%rsp)
    cec8:	0f ae 94 24 00 02 00 	ldmxcsr 0x200(%rsp)
    cecf:	00 
    ced0:	48 81 c4 10 02 00 00 	add    $0x210,%rsp
    ced7:	5d                   	pop    %rbp
    ced8:	41 5e                	pop    %r14
    ceda:	41 5f                	pop    %r15
    cedc:	c3                   	retq   
    cedd:	0f ae 9c 24 00 02 00 	stmxcsr 0x200(%rsp)
    cee4:	00 
    cee5:	8b 84 24 00 02 00 00 	mov    0x200(%rsp),%eax
    ceec:	0d 00 80 00 00       	or     $0x8000,%eax
    cef1:	89 84 24 00 02 00 00 	mov    %eax,0x200(%rsp)
    cef8:	0f ae 94 24 00 02 00 	ldmxcsr 0x200(%rsp)
    ceff:	00 
    cf00:	eb 81                	jmp    ce83 <__intel_new_proc_init_S.N+0x53>
    cf02:	48 8d b6 00 00 00 00 	lea    0x0(%rsi),%rsi
    cf09:	48 8d bf 00 00 00 00 	lea    0x0(%rdi),%rdi

000000000000cf10 <__intel_new_proc_init_S>:
    cf10:	48 8b 05 b1 24 10 00 	mov    1057969(%rip),%rax        # 10f3c8 <_IO_stdin_used+0x101968>
    cf17:	8b 00                	mov    (%rax),%eax
    cf19:	a9 00 a0 ff ff       	test   $0xffffa000,%eax
    cf1e:	0f 85 0c ff ff ff    	jne    ce30 <__intel_new_proc_init_S.N>
    cf24:	a9 ff ff ff ff       	test   $0xffffffff,%eax
    cf29:	0f 85 81 fe ff ff    	jne    cdb0 <__intel_new_proc_init_S.A>
    cf2f:	48 83 ec 08          	sub    $0x8,%rsp
    cf33:	e8 d8 08 00 00       	callq  d810 <__intel_cpu_indicator_init>
    cf38:	48 83 c4 08          	add    $0x8,%rsp
    cf3c:	eb d2                	jmp    cf10 <__intel_new_proc_init_S>
    cf3e:	90                   	nop    
    cf3f:	90                   	nop    

000000000000cf40 <__intel_new_proc_init_L.A>:
    cf40:	48 81 ec 08 02 00 00 	sub    $0x208,%rsp
    cf47:	bf 01 00 00 00       	mov    $0x1,%edi
    cf4c:	33 f6                	xor    %esi,%esi
    cf4e:	33 d2                	xor    %edx,%edx
    cf50:	33 c0                	xor    %eax,%eax
    cf52:	e8 79 04 00 00       	callq  d3d0 <irc__print>
    cf57:	bf 01 00 00 00       	mov    $0x1,%edi
    cf5c:	be 17 00 00 00       	mov    $0x17,%esi
    cf61:	33 d2                	xor    %edx,%edx
    cf63:	33 c0                	xor    %eax,%eax
    cf65:	e8 66 04 00 00       	callq  d3d0 <irc__print>
    cf6a:	bf 30 00 00 00       	mov    $0x30,%edi
    cf6f:	33 f6                	xor    %esi,%esi
    cf71:	33 c0                	xor    %eax,%eax
    cf73:	e8 a8 06 00 00       	callq  d620 <irc__get_msg>
    cf78:	48 8d 3c 24          	lea    (%rsp),%rdi
    cf7c:	48 89 c6             	mov    %rax,%rsi
    cf7f:	ba 00 02 00 00       	mov    $0x200,%edx
    cf84:	e8 ef e5 ff ff       	callq  b578 <getenv@plt+0x8>
    cf89:	48 8d 0c 24          	lea    (%rsp),%rcx
    cf8d:	bf 01 00 00 00       	mov    $0x1,%edi
    cf92:	be 18 00 00 00       	mov    $0x18,%esi
    cf97:	89 fa                	mov    %edi,%edx
    cf99:	33 c0                	xor    %eax,%eax
    cf9b:	e8 30 04 00 00       	callq  d3d0 <irc__print>
    cfa0:	bf 01 00 00 00       	mov    $0x1,%edi
    cfa5:	33 f6                	xor    %esi,%esi
    cfa7:	33 d2                	xor    %edx,%edx
    cfa9:	33 c0                	xor    %eax,%eax
    cfab:	e8 20 04 00 00       	callq  d3d0 <irc__print>
    cfb0:	bf 01 00 00 00       	mov    $0x1,%edi
    cfb5:	e8 2e e6 ff ff       	callq  b5e8 <memset@plt+0x8>
    cfba:	90                   	nop    
    cfbb:	48 8d 74 26 00       	lea    0x0(%rsi),%rsi

000000000000cfc0 <__intel_new_proc_init_L.O>:
    cfc0:	41 57                	push   %r15
    cfc2:	41 56                	push   %r14
    cfc4:	55                   	push   %rbp
    cfc5:	48 81 ec 10 02 00 00 	sub    $0x210,%rsp
    cfcc:	41 89 ff             	mov    %edi,%r15d
    cfcf:	44 89 fd             	mov    %r15d,%ebp
    cfd2:	45 89 fe             	mov    %r15d,%r14d
    cfd5:	83 e5 02             	and    $0x2,%ebp
    cfd8:	41 83 e6 04          	and    $0x4,%r14d
    cfdc:	74 2c                	je     d00a <__intel_new_proc_init_L.O+0x4a>
    cfde:	33 f6                	xor    %esi,%esi
    cfe0:	ba 00 02 00 00       	mov    $0x200,%edx
    cfe5:	48 8d 3c 24          	lea    (%rsp),%rdi
    cfe9:	e8 ea e5 ff ff       	callq  b5d8 <strchr@plt+0x8>
    cfee:	0f ae 04 24          	fxsave (%rsp)
    cff2:	8b 54 24 1c          	mov    0x1c(%rsp),%edx
    cff6:	89 d0                	mov    %edx,%eax
    cff8:	33 c9                	xor    %ecx,%ecx
    cffa:	83 e0 40             	and    $0x40,%eax
    cffd:	0f 44 e9             	cmove  %ecx,%ebp
    d000:	81 e2 00 00 02 00    	and    $0x20000,%edx
    d006:	44 0f 44 f1          	cmove  %ecx,%r14d
    d00a:	41 f7 c7 01 00 00 00 	test   $0x1,%r15d
    d011:	75 5b                	jne    d06e <__intel_new_proc_init_L.O+0xae>
    d013:	85 ed                	test   %ebp,%ebp
    d015:	74 21                	je     d038 <__intel_new_proc_init_L.O+0x78>
    d017:	0f ae 9c 24 00 02 00 	stmxcsr 0x200(%rsp)
    d01e:	00 
    d01f:	8b 84 24 00 02 00 00 	mov    0x200(%rsp),%eax
    d026:	83 c8 40             	or     $0x40,%eax
    d029:	89 84 24 00 02 00 00 	mov    %eax,0x200(%rsp)
    d030:	0f ae 94 24 00 02 00 	ldmxcsr 0x200(%rsp)
    d037:	00 
    d038:	45 85 f6             	test   %r14d,%r14d
    d03b:	74 23                	je     d060 <__intel_new_proc_init_L.O+0xa0>
    d03d:	0f ae 9c 24 00 02 00 	stmxcsr 0x200(%rsp)
    d044:	00 
    d045:	8b 84 24 00 02 00 00 	mov    0x200(%rsp),%eax
    d04c:	0d 00 00 02 00       	or     $0x20000,%eax
    d051:	89 84 24 00 02 00 00 	mov    %eax,0x200(%rsp)
    d058:	0f ae 94 24 00 02 00 	ldmxcsr 0x200(%rsp)
    d05f:	00 
    d060:	48 8d a4 24 10 02 00 	lea    0x210(%rsp),%rsp
    d067:	00 
    d068:	5d                   	pop    %rbp
    d069:	41 5e                	pop    %r14
    d06b:	41 5f                	pop    %r15
    d06d:	c3                   	retq   
    d06e:	0f ae 9c 24 00 02 00 	stmxcsr 0x200(%rsp)
    d075:	00 
    d076:	8b 84 24 00 02 00 00 	mov    0x200(%rsp),%eax
    d07d:	0d 00 80 00 00       	or     $0x8000,%eax
    d082:	89 84 24 00 02 00 00 	mov    %eax,0x200(%rsp)
    d089:	0f ae 94 24 00 02 00 	ldmxcsr 0x200(%rsp)
    d090:	00 
    d091:	eb 80                	jmp    d013 <__intel_new_proc_init_L.O+0x53>
    d093:	90                   	nop    
    d094:	48 8d 74 26 00       	lea    0x0(%rsi),%rsi
    d099:	48 8d bf 00 00 00 00 	lea    0x0(%rdi),%rdi

000000000000d0a0 <__intel_new_proc_init_L>:
    d0a0:	48 8b 05 21 23 10 00 	mov    1057569(%rip),%rax        # 10f3c8 <_IO_stdin_used+0x101968>
    d0a7:	8b 00                	mov    (%rax),%eax
    d0a9:	a9 00 40 00 00       	test   $0x4000,%eax
    d0ae:	0f 85 0c ff ff ff    	jne    cfc0 <__intel_new_proc_init_L.O>
    d0b4:	a9 ff ff ff ff       	test   $0xffffffff,%eax
    d0b9:	0f 85 81 fe ff ff    	jne    cf40 <__intel_new_proc_init_L.A>
    d0bf:	48 8d 64 24 f8       	lea    0xfffffffffffffff8(%rsp),%rsp
    d0c4:	e8 47 07 00 00       	callq  d810 <__intel_cpu_indicator_init>
    d0c9:	48 8d 64 24 08       	lea    0x8(%rsp),%rsp
    d0ce:	eb d0                	jmp    d0a0 <__intel_new_proc_init_L>

000000000000d0d0 <__intel_new_proc_init_H.A>:
    d0d0:	48 81 ec 08 02 00 00 	sub    $0x208,%rsp
    d0d7:	bf 01 00 00 00       	mov    $0x1,%edi
    d0dc:	33 f6                	xor    %esi,%esi
    d0de:	33 d2                	xor    %edx,%edx
    d0e0:	33 c0                	xor    %eax,%eax
    d0e2:	e8 e9 02 00 00       	callq  d3d0 <irc__print>
    d0e7:	bf 01 00 00 00       	mov    $0x1,%edi
    d0ec:	be 17 00 00 00       	mov    $0x17,%esi
    d0f1:	33 d2                	xor    %edx,%edx
    d0f3:	33 c0                	xor    %eax,%eax
    d0f5:	e8 d6 02 00 00       	callq  d3d0 <irc__print>
    d0fa:	bf 2f 00 00 00       	mov    $0x2f,%edi
    d0ff:	33 f6                	xor    %esi,%esi
    d101:	33 c0                	xor    %eax,%eax
    d103:	e8 18 05 00 00       	callq  d620 <irc__get_msg>
    d108:	48 8d 3c 24          	lea    (%rsp),%rdi
    d10c:	48 89 c6             	mov    %rax,%rsi
    d10f:	ba 00 02 00 00       	mov    $0x200,%edx
    d114:	e8 5f e4 ff ff       	callq  b578 <getenv@plt+0x8>
    d119:	48 8d 0c 24          	lea    (%rsp),%rcx
    d11d:	bf 01 00 00 00       	mov    $0x1,%edi
    d122:	be 18 00 00 00       	mov    $0x18,%esi
    d127:	89 fa                	mov    %edi,%edx
    d129:	33 c0                	xor    %eax,%eax
    d12b:	e8 a0 02 00 00       	callq  d3d0 <irc__print>
    d130:	bf 01 00 00 00       	mov    $0x1,%edi
    d135:	33 f6                	xor    %esi,%esi
    d137:	33 d2                	xor    %edx,%edx
    d139:	33 c0                	xor    %eax,%eax
    d13b:	e8 90 02 00 00       	callq  d3d0 <irc__print>
    d140:	bf 01 00 00 00       	mov    $0x1,%edi
    d145:	e8 9e e4 ff ff       	callq  b5e8 <memset@plt+0x8>
    d14a:	90                   	nop    
    d14b:	48 8d 74 26 00       	lea    0x0(%rsi),%rsi

000000000000d150 <__intel_new_proc_init_H.P>:
    d150:	89 f8                	mov    %edi,%eax
    d152:	83 e0 02             	and    $0x2,%eax
    d155:	89 fa                	mov    %edi,%edx
    d157:	83 e2 04             	and    $0x4,%edx
    d15a:	f7 c7 01 00 00 00    	test   $0x1,%edi
    d160:	75 35                	jne    d197 <__intel_new_proc_init_H.P+0x47>
    d162:	85 c0                	test   %eax,%eax
    d164:	74 15                	je     d17b <__intel_new_proc_init_H.P+0x2b>
    d166:	0f ae 5c 24 f8       	stmxcsr 0xfffffffffffffff8(%rsp)
    d16b:	8b 44 24 f8          	mov    0xfffffffffffffff8(%rsp),%eax
    d16f:	83 c8 40             	or     $0x40,%eax
    d172:	89 44 24 f8          	mov    %eax,0xfffffffffffffff8(%rsp)
    d176:	0f ae 54 24 f8       	ldmxcsr 0xfffffffffffffff8(%rsp)
    d17b:	85 d2                	test   %edx,%edx
    d17d:	74 17                	je     d196 <__intel_new_proc_init_H.P+0x46>
    d17f:	0f ae 5c 24 f8       	stmxcsr 0xfffffffffffffff8(%rsp)
    d184:	8b 44 24 f8          	mov    0xfffffffffffffff8(%rsp),%eax
    d188:	0d 00 00 02 00       	or     $0x20000,%eax
    d18d:	89 44 24 f8          	mov    %eax,0xfffffffffffffff8(%rsp)
    d191:	0f ae 54 24 f8       	ldmxcsr 0xfffffffffffffff8(%rsp)
    d196:	c3                   	retq   
    d197:	0f ae 5c 24 f8       	stmxcsr 0xfffffffffffffff8(%rsp)
    d19c:	8b 4c 24 f8          	mov    0xfffffffffffffff8(%rsp),%ecx
    d1a0:	81 c9 00 80 00 00    	or     $0x8000,%ecx
    d1a6:	89 4c 24 f8          	mov    %ecx,0xfffffffffffffff8(%rsp)
    d1aa:	0f ae 54 24 f8       	ldmxcsr 0xfffffffffffffff8(%rsp)
    d1af:	eb b1                	jmp    d162 <__intel_new_proc_init_H.P+0x12>
    d1b1:	48 8d b4 26 00 00 00 	lea    0x0(%rsi),%rsi
    d1b8:	00 
    d1b9:	48 8d bf 00 00 00 00 	lea    0x0(%rdi),%rdi

000000000000d1c0 <__intel_new_proc_init_H>:
    d1c0:	48 8b 05 01 22 10 00 	mov    1057281(%rip),%rax        # 10f3c8 <_IO_stdin_used+0x101968>
    d1c7:	8b 00                	mov    (%rax),%eax
    d1c9:	a9 00 80 ff ff       	test   $0xffff8000,%eax
    d1ce:	0f 85 7c ff ff ff    	jne    d150 <__intel_new_proc_init_H.P>
    d1d4:	a9 ff ff ff ff       	test   $0xffffffff,%eax
    d1d9:	0f 85 f1 fe ff ff    	jne    d0d0 <__intel_new_proc_init_H.A>
    d1df:	48 83 ec 08          	sub    $0x8,%rsp
    d1e3:	e8 28 06 00 00       	callq  d810 <__intel_cpu_indicator_init>
    d1e8:	48 83 c4 08          	add    $0x8,%rsp
    d1ec:	eb d2                	jmp    d1c0 <__intel_new_proc_init_H>
    d1ee:	90                   	nop    
    d1ef:	90                   	nop    

000000000000d1f0 <__intel_proc_init.A>:
    d1f0:	c3                   	retq   
    d1f1:	48 8d b4 26 00 00 00 	lea    0x0(%rsi),%rsi
    d1f8:	00 
    d1f9:	48 8d bf 00 00 00 00 	lea    0x0(%rdi),%rdi

000000000000d200 <__intel_proc_init.H>:
    d200:	48 81 ec 08 02 00 00 	sub    $0x208,%rsp
    d207:	48 8d 3c 24          	lea    (%rsp),%rdi
    d20b:	33 f6                	xor    %esi,%esi
    d20d:	ba 00 02 00 00       	mov    $0x200,%edx
    d212:	e8 c1 e3 ff ff       	callq  b5d8 <strchr@plt+0x8>
    d217:	0f ae 04 24          	fxsave (%rsp)
    d21b:	8b 54 24 1c          	mov    0x1c(%rsp),%edx
    d21f:	0f ae 9c 24 00 02 00 	stmxcsr 0x200(%rsp)
    d226:	00 
    d227:	8b 84 24 00 02 00 00 	mov    0x200(%rsp),%eax
    d22e:	83 e2 40             	and    $0x40,%edx
    d231:	0d 00 80 00 00       	or     $0x8000,%eax
    d236:	89 84 24 00 02 00 00 	mov    %eax,0x200(%rsp)
    d23d:	0f ae 94 24 00 02 00 	ldmxcsr 0x200(%rsp)
    d244:	00 
    d245:	85 d2                	test   %edx,%edx
    d247:	74 21                	je     d26a <__intel_proc_init.H+0x6a>
    d249:	0f ae 9c 24 00 02 00 	stmxcsr 0x200(%rsp)
    d250:	00 
    d251:	8b 84 24 00 02 00 00 	mov    0x200(%rsp),%eax
    d258:	83 c8 40             	or     $0x40,%eax
    d25b:	89 84 24 00 02 00 00 	mov    %eax,0x200(%rsp)
    d262:	0f ae 94 24 00 02 00 	ldmxcsr 0x200(%rsp)
    d269:	00 
    d26a:	48 81 c4 08 02 00 00 	add    $0x208,%rsp
    d271:	c3                   	retq   
    d272:	48 8d b6 00 00 00 00 	lea    0x0(%rsi),%rsi
    d279:	48 8d bf 00 00 00 00 	lea    0x0(%rdi),%rdi

000000000000d280 <__intel_proc_init>:
    d280:	48 8b 05 41 21 10 00 	mov    1057089(%rip),%rax        # 10f3c8 <_IO_stdin_used+0x101968>
    d287:	8b 00                	mov    (%rax),%eax
    d289:	a9 80 ff ff ff       	test   $0xffffff80,%eax
    d28e:	0f 85 6c ff ff ff    	jne    d200 <__intel_proc_init.H>
    d294:	a9 ff ff ff ff       	test   $0xffffffff,%eax
    d299:	0f 85 51 ff ff ff    	jne    d1f0 <__intel_proc_init.A>
    d29f:	48 83 ec 08          	sub    $0x8,%rsp
    d2a3:	e8 68 05 00 00       	callq  d810 <__intel_cpu_indicator_init>
    d2a8:	48 83 c4 08          	add    $0x8,%rsp
    d2ac:	eb d2                	jmp    d280 <__intel_proc_init>
    d2ae:	90                   	nop    
    d2af:	90                   	nop    

000000000000d2b0 <__intel_new_proc_init.A>:
    d2b0:	c3                   	retq   
    d2b1:	48 8d b4 26 00 00 00 	lea    0x0(%rsi),%rsi
    d2b8:	00 
    d2b9:	48 8d bf 00 00 00 00 	lea    0x0(%rdi),%rdi

000000000000d2c0 <__intel_new_proc_init.H>:
    d2c0:	41 57                	push   %r15
    d2c2:	41 56                	push   %r14
    d2c4:	55                   	push   %rbp
    d2c5:	48 81 ec 10 02 00 00 	sub    $0x210,%rsp
    d2cc:	41 89 ff             	mov    %edi,%r15d
    d2cf:	44 89 fd             	mov    %r15d,%ebp
    d2d2:	83 e5 02             	and    $0x2,%ebp
    d2d5:	45 89 fe             	mov    %r15d,%r14d
    d2d8:	41 83 e6 04          	and    $0x4,%r14d
    d2dc:	85 ed                	test   %ebp,%ebp
    d2de:	75 05                	jne    d2e5 <__intel_new_proc_init.H+0x25>
    d2e0:	45 85 f6             	test   %r14d,%r14d
    d2e3:	74 2c                	je     d311 <__intel_new_proc_init.H+0x51>
    d2e5:	48 8d 3c 24          	lea    (%rsp),%rdi
    d2e9:	33 f6                	xor    %esi,%esi
    d2eb:	ba 00 02 00 00       	mov    $0x200,%edx
    d2f0:	e8 e3 e2 ff ff       	callq  b5d8 <strchr@plt+0x8>
    d2f5:	0f ae 04 24          	fxsave (%rsp)
    d2f9:	8b 54 24 1c          	mov    0x1c(%rsp),%edx
    d2fd:	33 c9                	xor    %ecx,%ecx
    d2ff:	89 d0                	mov    %edx,%eax
    d301:	83 e0 40             	and    $0x40,%eax
    d304:	0f 44 e9             	cmove  %ecx,%ebp
    d307:	81 e2 00 00 02 00    	and    $0x20000,%edx
    d30d:	44 0f 44 f1          	cmove  %ecx,%r14d
    d311:	41 f7 c7 01 00 00 00 	test   $0x1,%r15d
    d318:	75 5a                	jne    d374 <__intel_new_proc_init.H+0xb4>
    d31a:	85 ed                	test   %ebp,%ebp
    d31c:	74 21                	je     d33f <__intel_new_proc_init.H+0x7f>
    d31e:	0f ae 9c 24 00 02 00 	stmxcsr 0x200(%rsp)
    d325:	00 
    d326:	8b 84 24 00 02 00 00 	mov    0x200(%rsp),%eax
    d32d:	83 c8 40             	or     $0x40,%eax
    d330:	89 84 24 00 02 00 00 	mov    %eax,0x200(%rsp)
    d337:	0f ae 94 24 00 02 00 	ldmxcsr 0x200(%rsp)
    d33e:	00 
    d33f:	45 85 f6             	test   %r14d,%r14d
    d342:	74 23                	je     d367 <__intel_new_proc_init.H+0xa7>
    d344:	0f ae 9c 24 00 02 00 	stmxcsr 0x200(%rsp)
    d34b:	00 
    d34c:	8b 84 24 00 02 00 00 	mov    0x200(%rsp),%eax
    d353:	0d 00 00 02 00       	or     $0x20000,%eax
    d358:	89 84 24 00 02 00 00 	mov    %eax,0x200(%rsp)
    d35f:	0f ae 94 24 00 02 00 	ldmxcsr 0x200(%rsp)
    d366:	00 
    d367:	48 81 c4 10 02 00 00 	add    $0x210,%rsp
    d36e:	5d                   	pop    %rbp
    d36f:	41 5e                	pop    %r14
    d371:	41 5f                	pop    %r15
    d373:	c3                   	retq   
    d374:	0f ae 9c 24 00 02 00 	stmxcsr 0x200(%rsp)
    d37b:	00 
    d37c:	8b 84 24 00 02 00 00 	mov    0x200(%rsp),%eax
    d383:	0d 00 80 00 00       	or     $0x8000,%eax
    d388:	89 84 24 00 02 00 00 	mov    %eax,0x200(%rsp)
    d38f:	0f ae 94 24 00 02 00 	ldmxcsr 0x200(%rsp)
    d396:	00 
    d397:	eb 81                	jmp    d31a <__intel_new_proc_init.H+0x5a>
    d399:	48 8d b6 00 00 00 00 	lea    0x0(%rsi),%rsi

000000000000d3a0 <__intel_new_proc_init>:
    d3a0:	48 8b 05 21 20 10 00 	mov    1056801(%rip),%rax        # 10f3c8 <_IO_stdin_used+0x101968>
    d3a7:	8b 00                	mov    (%rax),%eax
    d3a9:	a9 80 ff ff ff       	test   $0xffffff80,%eax
    d3ae:	0f 85 0c ff ff ff    	jne    d2c0 <__intel_new_proc_init.H>
    d3b4:	a9 ff ff ff ff       	test   $0xffffffff,%eax
    d3b9:	0f 85 f1 fe ff ff    	jne    d2b0 <__intel_new_proc_init.A>
    d3bf:	48 83 ec 08          	sub    $0x8,%rsp
    d3c3:	e8 48 04 00 00       	callq  d810 <__intel_cpu_indicator_init>
    d3c8:	48 83 c4 08          	add    $0x8,%rsp
    d3cc:	eb d2                	jmp    d3a0 <__intel_new_proc_init>
    d3ce:	90                   	nop    
    d3cf:	90                   	nop    

000000000000d3d0 <irc__print>:
    d3d0:	41 57                	push   %r15
    d3d2:	55                   	push   %rbp
    d3d3:	53                   	push   %rbx
    d3d4:	48 81 ec 00 01 00 00 	sub    $0x100,%rsp
    d3db:	48 89 4c 24 48       	mov    %rcx,0x48(%rsp)
    d3e0:	4c 89 44 24 50       	mov    %r8,0x50(%rsp)
    d3e5:	4c 89 4c 24 58       	mov    %r9,0x58(%rsp)
    d3ea:	44 0f b6 d8          	movzbl %al,%r11d
    d3ee:	4a 8d 04 9d 00 00 00 	lea    0x0(,%r11,4),%rax
    d3f5:	00 
    d3f6:	4c 8d 1d 2e 00 00 00 	lea    46(%rip),%r11        # d42b <irc__print+0x5b>
    d3fd:	4c 2b d8             	sub    %rax,%r11
    d400:	48 8d 84 24 df 00 00 	lea    0xdf(%rsp),%rax
    d407:	00 
    d408:	41 ff e3             	jmpq   *%r11
    d40b:	0f 29 78 f1          	movaps %xmm7,0xfffffffffffffff1(%rax)
    d40f:	0f 29 70 e1          	movaps %xmm6,0xffffffffffffffe1(%rax)
    d413:	0f 29 68 d1          	movaps %xmm5,0xffffffffffffffd1(%rax)
    d417:	0f 29 60 c1          	movaps %xmm4,0xffffffffffffffc1(%rax)
    d41b:	0f 29 58 b1          	movaps %xmm3,0xffffffffffffffb1(%rax)
    d41f:	0f 29 50 a1          	movaps %xmm2,0xffffffffffffffa1(%rax)
    d423:	0f 29 48 91          	movaps %xmm1,0xffffffffffffff91(%rax)
    d427:	0f 29 40 81          	movaps %xmm0,0xffffffffffffff81(%rax)
    d42b:	41 89 d7             	mov    %edx,%r15d
    d42e:	89 f5                	mov    %esi,%ebp
    d430:	89 fb                	mov    %edi,%ebx
    d432:	85 ed                	test   %ebp,%ebp
    d434:	75 23                	jne    d459 <irc__print+0x89>
    d436:	83 fb 01             	cmp    $0x1,%ebx
    d439:	0f 84 b4 01 00 00    	je     d5f3 <irc__print+0x223>
    d43f:	48 8d 3d be 06 00 00 	lea    1726(%rip),%rdi        # db04 <_IO_stdin_used+0xa4>
    d446:	33 c0                	xor    %eax,%eax
    d448:	e8 5b e1 ff ff       	callq  b5a8 <fprintf@plt+0x8>
    d44d:	48 81 c4 00 01 00 00 	add    $0x100,%rsp
    d454:	5b                   	pop    %rbx
    d455:	5d                   	pop    %rbp
    d456:	41 5f                	pop    %r15
    d458:	c3                   	retq   
    d459:	8b 05 21 20 10 00    	mov    1056801(%rip),%eax        # 10f480 <__dso_handle+0x18>
    d45f:	85 c0                	test   %eax,%eax
    d461:	74 35                	je     d498 <irc__print+0xc8>
    d463:	c7 05 13 20 10 00 00 	movl   $0x0,1056787(%rip)        # 10f480 <__dso_handle+0x18>
    d46a:	00 00 00 
    d46d:	48 8d 3d 94 06 00 00 	lea    1684(%rip),%rdi        # db08 <_IO_stdin_used+0xa8>
    d474:	33 f6                	xor    %esi,%esi
    d476:	e8 3d e1 ff ff       	callq  b5b8 <printf@plt+0x8>
    d47b:	48 89 05 7e 27 10 00 	mov    %rax,1058686(%rip)        # 10fc00 <__bss_start+0x420>
    d482:	48 83 f8 ff          	cmp    $0xffffffffffffffff,%rax
    d486:	0f 84 d2 00 00 00    	je     d55e <irc__print+0x18e>
    d48c:	c7 05 fa 1f 10 00 00 	movl   $0x0,1056762(%rip)        # 10f490 <__dso_handle+0x28>
    d493:	00 00 00 
    d496:	eb 1e                	jmp    d4b6 <irc__print+0xe6>
    d498:	8b 05 f2 1f 10 00    	mov    1056754(%rip),%eax        # 10f490 <__dso_handle+0x28>
    d49e:	85 c0                	test   %eax,%eax
    d4a0:	74 14                	je     d4b6 <irc__print+0xe6>
    d4a2:	48 63 c5             	movslq %ebp,%rax
    d4a5:	48 c1 e0 04          	shl    $0x4,%rax
    d4a9:	48 8d 15 18 20 10 00 	lea    1056792(%rip),%rdx        # 10f4c8 <__xxref+0x28>
    d4b0:	48 8b 04 10          	mov    (%rax,%rdx,1),%rax
    d4b4:	eb 25                	jmp    d4db <irc__print+0x10b>
    d4b6:	48 8b 3d 43 27 10 00 	mov    1058627(%rip),%rdi        # 10fc00 <__bss_start+0x420>
    d4bd:	48 63 c5             	movslq %ebp,%rax
    d4c0:	48 c1 e0 04          	shl    $0x4,%rax
    d4c4:	4c 8d 05 fd 1f 10 00 	lea    1056765(%rip),%r8        # 10f4c8 <__xxref+0x28>
    d4cb:	4a 8b 0c 00          	mov    (%rax,%r8,1),%rcx
    d4cf:	be 01 00 00 00       	mov    $0x1,%esi
    d4d4:	89 ea                	mov    %ebp,%edx
    d4d6:	e8 6d e0 ff ff       	callq  b548 <__libc_start_main@plt+0x8>
    d4db:	45 85 ff             	test   %r15d,%r15d
    d4de:	7e 51                	jle    d531 <irc__print+0x161>
    d4e0:	c7 84 24 e0 00 00 00 	movl   $0x18,0xe0(%rsp)
    d4e7:	18 00 00 00 
    d4eb:	48 8d 94 24 20 01 00 	lea    0x120(%rsp),%rdx
    d4f2:	00 
    d4f3:	48 8d 4c 24 30       	lea    0x30(%rsp),%rcx
    d4f8:	c7 84 24 e4 00 00 00 	movl   $0x30,0xe4(%rsp)
    d4ff:	30 00 00 00 
    d503:	48 89 94 24 e8 00 00 	mov    %rdx,0xe8(%rsp)
    d50a:	00 
    d50b:	48 89 8c 24 f0 00 00 	mov    %rcx,0xf0(%rsp)
    d512:	00 
    d513:	48 8d 94 24 e0 00 00 	lea    0xe0(%rsp),%rdx
    d51a:	00 
    d51b:	48 8d 3d de 22 10 00 	lea    1057502(%rip),%rdi        # 10f800 <__bss_start+0x20>
    d522:	48 89 c6             	mov    %rax,%rsi
    d525:	e8 2e e0 ff ff       	callq  b558 <catgets@plt+0x8>
    d52a:	48 8d 05 cf 22 10 00 	lea    1057487(%rip),%rax        # 10f800 <__bss_start+0x20>
    d531:	83 fb 01             	cmp    $0x1,%ebx
    d534:	0f 84 a5 00 00 00    	je     d5df <irc__print+0x20f>
    d53a:	48 89 c7             	mov    %rax,%rdi
    d53d:	33 c0                	xor    %eax,%eax
    d53f:	e8 64 e0 ff ff       	callq  b5a8 <fprintf@plt+0x8>
    d544:	48 8d 3d b9 05 00 00 	lea    1465(%rip),%rdi        # db04 <_IO_stdin_used+0xa4>
    d54b:	33 c0                	xor    %eax,%eax
    d54d:	e8 56 e0 ff ff       	callq  b5a8 <fprintf@plt+0x8>
    d552:	48 81 c4 00 01 00 00 	add    $0x100,%rsp
    d559:	5b                   	pop    %rbx
    d55a:	5d                   	pop    %rbp
    d55b:	41 5f                	pop    %r15
    d55d:	c3                   	retq   
    d55e:	48 8d 3d af 05 00 00 	lea    1455(%rip),%rdi        # db14 <_IO_stdin_used+0xb4>
    d565:	e8 fe df ff ff       	callq  b568 <vsprintf@plt+0x8>
    d56a:	48 8d 3c 24          	lea    (%rsp),%rdi
    d56e:	48 8d 35 7b 05 00 00 	lea    1403(%rip),%rsi        # daf0 <_IO_stdin_used+0x90>
    d575:	48 83 f8 00          	cmp    $0x0,%rax
    d579:	48 0f 45 f0          	cmovne %rax,%rsi
    d57d:	ba 28 00 00 00       	mov    $0x28,%edx
    d582:	e8 f1 df ff ff       	callq  b578 <getenv@plt+0x8>
    d587:	48 8d 3c 24          	lea    (%rsp),%rdi
    d58b:	be 2e 00 00 00       	mov    $0x2e,%esi
    d590:	e8 33 e0 ff ff       	callq  b5c8 <catopen@plt+0x8>
    d595:	48 85 c0             	test   %rax,%rax
    d598:	74 2f                	je     d5c9 <irc__print+0x1f9>
    d59a:	c6 00 00             	movb   $0x0,(%rax)
    d59d:	48 8d 34 24          	lea    (%rsp),%rsi
    d5a1:	48 8d 3d 6c 05 00 00 	lea    1388(%rip),%rdi        # db14 <_IO_stdin_used+0xb4>
    d5a8:	ba 01 00 00 00       	mov    $0x1,%edx
    d5ad:	e8 d6 df ff ff       	callq  b588 <strncpy@plt+0x8>
    d5b2:	48 8d 3d 4f 05 00 00 	lea    1359(%rip),%rdi        # db08 <_IO_stdin_used+0xa8>
    d5b9:	33 f6                	xor    %esi,%esi
    d5bb:	e8 f8 df ff ff       	callq  b5b8 <printf@plt+0x8>
    d5c0:	48 89 05 39 26 10 00 	mov    %rax,1058361(%rip)        # 10fc00 <__bss_start+0x420>
    d5c7:	eb 07                	jmp    d5d0 <irc__print+0x200>
    d5c9:	48 8b 05 30 26 10 00 	mov    1058352(%rip),%rax        # 10fc00 <__bss_start+0x420>
    d5d0:	48 83 f8 ff          	cmp    $0xffffffffffffffff,%rax
    d5d4:	0f 85 b2 fe ff ff    	jne    d48c <irc__print+0xbc>
    d5da:	e9 b9 fe ff ff       	jmpq   d498 <irc__print+0xc8>
    d5df:	48 8b 15 ea 1d 10 00 	mov    1056234(%rip),%rdx        # 10f3d0 <_IO_stdin_used+0x101970>
    d5e6:	48 8b 3a             	mov    (%rdx),%rdi
    d5e9:	48 89 c6             	mov    %rax,%rsi
    d5ec:	33 c0                	xor    %eax,%eax
    d5ee:	e8 a5 df ff ff       	callq  b598 <setenv@plt+0x8>
    d5f3:	48 8b 15 d6 1d 10 00 	mov    1056214(%rip),%rdx        # 10f3d0 <_IO_stdin_used+0x101970>
    d5fa:	48 8b 3a             	mov    (%rdx),%rdi
    d5fd:	48 8d 35 00 05 00 00 	lea    1280(%rip),%rsi        # db04 <_IO_stdin_used+0xa4>
    d604:	33 c0                	xor    %eax,%eax
    d606:	e8 8d df ff ff       	callq  b598 <setenv@plt+0x8>
    d60b:	48 81 c4 00 01 00 00 	add    $0x100,%rsp
    d612:	5b                   	pop    %rbx
    d613:	5d                   	pop    %rbp
    d614:	41 5f                	pop    %r15
    d616:	c3                   	retq   
    d617:	90                   	nop    
    d618:	90                   	nop    
    d619:	48 8d bf 00 00 00 00 	lea    0x0(%rdi),%rdi

000000000000d620 <irc__get_msg>:
    d620:	41 56                	push   %r14
    d622:	41 55                	push   %r13
    d624:	48 81 ec f8 00 00 00 	sub    $0xf8,%rsp
    d62b:	48 89 54 24 40       	mov    %rdx,0x40(%rsp)
    d630:	48 89 4c 24 48       	mov    %rcx,0x48(%rsp)
    d635:	4c 89 44 24 50       	mov    %r8,0x50(%rsp)
    d63a:	4c 89 4c 24 58       	mov    %r9,0x58(%rsp)
    d63f:	44 0f b6 d8          	movzbl %al,%r11d
    d643:	4a 8d 04 9d 00 00 00 	lea    0x0(,%r11,4),%rax
    d64a:	00 
    d64b:	4c 8d 1d 2e 00 00 00 	lea    46(%rip),%r11        # d680 <irc__get_msg+0x60>
    d652:	4c 2b d8             	sub    %rax,%r11
    d655:	48 8d 84 24 df 00 00 	lea    0xdf(%rsp),%rax
    d65c:	00 
    d65d:	41 ff e3             	jmpq   *%r11
    d660:	0f 29 78 f1          	movaps %xmm7,0xfffffffffffffff1(%rax)
    d664:	0f 29 70 e1          	movaps %xmm6,0xffffffffffffffe1(%rax)
    d668:	0f 29 68 d1          	movaps %xmm5,0xffffffffffffffd1(%rax)
    d66c:	0f 29 60 c1          	movaps %xmm4,0xffffffffffffffc1(%rax)
    d670:	0f 29 58 b1          	movaps %xmm3,0xffffffffffffffb1(%rax)
    d674:	0f 29 50 a1          	movaps %xmm2,0xffffffffffffffa1(%rax)
    d678:	0f 29 48 91          	movaps %xmm1,0xffffffffffffff91(%rax)
    d67c:	0f 29 40 81          	movaps %xmm0,0xffffffffffffff81(%rax)
    d680:	41 89 f6             	mov    %esi,%r14d
    d683:	41 89 fd             	mov    %edi,%r13d
    d686:	45 85 ed             	test   %r13d,%r13d
    d689:	0f 84 85 00 00 00    	je     d714 <irc__get_msg+0xf4>
    d68f:	8b 05 eb 1d 10 00    	mov    1056235(%rip),%eax        # 10f480 <__dso_handle+0x18>
    d695:	85 c0                	test   %eax,%eax
    d697:	74 35                	je     d6ce <irc__get_msg+0xae>
    d699:	c7 05 dd 1d 10 00 00 	movl   $0x0,1056221(%rip)        # 10f480 <__dso_handle+0x18>
    d6a0:	00 00 00 
    d6a3:	48 8d 3d 5e 04 00 00 	lea    1118(%rip),%rdi        # db08 <_IO_stdin_used+0xa8>
    d6aa:	33 f6                	xor    %esi,%esi
    d6ac:	e8 07 df ff ff       	callq  b5b8 <printf@plt+0x8>
    d6b1:	48 89 05 48 25 10 00 	mov    %rax,1058120(%rip)        # 10fc00 <__bss_start+0x420>
    d6b8:	48 83 f8 ff          	cmp    $0xffffffffffffffff,%rax
    d6bc:	0f 84 c7 00 00 00    	je     d789 <irc__get_msg+0x169>
    d6c2:	c7 05 c4 1d 10 00 00 	movl   $0x0,1056196(%rip)        # 10f490 <__dso_handle+0x28>
    d6c9:	00 00 00 
    d6cc:	eb 1e                	jmp    d6ec <irc__get_msg+0xcc>
    d6ce:	8b 05 bc 1d 10 00    	mov    1056188(%rip),%eax        # 10f490 <__dso_handle+0x28>
    d6d4:	85 c0                	test   %eax,%eax
    d6d6:	74 14                	je     d6ec <irc__get_msg+0xcc>
    d6d8:	49 63 c5             	movslq %r13d,%rax
    d6db:	48 c1 e0 04          	shl    $0x4,%rax
    d6df:	48 8d 15 e2 1d 10 00 	lea    1056226(%rip),%rdx        # 10f4c8 <__xxref+0x28>
    d6e6:	48 8b 04 10          	mov    (%rax,%rdx,1),%rax
    d6ea:	eb 2f                	jmp    d71b <irc__get_msg+0xfb>
    d6ec:	48 8b 3d 0d 25 10 00 	mov    1058061(%rip),%rdi        # 10fc00 <__bss_start+0x420>
    d6f3:	49 63 c5             	movslq %r13d,%rax
    d6f6:	48 c1 e0 04          	shl    $0x4,%rax
    d6fa:	4c 8d 05 c7 1d 10 00 	lea    1056199(%rip),%r8        # 10f4c8 <__xxref+0x28>
    d701:	4a 8b 0c 00          	mov    (%rax,%r8,1),%rcx
    d705:	be 01 00 00 00       	mov    $0x1,%esi
    d70a:	44 89 ea             	mov    %r13d,%edx
    d70d:	e8 36 de ff ff       	callq  b548 <__libc_start_main@plt+0x8>
    d712:	eb 07                	jmp    d71b <irc__get_msg+0xfb>
    d714:	48 8d 05 d5 03 00 00 	lea    981(%rip),%rax        # daf0 <_IO_stdin_used+0x90>
    d71b:	45 85 f6             	test   %r14d,%r14d
    d71e:	7e 5d                	jle    d77d <irc__get_msg+0x15d>
    d720:	c7 84 24 e0 00 00 00 	movl   $0x10,0xe0(%rsp)
    d727:	10 00 00 00 
    d72b:	48 8d 94 24 10 01 00 	lea    0x110(%rsp),%rdx
    d732:	00 
    d733:	48 8d 4c 24 30       	lea    0x30(%rsp),%rcx
    d738:	c7 84 24 e4 00 00 00 	movl   $0x30,0xe4(%rsp)
    d73f:	30 00 00 00 
    d743:	48 89 94 24 e8 00 00 	mov    %rdx,0xe8(%rsp)
    d74a:	00 
    d74b:	48 89 8c 24 f0 00 00 	mov    %rcx,0xf0(%rsp)
    d752:	00 
    d753:	48 8d 94 24 e0 00 00 	lea    0xe0(%rsp),%rdx
    d75a:	00 
    d75b:	48 8d 3d 9e 22 10 00 	lea    1057438(%rip),%rdi        # 10fa00 <__bss_start+0x220>
    d762:	48 89 c6             	mov    %rax,%rsi
    d765:	e8 ee dd ff ff       	callq  b558 <catgets@plt+0x8>
    d76a:	48 8d 05 8f 22 10 00 	lea    1057423(%rip),%rax        # 10fa00 <__bss_start+0x220>
    d771:	48 81 c4 f8 00 00 00 	add    $0xf8,%rsp
    d778:	41 5d                	pop    %r13
    d77a:	41 5e                	pop    %r14
    d77c:	c3                   	retq   
    d77d:	48 81 c4 f8 00 00 00 	add    $0xf8,%rsp
    d784:	41 5d                	pop    %r13
    d786:	41 5e                	pop    %r14
    d788:	c3                   	retq   
    d789:	48 8d 3d 84 03 00 00 	lea    900(%rip),%rdi        # db14 <_IO_stdin_used+0xb4>
    d790:	e8 d3 dd ff ff       	callq  b568 <vsprintf@plt+0x8>
    d795:	48 8d 3c 24          	lea    (%rsp),%rdi
    d799:	48 8d 35 50 03 00 00 	lea    848(%rip),%rsi        # daf0 <_IO_stdin_used+0x90>
    d7a0:	48 83 f8 00          	cmp    $0x0,%rax
    d7a4:	48 0f 45 f0          	cmovne %rax,%rsi
    d7a8:	ba 28 00 00 00       	mov    $0x28,%edx
    d7ad:	e8 c6 dd ff ff       	callq  b578 <getenv@plt+0x8>
    d7b2:	48 8d 3c 24          	lea    (%rsp),%rdi
    d7b6:	be 2e 00 00 00       	mov    $0x2e,%esi
    d7bb:	e8 08 de ff ff       	callq  b5c8 <catopen@plt+0x8>
    d7c0:	48 85 c0             	test   %rax,%rax
    d7c3:	74 2f                	je     d7f4 <irc__get_msg+0x1d4>
    d7c5:	c6 00 00             	movb   $0x0,(%rax)
    d7c8:	48 8d 34 24          	lea    (%rsp),%rsi
    d7cc:	48 8d 3d 41 03 00 00 	lea    833(%rip),%rdi        # db14 <_IO_stdin_used+0xb4>
    d7d3:	ba 01 00 00 00       	mov    $0x1,%edx
    d7d8:	e8 ab dd ff ff       	callq  b588 <strncpy@plt+0x8>
    d7dd:	48 8d 3d 24 03 00 00 	lea    804(%rip),%rdi        # db08 <_IO_stdin_used+0xa8>
    d7e4:	33 f6                	xor    %esi,%esi
    d7e6:	e8 cd dd ff ff       	callq  b5b8 <printf@plt+0x8>
    d7eb:	48 89 05 0e 24 10 00 	mov    %rax,1057806(%rip)        # 10fc00 <__bss_start+0x420>
    d7f2:	eb 07                	jmp    d7fb <irc__get_msg+0x1db>
    d7f4:	48 8b 05 05 24 10 00 	mov    1057797(%rip),%rax        # 10fc00 <__bss_start+0x420>
    d7fb:	48 83 f8 ff          	cmp    $0xffffffffffffffff,%rax
    d7ff:	0f 85 bd fe ff ff    	jne    d6c2 <irc__get_msg+0xa2>
    d805:	e9 c4 fe ff ff       	jmpq   d6ce <irc__get_msg+0xae>
    d80a:	90                   	nop    
    d80b:	48 8d 74 26 00       	lea    0x0(%rsi),%rsi

000000000000d810 <__intel_cpu_indicator_init>:
    d810:	50                   	push   %rax
    d811:	52                   	push   %rdx
    d812:	51                   	push   %rcx
    d813:	53                   	push   %rbx
    d814:	57                   	push   %rdi
    d815:	56                   	push   %rsi
    d816:	55                   	push   %rbp
    d817:	41 54                	push   %r12
    d819:	41 55                	push   %r13
    d81b:	41 56                	push   %r14
    d81d:	41 57                	push   %r15
    d81f:	48 89 e5             	mov    %rsp,%rbp
    d822:	48 83 ec 50          	sub    $0x50,%rsp
    d826:	9c                   	pushfq 
    d827:	58                   	pop    %rax
    d828:	48 89 c1             	mov    %rax,%rcx
    d82b:	48 35 00 00 20 00    	xor    $0x200000,%rax
    d831:	50                   	push   %rax
    d832:	9d                   	popfq  
    d833:	9c                   	pushfq 
    d834:	58                   	pop    %rax
    d835:	48 3b c1             	cmp    %rcx,%rax
    d838:	74 2a                	je     d864 <__intel_cpu_indicator_init+0x54>
    d83a:	51                   	push   %rcx
    d83b:	9d                   	popfq  
    d83c:	48 33 c0             	xor    %rax,%rax
    d83f:	0f a2                	cpuid  
    d841:	89 45 f8             	mov    %eax,0xfffffffffffffff8(%rbp)
    d844:	89 5d fc             	mov    %ebx,0xfffffffffffffffc(%rbp)
    d847:	89 4d ec             	mov    %ecx,0xffffffffffffffec(%rbp)
    d84a:	89 55 f4             	mov    %edx,0xfffffffffffffff4(%rbp)
    d84d:	48 c7 c0 01 00 00 00 	mov    $0x1,%rax
    d854:	0f a2                	cpuid  
    d856:	89 45 f0             	mov    %eax,0xfffffffffffffff0(%rbp)
    d859:	89 5d e0             	mov    %ebx,0xffffffffffffffe0(%rbp)
    d85c:	89 4d e8             	mov    %ecx,0xffffffffffffffe8(%rbp)
    d85f:	89 55 e4             	mov    %edx,0xffffffffffffffe4(%rbp)
    d862:	eb 1b                	jmp    d87f <__intel_cpu_indicator_init+0x6f>
    d864:	48 33 c0             	xor    %rax,%rax
    d867:	89 45 f8             	mov    %eax,0xfffffffffffffff8(%rbp)
    d86a:	89 45 fc             	mov    %eax,0xfffffffffffffffc(%rbp)
    d86d:	89 45 ec             	mov    %eax,0xffffffffffffffec(%rbp)
    d870:	89 45 f4             	mov    %eax,0xfffffffffffffff4(%rbp)
    d873:	89 45 f0             	mov    %eax,0xfffffffffffffff0(%rbp)
    d876:	89 45 e0             	mov    %eax,0xffffffffffffffe0(%rbp)
    d879:	89 45 e8             	mov    %eax,0xffffffffffffffe8(%rbp)
    d87c:	89 45 e4             	mov    %eax,0xffffffffffffffe4(%rbp)
    d87f:	8b 45 fc             	mov    0xfffffffffffffffc(%rbp),%eax
    d882:	bb 01 00 00 00       	mov    $0x1,%ebx
    d887:	3d 47 65 6e 75       	cmp    $0x756e6547,%eax
    d88c:	75 1b                	jne    d8a9 <__intel_cpu_indicator_init+0x99>
    d88e:	8b 45 f4             	mov    0xfffffffffffffff4(%rbp),%eax
    d891:	3d 69 6e 65 49       	cmp    $0x49656e69,%eax
    d896:	75 11                	jne    d8a9 <__intel_cpu_indicator_init+0x99>
    d898:	8b 45 ec             	mov    0xffffffffffffffec(%rbp),%eax
    d89b:	3d 6e 74 65 6c       	cmp    $0x6c65746e,%eax
    d8a0:	75 07                	jne    d8a9 <__intel_cpu_indicator_init+0x99>
    d8a2:	ba 01 00 00 00       	mov    $0x1,%edx
    d8a7:	eb 02                	jmp    d8ab <__intel_cpu_indicator_init+0x9b>
    d8a9:	33 d2                	xor    %edx,%edx
    d8ab:	8b 45 f8             	mov    0xfffffffffffffff8(%rbp),%eax
    d8ae:	85 c0                	test   %eax,%eax
    d8b0:	0f 84 8e 00 00 00    	je     d944 <__intel_cpu_indicator_init+0x134>
    d8b6:	85 d2                	test   %edx,%edx
    d8b8:	0f 84 86 00 00 00    	je     d944 <__intel_cpu_indicator_init+0x134>
    d8be:	0f b6 45 f1          	movzbl 0xfffffffffffffff1(%rbp),%eax
    d8c2:	83 e0 0f             	and    $0xf,%eax
    d8c5:	83 f8 0f             	cmp    $0xf,%eax
    d8c8:	75 15                	jne    d8df <__intel_cpu_indicator_init+0xcf>
    d8ca:	8b 45 e8             	mov    0xffffffffffffffe8(%rbp),%eax
    d8cd:	ba 00 08 00 00       	mov    $0x800,%edx
    d8d2:	bb 01 00 00 00       	mov    $0x1,%ebx
    d8d7:	83 e0 01             	and    $0x1,%eax
    d8da:	0f 45 da             	cmovne %edx,%ebx
    d8dd:	eb 65                	jmp    d944 <__intel_cpu_indicator_init+0x134>
    d8df:	83 f8 06             	cmp    $0x6,%eax
    d8e2:	75 60                	jne    d944 <__intel_cpu_indicator_init+0x134>
    d8e4:	8b 55 e8             	mov    0xffffffffffffffe8(%rbp),%edx
    d8e7:	b9 00 00 01 00       	mov    $0x10000,%ecx
    d8ec:	bb 00 08 00 00       	mov    $0x800,%ebx
    d8f1:	f6 c2 01             	test   $0x1,%dl
    d8f4:	75 05                	jne    d8fb <__intel_cpu_indicator_init+0xeb>
    d8f6:	bb 01 00 00 00       	mov    $0x1,%ebx
    d8fb:	f7 c2 00 02 00 00    	test   $0x200,%edx
    d901:	89 d0                	mov    %edx,%eax
    d903:	74 05                	je     d90a <__intel_cpu_indicator_init+0xfa>
    d905:	bb 00 10 00 00       	mov    $0x1000,%ebx
    d90a:	f7 c2 00 00 40 00    	test   $0x400000,%edx
    d910:	74 05                	je     d917 <__intel_cpu_indicator_init+0x107>
    d912:	bb 00 40 00 00       	mov    $0x4000,%ebx
    d917:	f7 c2 00 00 08 00    	test   $0x80000,%edx
    d91d:	74 05                	je     d924 <__intel_cpu_indicator_init+0x114>
    d91f:	bb 00 20 00 00       	mov    $0x2000,%ebx
    d924:	25 00 00 90 00       	and    $0x900000,%eax
    d929:	3d 00 00 90 00       	cmp    $0x900000,%eax
    d92e:	75 05                	jne    d935 <__intel_cpu_indicator_init+0x125>
    d930:	bb 00 80 00 00       	mov    $0x8000,%ebx
    d935:	81 e2 02 00 00 02    	and    $0x2000002,%edx
    d93b:	81 fa 02 00 00 02    	cmp    $0x2000002,%edx
    d941:	0f 44 d9             	cmove  %ecx,%ebx
    d944:	48 8b 05 7d 1a 10 00 	mov    1055357(%rip),%rax        # 10f3c8 <_IO_stdin_used+0x101968>
    d94b:	89 18                	mov    %ebx,(%rax)
    d94d:	48 83 c4 50          	add    $0x50,%rsp
    d951:	41 5f                	pop    %r15
    d953:	41 5e                	pop    %r14
    d955:	41 5d                	pop    %r13
    d957:	41 5c                	pop    %r12
    d959:	5d                   	pop    %rbp
    d95a:	5e                   	pop    %rsi
    d95b:	5f                   	pop    %rdi
    d95c:	5b                   	pop    %rbx
    d95d:	59                   	pop    %rcx
    d95e:	5a                   	pop    %rdx
    d95f:	58                   	pop    %rax
    d960:	c3                   	retq   
    d961:	48 8d b4 26 00 00 00 	lea    0x0(%rsi),%rsi
    d968:	00 
    d969:	48 8d bf 00 00 00 00 	lea    0x0(%rdi),%rdi

000000000000d970 <__libc_csu_fini>:
    d970:	f3 c3                	repz retq 
    d972:	66 66 66 90          	xchg   %ax,%ax
    d976:	66 66 66 90          	xchg   %ax,%ax
    d97a:	66 66 90             	xchg   %ax,%ax
    d97d:	66 66 90             	xchg   %ax,%ax

000000000000d980 <__libc_csu_init>:
    d980:	4c 89 64 24 e0       	mov    %r12,0xffffffffffffffe0(%rsp)
    d985:	4c 89 6c 24 e8       	mov    %r13,0xffffffffffffffe8(%rsp)
    d98a:	4c 8d 25 4b 18 10 00 	lea    1054795(%rip),%r12        # 10f1dc <_IO_stdin_used+0x10177c>
    d991:	4c 89 74 24 f0       	mov    %r14,0xfffffffffffffff0(%rsp)
    d996:	4c 89 7c 24 f8       	mov    %r15,0xfffffffffffffff8(%rsp)
    d99b:	49 89 f6             	mov    %rsi,%r14
    d99e:	48 89 5c 24 d0       	mov    %rbx,0xffffffffffffffd0(%rsp)
    d9a3:	48 89 6c 24 d8       	mov    %rbp,0xffffffffffffffd8(%rsp)
    d9a8:	48 83 ec 38          	sub    $0x38,%rsp
    d9ac:	41 89 ff             	mov    %edi,%r15d
    d9af:	49 89 d5             	mov    %rdx,%r13
    d9b2:	e8 59 db ff ff       	callq  b510 <_init-0x8>
    d9b7:	48 8d 05 1e 18 10 00 	lea    1054750(%rip),%rax        # 10f1dc <_IO_stdin_used+0x10177c>
    d9be:	49 29 c4             	sub    %rax,%r12
    d9c1:	49 c1 fc 03          	sar    $0x3,%r12
    d9c5:	4d 85 e4             	test   %r12,%r12
    d9c8:	74 1e                	je     d9e8 <__libc_csu_init+0x68>
    d9ca:	31 ed                	xor    %ebp,%ebp
    d9cc:	48 89 c3             	mov    %rax,%rbx
    d9cf:	90                   	nop    
    d9d0:	48 83 c5 01          	add    $0x1,%rbp
    d9d4:	4c 89 ea             	mov    %r13,%rdx
    d9d7:	4c 89 f6             	mov    %r14,%rsi
    d9da:	44 89 ff             	mov    %r15d,%edi
    d9dd:	ff 13                	callq  *(%rbx)
    d9df:	48 83 c3 08          	add    $0x8,%rbx
    d9e3:	49 39 ec             	cmp    %rbp,%r12
    d9e6:	75 e8                	jne    d9d0 <__libc_csu_init+0x50>
    d9e8:	48 8b 5c 24 08       	mov    0x8(%rsp),%rbx
    d9ed:	48 8b 6c 24 10       	mov    0x10(%rsp),%rbp
    d9f2:	4c 8b 64 24 18       	mov    0x18(%rsp),%r12
    d9f7:	4c 8b 6c 24 20       	mov    0x20(%rsp),%r13
    d9fc:	4c 8b 74 24 28       	mov    0x28(%rsp),%r14
    da01:	4c 8b 7c 24 30       	mov    0x30(%rsp),%r15
    da06:	48 83 c4 38          	add    $0x38,%rsp
    da0a:	c3                   	retq   
    da0b:	90                   	nop    
    da0c:	90                   	nop    
    da0d:	90                   	nop    
    da0e:	90                   	nop    
    da0f:	90                   	nop    
    da10:	55                   	push   %rbp
    da11:	48 89 e5             	mov    %rsp,%rbp
    da14:	53                   	push   %rbx
    da15:	48 83 ec 08          	sub    $0x8,%rsp
    da19:	48 8b 05 c0 17 10 00 	mov    1054656(%rip),%rax        # 10f1e0 <_IO_stdin_used+0x101780>
    da20:	48 83 f8 ff          	cmp    $0xffffffffffffffff,%rax
    da24:	74 1a                	je     da40 <__libc_csu_init+0xc0>
    da26:	48 8d 1d b3 17 10 00 	lea    1054643(%rip),%rbx        # 10f1e0 <_IO_stdin_used+0x101780>
    da2d:	66 66 90             	xchg   %ax,%ax
    da30:	ff d0                	callq  *%rax
    da32:	48 8b 43 f8          	mov    0xfffffffffffffff8(%rbx),%rax
    da36:	48 83 eb 08          	sub    $0x8,%rbx
    da3a:	48 83 f8 ff          	cmp    $0xffffffffffffffff,%rax
    da3e:	75 f0                	jne    da30 <__libc_csu_init+0xb0>
    da40:	48 83 c4 08          	add    $0x8,%rsp
    da44:	5b                   	pop    %rbx
    da45:	c9                   	leaveq 
    da46:	c3                   	retq   
    da47:	90                   	nop    
Disassembly of section .fini:

000000000000da48 <_fini>:
    da48:	55                   	push   %rbp
    da49:	48 83 ec 08          	sub    $0x8,%rsp
    da4d:	e8 06 00 00 00       	callq  da58 <_fini+0x10>
    da52:	48 83 c4 08          	add    $0x8,%rsp
    da56:	5d                   	pop    %rbp
    da57:	c3                   	retq   
    da58:	e8 f3 db ff ff       	callq  b650 <_start+0x50>
    da5d:	c3                   	retq   