
lattice_64bit_try.o:     file format elf64-x86-64

Disassembly of section .init:

0000000000400750 <_init>:
  400750:	48 83 ec 08          	sub    $0x8,%rsp
  400754:	e8 13 01 00 00       	callq  40086c <call_gmon_start>
  400759:	e8 72 01 00 00       	callq  4008d0 <frame_dummy>
  40075e:	e8 ed 24 00 00       	callq  402c50 <__do_global_ctors_aux>
  400763:	48 83 c4 08          	add    $0x8,%rsp
  400767:	c3                   	retq   
Disassembly of section .plt:

0000000000400768 <__libc_start_main@plt-0x10>:
  400768:	ff 35 c2 3e 10 00    	pushq  1064642(%rip)        # 504630 <_GLOBAL_OFFSET_TABLE_+0x8>
  40076e:	ff 25 c4 3e 10 00    	jmpq   *1064644(%rip)        # 504638 <_GLOBAL_OFFSET_TABLE_+0x10>
  400774:	90                   	nop    
  400775:	90                   	nop    
  400776:	90                   	nop    
  400777:	90                   	nop    

0000000000400778 <__libc_start_main@plt>:
  400778:	ff 25 c2 3e 10 00    	jmpq   *1064642(%rip)        # 504640 <_GLOBAL_OFFSET_TABLE_+0x18>
  40077e:	68 00 00 00 00       	pushq  $0x0
  400783:	e9 e0 ff ff ff       	jmpq   400768 <_init+0x18>

0000000000400788 <catgets@plt>:
  400788:	ff 25 ba 3e 10 00    	jmpq   *1064634(%rip)        # 504648 <_GLOBAL_OFFSET_TABLE_+0x20>
  40078e:	68 01 00 00 00       	pushq  $0x1
  400793:	e9 d0 ff ff ff       	jmpq   400768 <_init+0x18>

0000000000400798 <vsprintf@plt>:
  400798:	ff 25 b2 3e 10 00    	jmpq   *1064626(%rip)        # 504650 <_GLOBAL_OFFSET_TABLE_+0x28>
  40079e:	68 02 00 00 00       	pushq  $0x2
  4007a3:	e9 c0 ff ff ff       	jmpq   400768 <_init+0x18>

00000000004007a8 <getenv@plt>:
  4007a8:	ff 25 aa 3e 10 00    	jmpq   *1064618(%rip)        # 504658 <_GLOBAL_OFFSET_TABLE_+0x30>
  4007ae:	68 03 00 00 00       	pushq  $0x3
  4007b3:	e9 b0 ff ff ff       	jmpq   400768 <_init+0x18>

00000000004007b8 <strncpy@plt>:
  4007b8:	ff 25 a2 3e 10 00    	jmpq   *1064610(%rip)        # 504660 <_GLOBAL_OFFSET_TABLE_+0x38>
  4007be:	68 04 00 00 00       	pushq  $0x4
  4007c3:	e9 a0 ff ff ff       	jmpq   400768 <_init+0x18>

00000000004007c8 <setenv@plt>:
  4007c8:	ff 25 9a 3e 10 00    	jmpq   *1064602(%rip)        # 504668 <_GLOBAL_OFFSET_TABLE_+0x40>
  4007ce:	68 05 00 00 00       	pushq  $0x5
  4007d3:	e9 90 ff ff ff       	jmpq   400768 <_init+0x18>

00000000004007d8 <fprintf@plt>:
  4007d8:	ff 25 92 3e 10 00    	jmpq   *1064594(%rip)        # 504670 <_GLOBAL_OFFSET_TABLE_+0x48>
  4007de:	68 06 00 00 00       	pushq  $0x6
  4007e3:	e9 80 ff ff ff       	jmpq   400768 <_init+0x18>

00000000004007e8 <printf@plt>:
  4007e8:	ff 25 8a 3e 10 00    	jmpq   *1064586(%rip)        # 504678 <_GLOBAL_OFFSET_TABLE_+0x50>
  4007ee:	68 07 00 00 00       	pushq  $0x7
  4007f3:	e9 70 ff ff ff       	jmpq   400768 <_init+0x18>

00000000004007f8 <catopen@plt>:
  4007f8:	ff 25 82 3e 10 00    	jmpq   *1064578(%rip)        # 504680 <_GLOBAL_OFFSET_TABLE_+0x58>
  4007fe:	68 08 00 00 00       	pushq  $0x8
  400803:	e9 60 ff ff ff       	jmpq   400768 <_init+0x18>

0000000000400808 <strchr@plt>:
  400808:	ff 25 7a 3e 10 00    	jmpq   *1064570(%rip)        # 504688 <_GLOBAL_OFFSET_TABLE_+0x60>
  40080e:	68 09 00 00 00       	pushq  $0x9
  400813:	e9 50 ff ff ff       	jmpq   400768 <_init+0x18>

0000000000400818 <memset@plt>:
  400818:	ff 25 72 3e 10 00    	jmpq   *1064562(%rip)        # 504690 <_GLOBAL_OFFSET_TABLE_+0x68>
  40081e:	68 0a 00 00 00       	pushq  $0xa
  400823:	e9 40 ff ff ff       	jmpq   400768 <_init+0x18>

0000000000400828 <exit@plt>:
  400828:	ff 25 6a 3e 10 00    	jmpq   *1064554(%rip)        # 504698 <_GLOBAL_OFFSET_TABLE_+0x70>
  40082e:	68 0b 00 00 00       	pushq  $0xb
  400833:	e9 30 ff ff ff       	jmpq   400768 <_init+0x18>
Disassembly of section .text:

0000000000400840 <_start>:
  400840:	31 ed                	xor    %ebp,%ebp
  400842:	49 89 d1             	mov    %rdx,%r9
  400845:	5e                   	pop    %rsi
  400846:	48 89 e2             	mov    %rsp,%rdx
  400849:	48 83 e4 f0          	and    $0xfffffffffffffff0,%rsp
  40084d:	50                   	push   %rax
  40084e:	54                   	push   %rsp
  40084f:	49 c7 c0 b0 2b 40 00 	mov    $0x402bb0,%r8
  400856:	48 c7 c1 c0 2b 40 00 	mov    $0x402bc0,%rcx
  40085d:	48 c7 c7 00 09 40 00 	mov    $0x400900,%rdi
  400864:	e8 0f ff ff ff       	callq  400778 <__libc_start_main@plt>
  400869:	f4                   	hlt    
  40086a:	90                   	nop    
  40086b:	90                   	nop    

000000000040086c <call_gmon_start>:
  40086c:	48 83 ec 08          	sub    $0x8,%rsp
  400870:	48 8b 05 a9 3d 10 00 	mov    1064361(%rip),%rax        # 504620 <_DYNAMIC+0x1d8>
  400877:	48 85 c0             	test   %rax,%rax
  40087a:	74 02                	je     40087e <call_gmon_start+0x12>
  40087c:	ff d0                	callq  *%rax
  40087e:	48 83 c4 08          	add    $0x8,%rsp
  400882:	c3                   	retq   
  400883:	90                   	nop    
  400884:	90                   	nop    
  400885:	90                   	nop    
  400886:	90                   	nop    
  400887:	90                   	nop    
  400888:	90                   	nop    
  400889:	90                   	nop    
  40088a:	90                   	nop    
  40088b:	90                   	nop    
  40088c:	90                   	nop    
  40088d:	90                   	nop    
  40088e:	90                   	nop    
  40088f:	90                   	nop    

0000000000400890 <__do_global_dtors_aux>:
  400890:	80 3d 89 41 10 00 00 	cmpb   $0x0,1065353(%rip)        # 504a20 <__bss_start>
  400897:	55                   	push   %rbp
  400898:	48 89 e5             	mov    %rsp,%rbp
  40089b:	74 10                	je     4008ad <__do_global_dtors_aux+0x1d>
  40089d:	eb 24                	jmp    4008c3 <__do_global_dtors_aux+0x33>
  40089f:	90                   	nop    
  4008a0:	48 83 c0 08          	add    $0x8,%rax
  4008a4:	48 89 05 05 3e 10 00 	mov    %rax,1064453(%rip)        # 5046b0 <p.6302>
  4008ab:	ff d2                	callq  *%rdx
  4008ad:	48 8b 05 fc 3d 10 00 	mov    1064444(%rip),%rax        # 5046b0 <p.6302>
  4008b4:	48 8b 10             	mov    (%rax),%rdx
  4008b7:	48 85 d2             	test   %rdx,%rdx
  4008ba:	75 e4                	jne    4008a0 <__do_global_dtors_aux+0x10>
  4008bc:	c6 05 5d 41 10 00 01 	movb   $0x1,1065309(%rip)        # 504a20 <__bss_start>
  4008c3:	c9                   	leaveq 
  4008c4:	c3                   	retq   
  4008c5:	66 66 66 90          	xchg   %ax,%ax
  4008c9:	66 66 66 90          	xchg   %ax,%ax
  4008cd:	66 66 90             	xchg   %ax,%ax

00000000004008d0 <frame_dummy>:
  4008d0:	55                   	push   %rbp
  4008d1:	48 83 3d 67 3b 10 00 	cmpq   $0x0,1063783(%rip)        # 504440 <__JCR_END__>
  4008d8:	00 
  4008d9:	48 89 e5             	mov    %rsp,%rbp
  4008dc:	74 1a                	je     4008f8 <frame_dummy+0x28>
  4008de:	48 8b 05 33 3d 10 00 	mov    1064243(%rip),%rax        # 504618 <_DYNAMIC+0x1d0>
  4008e5:	48 85 c0             	test   %rax,%rax
  4008e8:	74 0e                	je     4008f8 <frame_dummy+0x28>
  4008ea:	48 8d 3d 4f 3b 10 00 	lea    1063759(%rip),%rdi        # 504440 <__JCR_END__>
  4008f1:	49 89 c3             	mov    %rax,%r11
  4008f4:	c9                   	leaveq 
  4008f5:	41 ff e3             	jmpq   *%r11
  4008f8:	c9                   	leaveq 
  4008f9:	c3                   	retq   
  4008fa:	90                   	nop    
  4008fb:	90                   	nop    
  4008fc:	90                   	nop    
  4008fd:	90                   	nop    
  4008fe:	90                   	nop    
  4008ff:	90                   	nop    

0000000000400900 <main>:
  400900:	55                   	push   %rbp
  400901:	48 89 e5             	mov    %rsp,%rbp
  400904:	48 83 e4 80          	and    $0xffffffffffffff80,%rsp
  400908:	41 54                	push   %r12
  40090a:	48 83 ec 78          	sub    $0x78,%rsp
  40090e:	bf 03 00 00 00       	mov    $0x3,%edi
  400913:	e8 c8 1c 00 00       	callq  4025e0 <__intel_new_proc_init>
  400918:	0f ae 1c 24          	stmxcsr (%rsp)
  40091c:	81 0c 24 40 80 00 00 	orl    $0x8040,(%rsp)
  400923:	0f ae 14 24          	ldmxcsr (%rsp)
  400927:	48 31 db             	xor    %rbx,%rbx
  40092a:	31 c0                	xor    %eax,%eax
  40092c:	b8 01 00 00 00       	mov    $0x1,%eax
  400931:	0f a2                	cpuid  
  400933:	c1 eb 18             	shr    $0x18,%ebx
  400936:	48 31 c9             	xor    %rcx,%rcx
  400939:	48 01 d9             	add    %rbx,%rcx
  40093c:	48 c1 e1 19          	shl    $0x19,%rcx
  400940:	48 83 c1 07          	add    $0x7,%rcx

0000000000400944 <loop_delay>:
  400944:	90                   	nop    
  400945:	e2 fd                	loop   400944 <loop_delay>
  400947:	f2 0f 10 2d 59 23 00 	movsd  9049(%rip),%xmm5        # 402ca8 <_2il0floatpacket.1>
  40094e:	00 
  40094f:	f2 0f 10 25 59 23 00 	movsd  9049(%rip),%xmm4        # 402cb0 <_2il0floatpacket.2>
  400956:	00 
  400957:	f2 0f 10 1d 59 23 00 	movsd  9049(%rip),%xmm3        # 402cb8 <_2il0floatpacket.3>
  40095e:	00 
  40095f:	f2 0f 10 15 59 23 00 	movsd  9049(%rip),%xmm2        # 402cc0 <_2il0floatpacket.4>
  400966:	00 
  400967:	45 31 e4             	xor    %r12d,%r12d
  40096a:	f2 0f 10 0d 56 23 00 	movsd  9046(%rip),%xmm1        # 402cc8 <_2il0floatpacket.5>
  400971:	00 
  400972:	f2 0f 10 05 56 23 00 	movsd  9046(%rip),%xmm0        # 402cd0 <_2il0floatpacket.6>
  400979:	00 
  40097a:	f2 0f 10 35 56 23 00 	movsd  9046(%rip),%xmm6        # 402cd8 <_2il0floatpacket.7>
  400981:	00 
  400982:	f2 0f 10 3d 1e 23 00 	movsd  8990(%rip),%xmm7        # 402ca8 <_2il0floatpacket.1>
  400989:	00 
  40098a:	0f 28 f7             	movaps %xmm7,%xmm6
  40098d:	f2 44 0f 10 15 42 23 	movsd  9026(%rip),%xmm10        # 402cd8 <_2il0floatpacket.7>
  400994:	00 00 
  400996:	f2 0f 10 05 32 23 00 	movsd  9010(%rip),%xmm0        # 402cd0 <_2il0floatpacket.6>
  40099d:	00 
  40099e:	31 c0                	xor    %eax,%eax
  4009a0:	66 0f ef ed          	pxor   %xmm5,%xmm5
  4009a4:	f2 0f 10 0d 1c 23 00 	movsd  8988(%rip),%xmm1        # 402cc8 <_2il0floatpacket.5>
  4009ab:	00 
  4009ac:	f2 0f 10 15 0c 23 00 	movsd  8972(%rip),%xmm2        # 402cc0 <_2il0floatpacket.4>
  4009b3:	00 
  4009b4:	f2 0f 10 1d fc 22 00 	movsd  8956(%rip),%xmm3        # 402cb8 <_2il0floatpacket.3>
  4009bb:	00 
  4009bc:	f2 44 0f 10 1d eb 22 	movsd  8939(%rip),%xmm11        # 402cb0 <_2il0floatpacket.2>
  4009c3:	00 00 
  4009c5:	66 0f ef e4          	pxor   %xmm4,%xmm4
  4009c9:	31 d2                	xor    %edx,%edx
  4009cb:	66 45 0f ef c9       	pxor   %xmm9,%xmm9
  4009d0:	66 45 0f ef c0       	pxor   %xmm8,%xmm8
  4009d5:	f2 0f 2a c2          	cvtsi2sd %edx,%xmm0
  4009d9:	44 0f 28 f7          	movaps %xmm7,%xmm14
  4009dd:	f2 41 0f 59 c3       	mulsd  %xmm11,%xmm0
  4009e2:	31 c9                	xor    %ecx,%ecx
  4009e4:	f2 44 0f 5c f0       	subsd  %xmm0,%xmm14
  4009e9:	45 0f 28 ee          	movaps %xmm14,%xmm13
  4009ed:	f2 45 0f 59 ee       	mulsd  %xmm14,%xmm13
  4009f2:	f2 45 0f 51 e5       	sqrtsd %xmm13,%xmm12
  4009f7:	f2 0f 2a d9          	cvtsi2sd %ecx,%xmm3
  4009fb:	f2 44 0f 11 34 24    	movsd  %xmm14,(%rsp)
  400a01:	44 0f 28 fe          	movaps %xmm6,%xmm15
  400a05:	f2 41 0f 59 db       	mulsd  %xmm11,%xmm3
  400a0a:	41 0f 28 c5          	movaps %xmm13,%xmm0
  400a0e:	ff c1                	inc    %ecx
  400a10:	f2 44 0f 5c fb       	subsd  %xmm3,%xmm15
  400a15:	f2 0f 10 1d c3 22 00 	movsd  8899(%rip),%xmm3        # 402ce0 <_2il0floatpacket.8>
  400a1c:	00 
  400a1d:	f2 44 0f 11 7c 24 08 	movsd  %xmm15,0x8(%rsp)
  400a24:	41 0f 28 cf          	movaps %xmm15,%xmm1
  400a28:	f2 41 0f 59 cf       	mulsd  %xmm15,%xmm1
  400a2d:	f2 0f 58 c1          	addsd  %xmm1,%xmm0
  400a31:	81 64 24 04 ff ff ff 	andl   $0x7fffffff,0x4(%rsp)
  400a38:	7f 
  400a39:	f2 0f 51 d0          	sqrtsd %xmm0,%xmm2
  400a3d:	0f 28 c2             	movaps %xmm2,%xmm0
  400a40:	f2 0f 59 c2          	mulsd  %xmm2,%xmm0
  400a44:	f2 0f 5e d8          	divsd  %xmm0,%xmm3
  400a48:	81 64 24 0c ff ff ff 	andl   $0x7fffffff,0xc(%rsp)
  400a4f:	7f 
  400a50:	f2 0f 51 c1          	sqrtsd %xmm1,%xmm0
  400a54:	f2 0f 5e c2          	divsd  %xmm2,%xmm0
  400a58:	f2 0f 59 c3          	mulsd  %xmm3,%xmm0
  400a5c:	f2 41 0f 59 c6       	mulsd  %xmm14,%xmm0
  400a61:	0f 28 c8             	movaps %xmm0,%xmm1
  400a64:	f2 0f 5e 0c 24       	divsd  (%rsp),%xmm1
  400a69:	f2 44 0f 11 34 24    	movsd  %xmm14,(%rsp)
  400a6f:	81 64 24 04 ff ff ff 	andl   $0x7fffffff,0x4(%rsp)
  400a76:	7f 
  400a77:	f2 44 0f 58 c9       	addsd  %xmm1,%xmm9
  400a7c:	41 0f 28 cc          	movaps %xmm12,%xmm1
  400a80:	f2 0f 5e ca          	divsd  %xmm2,%xmm1
  400a84:	f2 0f 59 d9          	mulsd  %xmm1,%xmm3
  400a88:	0f 28 c8             	movaps %xmm0,%xmm1
  400a8b:	f2 0f 5e 0c 24       	divsd  (%rsp),%xmm1
  400a90:	f2 44 0f 11 34 24    	movsd  %xmm14,(%rsp)
  400a96:	f2 41 0f 59 df       	mulsd  %xmm15,%xmm3
  400a9b:	0f 28 d3             	movaps %xmm3,%xmm2
  400a9e:	f2 0f 5e 54 24 08    	divsd  0x8(%rsp),%xmm2
  400aa4:	f2 44 0f 11 7c 24 08 	movsd  %xmm15,0x8(%rsp)
  400aab:	81 64 24 04 ff ff ff 	andl   $0x7fffffff,0x4(%rsp)
  400ab2:	7f 
  400ab3:	f2 44 0f 58 c2       	addsd  %xmm2,%xmm8
  400ab8:	0f 28 d3             	movaps %xmm3,%xmm2
  400abb:	81 64 24 0c ff ff ff 	andl   $0x7fffffff,0xc(%rsp)
  400ac2:	7f 
  400ac3:	f2 0f 5e 54 24 08    	divsd  0x8(%rsp),%xmm2
  400ac9:	f2 44 0f 11 7c 24 08 	movsd  %xmm15,0x8(%rsp)
  400ad0:	f2 44 0f 58 c9       	addsd  %xmm1,%xmm9
  400ad5:	0f 28 c8             	movaps %xmm0,%xmm1
  400ad8:	f2 0f 5e 0c 24       	divsd  (%rsp),%xmm1
  400add:	f2 44 0f 11 34 24    	movsd  %xmm14,(%rsp)
  400ae3:	81 64 24 0c ff ff ff 	andl   $0x7fffffff,0xc(%rsp)
  400aea:	7f 
  400aeb:	f2 44 0f 58 c2       	addsd  %xmm2,%xmm8
  400af0:	0f 28 d3             	movaps %xmm3,%xmm2
  400af3:	f2 0f 5e 54 24 08    	divsd  0x8(%rsp),%xmm2
  400af9:	f2 44 0f 11 7c 24 08 	movsd  %xmm15,0x8(%rsp)
  400b00:	81 64 24 04 ff ff ff 	andl   $0x7fffffff,0x4(%rsp)
  400b07:	7f 
  400b08:	f2 44 0f 58 c9       	addsd  %xmm1,%xmm9
  400b0d:	0f 28 c8             	movaps %xmm0,%xmm1
  400b10:	f2 0f 5e 0c 24       	divsd  (%rsp),%xmm1
  400b15:	f2 44 0f 11 34 24    	movsd  %xmm14,(%rsp)
  400b1b:	81 64 24 0c ff ff ff 	andl   $0x7fffffff,0xc(%rsp)
  400b22:	7f 
  400b23:	f2 44 0f 58 c2       	addsd  %xmm2,%xmm8
  400b28:	0f 28 d3             	movaps %xmm3,%xmm2
  400b2b:	f2 0f 5e 54 24 08    	divsd  0x8(%rsp),%xmm2
  400b31:	f2 44 0f 11 7c 24 08 	movsd  %xmm15,0x8(%rsp)
  400b38:	81 64 24 04 ff ff ff 	andl   $0x7fffffff,0x4(%rsp)
  400b3f:	7f 
  400b40:	f2 44 0f 58 c9       	addsd  %xmm1,%xmm9
  400b45:	0f 28 c8             	movaps %xmm0,%xmm1
  400b48:	f2 0f 5e 0c 24       	divsd  (%rsp),%xmm1
  400b4d:	f2 44 0f 11 34 24    	movsd  %xmm14,(%rsp)
  400b53:	81 64 24 0c ff ff ff 	andl   $0x7fffffff,0xc(%rsp)
  400b5a:	7f 
  400b5b:	f2 44 0f 58 c2       	addsd  %xmm2,%xmm8
  400b60:	0f 28 d3             	movaps %xmm3,%xmm2
  400b63:	f2 0f 5e 54 24 08    	divsd  0x8(%rsp),%xmm2
  400b69:	f2 44 0f 11 7c 24 08 	movsd  %xmm15,0x8(%rsp)
  400b70:	81 64 24 04 ff ff ff 	andl   $0x7fffffff,0x4(%rsp)
  400b77:	7f 
  400b78:	f2 44 0f 58 c9       	addsd  %xmm1,%xmm9
  400b7d:	0f 28 c8             	movaps %xmm0,%xmm1
  400b80:	f2 0f 5e 0c 24       	divsd  (%rsp),%xmm1
  400b85:	f2 44 0f 11 34 24    	movsd  %xmm14,(%rsp)
  400b8b:	81 64 24 0c ff ff ff 	andl   $0x7fffffff,0xc(%rsp)
  400b92:	7f 
  400b93:	f2 44 0f 58 c2       	addsd  %xmm2,%xmm8
  400b98:	0f 28 d3             	movaps %xmm3,%xmm2
  400b9b:	f2 0f 5e 54 24 08    	divsd  0x8(%rsp),%xmm2
  400ba1:	f2 44 0f 11 7c 24 08 	movsd  %xmm15,0x8(%rsp)
  400ba8:	81 64 24 04 ff ff ff 	andl   $0x7fffffff,0x4(%rsp)
  400baf:	7f 
  400bb0:	f2 44 0f 58 c9       	addsd  %xmm1,%xmm9
  400bb5:	0f 28 c8             	movaps %xmm0,%xmm1
  400bb8:	f2 0f 5e 0c 24       	divsd  (%rsp),%xmm1
  400bbd:	f2 44 0f 11 34 24    	movsd  %xmm14,(%rsp)
  400bc3:	81 64 24 0c ff ff ff 	andl   $0x7fffffff,0xc(%rsp)
  400bca:	7f 
  400bcb:	f2 44 0f 58 c2       	addsd  %xmm2,%xmm8
  400bd0:	0f 28 d3             	movaps %xmm3,%xmm2
  400bd3:	f2 0f 5e 54 24 08    	divsd  0x8(%rsp),%xmm2
  400bd9:	f2 44 0f 11 7c 24 08 	movsd  %xmm15,0x8(%rsp)
  400be0:	81 64 24 04 ff ff ff 	andl   $0x7fffffff,0x4(%rsp)
  400be7:	7f 
  400be8:	f2 44 0f 58 c9       	addsd  %xmm1,%xmm9
  400bed:	0f 28 c8             	movaps %xmm0,%xmm1
  400bf0:	f2 0f 5e 0c 24       	divsd  (%rsp),%xmm1
  400bf5:	f2 44 0f 11 34 24    	movsd  %xmm14,(%rsp)
  400bfb:	81 64 24 0c ff ff ff 	andl   $0x7fffffff,0xc(%rsp)
  400c02:	7f 
  400c03:	f2 44 0f 58 c2       	addsd  %xmm2,%xmm8
  400c08:	0f 28 d3             	movaps %xmm3,%xmm2
  400c0b:	f2 0f 5e 54 24 08    	divsd  0x8(%rsp),%xmm2
  400c11:	f2 44 0f 11 7c 24 08 	movsd  %xmm15,0x8(%rsp)
  400c18:	81 64 24 04 ff ff ff 	andl   $0x7fffffff,0x4(%rsp)
  400c1f:	7f 
  400c20:	f2 44 0f 58 c9       	addsd  %xmm1,%xmm9
  400c25:	0f 28 c8             	movaps %xmm0,%xmm1
  400c28:	f2 0f 5e 0c 24       	divsd  (%rsp),%xmm1
  400c2d:	f2 44 0f 11 34 24    	movsd  %xmm14,(%rsp)
  400c33:	81 64 24 0c ff ff ff 	andl   $0x7fffffff,0xc(%rsp)
  400c3a:	7f 
  400c3b:	f2 44 0f 58 c2       	addsd  %xmm2,%xmm8
  400c40:	0f 28 d3             	movaps %xmm3,%xmm2
  400c43:	f2 0f 5e 54 24 08    	divsd  0x8(%rsp),%xmm2
  400c49:	f2 44 0f 11 7c 24 08 	movsd  %xmm15,0x8(%rsp)
  400c50:	81 64 24 04 ff ff ff 	andl   $0x7fffffff,0x4(%rsp)
  400c57:	7f 
  400c58:	f2 0f 5e 04 24       	divsd  (%rsp),%xmm0
  400c5d:	81 64 24 0c ff ff ff 	andl   $0x7fffffff,0xc(%rsp)
  400c64:	7f 
  400c65:	f2 0f 5e 5c 24 08    	divsd  0x8(%rsp),%xmm3
  400c6b:	f2 44 0f 58 c9       	addsd  %xmm1,%xmm9
  400c70:	f2 44 0f 58 c2       	addsd  %xmm2,%xmm8
  400c75:	f2 44 0f 58 c8       	addsd  %xmm0,%xmm9
  400c7a:	f2 44 0f 58 c3       	addsd  %xmm3,%xmm8
  400c7f:	83 f9 0a             	cmp    $0xa,%ecx
  400c82:	0f 82 6f fd ff ff    	jb     4009f7 <loop_delay+0xb3>
  400c88:	ff c2                	inc    %edx
  400c8a:	83 fa 0a             	cmp    $0xa,%edx
  400c8d:	0f 82 42 fd ff ff    	jb     4009d5 <loop_delay+0x91>
  400c93:	f2 0f 10 05 35 20 00 	movsd  8245(%rip),%xmm0        # 402cd0 <_2il0floatpacket.6>
  400c9a:	00 
  400c9b:	f2 0f 10 0d 25 20 00 	movsd  8229(%rip),%xmm1        # 402cc8 <_2il0floatpacket.5>
  400ca2:	00 
  400ca3:	f2 0f 10 15 15 20 00 	movsd  8213(%rip),%xmm2        # 402cc0 <_2il0floatpacket.4>
  400caa:	00 
  400cab:	f2 0f 10 1d 05 20 00 	movsd  8197(%rip),%xmm3        # 402cb8 <_2il0floatpacket.3>
  400cb2:	00 
  400cb3:	f2 44 0f 59 cb       	mulsd  %xmm3,%xmm9
  400cb8:	f2 44 0f 5e cb       	divsd  %xmm3,%xmm9
  400cbd:	f2 44 0f 59 c3       	mulsd  %xmm3,%xmm8
  400cc2:	f2 44 0f 5e c3       	divsd  %xmm3,%xmm8
  400cc7:	f2 44 0f 58 cd       	addsd  %xmm5,%xmm9
  400ccc:	f2 41 0f 58 e9       	addsd  %xmm9,%xmm5
  400cd1:	f2 0f 59 ea          	mulsd  %xmm2,%xmm5
  400cd5:	f2 45 0f 59 ca       	mulsd  %xmm10,%xmm9
  400cda:	f2 44 0f 58 c4       	addsd  %xmm4,%xmm8
  400cdf:	f2 0f 58 fd          	addsd  %xmm5,%xmm7
  400ce3:	f2 41 0f 58 e0       	addsd  %xmm8,%xmm4
  400ce8:	f2 0f 59 e2          	mulsd  %xmm2,%xmm4
  400cec:	f2 45 0f 59 c2       	mulsd  %xmm10,%xmm8
  400cf1:	f2 44 0f 58 c8       	addsd  %xmm0,%xmm9
  400cf6:	f2 0f 58 f4          	addsd  %xmm4,%xmm6
  400cfa:	f2 44 0f 58 c0       	addsd  %xmm0,%xmm8
  400cff:	ff c0                	inc    %eax
  400d01:	3d e8 03 00 00       	cmp    $0x3e8,%eax
  400d06:	f2 41 0f 2c d1       	cvttsd2si %xmm9,%edx
  400d0b:	f2 0f 2a ea          	cvtsi2sd %edx,%xmm5
  400d0f:	f2 0f 59 e9          	mulsd  %xmm1,%xmm5
  400d13:	f2 41 0f 2c c8       	cvttsd2si %xmm8,%ecx
  400d18:	f2 0f 2a e1          	cvtsi2sd %ecx,%xmm4
  400d1c:	f2 0f 59 e1          	mulsd  %xmm1,%xmm4
  400d20:	0f 82 a3 fc ff ff    	jb     4009c9 <loop_delay+0x85>
  400d26:	66 0f 2e 3d 7a 1f 00 	ucomisd 8058(%rip),%xmm7        # 402ca8 <_2il0floatpacket.1>
  400d2d:	00 
  400d2e:	7a 02                	jp     400d32 <loop_delay+0x3ee>
  400d30:	74 21                	je     400d53 <loop_delay+0x40f>
  400d32:	bf 34 2d 40 00       	mov    $0x402d34,%edi
  400d37:	31 c0                	xor    %eax,%eax
  400d39:	e8 aa fa ff ff       	callq  4007e8 <printf@plt>
  400d3e:	41 ff c4             	inc    %r12d
  400d41:	41 81 fc a0 86 01 00 	cmp    $0x186a0,%r12d
  400d48:	0f 82 34 fc ff ff    	jb     400982 <loop_delay+0x3e>
  400d4e:	e9 f4 fb ff ff       	jmpq   400947 <loop_delay+0x3>
  400d53:	66 0f 2e 35 4d 1f 00 	ucomisd 8013(%rip),%xmm6        # 402ca8 <_2il0floatpacket.1>
  400d5a:	00 
  400d5b:	75 d5                	jne    400d32 <loop_delay+0x3ee>
  400d5d:	7a d3                	jp     400d32 <loop_delay+0x3ee>
  400d5f:	bf 28 2d 40 00       	mov    $0x402d28,%edi
  400d64:	31 c0                	xor    %eax,%eax
  400d66:	e8 7d fa ff ff       	callq  4007e8 <printf@plt>
  400d6b:	eb d1                	jmp    400d3e <loop_delay+0x3fa>
  400d6d:	66 66 90             	xchg   %ax,%ax

0000000000400d70 <main_test>:
  400d70:	56                   	push   %rsi
  400d71:	e8 0a 00 00 00       	callq  400d80 <lattice>
  400d76:	31 c0                	xor    %eax,%eax
  400d78:	59                   	pop    %rcx
  400d79:	c3                   	retq   
  400d7a:	66 66 90             	xchg   %ax,%ax
  400d7d:	66 66 90             	xchg   %ax,%ax

0000000000400d80 <lattice>:
  400d80:	41 57                	push   %r15
  400d82:	41 56                	push   %r14
  400d84:	41 55                	push   %r13
  400d86:	41 54                	push   %r12
  400d88:	55                   	push   %rbp
  400d89:	48 83 ec 70          	sub    $0x70,%rsp
  400d8d:	f2 0f 10 2d 53 1f 00 	movsd  8019(%rip),%xmm5        # 402ce8 <_2il0floatpacket.9>
  400d94:	00 
  400d95:	f2 0f 10 25 53 1f 00 	movsd  8019(%rip),%xmm4        # 402cf0 <_2il0floatpacket.10>
  400d9c:	00 
  400d9d:	f2 0f 10 1d 53 1f 00 	movsd  8019(%rip),%xmm3        # 402cf8 <_2il0floatpacket.11>
  400da4:	00 
  400da5:	f2 0f 10 15 53 1f 00 	movsd  8019(%rip),%xmm2        # 402d00 <_2il0floatpacket.12>
  400dac:	00 
  400dad:	f2 0f 10 0d 53 1f 00 	movsd  8019(%rip),%xmm1        # 402d08 <_2il0floatpacket.13>
  400db4:	00 
  400db5:	f2 0f 10 05 53 1f 00 	movsd  8019(%rip),%xmm0        # 402d10 <_2il0floatpacket.14>
  400dbc:	00 
  400dbd:	f2 0f 10 35 53 1f 00 	movsd  8019(%rip),%xmm6        # 402d18 <_2il0floatpacket.15>
  400dc4:	00 
  400dc5:	31 ed                	xor    %ebp,%ebp
  400dc7:	f2 0f 10 25 19 1f 00 	movsd  7961(%rip),%xmm4        # 402ce8 <_2il0floatpacket.9>
  400dce:	00 
  400dcf:	0f 28 c4             	movaps %xmm4,%xmm0
  400dd2:	f2 0f 10 3d 3e 1f 00 	movsd  7998(%rip),%xmm7        # 402d18 <_2il0floatpacket.15>
  400dd9:	00 
  400dda:	f2 44 0f 10 05 2d 1f 	movsd  7981(%rip),%xmm8        # 402d10 <_2il0floatpacket.14>
  400de1:	00 00 
  400de3:	45 31 e4             	xor    %r12d,%r12d
  400de6:	66 0f ef db          	pxor   %xmm3,%xmm3
  400dea:	f2 44 0f 10 0d 15 1f 	movsd  7957(%rip),%xmm9        # 402d08 <_2il0floatpacket.13>
  400df1:	00 00 
  400df3:	f2 44 0f 10 15 04 1f 	movsd  7940(%rip),%xmm10        # 402d00 <_2il0floatpacket.12>
  400dfa:	00 00 
  400dfc:	f2 44 0f 10 1d f3 1e 	movsd  7923(%rip),%xmm11        # 402cf8 <_2il0floatpacket.11>
  400e03:	00 00 
  400e05:	f2 0f 10 0d e3 1e 00 	movsd  7907(%rip),%xmm1        # 402cf0 <_2il0floatpacket.10>
  400e0c:	00 
  400e0d:	66 0f ef d2          	pxor   %xmm2,%xmm2
  400e11:	f2 0f 11 54 24 08    	movsd  %xmm2,0x8(%rsp)
  400e17:	f2 0f 11 1c 24       	movsd  %xmm3,(%rsp)
  400e1c:	45 31 ed             	xor    %r13d,%r13d
  400e1f:	66 0f ef ed          	pxor   %xmm5,%xmm5
  400e23:	f2 0f 11 6c 24 60    	movsd  %xmm5,0x60(%rsp)
  400e29:	66 0f ef f6          	pxor   %xmm6,%xmm6
  400e2d:	f2 0f 11 74 24 58    	movsd  %xmm6,0x58(%rsp)
  400e33:	f2 41 0f 2a d5       	cvtsi2sd %r13d,%xmm2
  400e38:	f2 0f 11 64 24 10    	movsd  %xmm4,0x10(%rsp)
  400e3e:	0f 28 ec             	movaps %xmm4,%xmm5
  400e41:	f2 0f 59 d1          	mulsd  %xmm1,%xmm2
  400e45:	45 31 f6             	xor    %r14d,%r14d
  400e48:	f2 0f 5c ea          	subsd  %xmm2,%xmm5
  400e4c:	0f 28 dd             	movaps %xmm5,%xmm3
  400e4f:	f2 0f 59 dd          	mulsd  %xmm5,%xmm3
  400e53:	f2 0f 51 d3          	sqrtsd %xmm3,%xmm2
  400e57:	f2 41 0f 2a f6       	cvtsi2sd %r14d,%xmm6
  400e5c:	f2 0f 11 54 24 28    	movsd  %xmm2,0x28(%rsp)
  400e62:	f2 0f 11 5c 24 20    	movsd  %xmm3,0x20(%rsp)
  400e68:	f2 0f 11 6c 24 30    	movsd  %xmm5,0x30(%rsp)
  400e6e:	f2 0f 11 44 24 18    	movsd  %xmm0,0x18(%rsp)
  400e74:	f2 0f 59 f1          	mulsd  %xmm1,%xmm6
  400e78:	44 0f 28 d8          	movaps %xmm0,%xmm11
  400e7c:	0f 28 fb             	movaps %xmm3,%xmm7
  400e7f:	45 31 ff             	xor    %r15d,%r15d
  400e82:	f2 44 0f 5c de       	subsd  %xmm6,%xmm11
  400e87:	f2 44 0f 11 5c 24 50 	movsd  %xmm11,0x50(%rsp)
  400e8e:	45 0f 28 c3          	movaps %xmm11,%xmm8
  400e92:	f2 45 0f 59 c3       	mulsd  %xmm11,%xmm8
  400e97:	f2 41 0f 58 f8       	addsd  %xmm8,%xmm7
  400e9c:	f2 44 0f 51 d7       	sqrtsd %xmm7,%xmm10
  400ea1:	45 0f 28 ca          	movaps %xmm10,%xmm9
  400ea5:	f2 0f 10 3d 73 1e 00 	movsd  7795(%rip),%xmm7        # 402d20 <_2il0floatpacket.16>
  400eac:	00 
  400ead:	f2 45 0f 59 ca       	mulsd  %xmm10,%xmm9
  400eb2:	f2 41 0f 5e f9       	divsd  %xmm9,%xmm7
  400eb7:	f2 0f 11 7c 24 38    	movsd  %xmm7,0x38(%rsp)
  400ebd:	f2 41 0f 51 f0       	sqrtsd %xmm8,%xmm6
  400ec2:	f2 41 0f 5e f2       	divsd  %xmm10,%xmm6
  400ec7:	44 0f 28 c2          	movaps %xmm2,%xmm8
  400ecb:	f2 45 0f 5e c2       	divsd  %xmm10,%xmm8
  400ed0:	f2 44 0f 11 44 24 48 	movsd  %xmm8,0x48(%rsp)
  400ed7:	f2 0f 59 f7          	mulsd  %xmm7,%xmm6
  400edb:	f2 0f 59 f5          	mulsd  %xmm5,%xmm6
  400edf:	f2 0f 11 74 24 40    	movsd  %xmm6,0x40(%rsp)
  400ee5:	f2 0f 10 44 24 30    	movsd  0x30(%rsp),%xmm0
  400eeb:	e8 80 01 00 00       	callq  401070 <mabs>
  400ef0:	f2 0f 10 4c 24 40    	movsd  0x40(%rsp),%xmm1
  400ef6:	f2 0f 5e c8          	divsd  %xmm0,%xmm1
  400efa:	f2 0f 10 54 24 60    	movsd  0x60(%rsp),%xmm2
  400f00:	f2 0f 10 44 24 50    	movsd  0x50(%rsp),%xmm0
  400f06:	f2 0f 58 d1          	addsd  %xmm1,%xmm2
  400f0a:	f2 0f 11 54 24 60    	movsd  %xmm2,0x60(%rsp)
  400f10:	e8 5b 01 00 00       	callq  401070 <mabs>
  400f15:	f2 0f 10 4c 24 38    	movsd  0x38(%rsp),%xmm1
  400f1b:	f2 0f 59 4c 24 50    	mulsd  0x50(%rsp),%xmm1
  400f21:	f2 0f 59 4c 24 48    	mulsd  0x48(%rsp),%xmm1
  400f27:	f2 0f 5e c8          	divsd  %xmm0,%xmm1
  400f2b:	f2 0f 10 44 24 58    	movsd  0x58(%rsp),%xmm0
  400f31:	41 ff c7             	inc    %r15d
  400f34:	f2 0f 58 c1          	addsd  %xmm1,%xmm0
  400f38:	f2 0f 11 44 24 58    	movsd  %xmm0,0x58(%rsp)
  400f3e:	41 83 ff 0a          	cmp    $0xa,%r15d
  400f42:	72 a1                	jb     400ee5 <lattice+0x165>
  400f44:	f2 0f 10 54 24 28    	movsd  0x28(%rsp),%xmm2
  400f4a:	f2 0f 10 5c 24 20    	movsd  0x20(%rsp),%xmm3
  400f50:	f2 0f 10 6c 24 30    	movsd  0x30(%rsp),%xmm5
  400f56:	f2 0f 10 44 24 18    	movsd  0x18(%rsp),%xmm0
  400f5c:	41 ff c6             	inc    %r14d
  400f5f:	41 83 fe 0a          	cmp    $0xa,%r14d
  400f63:	f2 0f 10 0d 85 1d 00 	movsd  7557(%rip),%xmm1        # 402cf0 <_2il0floatpacket.10>
  400f6a:	00 
  400f6b:	0f 82 e6 fe ff ff    	jb     400e57 <lattice+0xd7>
  400f71:	f2 0f 10 64 24 10    	movsd  0x10(%rsp),%xmm4
  400f77:	41 ff c5             	inc    %r13d
  400f7a:	41 83 fd 0a          	cmp    $0xa,%r13d
  400f7e:	0f 82 af fe ff ff    	jb     400e33 <lattice+0xb3>
  400f84:	f2 0f 10 74 24 58    	movsd  0x58(%rsp),%xmm6
  400f8a:	f2 0f 10 6c 24 60    	movsd  0x60(%rsp),%xmm5
  400f90:	f2 0f 10 54 24 08    	movsd  0x8(%rsp),%xmm2
  400f96:	f2 0f 10 1c 24       	movsd  (%rsp),%xmm3
  400f9b:	41 ff c4             	inc    %r12d
  400f9e:	41 81 fc e8 03 00 00 	cmp    $0x3e8,%r12d
  400fa5:	f2 0f 10 3d 6b 1d 00 	movsd  7531(%rip),%xmm7        # 402d18 <_2il0floatpacket.15>
  400fac:	00 
  400fad:	f2 44 0f 10 05 5a 1d 	movsd  7514(%rip),%xmm8        # 402d10 <_2il0floatpacket.14>
  400fb4:	00 00 
  400fb6:	f2 44 0f 10 0d 49 1d 	movsd  7497(%rip),%xmm9        # 402d08 <_2il0floatpacket.13>
  400fbd:	00 00 
  400fbf:	f2 44 0f 10 15 38 1d 	movsd  7480(%rip),%xmm10        # 402d00 <_2il0floatpacket.12>
  400fc6:	00 00 
  400fc8:	f2 44 0f 10 1d 27 1d 	movsd  7463(%rip),%xmm11        # 402cf8 <_2il0floatpacket.11>
  400fcf:	00 00 
  400fd1:	f2 41 0f 59 eb       	mulsd  %xmm11,%xmm5
  400fd6:	f2 41 0f 5e eb       	divsd  %xmm11,%xmm5
  400fdb:	f2 41 0f 59 f3       	mulsd  %xmm11,%xmm6
  400fe0:	f2 41 0f 5e f3       	divsd  %xmm11,%xmm6
  400fe5:	f2 0f 58 eb          	addsd  %xmm3,%xmm5
  400fe9:	f2 0f 58 dd          	addsd  %xmm5,%xmm3
  400fed:	f2 41 0f 59 da       	mulsd  %xmm10,%xmm3
  400ff2:	f2 0f 59 ef          	mulsd  %xmm7,%xmm5
  400ff6:	f2 0f 58 f2          	addsd  %xmm2,%xmm6
  400ffa:	f2 0f 58 e3          	addsd  %xmm3,%xmm4
  400ffe:	f2 0f 58 d6          	addsd  %xmm6,%xmm2
  401002:	f2 41 0f 59 d2       	mulsd  %xmm10,%xmm2
  401007:	f2 0f 59 f7          	mulsd  %xmm7,%xmm6
  40100b:	f2 41 0f 58 e8       	addsd  %xmm8,%xmm5
  401010:	f2 0f 58 c2          	addsd  %xmm2,%xmm0
  401014:	f2 41 0f 58 f0       	addsd  %xmm8,%xmm6
  401019:	f2 0f 2c c5          	cvttsd2si %xmm5,%eax
  40101d:	f2 0f 2a d8          	cvtsi2sd %eax,%xmm3
  401021:	f2 41 0f 59 d9       	mulsd  %xmm9,%xmm3
  401026:	f2 0f 2c d6          	cvttsd2si %xmm6,%edx
  40102a:	f2 0f 2a d2          	cvtsi2sd %edx,%xmm2
  40102e:	f2 41 0f 59 d1       	mulsd  %xmm9,%xmm2
  401033:	0f 82 d8 fd ff ff    	jb     400e11 <lattice+0x91>
  401039:	66 0f 2e 25 a7 1c 00 	ucomisd 7335(%rip),%xmm4        # 402ce8 <_2il0floatpacket.9>
  401040:	00 
  401041:	7a 02                	jp     401045 <lattice+0x2c5>
  401043:	74 18                	je     40105d <lattice+0x2dd>
  401045:	e8 56 00 00 00       	callq  4010a0 <sdc>
  40104a:	ff c5                	inc    %ebp
  40104c:	81 fd a0 86 01 00    	cmp    $0x186a0,%ebp
  401052:	0f 82 6f fd ff ff    	jb     400dc7 <lattice+0x47>
  401058:	e9 68 fd ff ff       	jmpq   400dc5 <lattice+0x45>
  40105d:	66 0f 2e 05 83 1c 00 	ucomisd 7299(%rip),%xmm0        # 402ce8 <_2il0floatpacket.9>
  401064:	00 
  401065:	75 de                	jne    401045 <lattice+0x2c5>
  401067:	7a dc                	jp     401045 <lattice+0x2c5>
  401069:	e8 22 00 00 00       	callq  401090 <correct>
  40106e:	eb da                	jmp    40104a <lattice+0x2ca>

0000000000401070 <mabs>:
  401070:	f2 0f 11 44 24 f8    	movsd  %xmm0,0xfffffffffffffff8(%rsp)
  401076:	81 64 24 fc ff ff ff 	andl   $0x7fffffff,0xfffffffffffffffc(%rsp)
  40107d:	7f 
  40107e:	f2 0f 10 44 24 f8    	movsd  0xfffffffffffffff8(%rsp),%xmm0
  401084:	c3                   	retq   
  401085:	66 66 66 90          	xchg   %ax,%ax
  401089:	66 66 66 90          	xchg   %ax,%ax
  40108d:	66 66 90             	xchg   %ax,%ax

0000000000401090 <correct>:
  401090:	56                   	push   %rsi
  401091:	bf 28 2d 40 00       	mov    $0x402d28,%edi
  401096:	31 c0                	xor    %eax,%eax
  401098:	e8 4b f7 ff ff       	callq  4007e8 <printf@plt>
  40109d:	59                   	pop    %rcx
  40109e:	c3                   	retq   
  40109f:	90                   	nop    

00000000004010a0 <sdc>:
  4010a0:	56                   	push   %rsi
  4010a1:	bf 34 2d 40 00       	mov    $0x402d34,%edi
  4010a6:	31 c0                	xor    %eax,%eax
  4010a8:	e8 3b f7 ff ff       	callq  4007e8 <printf@plt>
  4010ad:	59                   	pop    %rcx
  4010ae:	c3                   	retq   
  4010af:	90                   	nop    

00000000004010b0 <start_delay>:
  4010b0:	31 c0                	xor    %eax,%eax
  4010b2:	b8 01 00 00 00       	mov    $0x1,%eax
  4010b7:	0f a2                	cpuid  
  4010b9:	c1 eb 12             	shr    $0x12,%ebx
  4010bc:	31 c9                	xor    %ecx,%ecx
  4010be:	01 d9                	add    %ebx,%ecx
  4010c0:	48 c1 e1 14          	shl    $0x14,%rcx

00000000004010c4 <loop_delay_2>:
  4010c4:	e2 fe                	loop   4010c4 <loop_delay_2>
  4010c6:	c3                   	retq   
  4010c7:	66 66 90             	xchg   %ax,%ax
  4010ca:	66 66 90             	xchg   %ax,%ax
  4010cd:	66 66 90             	xchg   %ax,%ax

00000000004010d0 <__intel_proc_init_N.A>:
  4010d0:	48 81 ec 08 02 00 00 	sub    $0x208,%rsp
  4010d7:	bf 01 00 00 00       	mov    $0x1,%edi
  4010dc:	33 f6                	xor    %esi,%esi
  4010de:	33 d2                	xor    %edx,%edx
  4010e0:	33 c0                	xor    %eax,%eax
  4010e2:	e8 29 15 00 00       	callq  402610 <irc__print>
  4010e7:	bf 01 00 00 00       	mov    $0x1,%edi
  4010ec:	be 17 00 00 00       	mov    $0x17,%esi
  4010f1:	33 d2                	xor    %edx,%edx
  4010f3:	33 c0                	xor    %eax,%eax
  4010f5:	e8 16 15 00 00       	callq  402610 <irc__print>
  4010fa:	bf 2d 00 00 00       	mov    $0x2d,%edi
  4010ff:	33 f6                	xor    %esi,%esi
  401101:	33 c0                	xor    %eax,%eax
  401103:	e8 58 17 00 00       	callq  402860 <irc__get_msg>
  401108:	48 8d 3c 24          	lea    (%rsp),%rdi
  40110c:	48 89 c6             	mov    %rax,%rsi
  40110f:	ba 00 02 00 00       	mov    $0x200,%edx
  401114:	e8 9f f6 ff ff       	callq  4007b8 <strncpy@plt>
  401119:	48 8d 0c 24          	lea    (%rsp),%rcx
  40111d:	bf 01 00 00 00       	mov    $0x1,%edi
  401122:	be 18 00 00 00       	mov    $0x18,%esi
  401127:	89 fa                	mov    %edi,%edx
  401129:	33 c0                	xor    %eax,%eax
  40112b:	e8 e0 14 00 00       	callq  402610 <irc__print>
  401130:	bf 01 00 00 00       	mov    $0x1,%edi
  401135:	33 f6                	xor    %esi,%esi
  401137:	33 d2                	xor    %edx,%edx
  401139:	33 c0                	xor    %eax,%eax
  40113b:	e8 d0 14 00 00       	callq  402610 <irc__print>
  401140:	bf 01 00 00 00       	mov    $0x1,%edi
  401145:	e8 de f6 ff ff       	callq  400828 <exit@plt>
  40114a:	90                   	nop    
  40114b:	48 8d 74 26 00       	lea    0x0(%rsi),%rsi

0000000000401150 <__intel_proc_init_N.J>:
  401150:	48 81 ec 08 02 00 00 	sub    $0x208,%rsp
  401157:	48 8d 3c 24          	lea    (%rsp),%rdi
  40115b:	33 f6                	xor    %esi,%esi
  40115d:	ba 00 02 00 00       	mov    $0x200,%edx
  401162:	e8 b1 f6 ff ff       	callq  400818 <memset@plt>
  401167:	0f ae 04 24          	fxsave (%rsp)
  40116b:	8b 54 24 1c          	mov    0x1c(%rsp),%edx
  40116f:	0f ae 9c 24 00 02 00 	stmxcsr 0x200(%rsp)
  401176:	00 
  401177:	8b 84 24 00 02 00 00 	mov    0x200(%rsp),%eax
  40117e:	83 e2 40             	and    $0x40,%edx
  401181:	0d 00 80 00 00       	or     $0x8000,%eax
  401186:	89 84 24 00 02 00 00 	mov    %eax,0x200(%rsp)
  40118d:	0f ae 94 24 00 02 00 	ldmxcsr 0x200(%rsp)
  401194:	00 
  401195:	85 d2                	test   %edx,%edx
  401197:	74 21                	je     4011ba <__intel_proc_init_N.J+0x6a>
  401199:	0f ae 9c 24 00 02 00 	stmxcsr 0x200(%rsp)
  4011a0:	00 
  4011a1:	8b 84 24 00 02 00 00 	mov    0x200(%rsp),%eax
  4011a8:	83 c8 40             	or     $0x40,%eax
  4011ab:	89 84 24 00 02 00 00 	mov    %eax,0x200(%rsp)
  4011b2:	0f ae 94 24 00 02 00 	ldmxcsr 0x200(%rsp)
  4011b9:	00 
  4011ba:	48 81 c4 08 02 00 00 	add    $0x208,%rsp
  4011c1:	c3                   	retq   
  4011c2:	48 8d b6 00 00 00 00 	lea    0x0(%rsi),%rsi
  4011c9:	48 8d bf 00 00 00 00 	lea    0x0(%rdi),%rdi

00000000004011d0 <__intel_proc_init_N.K>:
  4011d0:	0f ae 5c 24 f8       	stmxcsr 0xfffffffffffffff8(%rsp)
  4011d5:	8b 44 24 f8          	mov    0xfffffffffffffff8(%rsp),%eax
  4011d9:	0d 00 80 00 00       	or     $0x8000,%eax
  4011de:	89 44 24 f8          	mov    %eax,0xfffffffffffffff8(%rsp)
  4011e2:	0f ae 54 24 f8       	ldmxcsr 0xfffffffffffffff8(%rsp)
  4011e7:	0f ae 5c 24 f8       	stmxcsr 0xfffffffffffffff8(%rsp)
  4011ec:	8b 44 24 f8          	mov    0xfffffffffffffff8(%rsp),%eax
  4011f0:	83 c8 40             	or     $0x40,%eax
  4011f3:	89 44 24 f8          	mov    %eax,0xfffffffffffffff8(%rsp)
  4011f7:	0f ae 54 24 f8       	ldmxcsr 0xfffffffffffffff8(%rsp)
  4011fc:	c3                   	retq   
  4011fd:	48 89 f6             	mov    %rsi,%rsi

0000000000401200 <__intel_proc_init_N.L>:
  401200:	0f ae 5c 24 f8       	stmxcsr 0xfffffffffffffff8(%rsp)
  401205:	8b 44 24 f8          	mov    0xfffffffffffffff8(%rsp),%eax
  401209:	0d 00 80 00 00       	or     $0x8000,%eax
  40120e:	89 44 24 f8          	mov    %eax,0xfffffffffffffff8(%rsp)
  401212:	0f ae 54 24 f8       	ldmxcsr 0xfffffffffffffff8(%rsp)
  401217:	0f ae 5c 24 f8       	stmxcsr 0xfffffffffffffff8(%rsp)
  40121c:	8b 44 24 f8          	mov    0xfffffffffffffff8(%rsp),%eax
  401220:	83 c8 40             	or     $0x40,%eax
  401223:	89 44 24 f8          	mov    %eax,0xfffffffffffffff8(%rsp)
  401227:	0f ae 54 24 f8       	ldmxcsr 0xfffffffffffffff8(%rsp)
  40122c:	c3                   	retq   
  40122d:	48 89 f6             	mov    %rsi,%rsi

0000000000401230 <__intel_proc_init_N>:
  401230:	48 8b 05 d1 33 10 00 	mov    1061841(%rip),%rax        # 504608 <_DYNAMIC+0x1c0>
  401237:	8b 00                	mov    (%rax),%eax
  401239:	a9 00 f8 ff ff       	test   $0xfffff800,%eax
  40123e:	0f 85 bc ff ff ff    	jne    401200 <__intel_proc_init_N.L>
  401244:	a9 00 04 00 00       	test   $0x400,%eax
  401249:	0f 85 81 ff ff ff    	jne    4011d0 <__intel_proc_init_N.K>
  40124f:	a9 00 fe ff ff       	test   $0xfffffe00,%eax
  401254:	0f 85 f6 fe ff ff    	jne    401150 <__intel_proc_init_N.J>
  40125a:	a9 ff ff ff ff       	test   $0xffffffff,%eax
  40125f:	0f 85 6b fe ff ff    	jne    4010d0 <__intel_proc_init_N.A>
  401265:	48 83 ec 08          	sub    $0x8,%rsp
  401269:	e8 e2 17 00 00       	callq  402a50 <__intel_cpu_indicator_init>
  40126e:	48 83 c4 08          	add    $0x8,%rsp
  401272:	eb bc                	jmp    401230 <__intel_proc_init_N>
  401274:	90                   	nop    
  401275:	48 8d 74 26 00       	lea    0x0(%rsi),%rsi
  40127a:	90                   	nop    
  40127b:	48 8d 7c 27 00       	lea    0x0(%rdi),%rdi

0000000000401280 <__intel_new_proc_init_N.A>:
  401280:	48 81 ec 08 02 00 00 	sub    $0x208,%rsp
  401287:	bf 01 00 00 00       	mov    $0x1,%edi
  40128c:	33 f6                	xor    %esi,%esi
  40128e:	33 d2                	xor    %edx,%edx
  401290:	33 c0                	xor    %eax,%eax
  401292:	e8 79 13 00 00       	callq  402610 <irc__print>
  401297:	bf 01 00 00 00       	mov    $0x1,%edi
  40129c:	be 17 00 00 00       	mov    $0x17,%esi
  4012a1:	33 d2                	xor    %edx,%edx
  4012a3:	33 c0                	xor    %eax,%eax
  4012a5:	e8 66 13 00 00       	callq  402610 <irc__print>
  4012aa:	bf 2d 00 00 00       	mov    $0x2d,%edi
  4012af:	33 f6                	xor    %esi,%esi
  4012b1:	33 c0                	xor    %eax,%eax
  4012b3:	e8 a8 15 00 00       	callq  402860 <irc__get_msg>
  4012b8:	48 8d 3c 24          	lea    (%rsp),%rdi
  4012bc:	48 89 c6             	mov    %rax,%rsi
  4012bf:	ba 00 02 00 00       	mov    $0x200,%edx
  4012c4:	e8 ef f4 ff ff       	callq  4007b8 <strncpy@plt>
  4012c9:	48 8d 0c 24          	lea    (%rsp),%rcx
  4012cd:	bf 01 00 00 00       	mov    $0x1,%edi
  4012d2:	be 18 00 00 00       	mov    $0x18,%esi
  4012d7:	89 fa                	mov    %edi,%edx
  4012d9:	33 c0                	xor    %eax,%eax
  4012db:	e8 30 13 00 00       	callq  402610 <irc__print>
  4012e0:	bf 01 00 00 00       	mov    $0x1,%edi
  4012e5:	33 f6                	xor    %esi,%esi
  4012e7:	33 d2                	xor    %edx,%edx
  4012e9:	33 c0                	xor    %eax,%eax
  4012eb:	e8 20 13 00 00       	callq  402610 <irc__print>
  4012f0:	bf 01 00 00 00       	mov    $0x1,%edi
  4012f5:	e8 2e f5 ff ff       	callq  400828 <exit@plt>
  4012fa:	90                   	nop    
  4012fb:	48 8d 74 26 00       	lea    0x0(%rsi),%rsi

0000000000401300 <__intel_new_proc_init_N.J>:
  401300:	41 57                	push   %r15
  401302:	41 56                	push   %r14
  401304:	55                   	push   %rbp
  401305:	48 81 ec 10 02 00 00 	sub    $0x210,%rsp
  40130c:	41 89 ff             	mov    %edi,%r15d
  40130f:	44 89 fd             	mov    %r15d,%ebp
  401312:	83 e5 02             	and    $0x2,%ebp
  401315:	45 89 fe             	mov    %r15d,%r14d
  401318:	41 83 e6 04          	and    $0x4,%r14d
  40131c:	85 ed                	test   %ebp,%ebp
  40131e:	75 05                	jne    401325 <__intel_new_proc_init_N.J+0x25>
  401320:	45 85 f6             	test   %r14d,%r14d
  401323:	74 2c                	je     401351 <__intel_new_proc_init_N.J+0x51>
  401325:	48 8d 3c 24          	lea    (%rsp),%rdi
  401329:	33 f6                	xor    %esi,%esi
  40132b:	ba 00 02 00 00       	mov    $0x200,%edx
  401330:	e8 e3 f4 ff ff       	callq  400818 <memset@plt>
  401335:	0f ae 04 24          	fxsave (%rsp)
  401339:	8b 54 24 1c          	mov    0x1c(%rsp),%edx
  40133d:	33 c9                	xor    %ecx,%ecx
  40133f:	89 d0                	mov    %edx,%eax
  401341:	83 e0 40             	and    $0x40,%eax
  401344:	0f 44 e9             	cmove  %ecx,%ebp
  401347:	81 e2 00 00 02 00    	and    $0x20000,%edx
  40134d:	44 0f 44 f1          	cmove  %ecx,%r14d
  401351:	41 f7 c7 01 00 00 00 	test   $0x1,%r15d
  401358:	75 5a                	jne    4013b4 <__intel_new_proc_init_N.J+0xb4>
  40135a:	85 ed                	test   %ebp,%ebp
  40135c:	74 21                	je     40137f <__intel_new_proc_init_N.J+0x7f>
  40135e:	0f ae 9c 24 00 02 00 	stmxcsr 0x200(%rsp)
  401365:	00 
  401366:	8b 84 24 00 02 00 00 	mov    0x200(%rsp),%eax
  40136d:	83 c8 40             	or     $0x40,%eax
  401370:	89 84 24 00 02 00 00 	mov    %eax,0x200(%rsp)
  401377:	0f ae 94 24 00 02 00 	ldmxcsr 0x200(%rsp)
  40137e:	00 
  40137f:	45 85 f6             	test   %r14d,%r14d
  401382:	74 23                	je     4013a7 <__intel_new_proc_init_N.J+0xa7>
  401384:	0f ae 9c 24 00 02 00 	stmxcsr 0x200(%rsp)
  40138b:	00 
  40138c:	8b 84 24 00 02 00 00 	mov    0x200(%rsp),%eax
  401393:	0d 00 00 02 00       	or     $0x20000,%eax
  401398:	89 84 24 00 02 00 00 	mov    %eax,0x200(%rsp)
  40139f:	0f ae 94 24 00 02 00 	ldmxcsr 0x200(%rsp)
  4013a6:	00 
  4013a7:	48 81 c4 10 02 00 00 	add    $0x210,%rsp
  4013ae:	5d                   	pop    %rbp
  4013af:	41 5e                	pop    %r14
  4013b1:	41 5f                	pop    %r15
  4013b3:	c3                   	retq   
  4013b4:	0f ae 9c 24 00 02 00 	stmxcsr 0x200(%rsp)
  4013bb:	00 
  4013bc:	8b 84 24 00 02 00 00 	mov    0x200(%rsp),%eax
  4013c3:	0d 00 80 00 00       	or     $0x8000,%eax
  4013c8:	89 84 24 00 02 00 00 	mov    %eax,0x200(%rsp)
  4013cf:	0f ae 94 24 00 02 00 	ldmxcsr 0x200(%rsp)
  4013d6:	00 
  4013d7:	eb 81                	jmp    40135a <__intel_new_proc_init_N.J+0x5a>
  4013d9:	48 8d b6 00 00 00 00 	lea    0x0(%rsi),%rsi

00000000004013e0 <__intel_new_proc_init_N.K>:
  4013e0:	41 57                	push   %r15
  4013e2:	41 56                	push   %r14
  4013e4:	55                   	push   %rbp
  4013e5:	48 81 ec 10 02 00 00 	sub    $0x210,%rsp
  4013ec:	41 89 ff             	mov    %edi,%r15d
  4013ef:	44 89 fd             	mov    %r15d,%ebp
  4013f2:	83 e5 02             	and    $0x2,%ebp
  4013f5:	45 89 fe             	mov    %r15d,%r14d
  4013f8:	41 83 e6 04          	and    $0x4,%r14d
  4013fc:	74 2c                	je     40142a <__intel_new_proc_init_N.K+0x4a>
  4013fe:	48 8d 3c 24          	lea    (%rsp),%rdi
  401402:	33 f6                	xor    %esi,%esi
  401404:	ba 00 02 00 00       	mov    $0x200,%edx
  401409:	e8 0a f4 ff ff       	callq  400818 <memset@plt>
  40140e:	0f ae 04 24          	fxsave (%rsp)
  401412:	8b 54 24 1c          	mov    0x1c(%rsp),%edx
  401416:	33 c9                	xor    %ecx,%ecx
  401418:	89 d0                	mov    %edx,%eax
  40141a:	83 e0 40             	and    $0x40,%eax
  40141d:	0f 44 e9             	cmove  %ecx,%ebp
  401420:	81 e2 00 00 02 00    	and    $0x20000,%edx
  401426:	44 0f 44 f1          	cmove  %ecx,%r14d
  40142a:	41 f7 c7 01 00 00 00 	test   $0x1,%r15d
  401431:	75 5a                	jne    40148d <__intel_new_proc_init_N.K+0xad>
  401433:	85 ed                	test   %ebp,%ebp
  401435:	74 21                	je     401458 <__intel_new_proc_init_N.K+0x78>
  401437:	0f ae 9c 24 00 02 00 	stmxcsr 0x200(%rsp)
  40143e:	00 
  40143f:	8b 84 24 00 02 00 00 	mov    0x200(%rsp),%eax
  401446:	83 c8 40             	or     $0x40,%eax
  401449:	89 84 24 00 02 00 00 	mov    %eax,0x200(%rsp)
  401450:	0f ae 94 24 00 02 00 	ldmxcsr 0x200(%rsp)
  401457:	00 
  401458:	45 85 f6             	test   %r14d,%r14d
  40145b:	74 23                	je     401480 <__intel_new_proc_init_N.K+0xa0>
  40145d:	0f ae 9c 24 00 02 00 	stmxcsr 0x200(%rsp)
  401464:	00 
  401465:	8b 84 24 00 02 00 00 	mov    0x200(%rsp),%eax
  40146c:	0d 00 00 02 00       	or     $0x20000,%eax
  401471:	89 84 24 00 02 00 00 	mov    %eax,0x200(%rsp)
  401478:	0f ae 94 24 00 02 00 	ldmxcsr 0x200(%rsp)
  40147f:	00 
  401480:	48 81 c4 10 02 00 00 	add    $0x210,%rsp
  401487:	5d                   	pop    %rbp
  401488:	41 5e                	pop    %r14
  40148a:	41 5f                	pop    %r15
  40148c:	c3                   	retq   
  40148d:	0f ae 9c 24 00 02 00 	stmxcsr 0x200(%rsp)
  401494:	00 
  401495:	8b 84 24 00 02 00 00 	mov    0x200(%rsp),%eax
  40149c:	0d 00 80 00 00       	or     $0x8000,%eax
  4014a1:	89 84 24 00 02 00 00 	mov    %eax,0x200(%rsp)
  4014a8:	0f ae 94 24 00 02 00 	ldmxcsr 0x200(%rsp)
  4014af:	00 
  4014b0:	eb 81                	jmp    401433 <__intel_new_proc_init_N.K+0x53>
  4014b2:	48 8d b6 00 00 00 00 	lea    0x0(%rsi),%rsi
  4014b9:	48 8d bf 00 00 00 00 	lea    0x0(%rdi),%rdi

00000000004014c0 <__intel_new_proc_init_N.L>:
  4014c0:	41 57                	push   %r15
  4014c2:	41 56                	push   %r14
  4014c4:	55                   	push   %rbp
  4014c5:	48 81 ec 10 02 00 00 	sub    $0x210,%rsp
  4014cc:	41 89 ff             	mov    %edi,%r15d
  4014cf:	44 89 fd             	mov    %r15d,%ebp
  4014d2:	83 e5 02             	and    $0x2,%ebp
  4014d5:	45 89 fe             	mov    %r15d,%r14d
  4014d8:	41 83 e6 04          	and    $0x4,%r14d
  4014dc:	74 2c                	je     40150a <__intel_new_proc_init_N.L+0x4a>
  4014de:	48 8d 3c 24          	lea    (%rsp),%rdi
  4014e2:	33 f6                	xor    %esi,%esi
  4014e4:	ba 00 02 00 00       	mov    $0x200,%edx
  4014e9:	e8 2a f3 ff ff       	callq  400818 <memset@plt>
  4014ee:	0f ae 04 24          	fxsave (%rsp)
  4014f2:	8b 54 24 1c          	mov    0x1c(%rsp),%edx
  4014f6:	33 c9                	xor    %ecx,%ecx
  4014f8:	89 d0                	mov    %edx,%eax
  4014fa:	83 e0 40             	and    $0x40,%eax
  4014fd:	0f 44 e9             	cmove  %ecx,%ebp
  401500:	81 e2 00 00 02 00    	and    $0x20000,%edx
  401506:	44 0f 44 f1          	cmove  %ecx,%r14d
  40150a:	41 f7 c7 01 00 00 00 	test   $0x1,%r15d
  401511:	75 5a                	jne    40156d <__intel_new_proc_init_N.L+0xad>
  401513:	85 ed                	test   %ebp,%ebp
  401515:	74 21                	je     401538 <__intel_new_proc_init_N.L+0x78>
  401517:	0f ae 9c 24 00 02 00 	stmxcsr 0x200(%rsp)
  40151e:	00 
  40151f:	8b 84 24 00 02 00 00 	mov    0x200(%rsp),%eax
  401526:	83 c8 40             	or     $0x40,%eax
  401529:	89 84 24 00 02 00 00 	mov    %eax,0x200(%rsp)
  401530:	0f ae 94 24 00 02 00 	ldmxcsr 0x200(%rsp)
  401537:	00 
  401538:	45 85 f6             	test   %r14d,%r14d
  40153b:	74 23                	je     401560 <__intel_new_proc_init_N.L+0xa0>
  40153d:	0f ae 9c 24 00 02 00 	stmxcsr 0x200(%rsp)
  401544:	00 
  401545:	8b 84 24 00 02 00 00 	mov    0x200(%rsp),%eax
  40154c:	0d 00 00 02 00       	or     $0x20000,%eax
  401551:	89 84 24 00 02 00 00 	mov    %eax,0x200(%rsp)
  401558:	0f ae 94 24 00 02 00 	ldmxcsr 0x200(%rsp)
  40155f:	00 
  401560:	48 81 c4 10 02 00 00 	add    $0x210,%rsp
  401567:	5d                   	pop    %rbp
  401568:	41 5e                	pop    %r14
  40156a:	41 5f                	pop    %r15
  40156c:	c3                   	retq   
  40156d:	0f ae 9c 24 00 02 00 	stmxcsr 0x200(%rsp)
  401574:	00 
  401575:	8b 84 24 00 02 00 00 	mov    0x200(%rsp),%eax
  40157c:	0d 00 80 00 00       	or     $0x8000,%eax
  401581:	89 84 24 00 02 00 00 	mov    %eax,0x200(%rsp)
  401588:	0f ae 94 24 00 02 00 	ldmxcsr 0x200(%rsp)
  40158f:	00 
  401590:	eb 81                	jmp    401513 <__intel_new_proc_init_N.L+0x53>
  401592:	48 8d b6 00 00 00 00 	lea    0x0(%rsi),%rsi
  401599:	48 8d bf 00 00 00 00 	lea    0x0(%rdi),%rdi

00000000004015a0 <__intel_new_proc_init_N>:
  4015a0:	48 8b 05 61 30 10 00 	mov    1060961(%rip),%rax        # 504608 <_DYNAMIC+0x1c0>
  4015a7:	8b 00                	mov    (%rax),%eax
  4015a9:	a9 00 f8 ff ff       	test   $0xfffff800,%eax
  4015ae:	0f 85 0c ff ff ff    	jne    4014c0 <__intel_new_proc_init_N.L>
  4015b4:	a9 00 04 00 00       	test   $0x400,%eax
  4015b9:	0f 85 21 fe ff ff    	jne    4013e0 <__intel_new_proc_init_N.K>
  4015bf:	a9 00 fe ff ff       	test   $0xfffffe00,%eax
  4015c4:	0f 85 36 fd ff ff    	jne    401300 <__intel_new_proc_init_N.J>
  4015ca:	a9 ff ff ff ff       	test   $0xffffffff,%eax
  4015cf:	0f 85 ab fc ff ff    	jne    401280 <__intel_new_proc_init_N.A>
  4015d5:	48 83 ec 08          	sub    $0x8,%rsp
  4015d9:	e8 72 14 00 00       	callq  402a50 <__intel_cpu_indicator_init>
  4015de:	48 83 c4 08          	add    $0x8,%rsp
  4015e2:	eb bc                	jmp    4015a0 <__intel_new_proc_init_N>
  4015e4:	90                   	nop    
  4015e5:	48 8d 74 26 00       	lea    0x0(%rsi),%rsi
  4015ea:	90                   	nop    
  4015eb:	48 8d 7c 27 00       	lea    0x0(%rdi),%rdi

00000000004015f0 <__intel_proc_init_B.A>:
  4015f0:	48 81 ec 08 02 00 00 	sub    $0x208,%rsp
  4015f7:	bf 01 00 00 00       	mov    $0x1,%edi
  4015fc:	33 f6                	xor    %esi,%esi
  4015fe:	33 d2                	xor    %edx,%edx
  401600:	33 c0                	xor    %eax,%eax
  401602:	e8 09 10 00 00       	callq  402610 <irc__print>
  401607:	bf 01 00 00 00       	mov    $0x1,%edi
  40160c:	be 17 00 00 00       	mov    $0x17,%esi
  401611:	33 d2                	xor    %edx,%edx
  401613:	33 c0                	xor    %eax,%eax
  401615:	e8 f6 0f 00 00       	callq  402610 <irc__print>
  40161a:	bf 2c 00 00 00       	mov    $0x2c,%edi
  40161f:	33 f6                	xor    %esi,%esi
  401621:	33 c0                	xor    %eax,%eax
  401623:	e8 38 12 00 00       	callq  402860 <irc__get_msg>
  401628:	48 8d 3c 24          	lea    (%rsp),%rdi
  40162c:	48 89 c6             	mov    %rax,%rsi
  40162f:	ba 00 02 00 00       	mov    $0x200,%edx
  401634:	e8 7f f1 ff ff       	callq  4007b8 <strncpy@plt>
  401639:	48 8d 0c 24          	lea    (%rsp),%rcx
  40163d:	bf 01 00 00 00       	mov    $0x1,%edi
  401642:	be 18 00 00 00       	mov    $0x18,%esi
  401647:	89 fa                	mov    %edi,%edx
  401649:	33 c0                	xor    %eax,%eax
  40164b:	e8 c0 0f 00 00       	callq  402610 <irc__print>
  401650:	bf 01 00 00 00       	mov    $0x1,%edi
  401655:	33 f6                	xor    %esi,%esi
  401657:	33 d2                	xor    %edx,%edx
  401659:	33 c0                	xor    %eax,%eax
  40165b:	e8 b0 0f 00 00       	callq  402610 <irc__print>
  401660:	bf 01 00 00 00       	mov    $0x1,%edi
  401665:	e8 be f1 ff ff       	callq  400828 <exit@plt>
  40166a:	90                   	nop    
  40166b:	48 8d 74 26 00       	lea    0x0(%rsi),%rsi

0000000000401670 <__intel_proc_init_B.J>:
  401670:	48 81 ec 08 02 00 00 	sub    $0x208,%rsp
  401677:	48 8d 3c 24          	lea    (%rsp),%rdi
  40167b:	33 f6                	xor    %esi,%esi
  40167d:	ba 00 02 00 00       	mov    $0x200,%edx
  401682:	e8 91 f1 ff ff       	callq  400818 <memset@plt>
  401687:	0f ae 04 24          	fxsave (%rsp)
  40168b:	8b 54 24 1c          	mov    0x1c(%rsp),%edx
  40168f:	0f ae 9c 24 00 02 00 	stmxcsr 0x200(%rsp)
  401696:	00 
  401697:	8b 84 24 00 02 00 00 	mov    0x200(%rsp),%eax
  40169e:	83 e2 40             	and    $0x40,%edx
  4016a1:	0d 00 80 00 00       	or     $0x8000,%eax
  4016a6:	89 84 24 00 02 00 00 	mov    %eax,0x200(%rsp)
  4016ad:	0f ae 94 24 00 02 00 	ldmxcsr 0x200(%rsp)
  4016b4:	00 
  4016b5:	85 d2                	test   %edx,%edx
  4016b7:	74 21                	je     4016da <__intel_proc_init_B.J+0x6a>
  4016b9:	0f ae 9c 24 00 02 00 	stmxcsr 0x200(%rsp)
  4016c0:	00 
  4016c1:	8b 84 24 00 02 00 00 	mov    0x200(%rsp),%eax
  4016c8:	83 c8 40             	or     $0x40,%eax
  4016cb:	89 84 24 00 02 00 00 	mov    %eax,0x200(%rsp)
  4016d2:	0f ae 94 24 00 02 00 	ldmxcsr 0x200(%rsp)
  4016d9:	00 
  4016da:	48 81 c4 08 02 00 00 	add    $0x208,%rsp
  4016e1:	c3                   	retq   
  4016e2:	48 8d b6 00 00 00 00 	lea    0x0(%rsi),%rsi
  4016e9:	48 8d bf 00 00 00 00 	lea    0x0(%rdi),%rdi

00000000004016f0 <__intel_proc_init_B.K>:
  4016f0:	0f ae 5c 24 f8       	stmxcsr 0xfffffffffffffff8(%rsp)
  4016f5:	8b 44 24 f8          	mov    0xfffffffffffffff8(%rsp),%eax
  4016f9:	0d 00 80 00 00       	or     $0x8000,%eax
  4016fe:	89 44 24 f8          	mov    %eax,0xfffffffffffffff8(%rsp)
  401702:	0f ae 54 24 f8       	ldmxcsr 0xfffffffffffffff8(%rsp)
  401707:	0f ae 5c 24 f8       	stmxcsr 0xfffffffffffffff8(%rsp)
  40170c:	8b 44 24 f8          	mov    0xfffffffffffffff8(%rsp),%eax
  401710:	83 c8 40             	or     $0x40,%eax
  401713:	89 44 24 f8          	mov    %eax,0xfffffffffffffff8(%rsp)
  401717:	0f ae 54 24 f8       	ldmxcsr 0xfffffffffffffff8(%rsp)
  40171c:	c3                   	retq   
  40171d:	48 89 f6             	mov    %rsi,%rsi

0000000000401720 <__intel_proc_init_B.L>:
  401720:	0f ae 5c 24 f8       	stmxcsr 0xfffffffffffffff8(%rsp)
  401725:	8b 44 24 f8          	mov    0xfffffffffffffff8(%rsp),%eax
  401729:	0d 00 80 00 00       	or     $0x8000,%eax
  40172e:	89 44 24 f8          	mov    %eax,0xfffffffffffffff8(%rsp)
  401732:	0f ae 54 24 f8       	ldmxcsr 0xfffffffffffffff8(%rsp)
  401737:	0f ae 5c 24 f8       	stmxcsr 0xfffffffffffffff8(%rsp)
  40173c:	8b 44 24 f8          	mov    0xfffffffffffffff8(%rsp),%eax
  401740:	83 c8 40             	or     $0x40,%eax
  401743:	89 44 24 f8          	mov    %eax,0xfffffffffffffff8(%rsp)
  401747:	0f ae 54 24 f8       	ldmxcsr 0xfffffffffffffff8(%rsp)
  40174c:	c3                   	retq   
  40174d:	48 89 f6             	mov    %rsi,%rsi

0000000000401750 <__intel_proc_init_B>:
  401750:	48 8b 05 b1 2e 10 00 	mov    1060529(%rip),%rax        # 504608 <_DYNAMIC+0x1c0>
  401757:	8b 00                	mov    (%rax),%eax
  401759:	a9 00 f8 ff ff       	test   $0xfffff800,%eax
  40175e:	0f 85 bc ff ff ff    	jne    401720 <__intel_proc_init_B.L>
  401764:	a9 00 04 00 00       	test   $0x400,%eax
  401769:	0f 85 81 ff ff ff    	jne    4016f0 <__intel_proc_init_B.K>
  40176f:	a9 00 fe ff ff       	test   $0xfffffe00,%eax
  401774:	0f 85 f6 fe ff ff    	jne    401670 <__intel_proc_init_B.J>
  40177a:	a9 ff ff ff ff       	test   $0xffffffff,%eax
  40177f:	0f 85 6b fe ff ff    	jne    4015f0 <__intel_proc_init_B.A>
  401785:	48 83 ec 08          	sub    $0x8,%rsp
  401789:	e8 c2 12 00 00       	callq  402a50 <__intel_cpu_indicator_init>
  40178e:	48 83 c4 08          	add    $0x8,%rsp
  401792:	eb bc                	jmp    401750 <__intel_proc_init_B>
  401794:	90                   	nop    
  401795:	48 8d 74 26 00       	lea    0x0(%rsi),%rsi
  40179a:	90                   	nop    
  40179b:	48 8d 7c 27 00       	lea    0x0(%rdi),%rdi

00000000004017a0 <__intel_new_proc_init_B.A>:
  4017a0:	48 81 ec 08 02 00 00 	sub    $0x208,%rsp
  4017a7:	bf 01 00 00 00       	mov    $0x1,%edi
  4017ac:	33 f6                	xor    %esi,%esi
  4017ae:	33 d2                	xor    %edx,%edx
  4017b0:	33 c0                	xor    %eax,%eax
  4017b2:	e8 59 0e 00 00       	callq  402610 <irc__print>
  4017b7:	bf 01 00 00 00       	mov    $0x1,%edi
  4017bc:	be 17 00 00 00       	mov    $0x17,%esi
  4017c1:	33 d2                	xor    %edx,%edx
  4017c3:	33 c0                	xor    %eax,%eax
  4017c5:	e8 46 0e 00 00       	callq  402610 <irc__print>
  4017ca:	bf 2c 00 00 00       	mov    $0x2c,%edi
  4017cf:	33 f6                	xor    %esi,%esi
  4017d1:	33 c0                	xor    %eax,%eax
  4017d3:	e8 88 10 00 00       	callq  402860 <irc__get_msg>
  4017d8:	48 8d 3c 24          	lea    (%rsp),%rdi
  4017dc:	48 89 c6             	mov    %rax,%rsi
  4017df:	ba 00 02 00 00       	mov    $0x200,%edx
  4017e4:	e8 cf ef ff ff       	callq  4007b8 <strncpy@plt>
  4017e9:	48 8d 0c 24          	lea    (%rsp),%rcx
  4017ed:	bf 01 00 00 00       	mov    $0x1,%edi
  4017f2:	be 18 00 00 00       	mov    $0x18,%esi
  4017f7:	89 fa                	mov    %edi,%edx
  4017f9:	33 c0                	xor    %eax,%eax
  4017fb:	e8 10 0e 00 00       	callq  402610 <irc__print>
  401800:	bf 01 00 00 00       	mov    $0x1,%edi
  401805:	33 f6                	xor    %esi,%esi
  401807:	33 d2                	xor    %edx,%edx
  401809:	33 c0                	xor    %eax,%eax
  40180b:	e8 00 0e 00 00       	callq  402610 <irc__print>
  401810:	bf 01 00 00 00       	mov    $0x1,%edi
  401815:	e8 0e f0 ff ff       	callq  400828 <exit@plt>
  40181a:	90                   	nop    
  40181b:	48 8d 74 26 00       	lea    0x0(%rsi),%rsi

0000000000401820 <__intel_new_proc_init_B.J>:
  401820:	41 57                	push   %r15
  401822:	41 56                	push   %r14
  401824:	55                   	push   %rbp
  401825:	48 81 ec 10 02 00 00 	sub    $0x210,%rsp
  40182c:	41 89 ff             	mov    %edi,%r15d
  40182f:	44 89 fd             	mov    %r15d,%ebp
  401832:	83 e5 02             	and    $0x2,%ebp
  401835:	45 89 fe             	mov    %r15d,%r14d
  401838:	41 83 e6 04          	and    $0x4,%r14d
  40183c:	85 ed                	test   %ebp,%ebp
  40183e:	75 05                	jne    401845 <__intel_new_proc_init_B.J+0x25>
  401840:	45 85 f6             	test   %r14d,%r14d
  401843:	74 2c                	je     401871 <__intel_new_proc_init_B.J+0x51>
  401845:	48 8d 3c 24          	lea    (%rsp),%rdi
  401849:	33 f6                	xor    %esi,%esi
  40184b:	ba 00 02 00 00       	mov    $0x200,%edx
  401850:	e8 c3 ef ff ff       	callq  400818 <memset@plt>
  401855:	0f ae 04 24          	fxsave (%rsp)
  401859:	8b 54 24 1c          	mov    0x1c(%rsp),%edx
  40185d:	33 c9                	xor    %ecx,%ecx
  40185f:	89 d0                	mov    %edx,%eax
  401861:	83 e0 40             	and    $0x40,%eax
  401864:	0f 44 e9             	cmove  %ecx,%ebp
  401867:	81 e2 00 00 02 00    	and    $0x20000,%edx
  40186d:	44 0f 44 f1          	cmove  %ecx,%r14d
  401871:	41 f7 c7 01 00 00 00 	test   $0x1,%r15d
  401878:	75 5a                	jne    4018d4 <__intel_new_proc_init_B.J+0xb4>
  40187a:	85 ed                	test   %ebp,%ebp
  40187c:	74 21                	je     40189f <__intel_new_proc_init_B.J+0x7f>
  40187e:	0f ae 9c 24 00 02 00 	stmxcsr 0x200(%rsp)
  401885:	00 
  401886:	8b 84 24 00 02 00 00 	mov    0x200(%rsp),%eax
  40188d:	83 c8 40             	or     $0x40,%eax
  401890:	89 84 24 00 02 00 00 	mov    %eax,0x200(%rsp)
  401897:	0f ae 94 24 00 02 00 	ldmxcsr 0x200(%rsp)
  40189e:	00 
  40189f:	45 85 f6             	test   %r14d,%r14d
  4018a2:	74 23                	je     4018c7 <__intel_new_proc_init_B.J+0xa7>
  4018a4:	0f ae 9c 24 00 02 00 	stmxcsr 0x200(%rsp)
  4018ab:	00 
  4018ac:	8b 84 24 00 02 00 00 	mov    0x200(%rsp),%eax
  4018b3:	0d 00 00 02 00       	or     $0x20000,%eax
  4018b8:	89 84 24 00 02 00 00 	mov    %eax,0x200(%rsp)
  4018bf:	0f ae 94 24 00 02 00 	ldmxcsr 0x200(%rsp)
  4018c6:	00 
  4018c7:	48 81 c4 10 02 00 00 	add    $0x210,%rsp
  4018ce:	5d                   	pop    %rbp
  4018cf:	41 5e                	pop    %r14
  4018d1:	41 5f                	pop    %r15
  4018d3:	c3                   	retq   
  4018d4:	0f ae 9c 24 00 02 00 	stmxcsr 0x200(%rsp)
  4018db:	00 
  4018dc:	8b 84 24 00 02 00 00 	mov    0x200(%rsp),%eax
  4018e3:	0d 00 80 00 00       	or     $0x8000,%eax
  4018e8:	89 84 24 00 02 00 00 	mov    %eax,0x200(%rsp)
  4018ef:	0f ae 94 24 00 02 00 	ldmxcsr 0x200(%rsp)
  4018f6:	00 
  4018f7:	eb 81                	jmp    40187a <__intel_new_proc_init_B.J+0x5a>
  4018f9:	48 8d b6 00 00 00 00 	lea    0x0(%rsi),%rsi

0000000000401900 <__intel_new_proc_init_B.K>:
  401900:	41 57                	push   %r15
  401902:	41 56                	push   %r14
  401904:	55                   	push   %rbp
  401905:	48 81 ec 10 02 00 00 	sub    $0x210,%rsp
  40190c:	41 89 ff             	mov    %edi,%r15d
  40190f:	44 89 fd             	mov    %r15d,%ebp
  401912:	83 e5 02             	and    $0x2,%ebp
  401915:	45 89 fe             	mov    %r15d,%r14d
  401918:	41 83 e6 04          	and    $0x4,%r14d
  40191c:	74 2c                	je     40194a <__intel_new_proc_init_B.K+0x4a>
  40191e:	48 8d 3c 24          	lea    (%rsp),%rdi
  401922:	33 f6                	xor    %esi,%esi
  401924:	ba 00 02 00 00       	mov    $0x200,%edx
  401929:	e8 ea ee ff ff       	callq  400818 <memset@plt>
  40192e:	0f ae 04 24          	fxsave (%rsp)
  401932:	8b 54 24 1c          	mov    0x1c(%rsp),%edx
  401936:	33 c9                	xor    %ecx,%ecx
  401938:	89 d0                	mov    %edx,%eax
  40193a:	83 e0 40             	and    $0x40,%eax
  40193d:	0f 44 e9             	cmove  %ecx,%ebp
  401940:	81 e2 00 00 02 00    	and    $0x20000,%edx
  401946:	44 0f 44 f1          	cmove  %ecx,%r14d
  40194a:	41 f7 c7 01 00 00 00 	test   $0x1,%r15d
  401951:	75 5a                	jne    4019ad <__intel_new_proc_init_B.K+0xad>
  401953:	85 ed                	test   %ebp,%ebp
  401955:	74 21                	je     401978 <__intel_new_proc_init_B.K+0x78>
  401957:	0f ae 9c 24 00 02 00 	stmxcsr 0x200(%rsp)
  40195e:	00 
  40195f:	8b 84 24 00 02 00 00 	mov    0x200(%rsp),%eax
  401966:	83 c8 40             	or     $0x40,%eax
  401969:	89 84 24 00 02 00 00 	mov    %eax,0x200(%rsp)
  401970:	0f ae 94 24 00 02 00 	ldmxcsr 0x200(%rsp)
  401977:	00 
  401978:	45 85 f6             	test   %r14d,%r14d
  40197b:	74 23                	je     4019a0 <__intel_new_proc_init_B.K+0xa0>
  40197d:	0f ae 9c 24 00 02 00 	stmxcsr 0x200(%rsp)
  401984:	00 
  401985:	8b 84 24 00 02 00 00 	mov    0x200(%rsp),%eax
  40198c:	0d 00 00 02 00       	or     $0x20000,%eax
  401991:	89 84 24 00 02 00 00 	mov    %eax,0x200(%rsp)
  401998:	0f ae 94 24 00 02 00 	ldmxcsr 0x200(%rsp)
  40199f:	00 
  4019a0:	48 81 c4 10 02 00 00 	add    $0x210,%rsp
  4019a7:	5d                   	pop    %rbp
  4019a8:	41 5e                	pop    %r14
  4019aa:	41 5f                	pop    %r15
  4019ac:	c3                   	retq   
  4019ad:	0f ae 9c 24 00 02 00 	stmxcsr 0x200(%rsp)
  4019b4:	00 
  4019b5:	8b 84 24 00 02 00 00 	mov    0x200(%rsp),%eax
  4019bc:	0d 00 80 00 00       	or     $0x8000,%eax
  4019c1:	89 84 24 00 02 00 00 	mov    %eax,0x200(%rsp)
  4019c8:	0f ae 94 24 00 02 00 	ldmxcsr 0x200(%rsp)
  4019cf:	00 
  4019d0:	eb 81                	jmp    401953 <__intel_new_proc_init_B.K+0x53>
  4019d2:	48 8d b6 00 00 00 00 	lea    0x0(%rsi),%rsi
  4019d9:	48 8d bf 00 00 00 00 	lea    0x0(%rdi),%rdi

00000000004019e0 <__intel_new_proc_init_B.L>:
  4019e0:	41 57                	push   %r15
  4019e2:	41 56                	push   %r14
  4019e4:	55                   	push   %rbp
  4019e5:	48 81 ec 10 02 00 00 	sub    $0x210,%rsp
  4019ec:	41 89 ff             	mov    %edi,%r15d
  4019ef:	44 89 fd             	mov    %r15d,%ebp
  4019f2:	83 e5 02             	and    $0x2,%ebp
  4019f5:	45 89 fe             	mov    %r15d,%r14d
  4019f8:	41 83 e6 04          	and    $0x4,%r14d
  4019fc:	74 2c                	je     401a2a <__intel_new_proc_init_B.L+0x4a>
  4019fe:	48 8d 3c 24          	lea    (%rsp),%rdi
  401a02:	33 f6                	xor    %esi,%esi
  401a04:	ba 00 02 00 00       	mov    $0x200,%edx
  401a09:	e8 0a ee ff ff       	callq  400818 <memset@plt>
  401a0e:	0f ae 04 24          	fxsave (%rsp)
  401a12:	8b 54 24 1c          	mov    0x1c(%rsp),%edx
  401a16:	33 c9                	xor    %ecx,%ecx
  401a18:	89 d0                	mov    %edx,%eax
  401a1a:	83 e0 40             	and    $0x40,%eax
  401a1d:	0f 44 e9             	cmove  %ecx,%ebp
  401a20:	81 e2 00 00 02 00    	and    $0x20000,%edx
  401a26:	44 0f 44 f1          	cmove  %ecx,%r14d
  401a2a:	41 f7 c7 01 00 00 00 	test   $0x1,%r15d
  401a31:	75 5a                	jne    401a8d <__intel_new_proc_init_B.L+0xad>
  401a33:	85 ed                	test   %ebp,%ebp
  401a35:	74 21                	je     401a58 <__intel_new_proc_init_B.L+0x78>
  401a37:	0f ae 9c 24 00 02 00 	stmxcsr 0x200(%rsp)
  401a3e:	00 
  401a3f:	8b 84 24 00 02 00 00 	mov    0x200(%rsp),%eax
  401a46:	83 c8 40             	or     $0x40,%eax
  401a49:	89 84 24 00 02 00 00 	mov    %eax,0x200(%rsp)
  401a50:	0f ae 94 24 00 02 00 	ldmxcsr 0x200(%rsp)
  401a57:	00 
  401a58:	45 85 f6             	test   %r14d,%r14d
  401a5b:	74 23                	je     401a80 <__intel_new_proc_init_B.L+0xa0>
  401a5d:	0f ae 9c 24 00 02 00 	stmxcsr 0x200(%rsp)
  401a64:	00 
  401a65:	8b 84 24 00 02 00 00 	mov    0x200(%rsp),%eax
  401a6c:	0d 00 00 02 00       	or     $0x20000,%eax
  401a71:	89 84 24 00 02 00 00 	mov    %eax,0x200(%rsp)
  401a78:	0f ae 94 24 00 02 00 	ldmxcsr 0x200(%rsp)
  401a7f:	00 
  401a80:	48 81 c4 10 02 00 00 	add    $0x210,%rsp
  401a87:	5d                   	pop    %rbp
  401a88:	41 5e                	pop    %r14
  401a8a:	41 5f                	pop    %r15
  401a8c:	c3                   	retq   
  401a8d:	0f ae 9c 24 00 02 00 	stmxcsr 0x200(%rsp)
  401a94:	00 
  401a95:	8b 84 24 00 02 00 00 	mov    0x200(%rsp),%eax
  401a9c:	0d 00 80 00 00       	or     $0x8000,%eax
  401aa1:	89 84 24 00 02 00 00 	mov    %eax,0x200(%rsp)
  401aa8:	0f ae 94 24 00 02 00 	ldmxcsr 0x200(%rsp)
  401aaf:	00 
  401ab0:	eb 81                	jmp    401a33 <__intel_new_proc_init_B.L+0x53>
  401ab2:	48 8d b6 00 00 00 00 	lea    0x0(%rsi),%rsi
  401ab9:	48 8d bf 00 00 00 00 	lea    0x0(%rdi),%rdi

0000000000401ac0 <__intel_new_proc_init_B>:
  401ac0:	48 8b 05 41 2b 10 00 	mov    1059649(%rip),%rax        # 504608 <_DYNAMIC+0x1c0>
  401ac7:	8b 00                	mov    (%rax),%eax
  401ac9:	a9 00 f8 ff ff       	test   $0xfffff800,%eax
  401ace:	0f 85 0c ff ff ff    	jne    4019e0 <__intel_new_proc_init_B.L>
  401ad4:	a9 00 04 00 00       	test   $0x400,%eax
  401ad9:	0f 85 21 fe ff ff    	jne    401900 <__intel_new_proc_init_B.K>
  401adf:	a9 00 fe ff ff       	test   $0xfffffe00,%eax
  401ae4:	0f 85 36 fd ff ff    	jne    401820 <__intel_new_proc_init_B.J>
  401aea:	a9 ff ff ff ff       	test   $0xffffffff,%eax
  401aef:	0f 85 ab fc ff ff    	jne    4017a0 <__intel_new_proc_init_B.A>
  401af5:	48 83 ec 08          	sub    $0x8,%rsp
  401af9:	e8 52 0f 00 00       	callq  402a50 <__intel_cpu_indicator_init>
  401afe:	48 83 c4 08          	add    $0x8,%rsp
  401b02:	eb bc                	jmp    401ac0 <__intel_new_proc_init_B>
  401b04:	90                   	nop    
  401b05:	48 8d 74 26 00       	lea    0x0(%rsi),%rsi
  401b0a:	90                   	nop    
  401b0b:	48 8d 7c 27 00       	lea    0x0(%rdi),%rdi

0000000000401b10 <__intel_proc_init_P.A>:
  401b10:	48 81 ec 08 02 00 00 	sub    $0x208,%rsp
  401b17:	bf 01 00 00 00       	mov    $0x1,%edi
  401b1c:	33 f6                	xor    %esi,%esi
  401b1e:	33 d2                	xor    %edx,%edx
  401b20:	33 c0                	xor    %eax,%eax
  401b22:	e8 e9 0a 00 00       	callq  402610 <irc__print>
  401b27:	bf 01 00 00 00       	mov    $0x1,%edi
  401b2c:	be 17 00 00 00       	mov    $0x17,%esi
  401b31:	33 d2                	xor    %edx,%edx
  401b33:	33 c0                	xor    %eax,%eax
  401b35:	e8 d6 0a 00 00       	callq  402610 <irc__print>
  401b3a:	bf 2b 00 00 00       	mov    $0x2b,%edi
  401b3f:	33 f6                	xor    %esi,%esi
  401b41:	33 c0                	xor    %eax,%eax
  401b43:	e8 18 0d 00 00       	callq  402860 <irc__get_msg>
  401b48:	48 8d 3c 24          	lea    (%rsp),%rdi
  401b4c:	48 89 c6             	mov    %rax,%rsi
  401b4f:	ba 00 02 00 00       	mov    $0x200,%edx
  401b54:	e8 5f ec ff ff       	callq  4007b8 <strncpy@plt>
  401b59:	48 8d 0c 24          	lea    (%rsp),%rcx
  401b5d:	bf 01 00 00 00       	mov    $0x1,%edi
  401b62:	be 18 00 00 00       	mov    $0x18,%esi
  401b67:	89 fa                	mov    %edi,%edx
  401b69:	33 c0                	xor    %eax,%eax
  401b6b:	e8 a0 0a 00 00       	callq  402610 <irc__print>
  401b70:	bf 01 00 00 00       	mov    $0x1,%edi
  401b75:	33 f6                	xor    %esi,%esi
  401b77:	33 d2                	xor    %edx,%edx
  401b79:	33 c0                	xor    %eax,%eax
  401b7b:	e8 90 0a 00 00       	callq  402610 <irc__print>
  401b80:	bf 01 00 00 00       	mov    $0x1,%edi
  401b85:	e8 9e ec ff ff       	callq  400828 <exit@plt>
  401b8a:	90                   	nop    
  401b8b:	48 8d 74 26 00       	lea    0x0(%rsi),%rsi

0000000000401b90 <__intel_proc_init_P.L>:
  401b90:	0f ae 5c 24 f8       	stmxcsr 0xfffffffffffffff8(%rsp)
  401b95:	8b 44 24 f8          	mov    0xfffffffffffffff8(%rsp),%eax
  401b99:	0d 00 80 00 00       	or     $0x8000,%eax
  401b9e:	89 44 24 f8          	mov    %eax,0xfffffffffffffff8(%rsp)
  401ba2:	0f ae 54 24 f8       	ldmxcsr 0xfffffffffffffff8(%rsp)
  401ba7:	0f ae 5c 24 f8       	stmxcsr 0xfffffffffffffff8(%rsp)
  401bac:	8b 44 24 f8          	mov    0xfffffffffffffff8(%rsp),%eax
  401bb0:	83 c8 40             	or     $0x40,%eax
  401bb3:	89 44 24 f8          	mov    %eax,0xfffffffffffffff8(%rsp)
  401bb7:	0f ae 54 24 f8       	ldmxcsr 0xfffffffffffffff8(%rsp)
  401bbc:	c3                   	retq   
  401bbd:	48 89 f6             	mov    %rsi,%rsi

0000000000401bc0 <__intel_proc_init_P>:
  401bc0:	48 8b 05 41 2a 10 00 	mov    1059393(%rip),%rax        # 504608 <_DYNAMIC+0x1c0>
  401bc7:	8b 00                	mov    (%rax),%eax
  401bc9:	a9 00 f8 ff ff       	test   $0xfffff800,%eax
  401bce:	0f 85 bc ff ff ff    	jne    401b90 <__intel_proc_init_P.L>
  401bd4:	a9 ff ff ff ff       	test   $0xffffffff,%eax
  401bd9:	0f 85 31 ff ff ff    	jne    401b10 <__intel_proc_init_P.A>
  401bdf:	48 83 ec 08          	sub    $0x8,%rsp
  401be3:	e8 68 0e 00 00       	callq  402a50 <__intel_cpu_indicator_init>
  401be8:	48 83 c4 08          	add    $0x8,%rsp
  401bec:	eb d2                	jmp    401bc0 <__intel_proc_init_P>
  401bee:	90                   	nop    
  401bef:	90                   	nop    

0000000000401bf0 <__intel_new_proc_init_P.A>:
  401bf0:	48 81 ec 08 02 00 00 	sub    $0x208,%rsp
  401bf7:	bf 01 00 00 00       	mov    $0x1,%edi
  401bfc:	33 f6                	xor    %esi,%esi
  401bfe:	33 d2                	xor    %edx,%edx
  401c00:	33 c0                	xor    %eax,%eax
  401c02:	e8 09 0a 00 00       	callq  402610 <irc__print>
  401c07:	bf 01 00 00 00       	mov    $0x1,%edi
  401c0c:	be 17 00 00 00       	mov    $0x17,%esi
  401c11:	33 d2                	xor    %edx,%edx
  401c13:	33 c0                	xor    %eax,%eax
  401c15:	e8 f6 09 00 00       	callq  402610 <irc__print>
  401c1a:	bf 2b 00 00 00       	mov    $0x2b,%edi
  401c1f:	33 f6                	xor    %esi,%esi
  401c21:	33 c0                	xor    %eax,%eax
  401c23:	e8 38 0c 00 00       	callq  402860 <irc__get_msg>
  401c28:	48 8d 3c 24          	lea    (%rsp),%rdi
  401c2c:	48 89 c6             	mov    %rax,%rsi
  401c2f:	ba 00 02 00 00       	mov    $0x200,%edx
  401c34:	e8 7f eb ff ff       	callq  4007b8 <strncpy@plt>
  401c39:	48 8d 0c 24          	lea    (%rsp),%rcx
  401c3d:	bf 01 00 00 00       	mov    $0x1,%edi
  401c42:	be 18 00 00 00       	mov    $0x18,%esi
  401c47:	89 fa                	mov    %edi,%edx
  401c49:	33 c0                	xor    %eax,%eax
  401c4b:	e8 c0 09 00 00       	callq  402610 <irc__print>
  401c50:	bf 01 00 00 00       	mov    $0x1,%edi
  401c55:	33 f6                	xor    %esi,%esi
  401c57:	33 d2                	xor    %edx,%edx
  401c59:	33 c0                	xor    %eax,%eax
  401c5b:	e8 b0 09 00 00       	callq  402610 <irc__print>
  401c60:	bf 01 00 00 00       	mov    $0x1,%edi
  401c65:	e8 be eb ff ff       	callq  400828 <exit@plt>
  401c6a:	90                   	nop    
  401c6b:	48 8d 74 26 00       	lea    0x0(%rsi),%rsi

0000000000401c70 <__intel_new_proc_init_P.L>:
  401c70:	41 57                	push   %r15
  401c72:	41 56                	push   %r14
  401c74:	55                   	push   %rbp
  401c75:	48 81 ec 10 02 00 00 	sub    $0x210,%rsp
  401c7c:	41 89 ff             	mov    %edi,%r15d
  401c7f:	44 89 fd             	mov    %r15d,%ebp
  401c82:	83 e5 02             	and    $0x2,%ebp
  401c85:	45 89 fe             	mov    %r15d,%r14d
  401c88:	41 83 e6 04          	and    $0x4,%r14d
  401c8c:	74 2c                	je     401cba <__intel_new_proc_init_P.L+0x4a>
  401c8e:	48 8d 3c 24          	lea    (%rsp),%rdi
  401c92:	33 f6                	xor    %esi,%esi
  401c94:	ba 00 02 00 00       	mov    $0x200,%edx
  401c99:	e8 7a eb ff ff       	callq  400818 <memset@plt>
  401c9e:	0f ae 04 24          	fxsave (%rsp)
  401ca2:	8b 54 24 1c          	mov    0x1c(%rsp),%edx
  401ca6:	33 c9                	xor    %ecx,%ecx
  401ca8:	89 d0                	mov    %edx,%eax
  401caa:	83 e0 40             	and    $0x40,%eax
  401cad:	0f 44 e9             	cmove  %ecx,%ebp
  401cb0:	81 e2 00 00 02 00    	and    $0x20000,%edx
  401cb6:	44 0f 44 f1          	cmove  %ecx,%r14d
  401cba:	41 f7 c7 01 00 00 00 	test   $0x1,%r15d
  401cc1:	75 5a                	jne    401d1d <__intel_new_proc_init_P.L+0xad>
  401cc3:	85 ed                	test   %ebp,%ebp
  401cc5:	74 21                	je     401ce8 <__intel_new_proc_init_P.L+0x78>
  401cc7:	0f ae 9c 24 00 02 00 	stmxcsr 0x200(%rsp)
  401cce:	00 
  401ccf:	8b 84 24 00 02 00 00 	mov    0x200(%rsp),%eax
  401cd6:	83 c8 40             	or     $0x40,%eax
  401cd9:	89 84 24 00 02 00 00 	mov    %eax,0x200(%rsp)
  401ce0:	0f ae 94 24 00 02 00 	ldmxcsr 0x200(%rsp)
  401ce7:	00 
  401ce8:	45 85 f6             	test   %r14d,%r14d
  401ceb:	74 23                	je     401d10 <__intel_new_proc_init_P.L+0xa0>
  401ced:	0f ae 9c 24 00 02 00 	stmxcsr 0x200(%rsp)
  401cf4:	00 
  401cf5:	8b 84 24 00 02 00 00 	mov    0x200(%rsp),%eax
  401cfc:	0d 00 00 02 00       	or     $0x20000,%eax
  401d01:	89 84 24 00 02 00 00 	mov    %eax,0x200(%rsp)
  401d08:	0f ae 94 24 00 02 00 	ldmxcsr 0x200(%rsp)
  401d0f:	00 
  401d10:	48 81 c4 10 02 00 00 	add    $0x210,%rsp
  401d17:	5d                   	pop    %rbp
  401d18:	41 5e                	pop    %r14
  401d1a:	41 5f                	pop    %r15
  401d1c:	c3                   	retq   
  401d1d:	0f ae 9c 24 00 02 00 	stmxcsr 0x200(%rsp)
  401d24:	00 
  401d25:	8b 84 24 00 02 00 00 	mov    0x200(%rsp),%eax
  401d2c:	0d 00 80 00 00       	or     $0x8000,%eax
  401d31:	89 84 24 00 02 00 00 	mov    %eax,0x200(%rsp)
  401d38:	0f ae 94 24 00 02 00 	ldmxcsr 0x200(%rsp)
  401d3f:	00 
  401d40:	eb 81                	jmp    401cc3 <__intel_new_proc_init_P.L+0x53>
  401d42:	48 8d b6 00 00 00 00 	lea    0x0(%rsi),%rsi
  401d49:	48 8d bf 00 00 00 00 	lea    0x0(%rdi),%rdi

0000000000401d50 <__intel_new_proc_init_P>:
  401d50:	48 8b 05 b1 28 10 00 	mov    1058993(%rip),%rax        # 504608 <_DYNAMIC+0x1c0>
  401d57:	8b 00                	mov    (%rax),%eax
  401d59:	a9 00 f8 ff ff       	test   $0xfffff800,%eax
  401d5e:	0f 85 0c ff ff ff    	jne    401c70 <__intel_new_proc_init_P.L>
  401d64:	a9 ff ff ff ff       	test   $0xffffffff,%eax
  401d69:	0f 85 81 fe ff ff    	jne    401bf0 <__intel_new_proc_init_P.A>
  401d6f:	48 83 ec 08          	sub    $0x8,%rsp
  401d73:	e8 d8 0c 00 00       	callq  402a50 <__intel_cpu_indicator_init>
  401d78:	48 83 c4 08          	add    $0x8,%rsp
  401d7c:	eb d2                	jmp    401d50 <__intel_new_proc_init_P>
  401d7e:	90                   	nop    
  401d7f:	90                   	nop    

0000000000401d80 <__intel_proc_init_T.A>:
  401d80:	48 81 ec 08 02 00 00 	sub    $0x208,%rsp
  401d87:	bf 01 00 00 00       	mov    $0x1,%edi
  401d8c:	33 f6                	xor    %esi,%esi
  401d8e:	33 d2                	xor    %edx,%edx
  401d90:	33 c0                	xor    %eax,%eax
  401d92:	e8 79 08 00 00       	callq  402610 <irc__print>
  401d97:	bf 01 00 00 00       	mov    $0x1,%edi
  401d9c:	be 17 00 00 00       	mov    $0x17,%esi
  401da1:	33 d2                	xor    %edx,%edx
  401da3:	33 c0                	xor    %eax,%eax
  401da5:	e8 66 08 00 00       	callq  402610 <irc__print>
  401daa:	bf 2a 00 00 00       	mov    $0x2a,%edi
  401daf:	33 f6                	xor    %esi,%esi
  401db1:	33 c0                	xor    %eax,%eax
  401db3:	e8 a8 0a 00 00       	callq  402860 <irc__get_msg>
  401db8:	48 8d 3c 24          	lea    (%rsp),%rdi
  401dbc:	48 89 c6             	mov    %rax,%rsi
  401dbf:	ba 00 02 00 00       	mov    $0x200,%edx
  401dc4:	e8 ef e9 ff ff       	callq  4007b8 <strncpy@plt>
  401dc9:	48 8d 0c 24          	lea    (%rsp),%rcx
  401dcd:	bf 01 00 00 00       	mov    $0x1,%edi
  401dd2:	be 18 00 00 00       	mov    $0x18,%esi
  401dd7:	89 fa                	mov    %edi,%edx
  401dd9:	33 c0                	xor    %eax,%eax
  401ddb:	e8 30 08 00 00       	callq  402610 <irc__print>
  401de0:	bf 01 00 00 00       	mov    $0x1,%edi
  401de5:	33 f6                	xor    %esi,%esi
  401de7:	33 d2                	xor    %edx,%edx
  401de9:	33 c0                	xor    %eax,%eax
  401deb:	e8 20 08 00 00       	callq  402610 <irc__print>
  401df0:	bf 01 00 00 00       	mov    $0x1,%edi
  401df5:	e8 2e ea ff ff       	callq  400828 <exit@plt>
  401dfa:	90                   	nop    
  401dfb:	48 8d 74 26 00       	lea    0x0(%rsi),%rsi

0000000000401e00 <__intel_proc_init_T.M>:
  401e00:	0f ae 5c 24 f8       	stmxcsr 0xfffffffffffffff8(%rsp)
  401e05:	8b 44 24 f8          	mov    0xfffffffffffffff8(%rsp),%eax
  401e09:	0d 00 80 00 00       	or     $0x8000,%eax
  401e0e:	89 44 24 f8          	mov    %eax,0xfffffffffffffff8(%rsp)
  401e12:	0f ae 54 24 f8       	ldmxcsr 0xfffffffffffffff8(%rsp)
  401e17:	0f ae 5c 24 f8       	stmxcsr 0xfffffffffffffff8(%rsp)
  401e1c:	8b 44 24 f8          	mov    0xfffffffffffffff8(%rsp),%eax
  401e20:	83 c8 40             	or     $0x40,%eax
  401e23:	89 44 24 f8          	mov    %eax,0xfffffffffffffff8(%rsp)
  401e27:	0f ae 54 24 f8       	ldmxcsr 0xfffffffffffffff8(%rsp)
  401e2c:	c3                   	retq   
  401e2d:	48 89 f6             	mov    %rsi,%rsi

0000000000401e30 <__intel_proc_init_T>:
  401e30:	48 8b 05 d1 27 10 00 	mov    1058769(%rip),%rax        # 504608 <_DYNAMIC+0x1c0>
  401e37:	8b 00                	mov    (%rax),%eax
  401e39:	a9 00 f0 ff ff       	test   $0xfffff000,%eax
  401e3e:	0f 85 bc ff ff ff    	jne    401e00 <__intel_proc_init_T.M>
  401e44:	a9 ff ff ff ff       	test   $0xffffffff,%eax
  401e49:	0f 85 31 ff ff ff    	jne    401d80 <__intel_proc_init_T.A>
  401e4f:	48 83 ec 08          	sub    $0x8,%rsp
  401e53:	e8 f8 0b 00 00       	callq  402a50 <__intel_cpu_indicator_init>
  401e58:	48 83 c4 08          	add    $0x8,%rsp
  401e5c:	eb d2                	jmp    401e30 <__intel_proc_init_T>
  401e5e:	90                   	nop    
  401e5f:	90                   	nop    

0000000000401e60 <__intel_new_proc_init_T.A>:
  401e60:	48 81 ec 08 02 00 00 	sub    $0x208,%rsp
  401e67:	bf 01 00 00 00       	mov    $0x1,%edi
  401e6c:	33 f6                	xor    %esi,%esi
  401e6e:	33 d2                	xor    %edx,%edx
  401e70:	33 c0                	xor    %eax,%eax
  401e72:	e8 99 07 00 00       	callq  402610 <irc__print>
  401e77:	bf 01 00 00 00       	mov    $0x1,%edi
  401e7c:	be 17 00 00 00       	mov    $0x17,%esi
  401e81:	33 d2                	xor    %edx,%edx
  401e83:	33 c0                	xor    %eax,%eax
  401e85:	e8 86 07 00 00       	callq  402610 <irc__print>
  401e8a:	bf 2a 00 00 00       	mov    $0x2a,%edi
  401e8f:	33 f6                	xor    %esi,%esi
  401e91:	33 c0                	xor    %eax,%eax
  401e93:	e8 c8 09 00 00       	callq  402860 <irc__get_msg>
  401e98:	48 8d 3c 24          	lea    (%rsp),%rdi
  401e9c:	48 89 c6             	mov    %rax,%rsi
  401e9f:	ba 00 02 00 00       	mov    $0x200,%edx
  401ea4:	e8 0f e9 ff ff       	callq  4007b8 <strncpy@plt>
  401ea9:	48 8d 0c 24          	lea    (%rsp),%rcx
  401ead:	bf 01 00 00 00       	mov    $0x1,%edi
  401eb2:	be 18 00 00 00       	mov    $0x18,%esi
  401eb7:	89 fa                	mov    %edi,%edx
  401eb9:	33 c0                	xor    %eax,%eax
  401ebb:	e8 50 07 00 00       	callq  402610 <irc__print>
  401ec0:	bf 01 00 00 00       	mov    $0x1,%edi
  401ec5:	33 f6                	xor    %esi,%esi
  401ec7:	33 d2                	xor    %edx,%edx
  401ec9:	33 c0                	xor    %eax,%eax
  401ecb:	e8 40 07 00 00       	callq  402610 <irc__print>
  401ed0:	bf 01 00 00 00       	mov    $0x1,%edi
  401ed5:	e8 4e e9 ff ff       	callq  400828 <exit@plt>
  401eda:	90                   	nop    
  401edb:	48 8d 74 26 00       	lea    0x0(%rsi),%rsi

0000000000401ee0 <__intel_new_proc_init_T.M>:
  401ee0:	41 57                	push   %r15
  401ee2:	41 56                	push   %r14
  401ee4:	55                   	push   %rbp
  401ee5:	48 81 ec 10 02 00 00 	sub    $0x210,%rsp
  401eec:	41 89 ff             	mov    %edi,%r15d
  401eef:	44 89 fd             	mov    %r15d,%ebp
  401ef2:	83 e5 02             	and    $0x2,%ebp
  401ef5:	45 89 fe             	mov    %r15d,%r14d
  401ef8:	41 83 e6 04          	and    $0x4,%r14d
  401efc:	74 2c                	je     401f2a <__intel_new_proc_init_T.M+0x4a>
  401efe:	48 8d 3c 24          	lea    (%rsp),%rdi
  401f02:	33 f6                	xor    %esi,%esi
  401f04:	ba 00 02 00 00       	mov    $0x200,%edx
  401f09:	e8 0a e9 ff ff       	callq  400818 <memset@plt>
  401f0e:	0f ae 04 24          	fxsave (%rsp)
  401f12:	8b 54 24 1c          	mov    0x1c(%rsp),%edx
  401f16:	33 c9                	xor    %ecx,%ecx
  401f18:	89 d0                	mov    %edx,%eax
  401f1a:	83 e0 40             	and    $0x40,%eax
  401f1d:	0f 44 e9             	cmove  %ecx,%ebp
  401f20:	81 e2 00 00 02 00    	and    $0x20000,%edx
  401f26:	44 0f 44 f1          	cmove  %ecx,%r14d
  401f2a:	41 f7 c7 01 00 00 00 	test   $0x1,%r15d
  401f31:	75 5a                	jne    401f8d <__intel_new_proc_init_T.M+0xad>
  401f33:	85 ed                	test   %ebp,%ebp
  401f35:	74 21                	je     401f58 <__intel_new_proc_init_T.M+0x78>
  401f37:	0f ae 9c 24 00 02 00 	stmxcsr 0x200(%rsp)
  401f3e:	00 
  401f3f:	8b 84 24 00 02 00 00 	mov    0x200(%rsp),%eax
  401f46:	83 c8 40             	or     $0x40,%eax
  401f49:	89 84 24 00 02 00 00 	mov    %eax,0x200(%rsp)
  401f50:	0f ae 94 24 00 02 00 	ldmxcsr 0x200(%rsp)
  401f57:	00 
  401f58:	45 85 f6             	test   %r14d,%r14d
  401f5b:	74 23                	je     401f80 <__intel_new_proc_init_T.M+0xa0>
  401f5d:	0f ae 9c 24 00 02 00 	stmxcsr 0x200(%rsp)
  401f64:	00 
  401f65:	8b 84 24 00 02 00 00 	mov    0x200(%rsp),%eax
  401f6c:	0d 00 00 02 00       	or     $0x20000,%eax
  401f71:	89 84 24 00 02 00 00 	mov    %eax,0x200(%rsp)
  401f78:	0f ae 94 24 00 02 00 	ldmxcsr 0x200(%rsp)
  401f7f:	00 
  401f80:	48 81 c4 10 02 00 00 	add    $0x210,%rsp
  401f87:	5d                   	pop    %rbp
  401f88:	41 5e                	pop    %r14
  401f8a:	41 5f                	pop    %r15
  401f8c:	c3                   	retq   
  401f8d:	0f ae 9c 24 00 02 00 	stmxcsr 0x200(%rsp)
  401f94:	00 
  401f95:	8b 84 24 00 02 00 00 	mov    0x200(%rsp),%eax
  401f9c:	0d 00 80 00 00       	or     $0x8000,%eax
  401fa1:	89 84 24 00 02 00 00 	mov    %eax,0x200(%rsp)
  401fa8:	0f ae 94 24 00 02 00 	ldmxcsr 0x200(%rsp)
  401faf:	00 
  401fb0:	eb 81                	jmp    401f33 <__intel_new_proc_init_T.M+0x53>
  401fb2:	48 8d b6 00 00 00 00 	lea    0x0(%rsi),%rsi
  401fb9:	48 8d bf 00 00 00 00 	lea    0x0(%rdi),%rdi

0000000000401fc0 <__intel_new_proc_init_T>:
  401fc0:	48 8b 05 41 26 10 00 	mov    1058369(%rip),%rax        # 504608 <_DYNAMIC+0x1c0>
  401fc7:	8b 00                	mov    (%rax),%eax
  401fc9:	a9 00 f0 ff ff       	test   $0xfffff000,%eax
  401fce:	0f 85 0c ff ff ff    	jne    401ee0 <__intel_new_proc_init_T.M>
  401fd4:	a9 ff ff ff ff       	test   $0xffffffff,%eax
  401fd9:	0f 85 81 fe ff ff    	jne    401e60 <__intel_new_proc_init_T.A>
  401fdf:	48 83 ec 08          	sub    $0x8,%rsp
  401fe3:	e8 68 0a 00 00       	callq  402a50 <__intel_cpu_indicator_init>
  401fe8:	48 83 c4 08          	add    $0x8,%rsp
  401fec:	eb d2                	jmp    401fc0 <__intel_new_proc_init_T>
  401fee:	90                   	nop    
  401fef:	90                   	nop    

0000000000401ff0 <__intel_new_proc_init_S.A>:
  401ff0:	48 81 ec 08 02 00 00 	sub    $0x208,%rsp
  401ff7:	bf 01 00 00 00       	mov    $0x1,%edi
  401ffc:	33 f6                	xor    %esi,%esi
  401ffe:	33 d2                	xor    %edx,%edx
  402000:	33 c0                	xor    %eax,%eax
  402002:	e8 09 06 00 00       	callq  402610 <irc__print>
  402007:	bf 01 00 00 00       	mov    $0x1,%edi
  40200c:	be 17 00 00 00       	mov    $0x17,%esi
  402011:	33 d2                	xor    %edx,%edx
  402013:	33 c0                	xor    %eax,%eax
  402015:	e8 f6 05 00 00       	callq  402610 <irc__print>
  40201a:	bf 2e 00 00 00       	mov    $0x2e,%edi
  40201f:	33 f6                	xor    %esi,%esi
  402021:	33 c0                	xor    %eax,%eax
  402023:	e8 38 08 00 00       	callq  402860 <irc__get_msg>
  402028:	48 8d 3c 24          	lea    (%rsp),%rdi
  40202c:	48 89 c6             	mov    %rax,%rsi
  40202f:	ba 00 02 00 00       	mov    $0x200,%edx
  402034:	e8 7f e7 ff ff       	callq  4007b8 <strncpy@plt>
  402039:	48 8d 0c 24          	lea    (%rsp),%rcx
  40203d:	bf 01 00 00 00       	mov    $0x1,%edi
  402042:	be 18 00 00 00       	mov    $0x18,%esi
  402047:	89 fa                	mov    %edi,%edx
  402049:	33 c0                	xor    %eax,%eax
  40204b:	e8 c0 05 00 00       	callq  402610 <irc__print>
  402050:	bf 01 00 00 00       	mov    $0x1,%edi
  402055:	33 f6                	xor    %esi,%esi
  402057:	33 d2                	xor    %edx,%edx
  402059:	33 c0                	xor    %eax,%eax
  40205b:	e8 b0 05 00 00       	callq  402610 <irc__print>
  402060:	bf 01 00 00 00       	mov    $0x1,%edi
  402065:	e8 be e7 ff ff       	callq  400828 <exit@plt>
  40206a:	90                   	nop    
  40206b:	48 8d 74 26 00       	lea    0x0(%rsi),%rsi

0000000000402070 <__intel_new_proc_init_S.N>:
  402070:	41 57                	push   %r15
  402072:	41 56                	push   %r14
  402074:	55                   	push   %rbp
  402075:	48 81 ec 10 02 00 00 	sub    $0x210,%rsp
  40207c:	41 89 ff             	mov    %edi,%r15d
  40207f:	44 89 fd             	mov    %r15d,%ebp
  402082:	83 e5 02             	and    $0x2,%ebp
  402085:	45 89 fe             	mov    %r15d,%r14d
  402088:	41 83 e6 04          	and    $0x4,%r14d
  40208c:	74 2c                	je     4020ba <__intel_new_proc_init_S.N+0x4a>
  40208e:	48 8d 3c 24          	lea    (%rsp),%rdi
  402092:	33 f6                	xor    %esi,%esi
  402094:	ba 00 02 00 00       	mov    $0x200,%edx
  402099:	e8 7a e7 ff ff       	callq  400818 <memset@plt>
  40209e:	0f ae 04 24          	fxsave (%rsp)
  4020a2:	8b 54 24 1c          	mov    0x1c(%rsp),%edx
  4020a6:	33 c9                	xor    %ecx,%ecx
  4020a8:	89 d0                	mov    %edx,%eax
  4020aa:	83 e0 40             	and    $0x40,%eax
  4020ad:	0f 44 e9             	cmove  %ecx,%ebp
  4020b0:	81 e2 00 00 02 00    	and    $0x20000,%edx
  4020b6:	44 0f 44 f1          	cmove  %ecx,%r14d
  4020ba:	41 f7 c7 01 00 00 00 	test   $0x1,%r15d
  4020c1:	75 5a                	jne    40211d <__intel_new_proc_init_S.N+0xad>
  4020c3:	85 ed                	test   %ebp,%ebp
  4020c5:	74 21                	je     4020e8 <__intel_new_proc_init_S.N+0x78>
  4020c7:	0f ae 9c 24 00 02 00 	stmxcsr 0x200(%rsp)
  4020ce:	00 
  4020cf:	8b 84 24 00 02 00 00 	mov    0x200(%rsp),%eax
  4020d6:	83 c8 40             	or     $0x40,%eax
  4020d9:	89 84 24 00 02 00 00 	mov    %eax,0x200(%rsp)
  4020e0:	0f ae 94 24 00 02 00 	ldmxcsr 0x200(%rsp)
  4020e7:	00 
  4020e8:	45 85 f6             	test   %r14d,%r14d
  4020eb:	74 23                	je     402110 <__intel_new_proc_init_S.N+0xa0>
  4020ed:	0f ae 9c 24 00 02 00 	stmxcsr 0x200(%rsp)
  4020f4:	00 
  4020f5:	8b 84 24 00 02 00 00 	mov    0x200(%rsp),%eax
  4020fc:	0d 00 00 02 00       	or     $0x20000,%eax
  402101:	89 84 24 00 02 00 00 	mov    %eax,0x200(%rsp)
  402108:	0f ae 94 24 00 02 00 	ldmxcsr 0x200(%rsp)
  40210f:	00 
  402110:	48 81 c4 10 02 00 00 	add    $0x210,%rsp
  402117:	5d                   	pop    %rbp
  402118:	41 5e                	pop    %r14
  40211a:	41 5f                	pop    %r15
  40211c:	c3                   	retq   
  40211d:	0f ae 9c 24 00 02 00 	stmxcsr 0x200(%rsp)
  402124:	00 
  402125:	8b 84 24 00 02 00 00 	mov    0x200(%rsp),%eax
  40212c:	0d 00 80 00 00       	or     $0x8000,%eax
  402131:	89 84 24 00 02 00 00 	mov    %eax,0x200(%rsp)
  402138:	0f ae 94 24 00 02 00 	ldmxcsr 0x200(%rsp)
  40213f:	00 
  402140:	eb 81                	jmp    4020c3 <__intel_new_proc_init_S.N+0x53>
  402142:	48 8d b6 00 00 00 00 	lea    0x0(%rsi),%rsi
  402149:	48 8d bf 00 00 00 00 	lea    0x0(%rdi),%rdi

0000000000402150 <__intel_new_proc_init_S>:
  402150:	48 8b 05 b1 24 10 00 	mov    1057969(%rip),%rax        # 504608 <_DYNAMIC+0x1c0>
  402157:	8b 00                	mov    (%rax),%eax
  402159:	a9 00 a0 ff ff       	test   $0xffffa000,%eax
  40215e:	0f 85 0c ff ff ff    	jne    402070 <__intel_new_proc_init_S.N>
  402164:	a9 ff ff ff ff       	test   $0xffffffff,%eax
  402169:	0f 85 81 fe ff ff    	jne    401ff0 <__intel_new_proc_init_S.A>
  40216f:	48 83 ec 08          	sub    $0x8,%rsp
  402173:	e8 d8 08 00 00       	callq  402a50 <__intel_cpu_indicator_init>
  402178:	48 83 c4 08          	add    $0x8,%rsp
  40217c:	eb d2                	jmp    402150 <__intel_new_proc_init_S>
  40217e:	90                   	nop    
  40217f:	90                   	nop    

0000000000402180 <__intel_new_proc_init_L.A>:
  402180:	48 81 ec 08 02 00 00 	sub    $0x208,%rsp
  402187:	bf 01 00 00 00       	mov    $0x1,%edi
  40218c:	33 f6                	xor    %esi,%esi
  40218e:	33 d2                	xor    %edx,%edx
  402190:	33 c0                	xor    %eax,%eax
  402192:	e8 79 04 00 00       	callq  402610 <irc__print>
  402197:	bf 01 00 00 00       	mov    $0x1,%edi
  40219c:	be 17 00 00 00       	mov    $0x17,%esi
  4021a1:	33 d2                	xor    %edx,%edx
  4021a3:	33 c0                	xor    %eax,%eax
  4021a5:	e8 66 04 00 00       	callq  402610 <irc__print>
  4021aa:	bf 30 00 00 00       	mov    $0x30,%edi
  4021af:	33 f6                	xor    %esi,%esi
  4021b1:	33 c0                	xor    %eax,%eax
  4021b3:	e8 a8 06 00 00       	callq  402860 <irc__get_msg>
  4021b8:	48 8d 3c 24          	lea    (%rsp),%rdi
  4021bc:	48 89 c6             	mov    %rax,%rsi
  4021bf:	ba 00 02 00 00       	mov    $0x200,%edx
  4021c4:	e8 ef e5 ff ff       	callq  4007b8 <strncpy@plt>
  4021c9:	48 8d 0c 24          	lea    (%rsp),%rcx
  4021cd:	bf 01 00 00 00       	mov    $0x1,%edi
  4021d2:	be 18 00 00 00       	mov    $0x18,%esi
  4021d7:	89 fa                	mov    %edi,%edx
  4021d9:	33 c0                	xor    %eax,%eax
  4021db:	e8 30 04 00 00       	callq  402610 <irc__print>
  4021e0:	bf 01 00 00 00       	mov    $0x1,%edi
  4021e5:	33 f6                	xor    %esi,%esi
  4021e7:	33 d2                	xor    %edx,%edx
  4021e9:	33 c0                	xor    %eax,%eax
  4021eb:	e8 20 04 00 00       	callq  402610 <irc__print>
  4021f0:	bf 01 00 00 00       	mov    $0x1,%edi
  4021f5:	e8 2e e6 ff ff       	callq  400828 <exit@plt>
  4021fa:	90                   	nop    
  4021fb:	48 8d 74 26 00       	lea    0x0(%rsi),%rsi

0000000000402200 <__intel_new_proc_init_L.O>:
  402200:	41 57                	push   %r15
  402202:	41 56                	push   %r14
  402204:	55                   	push   %rbp
  402205:	48 81 ec 10 02 00 00 	sub    $0x210,%rsp
  40220c:	41 89 ff             	mov    %edi,%r15d
  40220f:	44 89 fd             	mov    %r15d,%ebp
  402212:	45 89 fe             	mov    %r15d,%r14d
  402215:	83 e5 02             	and    $0x2,%ebp
  402218:	41 83 e6 04          	and    $0x4,%r14d
  40221c:	74 2c                	je     40224a <__intel_new_proc_init_L.O+0x4a>
  40221e:	33 f6                	xor    %esi,%esi
  402220:	ba 00 02 00 00       	mov    $0x200,%edx
  402225:	48 8d 3c 24          	lea    (%rsp),%rdi
  402229:	e8 ea e5 ff ff       	callq  400818 <memset@plt>
  40222e:	0f ae 04 24          	fxsave (%rsp)
  402232:	8b 54 24 1c          	mov    0x1c(%rsp),%edx
  402236:	89 d0                	mov    %edx,%eax
  402238:	33 c9                	xor    %ecx,%ecx
  40223a:	83 e0 40             	and    $0x40,%eax
  40223d:	0f 44 e9             	cmove  %ecx,%ebp
  402240:	81 e2 00 00 02 00    	and    $0x20000,%edx
  402246:	44 0f 44 f1          	cmove  %ecx,%r14d
  40224a:	41 f7 c7 01 00 00 00 	test   $0x1,%r15d
  402251:	75 5b                	jne    4022ae <__intel_new_proc_init_L.O+0xae>
  402253:	85 ed                	test   %ebp,%ebp
  402255:	74 21                	je     402278 <__intel_new_proc_init_L.O+0x78>
  402257:	0f ae 9c 24 00 02 00 	stmxcsr 0x200(%rsp)
  40225e:	00 
  40225f:	8b 84 24 00 02 00 00 	mov    0x200(%rsp),%eax
  402266:	83 c8 40             	or     $0x40,%eax
  402269:	89 84 24 00 02 00 00 	mov    %eax,0x200(%rsp)
  402270:	0f ae 94 24 00 02 00 	ldmxcsr 0x200(%rsp)
  402277:	00 
  402278:	45 85 f6             	test   %r14d,%r14d
  40227b:	74 23                	je     4022a0 <__intel_new_proc_init_L.O+0xa0>
  40227d:	0f ae 9c 24 00 02 00 	stmxcsr 0x200(%rsp)
  402284:	00 
  402285:	8b 84 24 00 02 00 00 	mov    0x200(%rsp),%eax
  40228c:	0d 00 00 02 00       	or     $0x20000,%eax
  402291:	89 84 24 00 02 00 00 	mov    %eax,0x200(%rsp)
  402298:	0f ae 94 24 00 02 00 	ldmxcsr 0x200(%rsp)
  40229f:	00 
  4022a0:	48 8d a4 24 10 02 00 	lea    0x210(%rsp),%rsp
  4022a7:	00 
  4022a8:	5d                   	pop    %rbp
  4022a9:	41 5e                	pop    %r14
  4022ab:	41 5f                	pop    %r15
  4022ad:	c3                   	retq   
  4022ae:	0f ae 9c 24 00 02 00 	stmxcsr 0x200(%rsp)
  4022b5:	00 
  4022b6:	8b 84 24 00 02 00 00 	mov    0x200(%rsp),%eax
  4022bd:	0d 00 80 00 00       	or     $0x8000,%eax
  4022c2:	89 84 24 00 02 00 00 	mov    %eax,0x200(%rsp)
  4022c9:	0f ae 94 24 00 02 00 	ldmxcsr 0x200(%rsp)
  4022d0:	00 
  4022d1:	eb 80                	jmp    402253 <__intel_new_proc_init_L.O+0x53>
  4022d3:	90                   	nop    
  4022d4:	48 8d 74 26 00       	lea    0x0(%rsi),%rsi
  4022d9:	48 8d bf 00 00 00 00 	lea    0x0(%rdi),%rdi

00000000004022e0 <__intel_new_proc_init_L>:
  4022e0:	48 8b 05 21 23 10 00 	mov    1057569(%rip),%rax        # 504608 <_DYNAMIC+0x1c0>
  4022e7:	8b 00                	mov    (%rax),%eax
  4022e9:	a9 00 40 00 00       	test   $0x4000,%eax
  4022ee:	0f 85 0c ff ff ff    	jne    402200 <__intel_new_proc_init_L.O>
  4022f4:	a9 ff ff ff ff       	test   $0xffffffff,%eax
  4022f9:	0f 85 81 fe ff ff    	jne    402180 <__intel_new_proc_init_L.A>
  4022ff:	48 8d 64 24 f8       	lea    0xfffffffffffffff8(%rsp),%rsp
  402304:	e8 47 07 00 00       	callq  402a50 <__intel_cpu_indicator_init>
  402309:	48 8d 64 24 08       	lea    0x8(%rsp),%rsp
  40230e:	eb d0                	jmp    4022e0 <__intel_new_proc_init_L>

0000000000402310 <__intel_new_proc_init_H.A>:
  402310:	48 81 ec 08 02 00 00 	sub    $0x208,%rsp
  402317:	bf 01 00 00 00       	mov    $0x1,%edi
  40231c:	33 f6                	xor    %esi,%esi
  40231e:	33 d2                	xor    %edx,%edx
  402320:	33 c0                	xor    %eax,%eax
  402322:	e8 e9 02 00 00       	callq  402610 <irc__print>
  402327:	bf 01 00 00 00       	mov    $0x1,%edi
  40232c:	be 17 00 00 00       	mov    $0x17,%esi
  402331:	33 d2                	xor    %edx,%edx
  402333:	33 c0                	xor    %eax,%eax
  402335:	e8 d6 02 00 00       	callq  402610 <irc__print>
  40233a:	bf 2f 00 00 00       	mov    $0x2f,%edi
  40233f:	33 f6                	xor    %esi,%esi
  402341:	33 c0                	xor    %eax,%eax
  402343:	e8 18 05 00 00       	callq  402860 <irc__get_msg>
  402348:	48 8d 3c 24          	lea    (%rsp),%rdi
  40234c:	48 89 c6             	mov    %rax,%rsi
  40234f:	ba 00 02 00 00       	mov    $0x200,%edx
  402354:	e8 5f e4 ff ff       	callq  4007b8 <strncpy@plt>
  402359:	48 8d 0c 24          	lea    (%rsp),%rcx
  40235d:	bf 01 00 00 00       	mov    $0x1,%edi
  402362:	be 18 00 00 00       	mov    $0x18,%esi
  402367:	89 fa                	mov    %edi,%edx
  402369:	33 c0                	xor    %eax,%eax
  40236b:	e8 a0 02 00 00       	callq  402610 <irc__print>
  402370:	bf 01 00 00 00       	mov    $0x1,%edi
  402375:	33 f6                	xor    %esi,%esi
  402377:	33 d2                	xor    %edx,%edx
  402379:	33 c0                	xor    %eax,%eax
  40237b:	e8 90 02 00 00       	callq  402610 <irc__print>
  402380:	bf 01 00 00 00       	mov    $0x1,%edi
  402385:	e8 9e e4 ff ff       	callq  400828 <exit@plt>
  40238a:	90                   	nop    
  40238b:	48 8d 74 26 00       	lea    0x0(%rsi),%rsi

0000000000402390 <__intel_new_proc_init_H.P>:
  402390:	89 f8                	mov    %edi,%eax
  402392:	83 e0 02             	and    $0x2,%eax
  402395:	89 fa                	mov    %edi,%edx
  402397:	83 e2 04             	and    $0x4,%edx
  40239a:	f7 c7 01 00 00 00    	test   $0x1,%edi
  4023a0:	75 35                	jne    4023d7 <__intel_new_proc_init_H.P+0x47>
  4023a2:	85 c0                	test   %eax,%eax
  4023a4:	74 15                	je     4023bb <__intel_new_proc_init_H.P+0x2b>
  4023a6:	0f ae 5c 24 f8       	stmxcsr 0xfffffffffffffff8(%rsp)
  4023ab:	8b 44 24 f8          	mov    0xfffffffffffffff8(%rsp),%eax
  4023af:	83 c8 40             	or     $0x40,%eax
  4023b2:	89 44 24 f8          	mov    %eax,0xfffffffffffffff8(%rsp)
  4023b6:	0f ae 54 24 f8       	ldmxcsr 0xfffffffffffffff8(%rsp)
  4023bb:	85 d2                	test   %edx,%edx
  4023bd:	74 17                	je     4023d6 <__intel_new_proc_init_H.P+0x46>
  4023bf:	0f ae 5c 24 f8       	stmxcsr 0xfffffffffffffff8(%rsp)
  4023c4:	8b 44 24 f8          	mov    0xfffffffffffffff8(%rsp),%eax
  4023c8:	0d 00 00 02 00       	or     $0x20000,%eax
  4023cd:	89 44 24 f8          	mov    %eax,0xfffffffffffffff8(%rsp)
  4023d1:	0f ae 54 24 f8       	ldmxcsr 0xfffffffffffffff8(%rsp)
  4023d6:	c3                   	retq   
  4023d7:	0f ae 5c 24 f8       	stmxcsr 0xfffffffffffffff8(%rsp)
  4023dc:	8b 4c 24 f8          	mov    0xfffffffffffffff8(%rsp),%ecx
  4023e0:	81 c9 00 80 00 00    	or     $0x8000,%ecx
  4023e6:	89 4c 24 f8          	mov    %ecx,0xfffffffffffffff8(%rsp)
  4023ea:	0f ae 54 24 f8       	ldmxcsr 0xfffffffffffffff8(%rsp)
  4023ef:	eb b1                	jmp    4023a2 <__intel_new_proc_init_H.P+0x12>
  4023f1:	48 8d b4 26 00 00 00 	lea    0x0(%rsi),%rsi
  4023f8:	00 
  4023f9:	48 8d bf 00 00 00 00 	lea    0x0(%rdi),%rdi

0000000000402400 <__intel_new_proc_init_H>:
  402400:	48 8b 05 01 22 10 00 	mov    1057281(%rip),%rax        # 504608 <_DYNAMIC+0x1c0>
  402407:	8b 00                	mov    (%rax),%eax
  402409:	a9 00 80 ff ff       	test   $0xffff8000,%eax
  40240e:	0f 85 7c ff ff ff    	jne    402390 <__intel_new_proc_init_H.P>
  402414:	a9 ff ff ff ff       	test   $0xffffffff,%eax
  402419:	0f 85 f1 fe ff ff    	jne    402310 <__intel_new_proc_init_H.A>
  40241f:	48 83 ec 08          	sub    $0x8,%rsp
  402423:	e8 28 06 00 00       	callq  402a50 <__intel_cpu_indicator_init>
  402428:	48 83 c4 08          	add    $0x8,%rsp
  40242c:	eb d2                	jmp    402400 <__intel_new_proc_init_H>
  40242e:	90                   	nop    
  40242f:	90                   	nop    

0000000000402430 <__intel_proc_init.A>:
  402430:	c3                   	retq   
  402431:	48 8d b4 26 00 00 00 	lea    0x0(%rsi),%rsi
  402438:	00 
  402439:	48 8d bf 00 00 00 00 	lea    0x0(%rdi),%rdi

0000000000402440 <__intel_proc_init.H>:
  402440:	48 81 ec 08 02 00 00 	sub    $0x208,%rsp
  402447:	48 8d 3c 24          	lea    (%rsp),%rdi
  40244b:	33 f6                	xor    %esi,%esi
  40244d:	ba 00 02 00 00       	mov    $0x200,%edx
  402452:	e8 c1 e3 ff ff       	callq  400818 <memset@plt>
  402457:	0f ae 04 24          	fxsave (%rsp)
  40245b:	8b 54 24 1c          	mov    0x1c(%rsp),%edx
  40245f:	0f ae 9c 24 00 02 00 	stmxcsr 0x200(%rsp)
  402466:	00 
  402467:	8b 84 24 00 02 00 00 	mov    0x200(%rsp),%eax
  40246e:	83 e2 40             	and    $0x40,%edx
  402471:	0d 00 80 00 00       	or     $0x8000,%eax
  402476:	89 84 24 00 02 00 00 	mov    %eax,0x200(%rsp)
  40247d:	0f ae 94 24 00 02 00 	ldmxcsr 0x200(%rsp)
  402484:	00 
  402485:	85 d2                	test   %edx,%edx
  402487:	74 21                	je     4024aa <__intel_proc_init.H+0x6a>
  402489:	0f ae 9c 24 00 02 00 	stmxcsr 0x200(%rsp)
  402490:	00 
  402491:	8b 84 24 00 02 00 00 	mov    0x200(%rsp),%eax
  402498:	83 c8 40             	or     $0x40,%eax
  40249b:	89 84 24 00 02 00 00 	mov    %eax,0x200(%rsp)
  4024a2:	0f ae 94 24 00 02 00 	ldmxcsr 0x200(%rsp)
  4024a9:	00 
  4024aa:	48 81 c4 08 02 00 00 	add    $0x208,%rsp
  4024b1:	c3                   	retq   
  4024b2:	48 8d b6 00 00 00 00 	lea    0x0(%rsi),%rsi
  4024b9:	48 8d bf 00 00 00 00 	lea    0x0(%rdi),%rdi

00000000004024c0 <__intel_proc_init>:
  4024c0:	48 8b 05 41 21 10 00 	mov    1057089(%rip),%rax        # 504608 <_DYNAMIC+0x1c0>
  4024c7:	8b 00                	mov    (%rax),%eax
  4024c9:	a9 80 ff ff ff       	test   $0xffffff80,%eax
  4024ce:	0f 85 6c ff ff ff    	jne    402440 <__intel_proc_init.H>
  4024d4:	a9 ff ff ff ff       	test   $0xffffffff,%eax
  4024d9:	0f 85 51 ff ff ff    	jne    402430 <__intel_proc_init.A>
  4024df:	48 83 ec 08          	sub    $0x8,%rsp
  4024e3:	e8 68 05 00 00       	callq  402a50 <__intel_cpu_indicator_init>
  4024e8:	48 83 c4 08          	add    $0x8,%rsp
  4024ec:	eb d2                	jmp    4024c0 <__intel_proc_init>
  4024ee:	90                   	nop    
  4024ef:	90                   	nop    

00000000004024f0 <__intel_new_proc_init.A>:
  4024f0:	c3                   	retq   
  4024f1:	48 8d b4 26 00 00 00 	lea    0x0(%rsi),%rsi
  4024f8:	00 
  4024f9:	48 8d bf 00 00 00 00 	lea    0x0(%rdi),%rdi

0000000000402500 <__intel_new_proc_init.H>:
  402500:	41 57                	push   %r15
  402502:	41 56                	push   %r14
  402504:	55                   	push   %rbp
  402505:	48 81 ec 10 02 00 00 	sub    $0x210,%rsp
  40250c:	41 89 ff             	mov    %edi,%r15d
  40250f:	44 89 fd             	mov    %r15d,%ebp
  402512:	83 e5 02             	and    $0x2,%ebp
  402515:	45 89 fe             	mov    %r15d,%r14d
  402518:	41 83 e6 04          	and    $0x4,%r14d
  40251c:	85 ed                	test   %ebp,%ebp
  40251e:	75 05                	jne    402525 <__intel_new_proc_init.H+0x25>
  402520:	45 85 f6             	test   %r14d,%r14d
  402523:	74 2c                	je     402551 <__intel_new_proc_init.H+0x51>
  402525:	48 8d 3c 24          	lea    (%rsp),%rdi
  402529:	33 f6                	xor    %esi,%esi
  40252b:	ba 00 02 00 00       	mov    $0x200,%edx
  402530:	e8 e3 e2 ff ff       	callq  400818 <memset@plt>
  402535:	0f ae 04 24          	fxsave (%rsp)
  402539:	8b 54 24 1c          	mov    0x1c(%rsp),%edx
  40253d:	33 c9                	xor    %ecx,%ecx
  40253f:	89 d0                	mov    %edx,%eax
  402541:	83 e0 40             	and    $0x40,%eax
  402544:	0f 44 e9             	cmove  %ecx,%ebp
  402547:	81 e2 00 00 02 00    	and    $0x20000,%edx
  40254d:	44 0f 44 f1          	cmove  %ecx,%r14d
  402551:	41 f7 c7 01 00 00 00 	test   $0x1,%r15d
  402558:	75 5a                	jne    4025b4 <__intel_new_proc_init.H+0xb4>
  40255a:	85 ed                	test   %ebp,%ebp
  40255c:	74 21                	je     40257f <__intel_new_proc_init.H+0x7f>
  40255e:	0f ae 9c 24 00 02 00 	stmxcsr 0x200(%rsp)
  402565:	00 
  402566:	8b 84 24 00 02 00 00 	mov    0x200(%rsp),%eax
  40256d:	83 c8 40             	or     $0x40,%eax
  402570:	89 84 24 00 02 00 00 	mov    %eax,0x200(%rsp)
  402577:	0f ae 94 24 00 02 00 	ldmxcsr 0x200(%rsp)
  40257e:	00 
  40257f:	45 85 f6             	test   %r14d,%r14d
  402582:	74 23                	je     4025a7 <__intel_new_proc_init.H+0xa7>
  402584:	0f ae 9c 24 00 02 00 	stmxcsr 0x200(%rsp)
  40258b:	00 
  40258c:	8b 84 24 00 02 00 00 	mov    0x200(%rsp),%eax
  402593:	0d 00 00 02 00       	or     $0x20000,%eax
  402598:	89 84 24 00 02 00 00 	mov    %eax,0x200(%rsp)
  40259f:	0f ae 94 24 00 02 00 	ldmxcsr 0x200(%rsp)
  4025a6:	00 
  4025a7:	48 81 c4 10 02 00 00 	add    $0x210,%rsp
  4025ae:	5d                   	pop    %rbp
  4025af:	41 5e                	pop    %r14
  4025b1:	41 5f                	pop    %r15
  4025b3:	c3                   	retq   
  4025b4:	0f ae 9c 24 00 02 00 	stmxcsr 0x200(%rsp)
  4025bb:	00 
  4025bc:	8b 84 24 00 02 00 00 	mov    0x200(%rsp),%eax
  4025c3:	0d 00 80 00 00       	or     $0x8000,%eax
  4025c8:	89 84 24 00 02 00 00 	mov    %eax,0x200(%rsp)
  4025cf:	0f ae 94 24 00 02 00 	ldmxcsr 0x200(%rsp)
  4025d6:	00 
  4025d7:	eb 81                	jmp    40255a <__intel_new_proc_init.H+0x5a>
  4025d9:	48 8d b6 00 00 00 00 	lea    0x0(%rsi),%rsi

00000000004025e0 <__intel_new_proc_init>:
  4025e0:	48 8b 05 21 20 10 00 	mov    1056801(%rip),%rax        # 504608 <_DYNAMIC+0x1c0>
  4025e7:	8b 00                	mov    (%rax),%eax
  4025e9:	a9 80 ff ff ff       	test   $0xffffff80,%eax
  4025ee:	0f 85 0c ff ff ff    	jne    402500 <__intel_new_proc_init.H>
  4025f4:	a9 ff ff ff ff       	test   $0xffffffff,%eax
  4025f9:	0f 85 f1 fe ff ff    	jne    4024f0 <__intel_new_proc_init.A>
  4025ff:	48 83 ec 08          	sub    $0x8,%rsp
  402603:	e8 48 04 00 00       	callq  402a50 <__intel_cpu_indicator_init>
  402608:	48 83 c4 08          	add    $0x8,%rsp
  40260c:	eb d2                	jmp    4025e0 <__intel_new_proc_init>
  40260e:	90                   	nop    
  40260f:	90                   	nop    

0000000000402610 <irc__print>:
  402610:	41 57                	push   %r15
  402612:	55                   	push   %rbp
  402613:	53                   	push   %rbx
  402614:	48 81 ec 00 01 00 00 	sub    $0x100,%rsp
  40261b:	48 89 4c 24 48       	mov    %rcx,0x48(%rsp)
  402620:	4c 89 44 24 50       	mov    %r8,0x50(%rsp)
  402625:	4c 89 4c 24 58       	mov    %r9,0x58(%rsp)
  40262a:	44 0f b6 d8          	movzbl %al,%r11d
  40262e:	4a 8d 04 9d 00 00 00 	lea    0x0(,%r11,4),%rax
  402635:	00 
  402636:	4c 8d 1d 2e 00 00 00 	lea    46(%rip),%r11        # 40266b <irc__print+0x5b>
  40263d:	4c 2b d8             	sub    %rax,%r11
  402640:	48 8d 84 24 df 00 00 	lea    0xdf(%rsp),%rax
  402647:	00 
  402648:	41 ff e3             	jmpq   *%r11
  40264b:	0f 29 78 f1          	movaps %xmm7,0xfffffffffffffff1(%rax)
  40264f:	0f 29 70 e1          	movaps %xmm6,0xffffffffffffffe1(%rax)
  402653:	0f 29 68 d1          	movaps %xmm5,0xffffffffffffffd1(%rax)
  402657:	0f 29 60 c1          	movaps %xmm4,0xffffffffffffffc1(%rax)
  40265b:	0f 29 58 b1          	movaps %xmm3,0xffffffffffffffb1(%rax)
  40265f:	0f 29 50 a1          	movaps %xmm2,0xffffffffffffffa1(%rax)
  402663:	0f 29 48 91          	movaps %xmm1,0xffffffffffffff91(%rax)
  402667:	0f 29 40 81          	movaps %xmm0,0xffffffffffffff81(%rax)
  40266b:	41 89 d7             	mov    %edx,%r15d
  40266e:	89 f5                	mov    %esi,%ebp
  402670:	89 fb                	mov    %edi,%ebx
  402672:	85 ed                	test   %ebp,%ebp
  402674:	75 23                	jne    402699 <irc__print+0x89>
  402676:	83 fb 01             	cmp    $0x1,%ebx
  402679:	0f 84 b4 01 00 00    	je     402833 <irc__print+0x223>
  40267f:	48 8d 3d be 06 00 00 	lea    1726(%rip),%rdi        # 402d44 <_2__STRING.0.0>
  402686:	33 c0                	xor    %eax,%eax
  402688:	e8 5b e1 ff ff       	callq  4007e8 <printf@plt>
  40268d:	48 81 c4 00 01 00 00 	add    $0x100,%rsp
  402694:	5b                   	pop    %rbx
  402695:	5d                   	pop    %rbp
  402696:	41 5f                	pop    %r15
  402698:	c3                   	retq   
  402699:	8b 05 21 20 10 00    	mov    1056801(%rip),%eax        # 5046c0 <first_msg.0>
  40269f:	85 c0                	test   %eax,%eax
  4026a1:	74 35                	je     4026d8 <irc__print+0xc8>
  4026a3:	c7 05 13 20 10 00 00 	movl   $0x0,1056787(%rip)        # 5046c0 <first_msg.0>
  4026aa:	00 00 00 
  4026ad:	48 8d 3d 94 06 00 00 	lea    1684(%rip),%rdi        # 402d48 <_2__STRING.49.0>
  4026b4:	33 f6                	xor    %esi,%esi
  4026b6:	e8 3d e1 ff ff       	callq  4007f8 <catopen@plt>
  4026bb:	48 89 05 7e 27 10 00 	mov    %rax,1058686(%rip)        # 504e40 <message_catalog.0>
  4026c2:	48 83 f8 ff          	cmp    $0xffffffffffffffff,%rax
  4026c6:	0f 84 d2 00 00 00    	je     40279e <irc__print+0x18e>
  4026cc:	c7 05 fa 1f 10 00 00 	movl   $0x0,1056762(%rip)        # 5046d0 <use_internal_msg.0>
  4026d3:	00 00 00 
  4026d6:	eb 1e                	jmp    4026f6 <irc__print+0xe6>
  4026d8:	8b 05 f2 1f 10 00    	mov    1056754(%rip),%eax        # 5046d0 <use_internal_msg.0>
  4026de:	85 c0                	test   %eax,%eax
  4026e0:	74 14                	je     4026f6 <irc__print+0xe6>
  4026e2:	48 63 c5             	movslq %ebp,%rax
  4026e5:	48 c1 e0 04          	shl    $0x4,%rax
  4026e9:	48 8d 15 18 20 10 00 	lea    1056792(%rip),%rdx        # 504708 <irc_msgtab.0+0x8>
  4026f0:	48 8b 04 10          	mov    (%rax,%rdx,1),%rax
  4026f4:	eb 25                	jmp    40271b <irc__print+0x10b>
  4026f6:	48 8b 3d 43 27 10 00 	mov    1058627(%rip),%rdi        # 504e40 <message_catalog.0>
  4026fd:	48 63 c5             	movslq %ebp,%rax
  402700:	48 c1 e0 04          	shl    $0x4,%rax
  402704:	4c 8d 05 fd 1f 10 00 	lea    1056765(%rip),%r8        # 504708 <irc_msgtab.0+0x8>
  40270b:	4a 8b 0c 00          	mov    (%rax,%r8,1),%rcx
  40270f:	be 01 00 00 00       	mov    $0x1,%esi
  402714:	89 ea                	mov    %ebp,%edx
  402716:	e8 6d e0 ff ff       	callq  400788 <catgets@plt>
  40271b:	45 85 ff             	test   %r15d,%r15d
  40271e:	7e 51                	jle    402771 <irc__print+0x161>
  402720:	c7 84 24 e0 00 00 00 	movl   $0x18,0xe0(%rsp)
  402727:	18 00 00 00 
  40272b:	48 8d 94 24 20 01 00 	lea    0x120(%rsp),%rdx
  402732:	00 
  402733:	48 8d 4c 24 30       	lea    0x30(%rsp),%rcx
  402738:	c7 84 24 e4 00 00 00 	movl   $0x30,0xe4(%rsp)
  40273f:	30 00 00 00 
  402743:	48 89 94 24 e8 00 00 	mov    %rdx,0xe8(%rsp)
  40274a:	00 
  40274b:	48 89 8c 24 f0 00 00 	mov    %rcx,0xf0(%rsp)
  402752:	00 
  402753:	48 8d 94 24 e0 00 00 	lea    0xe0(%rsp),%rdx
  40275a:	00 
  40275b:	48 8d 3d de 22 10 00 	lea    1057502(%rip),%rdi        # 504a40 <print_buf.0>
  402762:	48 89 c6             	mov    %rax,%rsi
  402765:	e8 2e e0 ff ff       	callq  400798 <vsprintf@plt>
  40276a:	48 8d 05 cf 22 10 00 	lea    1057487(%rip),%rax        # 504a40 <print_buf.0>
  402771:	83 fb 01             	cmp    $0x1,%ebx
  402774:	0f 84 a5 00 00 00    	je     40281f <irc__print+0x20f>
  40277a:	48 89 c7             	mov    %rax,%rdi
  40277d:	33 c0                	xor    %eax,%eax
  40277f:	e8 64 e0 ff ff       	callq  4007e8 <printf@plt>
  402784:	48 8d 3d b9 05 00 00 	lea    1465(%rip),%rdi        # 402d44 <_2__STRING.0.0>
  40278b:	33 c0                	xor    %eax,%eax
  40278d:	e8 56 e0 ff ff       	callq  4007e8 <printf@plt>
  402792:	48 81 c4 00 01 00 00 	add    $0x100,%rsp
  402799:	5b                   	pop    %rbx
  40279a:	5d                   	pop    %rbp
  40279b:	41 5f                	pop    %r15
  40279d:	c3                   	retq   
  40279e:	48 8d 3d af 05 00 00 	lea    1455(%rip),%rdi        # 402d54 <_2__STRING.51.0>
  4027a5:	e8 fe df ff ff       	callq  4007a8 <getenv@plt>
  4027aa:	48 8d 3c 24          	lea    (%rsp),%rdi
  4027ae:	48 8d 35 7b 05 00 00 	lea    1403(%rip),%rsi        # 402d30 <_2__STRING.50.0>
  4027b5:	48 83 f8 00          	cmp    $0x0,%rax
  4027b9:	48 0f 45 f0          	cmovne %rax,%rsi
  4027bd:	ba 28 00 00 00       	mov    $0x28,%edx
  4027c2:	e8 f1 df ff ff       	callq  4007b8 <strncpy@plt>
  4027c7:	48 8d 3c 24          	lea    (%rsp),%rdi
  4027cb:	be 2e 00 00 00       	mov    $0x2e,%esi
  4027d0:	e8 33 e0 ff ff       	callq  400808 <strchr@plt>
  4027d5:	48 85 c0             	test   %rax,%rax
  4027d8:	74 2f                	je     402809 <irc__print+0x1f9>
  4027da:	c6 00 00             	movb   $0x0,(%rax)
  4027dd:	48 8d 34 24          	lea    (%rsp),%rsi
  4027e1:	48 8d 3d 6c 05 00 00 	lea    1388(%rip),%rdi        # 402d54 <_2__STRING.51.0>
  4027e8:	ba 01 00 00 00       	mov    $0x1,%edx
  4027ed:	e8 d6 df ff ff       	callq  4007c8 <setenv@plt>
  4027f2:	48 8d 3d 4f 05 00 00 	lea    1359(%rip),%rdi        # 402d48 <_2__STRING.49.0>
  4027f9:	33 f6                	xor    %esi,%esi
  4027fb:	e8 f8 df ff ff       	callq  4007f8 <catopen@plt>
  402800:	48 89 05 39 26 10 00 	mov    %rax,1058361(%rip)        # 504e40 <message_catalog.0>
  402807:	eb 07                	jmp    402810 <irc__print+0x200>
  402809:	48 8b 05 30 26 10 00 	mov    1058352(%rip),%rax        # 504e40 <message_catalog.0>
  402810:	48 83 f8 ff          	cmp    $0xffffffffffffffff,%rax
  402814:	0f 85 b2 fe ff ff    	jne    4026cc <irc__print+0xbc>
  40281a:	e9 b9 fe ff ff       	jmpq   4026d8 <irc__print+0xc8>
  40281f:	48 8b 15 ea 1d 10 00 	mov    1056234(%rip),%rdx        # 504610 <_DYNAMIC+0x1c8>
  402826:	48 8b 3a             	mov    (%rdx),%rdi
  402829:	48 89 c6             	mov    %rax,%rsi
  40282c:	33 c0                	xor    %eax,%eax
  40282e:	e8 a5 df ff ff       	callq  4007d8 <fprintf@plt>
  402833:	48 8b 15 d6 1d 10 00 	mov    1056214(%rip),%rdx        # 504610 <_DYNAMIC+0x1c8>
  40283a:	48 8b 3a             	mov    (%rdx),%rdi
  40283d:	48 8d 35 00 05 00 00 	lea    1280(%rip),%rsi        # 402d44 <_2__STRING.0.0>
  402844:	33 c0                	xor    %eax,%eax
  402846:	e8 8d df ff ff       	callq  4007d8 <fprintf@plt>
  40284b:	48 81 c4 00 01 00 00 	add    $0x100,%rsp
  402852:	5b                   	pop    %rbx
  402853:	5d                   	pop    %rbp
  402854:	41 5f                	pop    %r15
  402856:	c3                   	retq   
  402857:	90                   	nop    
  402858:	90                   	nop    
  402859:	48 8d bf 00 00 00 00 	lea    0x0(%rdi),%rdi

0000000000402860 <irc__get_msg>:
  402860:	41 56                	push   %r14
  402862:	41 55                	push   %r13
  402864:	48 81 ec f8 00 00 00 	sub    $0xf8,%rsp
  40286b:	48 89 54 24 40       	mov    %rdx,0x40(%rsp)
  402870:	48 89 4c 24 48       	mov    %rcx,0x48(%rsp)
  402875:	4c 89 44 24 50       	mov    %r8,0x50(%rsp)
  40287a:	4c 89 4c 24 58       	mov    %r9,0x58(%rsp)
  40287f:	44 0f b6 d8          	movzbl %al,%r11d
  402883:	4a 8d 04 9d 00 00 00 	lea    0x0(,%r11,4),%rax
  40288a:	00 
  40288b:	4c 8d 1d 2e 00 00 00 	lea    46(%rip),%r11        # 4028c0 <irc__get_msg+0x60>
  402892:	4c 2b d8             	sub    %rax,%r11
  402895:	48 8d 84 24 df 00 00 	lea    0xdf(%rsp),%rax
  40289c:	00 
  40289d:	41 ff e3             	jmpq   *%r11
  4028a0:	0f 29 78 f1          	movaps %xmm7,0xfffffffffffffff1(%rax)
  4028a4:	0f 29 70 e1          	movaps %xmm6,0xffffffffffffffe1(%rax)
  4028a8:	0f 29 68 d1          	movaps %xmm5,0xffffffffffffffd1(%rax)
  4028ac:	0f 29 60 c1          	movaps %xmm4,0xffffffffffffffc1(%rax)
  4028b0:	0f 29 58 b1          	movaps %xmm3,0xffffffffffffffb1(%rax)
  4028b4:	0f 29 50 a1          	movaps %xmm2,0xffffffffffffffa1(%rax)
  4028b8:	0f 29 48 91          	movaps %xmm1,0xffffffffffffff91(%rax)
  4028bc:	0f 29 40 81          	movaps %xmm0,0xffffffffffffff81(%rax)
  4028c0:	41 89 f6             	mov    %esi,%r14d
  4028c3:	41 89 fd             	mov    %edi,%r13d
  4028c6:	45 85 ed             	test   %r13d,%r13d
  4028c9:	0f 84 85 00 00 00    	je     402954 <irc__get_msg+0xf4>
  4028cf:	8b 05 eb 1d 10 00    	mov    1056235(%rip),%eax        # 5046c0 <first_msg.0>
  4028d5:	85 c0                	test   %eax,%eax
  4028d7:	74 35                	je     40290e <irc__get_msg+0xae>
  4028d9:	c7 05 dd 1d 10 00 00 	movl   $0x0,1056221(%rip)        # 5046c0 <first_msg.0>
  4028e0:	00 00 00 
  4028e3:	48 8d 3d 5e 04 00 00 	lea    1118(%rip),%rdi        # 402d48 <_2__STRING.49.0>
  4028ea:	33 f6                	xor    %esi,%esi
  4028ec:	e8 07 df ff ff       	callq  4007f8 <catopen@plt>
  4028f1:	48 89 05 48 25 10 00 	mov    %rax,1058120(%rip)        # 504e40 <message_catalog.0>
  4028f8:	48 83 f8 ff          	cmp    $0xffffffffffffffff,%rax
  4028fc:	0f 84 c7 00 00 00    	je     4029c9 <irc__get_msg+0x169>
  402902:	c7 05 c4 1d 10 00 00 	movl   $0x0,1056196(%rip)        # 5046d0 <use_internal_msg.0>
  402909:	00 00 00 
  40290c:	eb 1e                	jmp    40292c <irc__get_msg+0xcc>
  40290e:	8b 05 bc 1d 10 00    	mov    1056188(%rip),%eax        # 5046d0 <use_internal_msg.0>
  402914:	85 c0                	test   %eax,%eax
  402916:	74 14                	je     40292c <irc__get_msg+0xcc>
  402918:	49 63 c5             	movslq %r13d,%rax
  40291b:	48 c1 e0 04          	shl    $0x4,%rax
  40291f:	48 8d 15 e2 1d 10 00 	lea    1056226(%rip),%rdx        # 504708 <irc_msgtab.0+0x8>
  402926:	48 8b 04 10          	mov    (%rax,%rdx,1),%rax
  40292a:	eb 2f                	jmp    40295b <irc__get_msg+0xfb>
  40292c:	48 8b 3d 0d 25 10 00 	mov    1058061(%rip),%rdi        # 504e40 <message_catalog.0>
  402933:	49 63 c5             	movslq %r13d,%rax
  402936:	48 c1 e0 04          	shl    $0x4,%rax
  40293a:	4c 8d 05 c7 1d 10 00 	lea    1056199(%rip),%r8        # 504708 <irc_msgtab.0+0x8>
  402941:	4a 8b 0c 00          	mov    (%rax,%r8,1),%rcx
  402945:	be 01 00 00 00       	mov    $0x1,%esi
  40294a:	44 89 ea             	mov    %r13d,%edx
  40294d:	e8 36 de ff ff       	callq  400788 <catgets@plt>
  402952:	eb 07                	jmp    40295b <irc__get_msg+0xfb>
  402954:	48 8d 05 d5 03 00 00 	lea    981(%rip),%rax        # 402d30 <_2__STRING.50.0>
  40295b:	45 85 f6             	test   %r14d,%r14d
  40295e:	7e 5d                	jle    4029bd <irc__get_msg+0x15d>
  402960:	c7 84 24 e0 00 00 00 	movl   $0x10,0xe0(%rsp)
  402967:	10 00 00 00 
  40296b:	48 8d 94 24 10 01 00 	lea    0x110(%rsp),%rdx
  402972:	00 
  402973:	48 8d 4c 24 30       	lea    0x30(%rsp),%rcx
  402978:	c7 84 24 e4 00 00 00 	movl   $0x30,0xe4(%rsp)
  40297f:	30 00 00 00 
  402983:	48 89 94 24 e8 00 00 	mov    %rdx,0xe8(%rsp)
  40298a:	00 
  40298b:	48 89 8c 24 f0 00 00 	mov    %rcx,0xf0(%rsp)
  402992:	00 
  402993:	48 8d 94 24 e0 00 00 	lea    0xe0(%rsp),%rdx
  40299a:	00 
  40299b:	48 8d 3d 9e 22 10 00 	lea    1057438(%rip),%rdi        # 504c40 <get_msg_buf.0>
  4029a2:	48 89 c6             	mov    %rax,%rsi
  4029a5:	e8 ee dd ff ff       	callq  400798 <vsprintf@plt>
  4029aa:	48 8d 05 8f 22 10 00 	lea    1057423(%rip),%rax        # 504c40 <get_msg_buf.0>
  4029b1:	48 81 c4 f8 00 00 00 	add    $0xf8,%rsp
  4029b8:	41 5d                	pop    %r13
  4029ba:	41 5e                	pop    %r14
  4029bc:	c3                   	retq   
  4029bd:	48 81 c4 f8 00 00 00 	add    $0xf8,%rsp
  4029c4:	41 5d                	pop    %r13
  4029c6:	41 5e                	pop    %r14
  4029c8:	c3                   	retq   
  4029c9:	48 8d 3d 84 03 00 00 	lea    900(%rip),%rdi        # 402d54 <_2__STRING.51.0>
  4029d0:	e8 d3 dd ff ff       	callq  4007a8 <getenv@plt>
  4029d5:	48 8d 3c 24          	lea    (%rsp),%rdi
  4029d9:	48 8d 35 50 03 00 00 	lea    848(%rip),%rsi        # 402d30 <_2__STRING.50.0>
  4029e0:	48 83 f8 00          	cmp    $0x0,%rax
  4029e4:	48 0f 45 f0          	cmovne %rax,%rsi
  4029e8:	ba 28 00 00 00       	mov    $0x28,%edx
  4029ed:	e8 c6 dd ff ff       	callq  4007b8 <strncpy@plt>
  4029f2:	48 8d 3c 24          	lea    (%rsp),%rdi
  4029f6:	be 2e 00 00 00       	mov    $0x2e,%esi
  4029fb:	e8 08 de ff ff       	callq  400808 <strchr@plt>
  402a00:	48 85 c0             	test   %rax,%rax
  402a03:	74 2f                	je     402a34 <irc__get_msg+0x1d4>
  402a05:	c6 00 00             	movb   $0x0,(%rax)
  402a08:	48 8d 34 24          	lea    (%rsp),%rsi
  402a0c:	48 8d 3d 41 03 00 00 	lea    833(%rip),%rdi        # 402d54 <_2__STRING.51.0>
  402a13:	ba 01 00 00 00       	mov    $0x1,%edx
  402a18:	e8 ab dd ff ff       	callq  4007c8 <setenv@plt>
  402a1d:	48 8d 3d 24 03 00 00 	lea    804(%rip),%rdi        # 402d48 <_2__STRING.49.0>
  402a24:	33 f6                	xor    %esi,%esi
  402a26:	e8 cd dd ff ff       	callq  4007f8 <catopen@plt>
  402a2b:	48 89 05 0e 24 10 00 	mov    %rax,1057806(%rip)        # 504e40 <message_catalog.0>
  402a32:	eb 07                	jmp    402a3b <irc__get_msg+0x1db>
  402a34:	48 8b 05 05 24 10 00 	mov    1057797(%rip),%rax        # 504e40 <message_catalog.0>
  402a3b:	48 83 f8 ff          	cmp    $0xffffffffffffffff,%rax
  402a3f:	0f 85 bd fe ff ff    	jne    402902 <irc__get_msg+0xa2>
  402a45:	e9 c4 fe ff ff       	jmpq   40290e <irc__get_msg+0xae>
  402a4a:	90                   	nop    
  402a4b:	48 8d 74 26 00       	lea    0x0(%rsi),%rsi

0000000000402a50 <__intel_cpu_indicator_init>:
  402a50:	50                   	push   %rax
  402a51:	52                   	push   %rdx
  402a52:	51                   	push   %rcx
  402a53:	53                   	push   %rbx
  402a54:	57                   	push   %rdi
  402a55:	56                   	push   %rsi
  402a56:	55                   	push   %rbp
  402a57:	41 54                	push   %r12
  402a59:	41 55                	push   %r13
  402a5b:	41 56                	push   %r14
  402a5d:	41 57                	push   %r15
  402a5f:	48 89 e5             	mov    %rsp,%rbp
  402a62:	48 83 ec 50          	sub    $0x50,%rsp
  402a66:	9c                   	pushfq 
  402a67:	58                   	pop    %rax
  402a68:	48 89 c1             	mov    %rax,%rcx
  402a6b:	48 35 00 00 20 00    	xor    $0x200000,%rax
  402a71:	50                   	push   %rax
  402a72:	9d                   	popfq  
  402a73:	9c                   	pushfq 
  402a74:	58                   	pop    %rax
  402a75:	48 3b c1             	cmp    %rcx,%rax
  402a78:	74 2a                	je     402aa4 <__intel_cpu_indicator_init+0x54>
  402a7a:	51                   	push   %rcx
  402a7b:	9d                   	popfq  
  402a7c:	48 33 c0             	xor    %rax,%rax
  402a7f:	0f a2                	cpuid  
  402a81:	89 45 f8             	mov    %eax,0xfffffffffffffff8(%rbp)
  402a84:	89 5d fc             	mov    %ebx,0xfffffffffffffffc(%rbp)
  402a87:	89 4d ec             	mov    %ecx,0xffffffffffffffec(%rbp)
  402a8a:	89 55 f4             	mov    %edx,0xfffffffffffffff4(%rbp)
  402a8d:	48 c7 c0 01 00 00 00 	mov    $0x1,%rax
  402a94:	0f a2                	cpuid  
  402a96:	89 45 f0             	mov    %eax,0xfffffffffffffff0(%rbp)
  402a99:	89 5d e0             	mov    %ebx,0xffffffffffffffe0(%rbp)
  402a9c:	89 4d e8             	mov    %ecx,0xffffffffffffffe8(%rbp)
  402a9f:	89 55 e4             	mov    %edx,0xffffffffffffffe4(%rbp)
  402aa2:	eb 1b                	jmp    402abf <__intel_cpu_indicator_init+0x6f>
  402aa4:	48 33 c0             	xor    %rax,%rax
  402aa7:	89 45 f8             	mov    %eax,0xfffffffffffffff8(%rbp)
  402aaa:	89 45 fc             	mov    %eax,0xfffffffffffffffc(%rbp)
  402aad:	89 45 ec             	mov    %eax,0xffffffffffffffec(%rbp)
  402ab0:	89 45 f4             	mov    %eax,0xfffffffffffffff4(%rbp)
  402ab3:	89 45 f0             	mov    %eax,0xfffffffffffffff0(%rbp)
  402ab6:	89 45 e0             	mov    %eax,0xffffffffffffffe0(%rbp)
  402ab9:	89 45 e8             	mov    %eax,0xffffffffffffffe8(%rbp)
  402abc:	89 45 e4             	mov    %eax,0xffffffffffffffe4(%rbp)
  402abf:	8b 45 fc             	mov    0xfffffffffffffffc(%rbp),%eax
  402ac2:	bb 01 00 00 00       	mov    $0x1,%ebx
  402ac7:	3d 47 65 6e 75       	cmp    $0x756e6547,%eax
  402acc:	75 1b                	jne    402ae9 <__intel_cpu_indicator_init+0x99>
  402ace:	8b 45 f4             	mov    0xfffffffffffffff4(%rbp),%eax
  402ad1:	3d 69 6e 65 49       	cmp    $0x49656e69,%eax
  402ad6:	75 11                	jne    402ae9 <__intel_cpu_indicator_init+0x99>
  402ad8:	8b 45 ec             	mov    0xffffffffffffffec(%rbp),%eax
  402adb:	3d 6e 74 65 6c       	cmp    $0x6c65746e,%eax
  402ae0:	75 07                	jne    402ae9 <__intel_cpu_indicator_init+0x99>
  402ae2:	ba 01 00 00 00       	mov    $0x1,%edx
  402ae7:	eb 02                	jmp    402aeb <__intel_cpu_indicator_init+0x9b>
  402ae9:	33 d2                	xor    %edx,%edx
  402aeb:	8b 45 f8             	mov    0xfffffffffffffff8(%rbp),%eax
  402aee:	85 c0                	test   %eax,%eax
  402af0:	0f 84 8e 00 00 00    	je     402b84 <__intel_cpu_indicator_init+0x134>
  402af6:	85 d2                	test   %edx,%edx
  402af8:	0f 84 86 00 00 00    	je     402b84 <__intel_cpu_indicator_init+0x134>
  402afe:	0f b6 45 f1          	movzbl 0xfffffffffffffff1(%rbp),%eax
  402b02:	83 e0 0f             	and    $0xf,%eax
  402b05:	83 f8 0f             	cmp    $0xf,%eax
  402b08:	75 15                	jne    402b1f <__intel_cpu_indicator_init+0xcf>
  402b0a:	8b 45 e8             	mov    0xffffffffffffffe8(%rbp),%eax
  402b0d:	ba 00 08 00 00       	mov    $0x800,%edx
  402b12:	bb 01 00 00 00       	mov    $0x1,%ebx
  402b17:	83 e0 01             	and    $0x1,%eax
  402b1a:	0f 45 da             	cmovne %edx,%ebx
  402b1d:	eb 65                	jmp    402b84 <__intel_cpu_indicator_init+0x134>
  402b1f:	83 f8 06             	cmp    $0x6,%eax
  402b22:	75 60                	jne    402b84 <__intel_cpu_indicator_init+0x134>
  402b24:	8b 55 e8             	mov    0xffffffffffffffe8(%rbp),%edx
  402b27:	b9 00 00 01 00       	mov    $0x10000,%ecx
  402b2c:	bb 00 08 00 00       	mov    $0x800,%ebx
  402b31:	f6 c2 01             	test   $0x1,%dl
  402b34:	75 05                	jne    402b3b <__intel_cpu_indicator_init+0xeb>
  402b36:	bb 01 00 00 00       	mov    $0x1,%ebx
  402b3b:	f7 c2 00 02 00 00    	test   $0x200,%edx
  402b41:	89 d0                	mov    %edx,%eax
  402b43:	74 05                	je     402b4a <__intel_cpu_indicator_init+0xfa>
  402b45:	bb 00 10 00 00       	mov    $0x1000,%ebx
  402b4a:	f7 c2 00 00 40 00    	test   $0x400000,%edx
  402b50:	74 05                	je     402b57 <__intel_cpu_indicator_init+0x107>
  402b52:	bb 00 40 00 00       	mov    $0x4000,%ebx
  402b57:	f7 c2 00 00 08 00    	test   $0x80000,%edx
  402b5d:	74 05                	je     402b64 <__intel_cpu_indicator_init+0x114>
  402b5f:	bb 00 20 00 00       	mov    $0x2000,%ebx
  402b64:	25 00 00 90 00       	and    $0x900000,%eax
  402b69:	3d 00 00 90 00       	cmp    $0x900000,%eax
  402b6e:	75 05                	jne    402b75 <__intel_cpu_indicator_init+0x125>
  402b70:	bb 00 80 00 00       	mov    $0x8000,%ebx
  402b75:	81 e2 02 00 00 02    	and    $0x2000002,%edx
  402b7b:	81 fa 02 00 00 02    	cmp    $0x2000002,%edx
  402b81:	0f 44 d9             	cmove  %ecx,%ebx
  402b84:	48 8b 05 7d 1a 10 00 	mov    1055357(%rip),%rax        # 504608 <_DYNAMIC+0x1c0>
  402b8b:	89 18                	mov    %ebx,(%rax)
  402b8d:	48 83 c4 50          	add    $0x50,%rsp
  402b91:	41 5f                	pop    %r15
  402b93:	41 5e                	pop    %r14
  402b95:	41 5d                	pop    %r13
  402b97:	41 5c                	pop    %r12
  402b99:	5d                   	pop    %rbp
  402b9a:	5e                   	pop    %rsi
  402b9b:	5f                   	pop    %rdi
  402b9c:	5b                   	pop    %rbx
  402b9d:	59                   	pop    %rcx
  402b9e:	5a                   	pop    %rdx
  402b9f:	58                   	pop    %rax
  402ba0:	c3                   	retq   
  402ba1:	48 8d b4 26 00 00 00 	lea    0x0(%rsi),%rsi
  402ba8:	00 
  402ba9:	48 8d bf 00 00 00 00 	lea    0x0(%rdi),%rdi

0000000000402bb0 <__libc_csu_fini>:
  402bb0:	f3 c3                	repz retq 
  402bb2:	66 66 66 90          	xchg   %ax,%ax
  402bb6:	66 66 66 90          	xchg   %ax,%ax
  402bba:	66 66 90             	xchg   %ax,%ax
  402bbd:	66 66 90             	xchg   %ax,%ax

0000000000402bc0 <__libc_csu_init>:
  402bc0:	4c 89 64 24 e0       	mov    %r12,0xffffffffffffffe0(%rsp)
  402bc5:	4c 89 6c 24 e8       	mov    %r13,0xffffffffffffffe8(%rsp)
  402bca:	4c 8d 25 4b 18 10 00 	lea    1054795(%rip),%r12        # 50441c <__init_array_end>
  402bd1:	4c 89 74 24 f0       	mov    %r14,0xfffffffffffffff0(%rsp)
  402bd6:	4c 89 7c 24 f8       	mov    %r15,0xfffffffffffffff8(%rsp)
  402bdb:	49 89 f6             	mov    %rsi,%r14
  402bde:	48 89 5c 24 d0       	mov    %rbx,0xffffffffffffffd0(%rsp)
  402be3:	48 89 6c 24 d8       	mov    %rbp,0xffffffffffffffd8(%rsp)
  402be8:	48 83 ec 38          	sub    $0x38,%rsp
  402bec:	41 89 ff             	mov    %edi,%r15d
  402bef:	49 89 d5             	mov    %rdx,%r13
  402bf2:	e8 59 db ff ff       	callq  400750 <_init>
  402bf7:	48 8d 05 1e 18 10 00 	lea    1054750(%rip),%rax        # 50441c <__init_array_end>
  402bfe:	49 29 c4             	sub    %rax,%r12
  402c01:	49 c1 fc 03          	sar    $0x3,%r12
  402c05:	4d 85 e4             	test   %r12,%r12
  402c08:	74 1e                	je     402c28 <__libc_csu_init+0x68>
  402c0a:	31 ed                	xor    %ebp,%ebp
  402c0c:	48 89 c3             	mov    %rax,%rbx
  402c0f:	90                   	nop    
  402c10:	48 83 c5 01          	add    $0x1,%rbp
  402c14:	4c 89 ea             	mov    %r13,%rdx
  402c17:	4c 89 f6             	mov    %r14,%rsi
  402c1a:	44 89 ff             	mov    %r15d,%edi
  402c1d:	ff 13                	callq  *(%rbx)
  402c1f:	48 83 c3 08          	add    $0x8,%rbx
  402c23:	49 39 ec             	cmp    %rbp,%r12
  402c26:	75 e8                	jne    402c10 <__libc_csu_init+0x50>
  402c28:	48 8b 5c 24 08       	mov    0x8(%rsp),%rbx
  402c2d:	48 8b 6c 24 10       	mov    0x10(%rsp),%rbp
  402c32:	4c 8b 64 24 18       	mov    0x18(%rsp),%r12
  402c37:	4c 8b 6c 24 20       	mov    0x20(%rsp),%r13
  402c3c:	4c 8b 74 24 28       	mov    0x28(%rsp),%r14
  402c41:	4c 8b 7c 24 30       	mov    0x30(%rsp),%r15
  402c46:	48 83 c4 38          	add    $0x38,%rsp
  402c4a:	c3                   	retq   
  402c4b:	90                   	nop    
  402c4c:	90                   	nop    
  402c4d:	90                   	nop    
  402c4e:	90                   	nop    
  402c4f:	90                   	nop    

0000000000402c50 <__do_global_ctors_aux>:
  402c50:	55                   	push   %rbp
  402c51:	48 89 e5             	mov    %rsp,%rbp
  402c54:	53                   	push   %rbx
  402c55:	48 83 ec 08          	sub    $0x8,%rsp
  402c59:	48 8b 05 c0 17 10 00 	mov    1054656(%rip),%rax        # 504420 <__CTOR_LIST__>
  402c60:	48 83 f8 ff          	cmp    $0xffffffffffffffff,%rax
  402c64:	74 1a                	je     402c80 <__do_global_ctors_aux+0x30>
  402c66:	48 8d 1d b3 17 10 00 	lea    1054643(%rip),%rbx        # 504420 <__CTOR_LIST__>
  402c6d:	66 66 90             	xchg   %ax,%ax
  402c70:	ff d0                	callq  *%rax
  402c72:	48 8b 43 f8          	mov    0xfffffffffffffff8(%rbx),%rax
  402c76:	48 83 eb 08          	sub    $0x8,%rbx
  402c7a:	48 83 f8 ff          	cmp    $0xffffffffffffffff,%rax
  402c7e:	75 f0                	jne    402c70 <__do_global_ctors_aux+0x20>
  402c80:	48 83 c4 08          	add    $0x8,%rsp
  402c84:	5b                   	pop    %rbx
  402c85:	c9                   	leaveq 
  402c86:	c3                   	retq   
  402c87:	90                   	nop    
Disassembly of section .fini:

0000000000402c88 <_fini>:
  402c88:	55                   	push   %rbp
  402c89:	48 83 ec 08          	sub    $0x8,%rsp
  402c8d:	e8 06 00 00 00       	callq  402c98 <_real_fini>
  402c92:	48 83 c4 08          	add    $0x8,%rsp
  402c96:	5d                   	pop    %rbp
  402c97:	c3                   	retq   

0000000000402c98 <_real_fini>:
  402c98:	e8 f3 db ff ff       	callq  400890 <__do_global_dtors_aux>
  402c9d:	c3                   	retq   