
stupid.l:     file format elf64-x86-64

Disassembly of section .init:

000000000000b518 <_init>:
    b518:	48 83 ec 08          	sub    $0x8,%rsp
    b51c:	e8 13 01 00 00       	callq  b634 <_start+0x34>
    b521:	e8 72 01 00 00       	callq  b698 <_start+0x98>
    b526:	e8 8d 2a 00 00       	callq  dfb8 <__libc_csu_init+0x98>
    b52b:	48 83 c4 08          	add    $0x8,%rsp
    b52f:	c3                   	retq   
Disassembly of section .plt:

000000000000b530 <__libc_start_main@plt-0x10>:
    b530:	ff 35 a2 4a 10 00    	pushq  1067682(%rip)        # 10ffd8 <_IO_stdin_used+0x101fd8>
    b536:	ff 25 a4 4a 10 00    	jmpq   *1067684(%rip)        # 10ffe0 <_IO_stdin_used+0x101fe0>
    b53c:	90                   	nop    
    b53d:	90                   	nop    
    b53e:	90                   	nop    
    b53f:	90                   	nop    

000000000000b540 <__libc_start_main@plt>:
    b540:	ff 25 a2 4a 10 00    	jmpq   *1067682(%rip)        # 10ffe8 <_IO_stdin_used+0x101fe8>
    b546:	68 00 00 00 00       	pushq  $0x0
    b54b:	e9 e0 ff ff ff       	jmpq   b530 <_init+0x18>

000000000000b550 <catgets@plt>:
    b550:	ff 25 9a 4a 10 00    	jmpq   *1067674(%rip)        # 10fff0 <_IO_stdin_used+0x101ff0>
    b556:	68 01 00 00 00       	pushq  $0x1
    b55b:	e9 d0 ff ff ff       	jmpq   b530 <_init+0x18>

000000000000b560 <vsprintf@plt>:
    b560:	ff 25 92 4a 10 00    	jmpq   *1067666(%rip)        # 10fff8 <_IO_stdin_used+0x101ff8>
    b566:	68 02 00 00 00       	pushq  $0x2
    b56b:	e9 c0 ff ff ff       	jmpq   b530 <_init+0x18>

000000000000b570 <getenv@plt>:
    b570:	ff 25 8a 4a 10 00    	jmpq   *1067658(%rip)        # 110000 <_IO_stdin_used+0x102000>
    b576:	68 03 00 00 00       	pushq  $0x3
    b57b:	e9 b0 ff ff ff       	jmpq   b530 <_init+0x18>

000000000000b580 <strncpy@plt>:
    b580:	ff 25 82 4a 10 00    	jmpq   *1067650(%rip)        # 110008 <_IO_stdin_used+0x102008>
    b586:	68 04 00 00 00       	pushq  $0x4
    b58b:	e9 a0 ff ff ff       	jmpq   b530 <_init+0x18>

000000000000b590 <setenv@plt>:
    b590:	ff 25 7a 4a 10 00    	jmpq   *1067642(%rip)        # 110010 <_IO_stdin_used+0x102010>
    b596:	68 05 00 00 00       	pushq  $0x5
    b59b:	e9 90 ff ff ff       	jmpq   b530 <_init+0x18>

000000000000b5a0 <fprintf@plt>:
    b5a0:	ff 25 72 4a 10 00    	jmpq   *1067634(%rip)        # 110018 <_IO_stdin_used+0x102018>
    b5a6:	68 06 00 00 00       	pushq  $0x6
    b5ab:	e9 80 ff ff ff       	jmpq   b530 <_init+0x18>

000000000000b5b0 <printf@plt>:
    b5b0:	ff 25 6a 4a 10 00    	jmpq   *1067626(%rip)        # 110020 <_IO_stdin_used+0x102020>
    b5b6:	68 07 00 00 00       	pushq  $0x7
    b5bb:	e9 70 ff ff ff       	jmpq   b530 <_init+0x18>

000000000000b5c0 <catopen@plt>:
    b5c0:	ff 25 62 4a 10 00    	jmpq   *1067618(%rip)        # 110028 <_IO_stdin_used+0x102028>
    b5c6:	68 08 00 00 00       	pushq  $0x8
    b5cb:	e9 60 ff ff ff       	jmpq   b530 <_init+0x18>

000000000000b5d0 <strchr@plt>:
    b5d0:	ff 25 5a 4a 10 00    	jmpq   *1067610(%rip)        # 110030 <_IO_stdin_used+0x102030>
    b5d6:	68 09 00 00 00       	pushq  $0x9
    b5db:	e9 50 ff ff ff       	jmpq   b530 <_init+0x18>

000000000000b5e0 <memset@plt>:
    b5e0:	ff 25 52 4a 10 00    	jmpq   *1067602(%rip)        # 110038 <_IO_stdin_used+0x102038>
    b5e6:	68 0a 00 00 00       	pushq  $0xa
    b5eb:	e9 40 ff ff ff       	jmpq   b530 <_init+0x18>

000000000000b5f0 <exit@plt>:
    b5f0:	ff 25 4a 4a 10 00    	jmpq   *1067594(%rip)        # 110040 <_IO_stdin_used+0x102040>
    b5f6:	68 0b 00 00 00       	pushq  $0xb
    b5fb:	e9 30 ff ff ff       	jmpq   b530 <_init+0x18>
Disassembly of section .text:

000000000000b600 <_start>:
    b600:	31 ed                	xor    %ebp,%ebp
    b602:	49 89 d1             	mov    %rdx,%r9
    b605:	5e                   	pop    %rsi
    b606:	48 89 e2             	mov    %rsp,%rdx
    b609:	48 83 e4 f0          	and    $0xfffffffffffffff0,%rsp
    b60d:	50                   	push   %rax
    b60e:	54                   	push   %rsp
    b60f:	49 c7 c0 50 31 40 00 	mov    $0x403150,%r8
    b616:	48 c7 c1 60 31 40 00 	mov    $0x403160,%rcx
    b61d:	48 c7 c7 00 09 40 00 	mov    $0x400900,%rdi
    b624:	e8 0f ff ff ff       	callq  b538 <_init+0x20>
    b629:	f4                   	hlt    
    b62a:	90                   	nop    
    b62b:	90                   	nop    
    b62c:	48 83 ec 08          	sub    $0x8,%rsp
    b630:	48 8b 05 89 49 10 00 	mov    1067401(%rip),%rax        # 10ffc0 <_IO_stdin_used+0x101fc0>
    b637:	48 85 c0             	test   %rax,%rax
    b63a:	74 02                	je     b63e <_start+0x3e>
    b63c:	ff d0                	callq  *%rax
    b63e:	48 83 c4 08          	add    $0x8,%rsp
    b642:	c3                   	retq   
    b643:	90                   	nop    
    b644:	90                   	nop    
    b645:	90                   	nop    
    b646:	90                   	nop    
    b647:	90                   	nop    
    b648:	90                   	nop    
    b649:	90                   	nop    
    b64a:	90                   	nop    
    b64b:	90                   	nop    
    b64c:	90                   	nop    
    b64d:	90                   	nop    
    b64e:	90                   	nop    
    b64f:	90                   	nop    
    b650:	80 3d 69 4d 10 00 00 	cmpb   $0x0,1068393(%rip)        # 1103c0 <__xxref+0x100>
    b657:	55                   	push   %rbp
    b658:	48 89 e5             	mov    %rsp,%rbp
    b65b:	74 10                	je     b66d <_start+0x6d>
    b65d:	eb 24                	jmp    b683 <_start+0x83>
    b65f:	90                   	nop    
    b660:	48 83 c0 08          	add    $0x8,%rax
    b664:	48 89 05 e5 49 10 00 	mov    %rax,1067493(%rip)        # 110050 <_IO_stdin_used+0x102050>
    b66b:	ff d2                	callq  *%rdx
    b66d:	48 8b 05 dc 49 10 00 	mov    1067484(%rip),%rax        # 110050 <_IO_stdin_used+0x102050>
    b674:	48 8b 10             	mov    (%rax),%rdx
    b677:	48 85 d2             	test   %rdx,%rdx
    b67a:	75 e4                	jne    b660 <_start+0x60>
    b67c:	c6 05 3d 4d 10 00 01 	movb   $0x1,1068349(%rip)        # 1103c0 <__xxref+0x100>
    b683:	c9                   	leaveq 
    b684:	c3                   	retq   
    b685:	66 66 66 90          	xchg   %ax,%ax
    b689:	66 66 66 90          	xchg   %ax,%ax
    b68d:	66 66 90             	xchg   %ax,%ax
    b690:	55                   	push   %rbp
    b691:	48 83 3d 47 47 10 00 	cmpq   $0x0,1066823(%rip)        # 10fde0 <_IO_stdin_used+0x101de0>
    b698:	00 
    b699:	48 89 e5             	mov    %rsp,%rbp
    b69c:	74 1a                	je     b6b8 <_start+0xb8>
    b69e:	48 8b 05 13 49 10 00 	mov    1067283(%rip),%rax        # 10ffb8 <_IO_stdin_used+0x101fb8>
    b6a5:	48 85 c0             	test   %rax,%rax
    b6a8:	74 0e                	je     b6b8 <_start+0xb8>
    b6aa:	48 8d 3d 2f 47 10 00 	lea    1066799(%rip),%rdi        # 10fde0 <_IO_stdin_used+0x101de0>
    b6b1:	49 89 c3             	mov    %rax,%r11
    b6b4:	c9                   	leaveq 
    b6b5:	41 ff e3             	jmpq   *%r11
    b6b8:	c9                   	leaveq 
    b6b9:	c3                   	retq   
    b6ba:	90                   	nop    
    b6bb:	90                   	nop    
    b6bc:	90                   	nop    
    b6bd:	90                   	nop    
    b6be:	90                   	nop    
    b6bf:	90                   	nop    

000000000000b6c0 <main>:
    b6c0:	55                   	push   %rbp
    b6c1:	48 89 e5             	mov    %rsp,%rbp
    b6c4:	48 83 e4 80          	and    $0xffffffffffffff80,%rsp
    b6c8:	48 81 ec 00 01 00 00 	sub    $0x100,%rsp
    b6cf:	bf 03 00 00 00       	mov    $0x3,%edi
    b6d4:	e8 67 22 00 00       	callq  d940 <__intel_new_proc_init>
    b6d9:	0f ae 1c 24          	stmxcsr (%rsp)
    b6dd:	81 0c 24 40 80 00 00 	orl    $0x8040,(%rsp)
    b6e4:	0f ae 14 24          	ldmxcsr (%rsp)
    b6e8:	31 c0                	xor    %eax,%eax
    b6ea:	b8 01 00 00 00       	mov    $0x1,%eax
    b6ef:	0f a2                	cpuid  
    b6f1:	c1 eb 18             	shr    $0x18,%ebx
    b6f4:	31 c9                	xor    %ecx,%ecx
    b6f6:	01 d9                	add    %ebx,%ecx
    b6f8:	48 c1 e1 19          	shl    $0x19,%rcx
    b6fc:	83 c1 07             	add    $0x7,%ecx
    b6ff:	90                   	nop    
    b700:	e2 fd                	loop   b6ff <main+0x3f>
    b702:	45 31 e4             	xor    %r12d,%r12d
    b705:	eb 1a                	jmp    b721 <main+0x61>
    b707:	31 c0                	xor    %eax,%eax
    b709:	b8 01 00 00 00       	mov    $0x1,%eax
    b70e:	0f a2                	cpuid  
    b710:	c1 eb 18             	shr    $0x18,%ebx
    b713:	31 c0                	xor    %eax,%eax
    b715:	01 d8                	add    %ebx,%eax
    b717:	c1 e0 02             	shl    $0x2,%eax
    b71a:	66 ba f8 03          	mov    $0x3f8,%dx
    b71e:	ee                   	out    %al,(%dx)
    b71f:	31 db                	xor    %ebx,%ebx
    b721:	45 31 ed             	xor    %r13d,%r13d
    b724:	31 db                	xor    %ebx,%ebx
    b726:	c6 84 24 b0 00 00 00 	movb   $0x61,0xb0(%rsp)
    b72d:	61 
    b72e:	c7 84 24 90 00 00 00 	movl   $0x67452301,0x90(%rsp)
    b735:	01 23 45 67 
    b739:	c7 84 24 94 00 00 00 	movl   $0xefcdab89,0x94(%rsp)
    b740:	89 ab cd ef 
    b744:	c7 84 24 98 00 00 00 	movl   $0x98badcfe,0x98(%rsp)
    b74b:	fe dc ba 98 
    b74f:	c7 84 24 9c 00 00 00 	movl   $0x10325476,0x9c(%rsp)
    b756:	76 54 32 10 
    b75a:	0f b6 84 24 b0 00 00 	movzbl 0xb0(%rsp),%eax
    b761:	00 
    b762:	88 44 24 40          	mov    %al,0x40(%rsp)
    b766:	c6 44 24 41 80       	movb   $0x80,0x41(%rsp)
    b76b:	48 8d 54 24 42       	lea    0x42(%rsp),%rdx
    b770:	b8 35 00 00 00       	mov    $0x35,%eax
    b775:	c6 02 00             	movb   $0x0,(%rdx)
    b778:	48 ff c2             	inc    %rdx
    b77b:	48 ff c8             	dec    %rax
    b77e:	48 83 f8 ff          	cmp    $0xffffffffffffffff,%rax
    b782:	75 f1                	jne    b775 <main+0xb5>
    b784:	c7 44 24 78 08 00 00 	movl   $0x8,0x78(%rsp)
    b78b:	00 
    b78c:	48 8d bc 24 90 00 00 	lea    0x90(%rsp),%rdi
    b793:	00 
    b794:	48 8d 74 24 40       	lea    0x40(%rsp),%rsi
    b799:	c7 44 24 7c 00 00 00 	movl   $0x0,0x7c(%rsp)
    b7a0:	00 
    b7a1:	e8 ba 01 00 00       	callq  b960 <md5_compress>
    b7a6:	8b 84 24 90 00 00 00 	mov    0x90(%rsp),%eax
    b7ad:	3d 0c c1 75 b9       	cmp    $0xb975c10c,%eax
    b7b2:	75 46                	jne    b7fa <main+0x13a>
    b7b4:	8b 84 24 94 00 00 00 	mov    0x94(%rsp),%eax
    b7bb:	3d c0 f1 b6 a8       	cmp    $0xa8b6f1c0,%eax
    b7c0:	75 38                	jne    b7fa <main+0x13a>
    b7c2:	8b 84 24 98 00 00 00 	mov    0x98(%rsp),%eax
    b7c9:	3d 31 c3 99 e2       	cmp    $0xe299c331,%eax
    b7ce:	75 2a                	jne    b7fa <main+0x13a>
    b7d0:	8b 84 24 9c 00 00 00 	mov    0x9c(%rsp),%eax
    b7d7:	3d 69 77 26 61       	cmp    $0x61267769,%eax
    b7dc:	75 1c                	jne    b7fa <main+0x13a>
    b7de:	31 c0                	xor    %eax,%eax
    b7e0:	b8 01 00 00 00       	mov    $0x1,%eax
    b7e5:	0f a2                	cpuid  
    b7e7:	c1 eb 18             	shr    $0x18,%ebx
    b7ea:	31 c0                	xor    %eax,%eax
    b7ec:	01 d8                	add    %ebx,%eax
    b7ee:	c1 e0 02             	shl    $0x2,%eax
    b7f1:	66 ba f8 03          	mov    $0x3f8,%dx
    b7f5:	ee                   	out    %al,(%dx)
    b7f6:	31 db                	xor    %ebx,%ebx
    b7f8:	eb 1b                	jmp    b815 <main+0x155>
    b7fa:	31 c0                	xor    %eax,%eax
    b7fc:	b8 01 00 00 00       	mov    $0x1,%eax
    b801:	0f a2                	cpuid  
    b803:	c1 eb 18             	shr    $0x18,%ebx
    b806:	31 c0                	xor    %eax,%eax
    b808:	01 d8                	add    %ebx,%eax
    b80a:	c1 e0 02             	shl    $0x2,%eax
    b80d:	66 ba f8 03          	mov    $0x3f8,%dx
    b811:	83 c0 01             	add    $0x1,%eax
    b814:	ee                   	out    %al,(%dx)
    b815:	ff c3                	inc    %ebx
    b817:	81 fb 40 42 0f 00    	cmp    $0xf4240,%ebx
    b81d:	0f 8e 03 ff ff ff    	jle    b726 <main+0x66>
    b823:	31 db                	xor    %ebx,%ebx
    b825:	c6 84 24 a0 00 00 00 	movb   $0x61,0xa0(%rsp)
    b82c:	61 
    b82d:	41 ff cc             	dec    %r12d
    b830:	c7 84 24 80 00 00 00 	movl   $0x67452301,0x80(%rsp)
    b837:	01 23 45 67 
    b83b:	c7 84 24 84 00 00 00 	movl   $0xefcdab89,0x84(%rsp)
    b842:	89 ab cd ef 
    b846:	c7 84 24 88 00 00 00 	movl   $0x98badcfe,0x88(%rsp)
    b84d:	fe dc ba 98 
    b851:	c7 84 24 8c 00 00 00 	movl   $0x10325476,0x8c(%rsp)
    b858:	76 54 32 10 
    b85c:	0f b6 84 24 a0 00 00 	movzbl 0xa0(%rsp),%eax
    b863:	00 
    b864:	88 04 24             	mov    %al,(%rsp)
    b867:	c6 44 24 01 80       	movb   $0x80,0x1(%rsp)
    b86c:	48 8d 54 24 02       	lea    0x2(%rsp),%rdx
    b871:	b8 35 00 00 00       	mov    $0x35,%eax
    b876:	c6 02 00             	movb   $0x0,(%rdx)
    b879:	48 ff c2             	inc    %rdx
    b87c:	48 ff c8             	dec    %rax
    b87f:	48 83 f8 ff          	cmp    $0xffffffffffffffff,%rax
    b883:	75 f1                	jne    b876 <main+0x1b6>
    b885:	c7 44 24 38 08 00 00 	movl   $0x8,0x38(%rsp)
    b88c:	00 
    b88d:	48 8d bc 24 80 00 00 	lea    0x80(%rsp),%rdi
    b894:	00 
    b895:	48 8d 34 24          	lea    (%rsp),%rsi
    b899:	c7 44 24 3c 00 00 00 	movl   $0x0,0x3c(%rsp)
    b8a0:	00 
    b8a1:	e8 ba 00 00 00       	callq  b960 <md5_compress>
    b8a6:	8b 84 24 80 00 00 00 	mov    0x80(%rsp),%eax
    b8ad:	3d 0c c1 75 b9       	cmp    $0xb975c10c,%eax
    b8b2:	75 46                	jne    b8fa <main+0x23a>
    b8b4:	8b 84 24 84 00 00 00 	mov    0x84(%rsp),%eax
    b8bb:	3d c0 f1 b6 a8       	cmp    $0xa8b6f1c0,%eax
    b8c0:	75 38                	jne    b8fa <main+0x23a>
    b8c2:	8b 84 24 88 00 00 00 	mov    0x88(%rsp),%eax
    b8c9:	3d 31 c3 99 e2       	cmp    $0xe299c331,%eax
    b8ce:	75 2a                	jne    b8fa <main+0x23a>
    b8d0:	8b 84 24 8c 00 00 00 	mov    0x8c(%rsp),%eax
    b8d7:	3d 69 77 26 61       	cmp    $0x61267769,%eax
    b8dc:	75 1c                	jne    b8fa <main+0x23a>
    b8de:	31 c0                	xor    %eax,%eax
    b8e0:	b8 01 00 00 00       	mov    $0x1,%eax
    b8e5:	0f a2                	cpuid  
    b8e7:	c1 eb 18             	shr    $0x18,%ebx
    b8ea:	31 c0                	xor    %eax,%eax
    b8ec:	01 d8                	add    %ebx,%eax
    b8ee:	c1 e0 02             	shl    $0x2,%eax
    b8f1:	66 ba f8 03          	mov    $0x3f8,%dx
    b8f5:	ee                   	out    %al,(%dx)
    b8f6:	31 db                	xor    %ebx,%ebx
    b8f8:	eb 1b                	jmp    b915 <main+0x255>
    b8fa:	31 c0                	xor    %eax,%eax
    b8fc:	b8 01 00 00 00       	mov    $0x1,%eax
    b901:	0f a2                	cpuid  
    b903:	c1 eb 18             	shr    $0x18,%ebx
    b906:	31 c0                	xor    %eax,%eax
    b908:	01 d8                	add    %ebx,%eax
    b90a:	c1 e0 02             	shl    $0x2,%eax
    b90d:	66 ba f8 03          	mov    $0x3f8,%dx
    b911:	83 c0 01             	add    $0x1,%eax
    b914:	ee                   	out    %al,(%dx)
    b915:	ff c3                	inc    %ebx
    b917:	81 fb 40 42 0f 00    	cmp    $0xf4240,%ebx
    b91d:	0f 8e 02 ff ff ff    	jle    b825 <main+0x165>
    b923:	45 85 e4             	test   %r12d,%r12d
    b926:	75 15                	jne    b93d <main+0x27d>
    b928:	41 ff c5             	inc    %r13d
    b92b:	41 81 fd a0 0f 00 00 	cmp    $0xfa0,%r13d
    b932:	0f 8e ec fd ff ff    	jle    b724 <main+0x64>
    b938:	e9 ca fd ff ff       	jmpq   b707 <main+0x47>
    b93d:	31 c0                	xor    %eax,%eax
    b93f:	b8 01 00 00 00       	mov    $0x1,%eax
    b944:	0f a2                	cpuid  
    b946:	c1 eb 18             	shr    $0x18,%ebx
    b949:	31 c0                	xor    %eax,%eax
    b94b:	01 d8                	add    %ebx,%eax
    b94d:	c1 e0 02             	shl    $0x2,%eax
    b950:	66 ba f8 03          	mov    $0x3f8,%dx
    b954:	83 c0 01             	add    $0x1,%eax
    b957:	ee                   	out    %al,(%dx)
    b958:	eb fe                	jmp    b958 <main+0x298>
    b95a:	66 66 90             	xchg   %ax,%ax
    b95d:	66 66 90             	xchg   %ax,%ax

000000000000b960 <md5_compress>:
    b960:	41 57                	push   %r15
    b962:	41 56                	push   %r14
    b964:	41 55                	push   %r13
    b966:	41 54                	push   %r12
    b968:	55                   	push   %rbp
    b969:	53                   	push   %rbx
    b96a:	48 81 ec 98 00 00 00 	sub    $0x98,%rsp
    b971:	8b 07                	mov    (%rdi),%eax
    b973:	8b 5f 04             	mov    0x4(%rdi),%ebx
    b976:	44 8b 7f 08          	mov    0x8(%rdi),%r15d
    b97a:	8b 4f 0c             	mov    0xc(%rdi),%ecx
    b97d:	44 8b 06             	mov    (%rsi),%r8d
    b980:	44 8b 5e 04          	mov    0x4(%rsi),%r11d
    b984:	48 89 7c 24 48       	mov    %rdi,0x48(%rsp)
    b989:	8b 7e 08             	mov    0x8(%rsi),%edi
    b98c:	89 04 24             	mov    %eax,(%rsp)
    b98f:	44 89 fa             	mov    %r15d,%edx
    b992:	89 5c 24 50          	mov    %ebx,0x50(%rsp)
    b996:	44 89 7c 24 58       	mov    %r15d,0x58(%rsp)
    b99b:	89 4c 24 10          	mov    %ecx,0x10(%rsp)
    b99f:	44 89 5c 24 60       	mov    %r11d,0x60(%rsp)
    b9a4:	31 ca                	xor    %ecx,%edx
    b9a6:	89 7c 24 08          	mov    %edi,0x8(%rsp)
    b9aa:	46 8d 14 00          	lea    (%rax,%r8,1),%r10d
    b9ae:	21 da                	and    %ebx,%edx
    b9b0:	31 ca                	xor    %ecx,%edx
    b9b2:	45 8d ac 12 78 a4 6a 	lea    0xffffffffd76aa478(%r10,%rdx,1),%r13d
    b9b9:	d7 
    b9ba:	41 c1 c5 07          	rol    $0x7,%r13d
    b9be:	41 01 dd             	add    %ebx,%r13d
    b9c1:	41 89 d9             	mov    %ebx,%r9d
    b9c4:	45 31 f9             	xor    %r15d,%r9d
    b9c7:	45 21 e9             	and    %r13d,%r9d
    b9ca:	45 31 f9             	xor    %r15d,%r9d
    b9cd:	45 01 d9             	add    %r11d,%r9d
    b9d0:	41 8d ac 09 56 b7 c7 	lea    0xffffffffe8c7b756(%r9,%rcx,1),%ebp
    b9d7:	e8 
    b9d8:	44 8b 4e 0c          	mov    0xc(%rsi),%r9d
    b9dc:	44 89 4c 24 68       	mov    %r9d,0x68(%rsp)
    b9e1:	c1 c5 0c             	rol    $0xc,%ebp
    b9e4:	41 8d 44 2d 00       	lea    0x0(%r13,%rbp,1),%eax
    b9e9:	41 8d ac 2d 2a c6 87 	lea    0x4787c62a(%r13,%rbp,1),%ebp
    b9f0:	47 
    b9f1:	45 8d 14 3f          	lea    (%r15,%rdi,1),%r10d
    b9f5:	44 89 ea             	mov    %r13d,%edx
    b9f8:	31 da                	xor    %ebx,%edx
    b9fa:	21 c2                	and    %eax,%edx
    b9fc:	31 da                	xor    %ebx,%edx
    b9fe:	45 8d 94 12 db 70 20 	lea    0x242070db(%r10,%rdx,1),%r10d
    ba05:	24 
    ba06:	8b 56 10             	mov    0x10(%rsi),%edx
    ba09:	89 54 24 28          	mov    %edx,0x28(%rsp)
    ba0d:	41 c1 c2 11          	rol    $0x11,%r10d
    ba11:	41 01 c2             	add    %eax,%r10d
    ba14:	44 01 cb             	add    %r9d,%ebx
    ba17:	45 89 ec             	mov    %r13d,%r12d
    ba1a:	41 31 c4             	xor    %eax,%r12d
    ba1d:	45 21 d4             	and    %r10d,%r12d
    ba20:	45 31 ec             	xor    %r13d,%r12d
    ba23:	46 8d 8c 23 ee ce bd 	lea    0xffffffffc1bdceee(%rbx,%r12,1),%r9d
    ba2a:	c1 
    ba2b:	41 c1 c1 16          	rol    $0x16,%r9d
    ba2f:	45 01 d1             	add    %r10d,%r9d
    ba32:	41 8d 4c 15 00       	lea    0x0(%r13,%rdx,1),%ecx
    ba37:	45 89 d6             	mov    %r10d,%r14d
    ba3a:	41 31 c6             	xor    %eax,%r14d
    ba3d:	45 21 ce             	and    %r9d,%r14d
    ba40:	44 31 f0             	xor    %r14d,%eax
    ba43:	8d 9c 01 af 0f 7c f5 	lea    0xfffffffff57c0faf(%rcx,%rax,1),%ebx
    ba4a:	8b 46 14             	mov    0x14(%rsi),%eax
    ba4d:	89 44 24 70          	mov    %eax,0x70(%rsp)
    ba51:	c1 c3 07             	rol    $0x7,%ebx
    ba54:	44 01 cb             	add    %r9d,%ebx
    ba57:	44 89 cf             	mov    %r9d,%edi
    ba5a:	44 31 d7             	xor    %r10d,%edi
    ba5d:	21 df                	and    %ebx,%edi
    ba5f:	44 31 d7             	xor    %r10d,%edi
    ba62:	01 c7                	add    %eax,%edi
    ba64:	01 ef                	add    %ebp,%edi
    ba66:	8b 6e 18             	mov    0x18(%rsi),%ebp
    ba69:	89 6c 24 18          	mov    %ebp,0x18(%rsp)
    ba6d:	c1 c7 0c             	rol    $0xc,%edi
    ba70:	8d 0c 3b             	lea    (%rbx,%rdi,1),%ecx
    ba73:	41 01 ea             	add    %ebp,%r10d
    ba76:	41 89 dd             	mov    %ebx,%r13d
    ba79:	45 31 cd             	xor    %r9d,%r13d
    ba7c:	41 21 cd             	and    %ecx,%r13d
    ba7f:	45 31 cd             	xor    %r9d,%r13d
    ba82:	47 8d 94 2a 13 46 30 	lea    0xffffffffa8304613(%r10,%r13,1),%r10d
    ba89:	a8 
    ba8a:	44 8b 6e 1c          	mov    0x1c(%rsi),%r13d
    ba8e:	41 c1 c2 11          	rol    $0x11,%r10d
    ba92:	44 89 6c 24 78       	mov    %r13d,0x78(%rsp)
    ba97:	41 01 ca             	add    %ecx,%r10d
    ba9a:	45 01 e9             	add    %r13d,%r9d
    ba9d:	44 8b 6e 24          	mov    0x24(%rsi),%r13d
    baa1:	44 89 6c 24 38       	mov    %r13d,0x38(%rsp)
    baa6:	41 89 df             	mov    %ebx,%r15d
    baa9:	41 31 cf             	xor    %ecx,%r15d
    baac:	45 21 d7             	and    %r10d,%r15d
    baaf:	41 31 df             	xor    %ebx,%r15d
    bab2:	47 8d b4 39 01 95 46 	lea    0xfffffffffd469501(%r9,%r15,1),%r14d
    bab9:	fd 
    baba:	44 8b 4e 20          	mov    0x20(%rsi),%r9d
    babe:	44 89 4c 24 30       	mov    %r9d,0x30(%rsp)
    bac3:	41 c1 c6 16          	rol    $0x16,%r14d
    bac7:	45 01 d6             	add    %r10d,%r14d
    baca:	41 01 d9             	add    %ebx,%r9d
    bacd:	45 89 d4             	mov    %r10d,%r12d
    bad0:	41 31 cc             	xor    %ecx,%r12d
    bad3:	45 21 f4             	and    %r14d,%r12d
    bad6:	44 31 e1             	xor    %r12d,%ecx
    bad9:	41 8d 8c 09 d8 98 80 	lea    0x698098d8(%r9,%rcx,1),%ecx
    bae0:	69 
    bae1:	44 8b 4e 28          	mov    0x28(%rsi),%r9d
    bae5:	c1 c1 07             	rol    $0x7,%ecx
    bae8:	44 89 4c 24 20       	mov    %r9d,0x20(%rsp)
    baed:	44 01 f1             	add    %r14d,%ecx
    baf0:	45 89 f7             	mov    %r14d,%r15d
    baf3:	45 31 d7             	xor    %r10d,%r15d
    baf6:	41 21 cf             	and    %ecx,%r15d
    baf9:	45 31 d7             	xor    %r10d,%r15d
    bafc:	45 01 ef             	add    %r13d,%r15d
    baff:	8d 9c 3b af f7 44 8b 	lea    0xffffffff8b44f7af(%rbx,%rdi,1),%ebx
    bb06:	41 01 df             	add    %ebx,%r15d
    bb09:	8b 5e 2c             	mov    0x2c(%rsi),%ebx
    bb0c:	41 c1 c7 0c          	rol    $0xc,%r15d
    bb10:	42 8d 3c 39          	lea    (%rcx,%r15,1),%edi
    bb14:	45 01 ca             	add    %r9d,%r10d
    bb17:	41 89 cd             	mov    %ecx,%r13d
    bb1a:	45 31 f5             	xor    %r14d,%r13d
    bb1d:	41 21 fd             	and    %edi,%r13d
    bb20:	45 31 f5             	xor    %r14d,%r13d
    bb23:	47 8d a4 2a b1 5b ff 	lea    0xffffffffffff5bb1(%r10,%r13,1),%r12d
    bb2a:	ff 
    bb2b:	41 c1 c4 11          	rol    $0x11,%r12d
    bb2f:	41 01 fc             	add    %edi,%r12d
    bb32:	41 01 de             	add    %ebx,%r14d
    bb35:	41 89 ca             	mov    %ecx,%r10d
    bb38:	41 31 fa             	xor    %edi,%r10d
    bb3b:	45 21 e2             	and    %r12d,%r10d
    bb3e:	41 31 ca             	xor    %ecx,%r10d
    bb41:	47 8d ac 16 be d7 5c 	lea    0xffffffff895cd7be(%r14,%r10,1),%r13d
    bb48:	89 
    bb49:	44 8b 76 30          	mov    0x30(%rsi),%r14d
    bb4d:	44 89 b4 24 80 00 00 	mov    %r14d,0x80(%rsp)
    bb54:	00 
    bb55:	41 c1 c5 16          	rol    $0x16,%r13d
    bb59:	45 01 e5             	add    %r12d,%r13d
    bb5c:	41 01 ce             	add    %ecx,%r14d
    bb5f:	45 89 e2             	mov    %r12d,%r10d
    bb62:	41 31 fa             	xor    %edi,%r10d
    bb65:	45 21 ea             	and    %r13d,%r10d
    bb68:	44 31 d7             	xor    %r10d,%edi
    bb6b:	42 8d 8c 39 93 71 98 	lea    0xfffffffffd987193(%rcx,%r15,1),%ecx
    bb72:	fd 
    bb73:	45 8d 94 3e 22 11 90 	lea    0x6b901122(%r14,%rdi,1),%r10d
    bb7a:	6b 
    bb7b:	44 8b 76 34          	mov    0x34(%rsi),%r14d
    bb7f:	44 89 74 24 40       	mov    %r14d,0x40(%rsp)
    bb84:	41 c1 c2 07          	rol    $0x7,%r10d
    bb88:	45 01 ea             	add    %r13d,%r10d
    bb8b:	44 89 ef             	mov    %r13d,%edi
    bb8e:	44 31 e7             	xor    %r12d,%edi
    bb91:	44 21 d7             	and    %r10d,%edi
    bb94:	44 31 e7             	xor    %r12d,%edi
    bb97:	44 01 f7             	add    %r14d,%edi
    bb9a:	01 cf                	add    %ecx,%edi
    bb9c:	8b 4e 38             	mov    0x38(%rsi),%ecx
    bb9f:	c1 c7 0c             	rol    $0xc,%edi
    bba2:	45 8d 34 3a          	lea    (%r10,%rdi,1),%r14d
    bba6:	41 01 cc             	add    %ecx,%r12d
    bba9:	45 89 d7             	mov    %r10d,%r15d
    bbac:	45 31 ef             	xor    %r13d,%r15d
    bbaf:	45 21 f7             	and    %r14d,%r15d
    bbb2:	45 31 ef             	xor    %r13d,%r15d
    bbb5:	47 8d bc 3c 8e 43 79 	lea    0xffffffffa679438e(%r12,%r15,1),%r15d
    bbbc:	a6 
    bbbd:	44 8b 66 3c          	mov    0x3c(%rsi),%r12d
    bbc1:	44 89 a4 24 88 00 00 	mov    %r12d,0x88(%rsp)
    bbc8:	00 
    bbc9:	41 c1 c7 11          	rol    $0x11,%r15d
    bbcd:	45 01 f7             	add    %r14d,%r15d
    bbd0:	45 01 e5             	add    %r12d,%r13d
    bbd3:	44 89 d6             	mov    %r10d,%esi
    bbd6:	44 31 f6             	xor    %r14d,%esi
    bbd9:	44 21 fe             	and    %r15d,%esi
    bbdc:	44 31 d6             	xor    %r10d,%esi
    bbdf:	41 8d b4 35 21 08 b4 	lea    0x49b40821(%r13,%rsi,1),%esi
    bbe6:	49 
    bbe7:	c1 c6 16             	rol    $0x16,%esi
    bbea:	44 01 fe             	add    %r15d,%esi
    bbed:	47 8d 2c 1a          	lea    (%r10,%r11,1),%r13d
    bbf1:	41 89 f3             	mov    %esi,%r11d
    bbf4:	45 31 fb             	xor    %r15d,%r11d
    bbf7:	45 21 de             	and    %r11d,%r14d
    bbfa:	45 31 fe             	xor    %r15d,%r14d
    bbfd:	47 8d b4 35 62 25 1e 	lea    0xfffffffff61e2562(%r13,%r14,1),%r14d
    bc04:	f6 
    bc05:	41 c1 c6 05          	rol    $0x5,%r14d
    bc09:	41 01 f6             	add    %esi,%r14d
    bc0c:	45 89 f3             	mov    %r14d,%r11d
    bc0f:	41 31 f3             	xor    %esi,%r11d
    bc12:	45 21 fb             	and    %r15d,%r11d
    bc15:	41 31 f3             	xor    %esi,%r11d
    bc18:	41 01 eb             	add    %ebp,%r11d
    bc1b:	41 8d bc 3a 40 b3 40 	lea    0xffffffffc040b340(%r10,%rdi,1),%edi
    bc22:	c0 
    bc23:	41 01 fb             	add    %edi,%r11d
    bc26:	41 c1 c3 09          	rol    $0x9,%r11d
    bc2a:	43 8d 2c 1e          	lea    (%r14,%r11,1),%ebp
    bc2e:	41 01 df             	add    %ebx,%r15d
    bc31:	45 89 f2             	mov    %r14d,%r10d
    bc34:	47 8d 9c 1e 53 14 44 	lea    0x2441453(%r14,%r11,1),%r11d
    bc3b:	02 
    bc3c:	41 31 ea             	xor    %ebp,%r10d
    bc3f:	41 21 f2             	and    %esi,%r10d
    bc42:	45 31 f2             	xor    %r14d,%r10d
    bc45:	44 01 c6             	add    %r8d,%esi
    bc48:	43 8d bc 17 51 5a 5e 	lea    0x265e5a51(%r15,%r10,1),%edi
    bc4f:	26 
    bc50:	c1 c7 0e             	rol    $0xe,%edi
    bc53:	01 ef                	add    %ebp,%edi
    bc55:	41 89 ff             	mov    %edi,%r15d
    bc58:	41 31 ef             	xor    %ebp,%r15d
    bc5b:	45 21 f7             	and    %r14d,%r15d
    bc5e:	41 31 ef             	xor    %ebp,%r15d
    bc61:	46 8d ac 3e aa c7 b6 	lea    0xffffffffe9b6c7aa(%rsi,%r15,1),%r13d
    bc68:	e9 
    bc69:	41 c1 c5 14          	rol    $0x14,%r13d
    bc6d:	41 01 fd             	add    %edi,%r13d
    bc70:	41 8d 34 06          	lea    (%r14,%rax,1),%esi
    bc74:	45 89 ea             	mov    %r13d,%r10d
    bc77:	41 31 fa             	xor    %edi,%r10d
    bc7a:	44 21 d5             	and    %r10d,%ebp
    bc7d:	31 fd                	xor    %edi,%ebp
    bc7f:	8d b4 2e 5d 10 2f d6 	lea    0xffffffffd62f105d(%rsi,%rbp,1),%esi
    bc86:	c1 c6 05             	rol    $0x5,%esi
    bc89:	44 01 ee             	add    %r13d,%esi
    bc8c:	89 f5                	mov    %esi,%ebp
    bc8e:	44 31 ed             	xor    %r13d,%ebp
    bc91:	21 fd                	and    %edi,%ebp
    bc93:	44 31 ed             	xor    %r13d,%ebp
    bc96:	44 01 cd             	add    %r9d,%ebp
    bc99:	44 01 dd             	add    %r11d,%ebp
    bc9c:	c1 c5 09             	rol    $0x9,%ebp
    bc9f:	44 8d 14 2e          	lea    (%rsi,%rbp,1),%r10d
    bca3:	44 01 e7             	add    %r12d,%edi
    bca6:	41 89 f4             	mov    %esi,%r12d
    bca9:	45 31 d4             	xor    %r10d,%r12d
    bcac:	45 21 ec             	and    %r13d,%r12d
    bcaf:	41 31 f4             	xor    %esi,%r12d
    bcb2:	46 8d b4 27 81 e6 a1 	lea    0xffffffffd8a1e681(%rdi,%r12,1),%r14d
    bcb9:	d8 
    bcba:	41 c1 c6 0e          	rol    $0xe,%r14d
    bcbe:	45 01 d6             	add    %r10d,%r14d
    bcc1:	41 01 d5             	add    %edx,%r13d
    bcc4:	44 89 f7             	mov    %r14d,%edi
    bcc7:	44 31 d7             	xor    %r10d,%edi
    bcca:	21 f7                	and    %esi,%edi
    bccc:	44 31 d7             	xor    %r10d,%edi
    bccf:	45 8d a4 3d c8 fb d3 	lea    0xffffffffe7d3fbc8(%r13,%rdi,1),%r12d
    bcd6:	e7 
    bcd7:	41 c1 c4 14          	rol    $0x14,%r12d
    bcdb:	45 01 f4             	add    %r14d,%r12d
    bcde:	44 8b 6c 24 38       	mov    0x38(%rsp),%r13d
    bce3:	46 8d 3c 2e          	lea    (%rsi,%r13,1),%r15d
    bce7:	44 89 e7             	mov    %r12d,%edi
    bcea:	44 31 f7             	xor    %r14d,%edi
    bced:	41 21 fa             	and    %edi,%r10d
    bcf0:	45 31 f2             	xor    %r14d,%r10d
    bcf3:	43 8d bc 17 e6 cd e1 	lea    0x21e1cde6(%r15,%r10,1),%edi
    bcfa:	21 
    bcfb:	c1 c7 05             	rol    $0x5,%edi
    bcfe:	44 01 e7             	add    %r12d,%edi
    bd01:	41 89 ff             	mov    %edi,%r15d
    bd04:	45 31 e7             	xor    %r12d,%r15d
    bd07:	45 21 f7             	and    %r14d,%r15d
    bd0a:	44 03 74 24 68       	add    0x68(%rsp),%r14d
    bd0f:	45 31 e7             	xor    %r12d,%r15d
    bd12:	41 01 cf             	add    %ecx,%r15d
    bd15:	8d ac 2e d6 07 37 c3 	lea    0xffffffffc33707d6(%rsi,%rbp,1),%ebp
    bd1c:	41 01 ef             	add    %ebp,%r15d
    bd1f:	8b 6c 24 30          	mov    0x30(%rsp),%ebp
    bd23:	41 c1 c7 09          	rol    $0x9,%r15d
    bd27:	42 8d 34 3f          	lea    (%rdi,%r15,1),%esi
    bd2b:	41 89 fa             	mov    %edi,%r10d
    bd2e:	41 31 f2             	xor    %esi,%r10d
    bd31:	45 21 e2             	and    %r12d,%r10d
    bd34:	41 31 fa             	xor    %edi,%r10d
    bd37:	47 8d 9c 16 87 0d d5 	lea    0xfffffffff4d50d87(%r14,%r10,1),%r11d
    bd3e:	f4 
    bd3f:	41 c1 c3 0e          	rol    $0xe,%r11d
    bd43:	41 01 f3             	add    %esi,%r11d
    bd46:	41 01 ec             	add    %ebp,%r12d
    bd49:	45 89 de             	mov    %r11d,%r14d
    bd4c:	41 31 f6             	xor    %esi,%r14d
    bd4f:	41 21 fe             	and    %edi,%r14d
    bd52:	41 31 f6             	xor    %esi,%r14d
    bd55:	47 8d 94 34 ed 14 5a 	lea    0x455a14ed(%r12,%r14,1),%r10d
    bd5c:	45 
    bd5d:	41 c1 c2 14          	rol    $0x14,%r10d
    bd61:	45 01 da             	add    %r11d,%r10d
    bd64:	44 8b 64 24 40       	mov    0x40(%rsp),%r12d
    bd69:	46 8d 34 27          	lea    (%rdi,%r12,1),%r14d
    bd6d:	45 89 d5             	mov    %r10d,%r13d
    bd70:	45 31 dd             	xor    %r11d,%r13d
    bd73:	44 21 ee             	and    %r13d,%esi
    bd76:	44 31 de             	xor    %r11d,%esi
    bd79:	45 8d ac 36 05 e9 e3 	lea    0xffffffffa9e3e905(%r14,%rsi,1),%r13d
    bd80:	a9 
    bd81:	41 c1 c5 05          	rol    $0x5,%r13d
    bd85:	45 01 d5             	add    %r10d,%r13d
    bd88:	44 89 ee             	mov    %r13d,%esi
    bd8b:	44 31 d6             	xor    %r10d,%esi
    bd8e:	44 21 de             	and    %r11d,%esi
    bd91:	44 31 d6             	xor    %r10d,%esi
    bd94:	03 74 24 08          	add    0x8(%rsp),%esi
    bd98:	42 8d bc 3f f8 a3 ef 	lea    0xfffffffffcefa3f8(%rdi,%r15,1),%edi
    bd9f:	fc 
    bda0:	01 fe                	add    %edi,%esi
    bda2:	8b 7c 24 78          	mov    0x78(%rsp),%edi
    bda6:	c1 c6 09             	rol    $0x9,%esi
    bda9:	45 8d 7c 35 00       	lea    0x0(%r13,%rsi,1),%r15d
    bdae:	41 01 fb             	add    %edi,%r11d
    bdb1:	45 89 ee             	mov    %r13d,%r14d
    bdb4:	45 31 fe             	xor    %r15d,%r14d
    bdb7:	45 21 d6             	and    %r10d,%r14d
    bdba:	44 03 94 24 80 00 00 	add    0x80(%rsp),%r10d
    bdc1:	00 
    bdc2:	45 31 ee             	xor    %r13d,%r14d
    bdc5:	44 01 e8             	add    %r13d,%eax
    bdc8:	47 8d b4 33 d9 02 6f 	lea    0x676f02d9(%r11,%r14,1),%r14d
    bdcf:	67 
    bdd0:	41 c1 c6 0e          	rol    $0xe,%r14d
    bdd4:	45 01 fe             	add    %r15d,%r14d
    bdd7:	45 89 f3             	mov    %r14d,%r11d
    bdda:	45 31 fb             	xor    %r15d,%r11d
    bddd:	45 21 eb             	and    %r13d,%r11d
    bde0:	45 31 fb             	xor    %r15d,%r11d
    bde3:	47 8d 94 1a 8a 4c 2a 	lea    0xffffffff8d2a4c8a(%r10,%r11,1),%r10d
    bdea:	8d 
    bdeb:	41 c1 c2 14          	rol    $0x14,%r10d
    bdef:	45 01 f2             	add    %r14d,%r10d
    bdf2:	45 89 d3             	mov    %r10d,%r11d
    bdf5:	45 31 f3             	xor    %r14d,%r11d
    bdf8:	45 31 fb             	xor    %r15d,%r11d
    bdfb:	46 8d bc 18 42 39 fa 	lea    0xfffffffffffa3942(%rax,%r11,1),%r15d
    be02:	ff 
    be03:	41 c1 c7 04          	rol    $0x4,%r15d
    be07:	45 01 d7             	add    %r10d,%r15d
    be0a:	45 89 fb             	mov    %r15d,%r11d
    be0d:	45 31 d3             	xor    %r10d,%r11d
    be10:	45 31 f3             	xor    %r14d,%r11d
    be13:	41 01 eb             	add    %ebp,%r11d
    be16:	41 8d 84 35 81 f6 71 	lea    0xffffffff8771f681(%r13,%rsi,1),%eax
    be1d:	87 
    be1e:	41 01 c3             	add    %eax,%r11d
    be21:	41 c1 c3 0b          	rol    $0xb,%r11d
    be25:	43 8d 2c 1f          	lea    (%r15,%r11,1),%ebp
    be29:	8b 44 24 60          	mov    0x60(%rsp),%eax
    be2d:	41 01 de             	add    %ebx,%r14d
    be30:	45 89 fd             	mov    %r15d,%r13d
    be33:	41 31 ed             	xor    %ebp,%r13d
    be36:	45 31 d5             	xor    %r10d,%r13d
    be39:	41 01 ca             	add    %ecx,%r10d
    be3c:	47 8d b4 2e 22 61 9d 	lea    0x6d9d6122(%r14,%r13,1),%r14d
    be43:	6d 
    be44:	41 c1 c6 10          	rol    $0x10,%r14d
    be48:	41 01 ee             	add    %ebp,%r14d
    be4b:	44 89 f6             	mov    %r14d,%esi
    be4e:	31 ee                	xor    %ebp,%esi
    be50:	44 31 fe             	xor    %r15d,%esi
    be53:	41 8d b4 32 0c 38 e5 	lea    0xfffffffffde5380c(%r10,%rsi,1),%esi
    be5a:	fd 
    be5b:	c1 c6 17             	rol    $0x17,%esi
    be5e:	44 01 f6             	add    %r14d,%esi
    be61:	45 8d 14 07          	lea    (%r15,%rax,1),%r10d
    be65:	41 89 f5             	mov    %esi,%r13d
    be68:	45 31 f5             	xor    %r14d,%r13d
    be6b:	41 31 ed             	xor    %ebp,%r13d
    be6e:	43 8d ac 2a 44 ea be 	lea    0xffffffffa4beea44(%r10,%r13,1),%ebp
    be75:	a4 
    be76:	c1 c5 04             	rol    $0x4,%ebp
    be79:	01 f5                	add    %esi,%ebp
    be7b:	41 89 ea             	mov    %ebp,%r10d
    be7e:	41 31 f2             	xor    %esi,%r10d
    be81:	45 31 f2             	xor    %r14d,%r10d
    be84:	41 01 d2             	add    %edx,%r10d
    be87:	43 8d 94 1f a9 cf de 	lea    0x4bdecfa9(%r15,%r11,1),%edx
    be8e:	4b 
    be8f:	41 01 d2             	add    %edx,%r10d
    be92:	41 c1 c2 0b          	rol    $0xb,%r10d
    be96:	42 8d 54 15 00       	lea    0x0(%rbp,%r10,1),%edx
    be9b:	41 01 fe             	add    %edi,%r14d
    be9e:	41 89 ef             	mov    %ebp,%r15d
    bea1:	41 31 d7             	xor    %edx,%r15d
    bea4:	41 31 f7             	xor    %esi,%r15d
    bea7:	47 8d b4 3e 60 4b bb 	lea    0xfffffffff6bb4b60(%r14,%r15,1),%r14d
    beae:	f6 
    beaf:	41 c1 c6 10          	rol    $0x10,%r14d
    beb3:	44 8b 7c 24 38       	mov    0x38(%rsp),%r15d
    beb8:	41 01 d6             	add    %edx,%r14d
    bebb:	44 01 ce             	add    %r9d,%esi
    bebe:	45 89 f1             	mov    %r14d,%r9d
    bec1:	41 31 d1             	xor    %edx,%r9d
    bec4:	41 31 e9             	xor    %ebp,%r9d
    bec7:	46 8d 9c 0e 70 bc bf 	lea    0xffffffffbebfbc70(%rsi,%r9,1),%r11d
    bece:	be 
    becf:	41 c1 c3 17          	rol    $0x17,%r11d
    bed3:	45 01 f3             	add    %r14d,%r11d
    bed6:	46 8d 4c 25 00       	lea    0x0(%rbp,%r12,1),%r9d
    bedb:	45 89 dd             	mov    %r11d,%r13d
    bede:	45 31 f5             	xor    %r14d,%r13d
    bee1:	41 31 d5             	xor    %edx,%r13d
    bee4:	43 8d 94 29 c6 7e 9b 	lea    0x289b7ec6(%r9,%r13,1),%edx
    beeb:	28 
    beec:	c1 c2 04             	rol    $0x4,%edx
    beef:	44 01 da             	add    %r11d,%edx
    bef2:	41 89 d1             	mov    %edx,%r9d
    bef5:	45 31 d9             	xor    %r11d,%r9d
    bef8:	45 31 f1             	xor    %r14d,%r9d
    befb:	45 01 c1             	add    %r8d,%r9d
    befe:	42 8d ac 15 fa 27 a1 	lea    0xffffffffeaa127fa(%rbp,%r10,1),%ebp
    bf05:	ea 
    bf06:	41 01 e9             	add    %ebp,%r9d
    bf09:	41 c1 c1 0b          	rol    $0xb,%r9d
    bf0d:	46 8d 2c 0a          	lea    (%rdx,%r9,1),%r13d
    bf11:	8b 6c 24 68          	mov    0x68(%rsp),%ebp
    bf15:	41 01 ee             	add    %ebp,%r14d
    bf18:	41 89 d4             	mov    %edx,%r12d
    bf1b:	45 31 ec             	xor    %r13d,%r12d
    bf1e:	45 31 dc             	xor    %r11d,%r12d
    bf21:	47 8d 94 26 85 30 ef 	lea    0xffffffffd4ef3085(%r14,%r12,1),%r10d
    bf28:	d4 
    bf29:	44 03 5c 24 18       	add    0x18(%rsp),%r11d
    bf2e:	41 c1 c2 10          	rol    $0x10,%r10d
    bf32:	45 01 ea             	add    %r13d,%r10d
    bf35:	44 89 d6             	mov    %r10d,%esi
    bf38:	44 31 ee             	xor    %r13d,%esi
    bf3b:	31 d6                	xor    %edx,%esi
    bf3d:	45 8d a4 33 05 1d 88 	lea    0x4881d05(%r11,%rsi,1),%r12d
    bf44:	04 
    bf45:	41 c1 c4 17          	rol    $0x17,%r12d
    bf49:	45 01 d4             	add    %r10d,%r12d
    bf4c:	46 8d 1c 3a          	lea    (%rdx,%r15,1),%r11d
    bf50:	45 89 e6             	mov    %r12d,%r14d
    bf53:	45 31 d6             	xor    %r10d,%r14d
    bf56:	45 31 ee             	xor    %r13d,%r14d
    bf59:	44 8b ac 24 80 00 00 	mov    0x80(%rsp),%r13d
    bf60:	00 
    bf61:	47 8d bc 33 39 d0 d4 	lea    0xffffffffd9d4d039(%r11,%r14,1),%r15d
    bf68:	d9 
    bf69:	41 c1 c7 04          	rol    $0x4,%r15d
    bf6d:	45 01 e7             	add    %r12d,%r15d
    bf70:	44 89 fe             	mov    %r15d,%esi
    bf73:	44 31 e6             	xor    %r12d,%esi
    bf76:	44 31 d6             	xor    %r10d,%esi
    bf79:	44 01 ee             	add    %r13d,%esi
    bf7c:	42 8d 94 0a e5 99 db 	lea    0xffffffffe6db99e5(%rdx,%r9,1),%edx
    bf83:	e6 
    bf84:	01 d6                	add    %edx,%esi
    bf86:	8b 94 24 88 00 00 00 	mov    0x88(%rsp),%edx
    bf8d:	c1 c6 0b             	rol    $0xb,%esi
    bf90:	45 8d 1c 37          	lea    (%r15,%rsi,1),%r11d
    bf94:	41 01 d2             	add    %edx,%r10d
    bf97:	45 89 f9             	mov    %r15d,%r9d
    bf9a:	45 31 d9             	xor    %r11d,%r9d
    bf9d:	45 31 e1             	xor    %r12d,%r9d
    bfa0:	44 03 64 24 08       	add    0x8(%rsp),%r12d
    bfa5:	45 01 f8             	add    %r15d,%r8d
    bfa8:	47 8d 94 0a f8 7c a2 	lea    0x1fa27cf8(%r10,%r9,1),%r10d
    bfaf:	1f 
    bfb0:	41 c1 c2 10          	rol    $0x10,%r10d
    bfb4:	45 01 da             	add    %r11d,%r10d
    bfb7:	45 89 d6             	mov    %r10d,%r14d
    bfba:	45 31 de             	xor    %r11d,%r14d
    bfbd:	45 31 fe             	xor    %r15d,%r14d
    bfc0:	47 8d 8c 34 65 56 ac 	lea    0xffffffffc4ac5665(%r12,%r14,1),%r9d
    bfc7:	c4 
    bfc8:	45 8d a4 37 97 ff 2a 	lea    0x432aff97(%r15,%rsi,1),%r12d
    bfcf:	43 
    bfd0:	41 c1 c1 17          	rol    $0x17,%r9d
    bfd4:	45 01 d1             	add    %r10d,%r9d
    bfd7:	41 f7 d3             	not    %r11d
    bfda:	45 09 cb             	or     %r9d,%r11d
    bfdd:	45 31 d3             	xor    %r10d,%r11d
    bfe0:	47 8d 84 18 44 22 29 	lea    0xfffffffff4292244(%r8,%r11,1),%r8d
    bfe7:	f4 
    bfe8:	41 c1 c0 06          	rol    $0x6,%r8d
    bfec:	45 01 c8             	add    %r9d,%r8d
    bfef:	45 89 d3             	mov    %r10d,%r11d
    bff2:	41 f7 d3             	not    %r11d
    bff5:	45 09 c3             	or     %r8d,%r11d
    bff8:	45 31 cb             	xor    %r9d,%r11d
    bffb:	44 01 df             	add    %r11d,%edi
    bffe:	44 01 e7             	add    %r12d,%edi
    c001:	c1 c7 0a             	rol    $0xa,%edi
    c004:	45 8d 3c 38          	lea    (%r8,%rdi,1),%r15d
    c008:	41 01 ca             	add    %ecx,%r10d
    c00b:	44 89 c9             	mov    %r9d,%ecx
    c00e:	44 03 4c 24 70       	add    0x70(%rsp),%r9d
    c013:	f7 d1                	not    %ecx
    c015:	44 09 f9             	or     %r15d,%ecx
    c018:	44 31 c1             	xor    %r8d,%ecx
    c01b:	45 8d 94 0a a7 23 94 	lea    0xffffffffab9423a7(%r10,%rcx,1),%r10d
    c022:	ab 
    c023:	41 c1 c2 0f          	rol    $0xf,%r10d
    c027:	45 01 fa             	add    %r15d,%r10d
    c02a:	44 89 c6             	mov    %r8d,%esi
    c02d:	f7 d6                	not    %esi
    c02f:	44 09 d6             	or     %r10d,%esi
    c032:	44 31 fe             	xor    %r15d,%esi
    c035:	45 8d 8c 31 39 a0 93 	lea    0xfffffffffc93a039(%r9,%rsi,1),%r9d
    c03c:	fc 
    c03d:	41 c1 c1 15          	rol    $0x15,%r9d
    c041:	45 01 d1             	add    %r10d,%r9d
    c044:	8b 74 24 50          	mov    0x50(%rsp),%esi
    c048:	45 01 c5             	add    %r8d,%r13d
    c04b:	41 f7 d7             	not    %r15d
    c04e:	45 09 cf             	or     %r9d,%r15d
    c051:	45 31 d7             	xor    %r10d,%r15d
    c054:	45 8d 9c 38 92 cc 0c 	lea    0xffffffff8f0ccc92(%r8,%rdi,1),%r11d
    c05b:	8f 
    c05c:	8b 7c 24 58          	mov    0x58(%rsp),%edi
    c060:	4c 8b 44 24 48       	mov    0x48(%rsp),%r8
    c065:	43 8d 8c 3d c3 59 5b 	lea    0x655b59c3(%r13,%r15,1),%ecx
    c06c:	65 
    c06d:	c1 c1 06             	rol    $0x6,%ecx
    c070:	44 01 c9             	add    %r9d,%ecx
    c073:	45 89 d5             	mov    %r10d,%r13d
    c076:	41 f7 d5             	not    %r13d
    c079:	41 09 cd             	or     %ecx,%r13d
    c07c:	45 31 cd             	xor    %r9d,%r13d
    c07f:	44 01 ed             	add    %r13d,%ebp
    c082:	44 03 54 24 20       	add    0x20(%rsp),%r10d
    c087:	44 01 dd             	add    %r11d,%ebp
    c08a:	c1 c5 0a             	rol    $0xa,%ebp
    c08d:	44 8d 2c 29          	lea    (%rcx,%rbp,1),%r13d
    c091:	45 89 ce             	mov    %r9d,%r14d
    c094:	41 f7 d6             	not    %r14d
    c097:	45 09 ee             	or     %r13d,%r14d
    c09a:	41 31 ce             	xor    %ecx,%r14d
    c09d:	47 8d a4 32 7d f4 ef 	lea    0xffffffffffeff47d(%r10,%r14,1),%r12d
    c0a4:	ff 
    c0a5:	41 c1 c4 0f          	rol    $0xf,%r12d
    c0a9:	45 01 ec             	add    %r13d,%r12d
    c0ac:	41 01 c1             	add    %eax,%r9d
    c0af:	8b 44 24 30          	mov    0x30(%rsp),%eax
    c0b3:	41 89 cf             	mov    %ecx,%r15d
    c0b6:	41 f7 d7             	not    %r15d
    c0b9:	45 09 e7             	or     %r12d,%r15d
    c0bc:	45 31 ef             	xor    %r13d,%r15d
    c0bf:	47 8d 9c 39 d1 5d 84 	lea    0xffffffff85845dd1(%r9,%r15,1),%r11d
    c0c6:	85 
    c0c7:	41 c1 c3 15          	rol    $0x15,%r11d
    c0cb:	45 01 e3             	add    %r12d,%r11d
    c0ce:	01 c8                	add    %ecx,%eax
    c0d0:	41 f7 d5             	not    %r13d
    c0d3:	45 09 dd             	or     %r11d,%r13d
    c0d6:	45 31 e5             	xor    %r12d,%r13d
    c0d9:	46 8d 94 28 4f 7e a8 	lea    0x6fa87e4f(%rax,%r13,1),%r10d
    c0e0:	6f 
    c0e1:	41 c1 c2 06          	rol    $0x6,%r10d
    c0e5:	45 01 da             	add    %r11d,%r10d
    c0e8:	45 89 e1             	mov    %r12d,%r9d
    c0eb:	41 f7 d1             	not    %r9d
    c0ee:	44 03 64 24 18       	add    0x18(%rsp),%r12d
    c0f3:	45 09 d1             	or     %r10d,%r9d
    c0f6:	45 31 d9             	xor    %r11d,%r9d
    c0f9:	44 01 ca             	add    %r9d,%edx
    c0fc:	8d ac 29 e0 e6 2c fe 	lea    0xfffffffffe2ce6e0(%rcx,%rbp,1),%ebp
    c103:	01 ea                	add    %ebp,%edx
    c105:	c1 c2 0a             	rol    $0xa,%edx
    c108:	45 8d 2c 12          	lea    (%r10,%rdx,1),%r13d
    c10c:	44 89 d9             	mov    %r11d,%ecx
    c10f:	f7 d1                	not    %ecx
    c111:	44 09 e9             	or     %r13d,%ecx
    c114:	44 03 5c 24 40       	add    0x40(%rsp),%r11d
    c119:	44 31 d1             	xor    %r10d,%ecx
    c11c:	45 8d 8c 0c 14 43 01 	lea    0xffffffffa3014314(%r12,%rcx,1),%r9d
    c123:	a3 
    c124:	41 c1 c1 0f          	rol    $0xf,%r9d
    c128:	45 01 e9             	add    %r13d,%r9d
    c12b:	44 89 d0             	mov    %r10d,%eax
    c12e:	f7 d0                	not    %eax
    c130:	44 09 c8             	or     %r9d,%eax
    c133:	44 31 e8             	xor    %r13d,%eax
    c136:	41 f7 d5             	not    %r13d
    c139:	45 89 cc             	mov    %r9d,%r12d
    c13c:	41 8d 84 03 a1 11 08 	lea    0x4e0811a1(%r11,%rax,1),%eax
    c143:	4e 
    c144:	44 8b 5c 24 28       	mov    0x28(%rsp),%r11d
    c149:	c1 c0 15             	rol    $0x15,%eax
    c14c:	44 01 c8             	add    %r9d,%eax
    c14f:	45 01 d3             	add    %r10d,%r11d
    c152:	41 09 c5             	or     %eax,%r13d
    c155:	45 31 cd             	xor    %r9d,%r13d
    c158:	44 03 4c 24 08       	add    0x8(%rsp),%r9d
    c15d:	43 8d 8c 2b 82 7e 53 	lea    0xfffffffff7537e82(%r11,%r13,1),%ecx
    c164:	f7 
    c165:	c1 c1 06             	rol    $0x6,%ecx
    c168:	01 c1                	add    %eax,%ecx
    c16a:	41 f7 d4             	not    %r12d
    c16d:	41 09 cc             	or     %ecx,%r12d
    c170:	41 31 c4             	xor    %eax,%r12d
    c173:	44 01 e3             	add    %r12d,%ebx
    c176:	41 8d 94 12 35 f2 3a 	lea    0xffffffffbd3af235(%r10,%rdx,1),%edx
    c17d:	bd 
    c17e:	01 d3                	add    %edx,%ebx
    c180:	c1 c3 0a             	rol    $0xa,%ebx
    c183:	01 cb                	add    %ecx,%ebx
    c185:	41 89 c2             	mov    %eax,%r10d
    c188:	41 f7 d2             	not    %r10d
    c18b:	41 09 da             	or     %ebx,%r10d
    c18e:	03 44 24 38          	add    0x38(%rsp),%eax
    c192:	41 31 ca             	xor    %ecx,%r10d
    c195:	43 8d ac 11 bb d2 d7 	lea    0x2ad7d2bb(%r9,%r10,1),%ebp
    c19c:	2a 
    c19d:	c1 c5 0f             	rol    $0xf,%ebp
    c1a0:	01 dd                	add    %ebx,%ebp
    c1a2:	41 89 c9             	mov    %ecx,%r9d
    c1a5:	41 f7 d1             	not    %r9d
    c1a8:	41 09 e9             	or     %ebp,%r9d
    c1ab:	41 31 d9             	xor    %ebx,%r9d
    c1ae:	46 8d 9c 08 91 d3 86 	lea    0xffffffffeb86d391(%rax,%r9,1),%r11d
    c1b5:	eb 
    c1b6:	41 c1 c3 15          	rol    $0x15,%r11d
    c1ba:	03 5c 24 10          	add    0x10(%rsp),%ebx
    c1be:	8b 04 24             	mov    (%rsp),%eax
    c1c1:	41 01 eb             	add    %ebp,%r11d
    c1c4:	01 c8                	add    %ecx,%eax
    c1c6:	41 89 00             	mov    %eax,(%r8)
    c1c9:	44 01 de             	add    %r11d,%esi
    c1cc:	41 89 70 04          	mov    %esi,0x4(%r8)
    c1d0:	01 ef                	add    %ebp,%edi
    c1d2:	41 89 78 08          	mov    %edi,0x8(%r8)
    c1d6:	41 89 58 0c          	mov    %ebx,0xc(%r8)
    c1da:	48 81 c4 98 00 00 00 	add    $0x98,%rsp
    c1e1:	5b                   	pop    %rbx
    c1e2:	5d                   	pop    %rbp
    c1e3:	41 5c                	pop    %r12
    c1e5:	41 5d                	pop    %r13
    c1e7:	41 5e                	pop    %r14
    c1e9:	41 5f                	pop    %r15
    c1eb:	c3                   	retq   
    c1ec:	66 66 66 90          	xchg   %ax,%ax

000000000000c1f0 <main_test>:
    c1f0:	56                   	push   %rsi
    c1f1:	31 db                	xor    %ebx,%ebx
    c1f3:	eb 05                	jmp    c1fa <main_test+0xa>
    c1f5:	e8 d6 01 00 00       	callq  c3d0 <correct>
    c1fa:	31 ed                	xor    %ebp,%ebp
    c1fc:	45 31 e4             	xor    %r12d,%r12d
    c1ff:	e8 7c 00 00 00       	callq  c280 <self_check>
    c204:	85 c0                	test   %eax,%eax
    c206:	75 07                	jne    c20f <main_test+0x1f>
    c208:	e8 e3 01 00 00       	callq  c3f0 <sdc>
    c20d:	eb 0a                	jmp    c219 <main_test+0x29>
    c20f:	83 f8 01             	cmp    $0x1,%eax
    c212:	75 05                	jne    c219 <main_test+0x29>
    c214:	e8 b7 01 00 00       	callq  c3d0 <correct>
    c219:	41 ff c4             	inc    %r12d
    c21c:	41 81 fc 40 42 0f 00 	cmp    $0xf4240,%r12d
    c223:	7e da                	jle    c1ff <main_test+0xf>
    c225:	45 31 e4             	xor    %r12d,%r12d
    c228:	ff cb                	dec    %ebx
    c22a:	e8 51 00 00 00       	callq  c280 <self_check>
    c22f:	85 c0                	test   %eax,%eax
    c231:	75 07                	jne    c23a <main_test+0x4a>
    c233:	e8 b8 01 00 00       	callq  c3f0 <sdc>
    c238:	eb 0a                	jmp    c244 <main_test+0x54>
    c23a:	83 f8 01             	cmp    $0x1,%eax
    c23d:	75 05                	jne    c244 <main_test+0x54>
    c23f:	e8 8c 01 00 00       	callq  c3d0 <correct>
    c244:	41 ff c4             	inc    %r12d
    c247:	41 81 fc 40 42 0f 00 	cmp    $0xf4240,%r12d
    c24e:	7e d8                	jle    c228 <main_test+0x38>
    c250:	90                   	nop    
    c251:	90                   	nop    
    c252:	85 db                	test   %ebx,%ebx
    c254:	75 0c                	jne    c262 <main_test+0x72>
    c256:	ff c5                	inc    %ebp
    c258:	81 fd a0 0f 00 00    	cmp    $0xfa0,%ebp
    c25e:	7e 9c                	jle    c1fc <main_test+0xc>
    c260:	eb 93                	jmp    c1f5 <main_test+0x5>
    c262:	90                   	nop    
    c263:	90                   	nop    
    c264:	48 8d bf 00 00 00 00 	lea    0x0(%rdi),%rdi
    c26b:	e8 80 01 00 00       	callq  c3f0 <sdc>
    c270:	eb fe                	jmp    c270 <main_test+0x80>
    c272:	66 66 66 90          	xchg   %ax,%ax
    c276:	66 66 66 90          	xchg   %ax,%ax
    c27a:	66 66 90             	xchg   %ax,%ax
    c27d:	66 66 90             	xchg   %ax,%ax

000000000000c280 <self_check>:
    c280:	48 83 ec 18          	sub    $0x18,%rsp
    c284:	c6 44 24 10 61       	movb   $0x61,0x10(%rsp)
    c289:	be 01 00 00 00       	mov    $0x1,%esi
    c28e:	48 8d 7c 24 10       	lea    0x10(%rsp),%rdi
    c293:	48 8d 14 24          	lea    (%rsp),%rdx
    c297:	e8 44 00 00 00       	callq  c2e0 <md5_hash>
    c29c:	8b 04 24             	mov    (%rsp),%eax
    c29f:	3d 0c c1 75 b9       	cmp    $0xb975c10c,%eax
    c2a4:	75 2b                	jne    c2d1 <self_check+0x51>
    c2a6:	8b 44 24 04          	mov    0x4(%rsp),%eax
    c2aa:	3d c0 f1 b6 a8       	cmp    $0xa8b6f1c0,%eax
    c2af:	75 20                	jne    c2d1 <self_check+0x51>
    c2b1:	8b 44 24 08          	mov    0x8(%rsp),%eax
    c2b5:	3d 31 c3 99 e2       	cmp    $0xe299c331,%eax
    c2ba:	75 15                	jne    c2d1 <self_check+0x51>
    c2bc:	8b 44 24 0c          	mov    0xc(%rsp),%eax
    c2c0:	3d 69 77 26 61       	cmp    $0x61267769,%eax
    c2c5:	75 0a                	jne    c2d1 <self_check+0x51>
    c2c7:	b8 01 00 00 00       	mov    $0x1,%eax
    c2cc:	48 83 c4 18          	add    $0x18,%rsp
    c2d0:	c3                   	retq   
    c2d1:	31 c0                	xor    %eax,%eax
    c2d3:	48 83 c4 18          	add    $0x18,%rsp
    c2d7:	c3                   	retq   
    c2d8:	66 66 66 90          	xchg   %ax,%ax
    c2dc:	66 66 66 90          	xchg   %ax,%ax

000000000000c2e0 <md5_hash>:
    c2e0:	41 57                	push   %r15
    c2e2:	48 83 ec 40          	sub    $0x40,%rsp
    c2e6:	49 89 d7             	mov    %rdx,%r15
    c2e9:	41 c7 07 01 23 45 67 	movl   $0x67452301,(%r15)
    c2f0:	41 c7 47 04 89 ab cd 	movl   $0xefcdab89,0x4(%r15)
    c2f7:	ef 
    c2f8:	41 c7 47 08 fe dc ba 	movl   $0x98badcfe,0x8(%r15)
    c2ff:	98 
    c300:	41 c7 47 0c 76 54 32 	movl   $0x10325476,0xc(%r15)
    c307:	10 
    c308:	0f b6 07             	movzbl (%rdi),%eax
    c30b:	88 04 24             	mov    %al,(%rsp)
    c30e:	c6 44 24 01 80       	movb   $0x80,0x1(%rsp)
    c313:	48 8d 7c 24 02       	lea    0x2(%rsp),%rdi
    c318:	31 f6                	xor    %esi,%esi
    c31a:	ba 36 00 00 00       	mov    $0x36,%edx
    c31f:	e8 2c 00 00 00       	callq  c350 <memset_nik>
    c324:	c7 44 24 38 08 00 00 	movl   $0x8,0x38(%rsp)
    c32b:	00 
    c32c:	48 8d 34 24          	lea    (%rsp),%rsi
    c330:	4c 89 ff             	mov    %r15,%rdi
    c333:	c7 44 24 3c 00 00 00 	movl   $0x0,0x3c(%rsp)
    c33a:	00 
    c33b:	e8 20 f6 ff ff       	callq  b960 <md5_compress>
    c340:	48 83 c4 40          	add    $0x40,%rsp
    c344:	41 5f                	pop    %r15
    c346:	c3                   	retq   
    c347:	66 66 90             	xchg   %ax,%ax
    c34a:	66 66 90             	xchg   %ax,%ax
    c34d:	66 66 90             	xchg   %ax,%ax

000000000000c350 <memset_nik>:
    c350:	48 85 d2             	test   %rdx,%rdx
    c353:	74 69                	je     c3be <memset_nik+0x6e>
    c355:	49 89 f8             	mov    %rdi,%r8
    c358:	49 83 e0 0f          	and    $0xf,%r8
    c35c:	4c 89 c1             	mov    %r8,%rcx
    c35f:	48 f7 d9             	neg    %rcx
    c362:	48 83 c1 10          	add    $0x10,%rcx
    c366:	49 83 f8 00          	cmp    $0x0,%r8
    c36a:	4c 0f 45 c1          	cmovne %rcx,%r8
    c36e:	49 8d 70 10          	lea    0x10(%r8),%rsi
    c372:	48 39 f2             	cmp    %rsi,%rdx
    c375:	7c 4b                	jl     c3c2 <memset_nik+0x72>
    c377:	48 89 d6             	mov    %rdx,%rsi
    c37a:	4c 29 c6             	sub    %r8,%rsi
    c37d:	48 83 e6 0f          	and    $0xf,%rsi
    c381:	48 f7 de             	neg    %rsi
    c384:	48 01 d6             	add    %rdx,%rsi
    c387:	31 c9                	xor    %ecx,%ecx
    c389:	4d 85 c0             	test   %r8,%r8
    c38c:	76 0c                	jbe    c39a <memset_nik+0x4a>
    c38e:	c6 04 39 00          	movb   $0x0,(%rcx,%rdi,1)
    c392:	48 ff c1             	inc    %rcx
    c395:	4c 39 c1             	cmp    %r8,%rcx
    c398:	72 f4                	jb     c38e <memset_nik+0x3e>
    c39a:	66 0f ef c0          	pxor   %xmm0,%xmm0
    c39e:	66 41 0f 7f 04 38    	movdqa %xmm0,(%r8,%rdi,1)
    c3a4:	49 83 c0 10          	add    $0x10,%r8
    c3a8:	49 39 f0             	cmp    %rsi,%r8
    c3ab:	72 f1                	jb     c39e <memset_nik+0x4e>
    c3ad:	48 39 d6             	cmp    %rdx,%rsi
    c3b0:	73 0c                	jae    c3be <memset_nik+0x6e>
    c3b2:	c6 04 3e 00          	movb   $0x0,(%rsi,%rdi,1)
    c3b6:	48 ff c6             	inc    %rsi
    c3b9:	48 39 d6             	cmp    %rdx,%rsi
    c3bc:	72 f4                	jb     c3b2 <memset_nik+0x62>
    c3be:	48 89 f8             	mov    %rdi,%rax
    c3c1:	c3                   	retq   
    c3c2:	31 f6                	xor    %esi,%esi
    c3c4:	eb e7                	jmp    c3ad <memset_nik+0x5d>
    c3c6:	66 66 66 90          	xchg   %ax,%ax
    c3ca:	66 66 90             	xchg   %ax,%ax
    c3cd:	66 66 90             	xchg   %ax,%ax

000000000000c3d0 <correct>:
    c3d0:	31 c0                	xor    %eax,%eax
    c3d2:	b8 01 00 00 00       	mov    $0x1,%eax
    c3d7:	0f a2                	cpuid  
    c3d9:	c1 eb 18             	shr    $0x18,%ebx
    c3dc:	31 c0                	xor    %eax,%eax
    c3de:	01 d8                	add    %ebx,%eax
    c3e0:	c1 e0 02             	shl    $0x2,%eax
    c3e3:	66 ba f8 03          	mov    $0x3f8,%dx
    c3e7:	ee                   	out    %al,(%dx)
    c3e8:	31 db                	xor    %ebx,%ebx
    c3ea:	c3                   	retq   
    c3eb:	66 66 90             	xchg   %ax,%ax
    c3ee:	66 90                	xchg   %ax,%ax

000000000000c3f0 <sdc>:
    c3f0:	31 c0                	xor    %eax,%eax
    c3f2:	b8 01 00 00 00       	mov    $0x1,%eax
    c3f7:	0f a2                	cpuid  
    c3f9:	c1 eb 18             	shr    $0x18,%ebx
    c3fc:	31 c0                	xor    %eax,%eax
    c3fe:	01 d8                	add    %ebx,%eax
    c400:	c1 e0 02             	shl    $0x2,%eax
    c403:	66 ba f8 03          	mov    $0x3f8,%dx
    c407:	83 c0 01             	add    $0x1,%eax
    c40a:	ee                   	out    %al,(%dx)
    c40b:	c3                   	retq   
    c40c:	66 66 66 90          	xchg   %ax,%ax

000000000000c410 <start_delay>:
    c410:	31 c0                	xor    %eax,%eax
    c412:	b8 01 00 00 00       	mov    $0x1,%eax
    c417:	0f a2                	cpuid  
    c419:	c1 eb 12             	shr    $0x12,%ebx
    c41c:	31 c9                	xor    %ecx,%ecx
    c41e:	01 d9                	add    %ebx,%ecx
    c420:	48 c1 e1 14          	shl    $0x14,%rcx
    c424:	e2 fe                	loop   c424 <start_delay+0x14>
    c426:	c3                   	retq   
    c427:	66 66 90             	xchg   %ax,%ax
    c42a:	66 66 90             	xchg   %ax,%ax
    c42d:	66 66 90             	xchg   %ax,%ax

