
stupid.l:     file format elf64-x86-64

Disassembly of section .init:

000000000000b518 <_init>:
    b518:	48 83 ec 08          	sub    $0x8,%rsp
    b51c:	e8 13 01 00 00       	callq  b634 <_start+0x34>
    b521:	e8 72 01 00 00       	callq  b698 <_start+0x98>
    b526:	e8 8d 2a 00 00       	callq  dfb8 <__libc_csu_init+0x98>
    b52b:	48 83 c4 08          	add    $0x8,%rsp
    b52f:	c3                   	retq   
Disassembly of section .plt:

000000000000b530 <__libc_start_main@plt-0x10>:
    b530:	ff 35 a2 4a 10 00    	pushq  1067682(%rip)        # 10ffd8 <_IO_stdin_used+0x101fd8>
    b536:	ff 25 a4 4a 10 00    	jmpq   *1067684(%rip)        # 10ffe0 <_IO_stdin_used+0x101fe0>
    b53c:	90                   	nop    
    b53d:	90                   	nop    
    b53e:	90                   	nop    
    b53f:	90                   	nop    

000000000000b540 <__libc_start_main@plt>:
    b540:	ff 25 a2 4a 10 00    	jmpq   *1067682(%rip)        # 10ffe8 <_IO_stdin_used+0x101fe8>
    b546:	68 00 00 00 00       	pushq  $0x0
    b54b:	e9 e0 ff ff ff       	jmpq   b530 <_init+0x18>

000000000000b550 <catgets@plt>:
    b550:	ff 25 9a 4a 10 00    	jmpq   *1067674(%rip)        # 10fff0 <_IO_stdin_used+0x101ff0>
    b556:	68 01 00 00 00       	pushq  $0x1
    b55b:	e9 d0 ff ff ff       	jmpq   b530 <_init+0x18>

000000000000b560 <vsprintf@plt>:
    b560:	ff 25 92 4a 10 00    	jmpq   *1067666(%rip)        # 10fff8 <_IO_stdin_used+0x101ff8>
    b566:	68 02 00 00 00       	pushq  $0x2
    b56b:	e9 c0 ff ff ff       	jmpq   b530 <_init+0x18>

000000000000b570 <getenv@plt>:
    b570:	ff 25 8a 4a 10 00    	jmpq   *1067658(%rip)        # 110000 <_IO_stdin_used+0x102000>
    b576:	68 03 00 00 00       	pushq  $0x3
    b57b:	e9 b0 ff ff ff       	jmpq   b530 <_init+0x18>

000000000000b580 <strncpy@plt>:
    b580:	ff 25 82 4a 10 00    	jmpq   *1067650(%rip)        # 110008 <_IO_stdin_used+0x102008>
    b586:	68 04 00 00 00       	pushq  $0x4
    b58b:	e9 a0 ff ff ff       	jmpq   b530 <_init+0x18>

000000000000b590 <setenv@plt>:
    b590:	ff 25 7a 4a 10 00    	jmpq   *1067642(%rip)        # 110010 <_IO_stdin_used+0x102010>
    b596:	68 05 00 00 00       	pushq  $0x5
    b59b:	e9 90 ff ff ff       	jmpq   b530 <_init+0x18>

000000000000b5a0 <fprintf@plt>:
    b5a0:	ff 25 72 4a 10 00    	jmpq   *1067634(%rip)        # 110018 <_IO_stdin_used+0x102018>
    b5a6:	68 06 00 00 00       	pushq  $0x6
    b5ab:	e9 80 ff ff ff       	jmpq   b530 <_init+0x18>

000000000000b5b0 <printf@plt>:
    b5b0:	ff 25 6a 4a 10 00    	jmpq   *1067626(%rip)        # 110020 <_IO_stdin_used+0x102020>
    b5b6:	68 07 00 00 00       	pushq  $0x7
    b5bb:	e9 70 ff ff ff       	jmpq   b530 <_init+0x18>

000000000000b5c0 <catopen@plt>:
    b5c0:	ff 25 62 4a 10 00    	jmpq   *1067618(%rip)        # 110028 <_IO_stdin_used+0x102028>
    b5c6:	68 08 00 00 00       	pushq  $0x8
    b5cb:	e9 60 ff ff ff       	jmpq   b530 <_init+0x18>

000000000000b5d0 <strchr@plt>:
    b5d0:	ff 25 5a 4a 10 00    	jmpq   *1067610(%rip)        # 110030 <_IO_stdin_used+0x102030>
    b5d6:	68 09 00 00 00       	pushq  $0x9
    b5db:	e9 50 ff ff ff       	jmpq   b530 <_init+0x18>

000000000000b5e0 <memset@plt>:
    b5e0:	ff 25 52 4a 10 00    	jmpq   *1067602(%rip)        # 110038 <_IO_stdin_used+0x102038>
    b5e6:	68 0a 00 00 00       	pushq  $0xa
    b5eb:	e9 40 ff ff ff       	jmpq   b530 <_init+0x18>

000000000000b5f0 <exit@plt>:
    b5f0:	ff 25 4a 4a 10 00    	jmpq   *1067594(%rip)        # 110040 <_IO_stdin_used+0x102040>
    b5f6:	68 0b 00 00 00       	pushq  $0xb
    b5fb:	e9 30 ff ff ff       	jmpq   b530 <_init+0x18>
Disassembly of section .text:

000000000000b600 <_start>:
    b600:	31 ed                	xor    %ebp,%ebp
    b602:	49 89 d1             	mov    %rdx,%r9
    b605:	5e                   	pop    %rsi
    b606:	48 89 e2             	mov    %rsp,%rdx
    b609:	48 83 e4 f0          	and    $0xfffffffffffffff0,%rsp
    b60d:	50                   	push   %rax
    b60e:	54                   	push   %rsp
    b60f:	49 c7 c0 50 31 40 00 	mov    $0x403150,%r8
    b616:	48 c7 c1 60 31 40 00 	mov    $0x403160,%rcx
    b61d:	48 c7 c7 00 09 40 00 	mov    $0x400900,%rdi
    b624:	e8 0f ff ff ff       	callq  b538 <_init+0x20>
    b629:	f4                   	hlt    
    b62a:	90                   	nop    
    b62b:	90                   	nop    
    b62c:	48 83 ec 08          	sub    $0x8,%rsp
    b630:	48 8b 05 89 49 10 00 	mov    1067401(%rip),%rax        # 10ffc0 <_IO_stdin_used+0x101fc0>
    b637:	48 85 c0             	test   %rax,%rax
    b63a:	74 02                	je     b63e <_start+0x3e>
    b63c:	ff d0                	callq  *%rax
    b63e:	48 83 c4 08          	add    $0x8,%rsp
    b642:	c3                   	retq   
    b643:	90                   	nop    
    b644:	90                   	nop    
    b645:	90                   	nop    
    b646:	90                   	nop    
    b647:	90                   	nop    
    b648:	90                   	nop    
    b649:	90                   	nop    
    b64a:	90                   	nop    
    b64b:	90                   	nop    
    b64c:	90                   	nop    
    b64d:	90                   	nop    
    b64e:	90                   	nop    
    b64f:	90                   	nop    
    b650:	80 3d 69 4d 10 00 00 	cmpb   $0x0,1068393(%rip)        # 1103c0 <__xxref+0x100>
    b657:	55                   	push   %rbp
    b658:	48 89 e5             	mov    %rsp,%rbp
    b65b:	74 10                	je     b66d <_start+0x6d>
    b65d:	eb 24                	jmp    b683 <_start+0x83>
    b65f:	90                   	nop    
    b660:	48 83 c0 08          	add    $0x8,%rax
    b664:	48 89 05 e5 49 10 00 	mov    %rax,1067493(%rip)        # 110050 <_IO_stdin_used+0x102050>
    b66b:	ff d2                	callq  *%rdx
    b66d:	48 8b 05 dc 49 10 00 	mov    1067484(%rip),%rax        # 110050 <_IO_stdin_used+0x102050>
    b674:	48 8b 10             	mov    (%rax),%rdx
    b677:	48 85 d2             	test   %rdx,%rdx
    b67a:	75 e4                	jne    b660 <_start+0x60>
    b67c:	c6 05 3d 4d 10 00 01 	movb   $0x1,1068349(%rip)        # 1103c0 <__xxref+0x100>
    b683:	c9                   	leaveq 
    b684:	c3                   	retq   
    b685:	66 66 66 90          	xchg   %ax,%ax
    b689:	66 66 66 90          	xchg   %ax,%ax
    b68d:	66 66 90             	xchg   %ax,%ax
    b690:	55                   	push   %rbp
    b691:	48 83 3d 47 47 10 00 	cmpq   $0x0,1066823(%rip)        # 10fde0 <_IO_stdin_used+0x101de0>
    b698:	00 
    b699:	48 89 e5             	mov    %rsp,%rbp
    b69c:	74 1a                	je     b6b8 <_start+0xb8>
    b69e:	48 8b 05 13 49 10 00 	mov    1067283(%rip),%rax        # 10ffb8 <_IO_stdin_used+0x101fb8>
    b6a5:	48 85 c0             	test   %rax,%rax
    b6a8:	74 0e                	je     b6b8 <_start+0xb8>
    b6aa:	48 8d 3d 2f 47 10 00 	lea    1066799(%rip),%rdi        # 10fde0 <_IO_stdin_used+0x101de0>
    b6b1:	49 89 c3             	mov    %rax,%r11
    b6b4:	c9                   	leaveq 
    b6b5:	41 ff e3             	jmpq   *%r11
    b6b8:	c9                   	leaveq 
    b6b9:	c3                   	retq   
    b6ba:	90                   	nop    
    b6bb:	90                   	nop    
    b6bc:	90                   	nop    
    b6bd:	90                   	nop    
    b6be:	90                   	nop    
    b6bf:	90                   	nop    

000000000000b6c0 <main>:
    b6c0:	55                   	push   %rbp
    b6c1:	48 89 e5             	mov    %rsp,%rbp
    b6c4:	48 83 e4 80          	and    $0xffffffffffffff80,%rsp
    b6c8:	48 81 ec 00 01 00 00 	sub    $0x100,%rsp
    b6cf:	bf 03 00 00 00       	mov    $0x3,%edi
    b6d4:	e8 67 22 00 00       	callq  d940 <__intel_new_proc_init>
    b6d9:	0f ae 1c 24          	stmxcsr (%rsp)
    b6dd:	81 0c 24 40 80 00 00 	orl    $0x8040,(%rsp)
    b6e4:	0f ae 14 24          	ldmxcsr (%rsp)
    b6e8:	31 c0                	xor    %eax,%eax
    b6ea:	b8 01 00 00 00       	mov    $0x1,%eax
    b6ef:	0f a2                	cpuid  
    b6f1:	c1 eb 18             	shr    $0x18,%ebx
    b6f4:	31 c9                	xor    %ecx,%ecx
    b6f6:	01 d9                	add    %ebx,%ecx
    b6f8:	48 c1 e1 19          	shl    $0x19,%rcx
    b6fc:	83 c1 07             	add    $0x7,%ecx
    b6ff:	90                   	nop    
    b700:	e2 fd                	loop   b6ff <main+0x3f>
    b702:	45 31 e4             	xor    %r12d,%r12d
    b705:	eb 1a                	jmp    b721 <main+0x61>
    b707:	31 c0                	xor    %eax,%eax
    b709:	b8 01 00 00 00       	mov    $0x1,%eax
    b70e:	0f a2                	cpuid  
    b710:	c1 eb 18             	shr    $0x18,%ebx
    b713:	31 c0                	xor    %eax,%eax
    b715:	01 d8                	add    %ebx,%eax
    b717:	c1 e0 02             	shl    $0x2,%eax
    b71a:	66 ba f8 03          	mov    $0x3f8,%dx
    b71e:	ee                   	out    %al,(%dx)
    b71f:	31 db                	xor    %ebx,%ebx
    b721:	45 31 ed             	xor    %r13d,%r13d
    b724:	31 db                	xor    %ebx,%ebx
    b726:	c6 84 24 b0 00 00 00 	movb   $0x61,0xb0(%rsp)
    b72d:	61 
    b72e:	c7 84 24 90 00 00 00 	movl   $0x67452301,0x90(%rsp)
    b735:	01 23 45 67 
    b739:	c7 84 24 94 00 00 00 	movl   $0xefcdab89,0x94(%rsp)
    b740:	89 ab cd ef 
    b744:	c7 84 24 98 00 00 00 	movl   $0x98badcfe,0x98(%rsp)
    b74b:	fe dc ba 98 
    b74f:	c7 84 24 9c 00 00 00 	movl   $0x10325476,0x9c(%rsp)
    b756:	76 54 32 10 
    b75a:	0f b6 84 24 b0 00 00 	movzbl 0xb0(%rsp),%eax
    b761:	00 
    b762:	88 44 24 40          	mov    %al,0x40(%rsp)
    b766:	c6 44 24 41 80       	movb   $0x80,0x41(%rsp)
    b76b:	48 8d 54 24 42       	lea    0x42(%rsp),%rdx
    b770:	b8 35 00 00 00       	mov    $0x35,%eax
    b775:	c6 02 00             	movb   $0x0,(%rdx)
    b778:	48 ff c2             	inc    %rdx
    b77b:	48 ff c8             	dec    %rax
    b77e:	48 83 f8 ff          	cmp    $0xffffffffffffffff,%rax
    b782:	75 f1                	jne    b775 <main+0xb5>
    b784:	c7 44 24 78 08 00 00 	movl   $0x8,0x78(%rsp)
    b78b:	00 
    b78c:	48 8d bc 24 90 00 00 	lea    0x90(%rsp),%rdi
    b793:	00 
    b794:	48 8d 74 24 40       	lea    0x40(%rsp),%rsi
    b799:	c7 44 24 7c 00 00 00 	movl   $0x0,0x7c(%rsp)
    b7a0:	00 
    b7a1:	e8 ba 01 00 00       	callq  b960 <md5_compress>
    b7a6:	8b 84 24 90 00 00 00 	mov    0x90(%rsp),%eax
    b7ad:	3d 0c c1 75 b9       	cmp    $0xb975c10c,%eax
    b7b2:	75 46                	jne    b7fa <main+0x13a>
    b7b4:	8b 84 24 94 00 00 00 	mov    0x94(%rsp),%eax
    b7bb:	3d c0 f1 b6 a8       	cmp    $0xa8b6f1c0,%eax
    b7c0:	75 38                	jne    b7fa <main+0x13a>
    b7c2:	8b 84 24 98 00 00 00 	mov    0x98(%rsp),%eax
    b7c9:	3d 31 c3 99 e2       	cmp    $0xe299c331,%eax
    b7ce:	75 2a                	jne    b7fa <main+0x13a>
    b7d0:	8b 84 24 9c 00 00 00 	mov    0x9c(%rsp),%eax
    b7d7:	3d 69 77 26 61       	cmp    $0x61267769,%eax
    b7dc:	75 1c                	jne    b7fa <main+0x13a>
    b7de:	31 c0                	xor    %eax,%eax
    b7e0:	b8 01 00 00 00       	mov    $0x1,%eax
    b7e5:	0f a2                	cpuid  
    b7e7:	c1 eb 18             	shr    $0x18,%ebx
    b7ea:	31 c0                	xor    %eax,%eax
    b7ec:	01 d8                	add    %ebx,%eax
    b7ee:	c1 e0 02             	shl    $0x2,%eax
    b7f1:	66 ba f8 03          	mov    $0x3f8,%dx
    b7f5:	ee                   	out    %al,(%dx)
    b7f6:	31 db                	xor    %ebx,%ebx
    b7f8:	eb 1b                	jmp    b815 <main+0x155>
    b7fa:	31 c0                	xor    %eax,%eax
    b7fc:	b8 01 00 00 00       	mov    $0x1,%eax
    b801:	0f a2                	cpuid  
    b803:	c1 eb 18             	shr    $0x18,%ebx
    b806:	31 c0                	xor    %eax,%eax
    b808:	01 d8                	add    %ebx,%eax
    b80a:	c1 e0 02             	shl    $0x2,%eax
    b80d:	66 ba f8 03          	mov    $0x3f8,%dx
    b811:	83 c0 01             	add    $0x1,%eax
    b814:	ee                   	out    %al,(%dx)
    b815:	ff c3                	inc    %ebx
    b817:	81 fb 40 42 0f 00    	cmp    $0xf4240,%ebx
    b81d:	0f 8e 03 ff ff ff    	jle    b726 <main+0x66>
    b823:	31 db                	xor    %ebx,%ebx
    b825:	c6 84 24 a0 00 00 00 	movb   $0x61,0xa0(%rsp)
    b82c:	61 
    b82d:	41 ff cc             	dec    %r12d
    b830:	c7 84 24 80 00 00 00 	movl   $0x67452301,0x80(%rsp)
    b837:	01 23 45 67 
    b83b:	c7 84 24 84 00 00 00 	movl   $0xefcdab89,0x84(%rsp)
    b842:	89 ab cd ef 
    b846:	c7 84 24 88 00 00 00 	movl   $0x98badcfe,0x88(%rsp)
    b84d:	fe dc ba 98 
    b851:	c7 84 24 8c 00 00 00 	movl   $0x10325476,0x8c(%rsp)
    b858:	76 54 32 10 
    b85c:	0f b6 84 24 a0 00 00 	movzbl 0xa0(%rsp),%eax
    b863:	00 
    b864:	88 04 24             	mov    %al,(%rsp)
    b867:	c6 44 24 01 80       	movb   $0x80,0x1(%rsp)
    b86c:	48 8d 54 24 02       	lea    0x2(%rsp),%rdx
    b871:	b8 35 00 00 00       	mov    $0x35,%eax
    b876:	c6 02 00             	movb   $0x0,(%rdx)
    b879:	48 ff c2             	inc    %rdx
    b87c:	48 ff c8             	dec    %rax
    b87f:	48 83 f8 ff          	cmp    $0xffffffffffffffff,%rax
    b883:	75 f1                	jne    b876 <main+0x1b6>
    b885:	c7 44 24 38 08 00 00 	movl   $0x8,0x38(%rsp)
    b88c:	00 
    b88d:	48 8d bc 24 80 00 00 	lea    0x80(%rsp),%rdi
    b894:	00 
    b895:	48 8d 34 24          	lea    (%rsp),%rsi
    b899:	c7 44 24 3c 00 00 00 	movl   $0x0,0x3c(%rsp)
    b8a0:	00 
    b8a1:	e8 ba 00 00 00       	callq  b960 <md5_compress>
    b8a6:	8b 84 24 80 00 00 00 	mov    0x80(%rsp),%eax
    b8ad:	3d 0c c1 75 b9       	cmp    $0xb975c10c,%eax
    b8b2:	75 46                	jne    b8fa <main+0x23a>
    b8b4:	8b 84 24 84 00 00 00 	mov    0x84(%rsp),%eax
    b8bb:	3d c0 f1 b6 a8       	cmp    $0xa8b6f1c0,%eax
    b8c0:	75 38                	jne    b8fa <main+0x23a>
    b8c2:	8b 84 24 88 00 00 00 	mov    0x88(%rsp),%eax
    b8c9:	3d 31 c3 99 e2       	cmp    $0xe299c331,%eax
    b8ce:	75 2a                	jne    b8fa <main+0x23a>
    b8d0:	8b 84 24 8c 00 00 00 	mov    0x8c(%rsp),%eax
    b8d7:	3d 69 77 26 61       	cmp    $0x61267769,%eax
    b8dc:	75 1c                	jne    b8fa <main+0x23a>
    b8de:	31 c0                	xor    %eax,%eax
    b8e0:	b8 01 00 00 00       	mov    $0x1,%eax
    b8e5:	0f a2                	cpuid  
    b8e7:	c1 eb 18             	shr    $0x18,%ebx
    b8ea:	31 c0                	xor    %eax,%eax
    b8ec:	01 d8                	add    %ebx,%eax
    b8ee:	c1 e0 02             	shl    $0x2,%eax
    b8f1:	66 ba f8 03          	mov    $0x3f8,%dx
    b8f5:	ee                   	out    %al,(%dx)
    b8f6:	31 db                	xor    %ebx,%ebx
    b8f8:	eb 1b                	jmp    b915 <main+0x255>
    b8fa:	31 c0                	xor    %eax,%eax
    b8fc:	b8 01 00 00 00       	mov    $0x1,%eax
    b901:	0f a2                	cpuid  
    b903:	c1 eb 18             	shr    $0x18,%ebx
    b906:	31 c0                	xor    %eax,%eax
    b908:	01 d8                	add    %ebx,%eax
    b90a:	c1 e0 02             	shl    $0x2,%eax
    b90d:	66 ba f8 03          	mov    $0x3f8,%dx
    b911:	83 c0 01             	add    $0x1,%eax
    b914:	ee                   	out    %al,(%dx)
    b915:	ff c3                	inc    %ebx
    b917:	81 fb 40 42 0f 00    	cmp    $0xf4240,%ebx
    b91d:	0f 8e 02 ff ff ff    	jle    b825 <main+0x165>
    b923:	45 85 e4             	test   %r12d,%r12d
    b926:	75 15                	jne    b93d <main+0x27d>
    b928:	41 ff c5             	inc    %r13d
    b92b:	41 81 fd a0 0f 00 00 	cmp    $0xfa0,%r13d
    b932:	0f 8e ec fd ff ff    	jle    b724 <main+0x64>
    b938:	e9 ca fd ff ff       	jmpq   b707 <main+0x47>
    b93d:	31 c0                	xor    %eax,%eax
    b93f:	b8 01 00 00 00       	mov    $0x1,%eax
    b944:	0f a2                	cpuid  
    b946:	c1 eb 18             	shr    $0x18,%ebx
    b949:	31 c0                	xor    %eax,%eax
    b94b:	01 d8                	add    %ebx,%eax
    b94d:	c1 e0 02             	shl    $0x2,%eax
    b950:	66 ba f8 03          	mov    $0x3f8,%dx
    b954:	83 c0 01             	add    $0x1,%eax
    b957:	ee                   	out    %al,(%dx)
    b958:	eb fe                	jmp    b958 <main+0x298>
    b95a:	66 66 90             	xchg   %ax,%ax
    b95d:	66 66 90             	xchg   %ax,%ax

000000000000b960 <md5_compress>:
    b960:	41 57                	push   %r15
    b962:	41 56                	push   %r14
    b964:	41 55                	push   %r13
    b966:	41 54                	push   %r12
    b968:	55                   	push   %rbp
    b969:	53                   	push   %rbx
    b96a:	48 81 ec 98 00 00 00 	sub    $0x98,%rsp
    b971:	8b 07                	mov    (%rdi),%eax
    b973:	8b 5f 04             	mov    0x4(%rdi),%ebx
    b976:	44 8b 7f 08          	mov    0x8(%rdi),%r15d
    b97a:	8b 4f 0c             	mov    0xc(%rdi),%ecx
    b97d:	44 8b 06             	mov    (%rsi),%r8d
    b980:	44 8b 5e 04          	mov    0x4(%rsi),%r11d
    b984:	48 89 7c 24 48       	mov    %rdi,0x48(%rsp)
    b989:	8b 7e 08             	mov    0x8(%rsi),%edi
    b98c:	89 04 24             	mov    %eax,(%rsp)
    b98f:	44 89 fa             	mov    %r15d,%edx
    b992:	89 5c 24 50          	mov    %ebx,0x50(%rsp)
    b996:	44 89 7c 24 58       	mov    %r15d,0x58(%rsp)
    b99b:	89 4c 24 10          	mov    %ecx,0x10(%rsp)
    b99f:	44 89 5c 24 60       	mov    %r11d,0x60(%rsp)
    b9a4:	31 ca                	xor    %ecx,%edx
    b9a6:	89 7c 24 08          	mov    %edi,0x8(%rsp)
    b9aa:	46 8d 14 00          	lea    (%rax,%r8,1),%r10d
    b9ae:	21 da                	and    %ebx,%edx
    b9b0:	31 ca                	xor    %ecx,%edx
    b9b2:	45 8d ac 12 78 a4 6a 	lea    0xffffffffd76aa478(%r10,%rdx,1),%r13d
    b9b9:	d7 
    b9ba:	41 c1 c5 07          	rol    $0x7,%r13d
    b9be:	41 01 dd             	add    %ebx,%r13d
    b9c1:	41 89 d9             	mov    %ebx,%r9d
    b9c4:	45 31 f9             	xor    %r15d,%r9d
    b9c7:	45 21 e9             	and    %r13d,%r9d
    b9ca:	45 31 f9             	xor    %r15d,%r9d
    b9cd:	45 01 d9             	add    %r11d,%r9d
    b9d0:	41 8d ac 09 56 b7 c7 	lea    0xffffffffe8c7b756(%r9,%rcx,1),%ebp
    b9d7:	e8 
    b9d8:	44 8b 4e 0c          	mov    0xc(%rsi),%r9d
    b9dc:	44 89 4c 24 68       	mov    %r9d,0x68(%rsp)
    b9e1:	c1 c5 0c             	rol    $0xc,%ebp
    b9e4:	41 8d 44 2d 00       	lea    0x0(%r13,%rbp,1),%eax
    b9e9:	41 8d ac 2d 2a c6 87 	lea    0x4787c62a(%r13,%rbp,1),%ebp
    b9f0:	47 
    b9f1:	45 8d 14 3f          	lea    (%r15,%rdi,1),%r10d
    b9f5:	44 89 ea             	mov    %r13d,%edx
    b9f8:	31 da                	xor    %ebx,%edx
    b9fa:	21 c2                	and    %eax,%edx
    b9fc:	31 da                	xor    %ebx,%edx
    b9fe:	45 8d 94 12 db 70 20 	lea    0x242070db(%r10,%rdx,1),%r10d
    ba05:	24 
    ba06:	8b 56 10             	mov    0x10(%rsi),%edx
    ba09:	89 54 24 28          	mov    %edx,0x28(%rsp)
    ba0d:	41 c1 c2 11          	rol    $0x11,%r10d
    ba11:	41 01 c2             	add    %eax,%r10d
    ba14:	44 01 cb             	add    %r9d,%ebx
    ba17:	45 89 ec             	mov    %r13d,%r12d
    ba1a:	41 31 c4             	xor    %eax,%r12d
    ba1d:	45 21 d4             	and    %r10d,%r12d
    ba20:	45 31 ec             	xor    %r13d,%r12d
    ba23:	46 8d 8c 23 ee ce bd 	lea    0xffffffffc1bdceee(%rbx,%r12,1),%r9d
    ba2a:	c1 
    ba2b:	41 c1 c1 16          	rol    $0x16,%r9d
    ba2f:	45 01 d1             	add    %r10d,%r9d
    ba32:	41 8d 4c 15 00       	lea    0x0(%r13,%rdx,1),%ecx
    ba37:	45 89 d6             	mov    %r10d,%r14d
    ba3a:	41 31 c6             	xor    %eax,%r14d
    ba3d:	45 21 ce             	and    %r9d,%r14d
    ba40:	44 31 f0             	xor    %r14d,%eax
    ba43:	8d 9c 01 af 0f 7c f5 	lea    0xfffffffff57c0faf(%rcx,%rax,1),%ebx
    ba4a:	8b 46 14             	mov    0x14(%rsi),%eax
    ba4d:	89 44 24 70          	mov    %eax,0x70(%rsp)
    ba51:	c1 c3 07             	rol    $0x7,%ebx
    ba54:	44 01 cb             	add    %r9d,%ebx
    ba57:	44 89 cf             	mov    %r9d,%edi
    ba5a:	44 31 d7             	xor    %r10d,%edi
    ba5d:	21 df                	and    %ebx,%edi
    ba5f:	44 31 d7             	xor    %r10d,%edi
    ba62:	01 c7                	add    %eax,%edi
    ba64:	01 ef                	add    %ebp,%edi
    ba66:	8b 6e 18             	mov    0x18(%rsi),%ebp
    ba69:	89 6c 24 18          	mov    %ebp,0x18(%rsp)
    ba6d:	c1 c7 0c             	rol    $0xc,%edi
    ba70:	8d 0c 3b             	lea    (%rbx,%rdi,1),%ecx
    ba73:	41 01 ea             	add    %ebp,%r10d
    ba76:	41 89 dd             	mov    %ebx,%r13d
    ba79:	45 31 cd             	xor    %r9d,%r13d
    ba7c:	41 21 cd             	and    %ecx,%r13d
    ba7f:	45 31 cd             	xor    %r9d,%r13d
    ba82:	47 8d 94 2a 13 46 30 	lea    0xffffffffa8304613(%r10,%r13,1),%r10d
    ba89:	a8 
    ba8a:	44 8b 6e 1c          	mov    0x1c(%rsi),%r13d
    ba8e:	41 c1 c2 11          	rol    $0x11,%r10d
    ba92:	44 89 6c 24 78       	mov    %r13d,0x78(%rsp)
    ba97:	41 01 ca             	add    %ecx,%r10d
    ba9a:	45 01 e9             	add    %r13d,%r9d
    ba9d:	44 8b 6e 24          	mov    0x24(%rsi),%r13d
    baa1:	44 89 6c 24 38       	mov    %r13d,0x38(%rsp)
    baa6:	41 89 df             	mov    %ebx,%r15d
    baa9:	41 31 cf             	xor    %ecx,%r15d
    baac:	45 21 d7             	and    %r10d,%r15d
    baaf:	41 31 df             	xor    %ebx,%r15d
    bab2:	47 8d b4 39 01 95 46 	lea    0xfffffffffd469501(%r9,%r15,1),%r14d
    bab9:	fd 
    baba:	44 8b 4e 20          	mov    0x20(%rsi),%r9d
    babe:	44 89 4c 24 30       	mov    %r9d,0x30(%rsp)
    bac3:	41 c1 c6 16          	rol    $0x16,%r14d
    bac7:	45 01 d6             	add    %r10d,%r14d
    baca:	41 01 d9             	add    %ebx,%r9d
    bacd:	45 89 d4             	mov    %r10d,%r12d
    bad0:	41 31 cc             	xor    %ecx,%r12d
    bad3:	45 21 f4             	and    %r14d,%r12d
    bad6:	44 31 e1             	xor    %r12d,%ecx
    bad9:	41 8d 8c 09 d8 98 80 	lea    0x698098d8(%r9,%rcx,1),%ecx
    bae0:	69 
    bae1:	44 8b 4e 28          	mov    0x28(%rsi),%r9d
    bae5:	c1 c1 07             	rol    $0x7,%ecx
    bae8:	44 89 4c 24 20       	mov    %r9d,0x20(%rsp)
    baed:	44 01 f1             	add    %r14d,%ecx
    baf0:	45 89 f7             	mov    %r14d,%r15d
    baf3:	45 31 d7             	xor    %r10d,%r15d
    baf6:	41 21 cf             	and    %ecx,%r15d
    baf9:	45 31 d7             	xor    %r10d,%r15d
    bafc:	45 01 ef             	add    %r13d,%r15d
    baff:	8d 9c 3b af f7 44 8b 	lea    0xffffffff8b44f7af(%rbx,%rdi,1),%ebx
    bb06:	41 01 df             	add    %ebx,%r15d
    bb09:	8b 5e 2c             	mov    0x2c(%rsi),%ebx
    bb0c:	41 c1 c7 0c          	rol    $0xc,%r15d
    bb10:	42 8d 3c 39          	lea    (%rcx,%r15,1),%edi
    bb14:	45 01 ca             	add    %r9d,%r10d
    bb17:	41 89 cd             	mov    %ecx,%r13d
    bb1a:	45 31 f5             	xor    %r14d,%r13d
    bb1d:	41 21 fd             	and    %edi,%r13d
    bb20:	45 31 f5             	xor    %r14d,%r13d
    bb23:	47 8d a4 2a b1 5b ff 	lea    0xffffffffffff5bb1(%r10,%r13,1),%r12d
    bb2a:	ff 
    bb2b:	41 c1 c4 11          	rol    $0x11,%r12d
    bb2f:	41 01 fc             	add    %edi,%r12d
    bb32:	41 01 de             	add    %ebx,%r14d
    bb35:	41 89 ca             	mov    %ecx,%r10d
    bb38:	41 31 fa             	xor    %edi,%r10d
    bb3b:	45 21 e2             	and    %r12d,%r10d
    bb3e:	41 31 ca             	xor    %ecx,%r10d
    bb41:	47 8d ac 16 be d7 5c 	lea    0xffffffff895cd7be(%r14,%r10,1),%r13d
    bb48:	89 
    bb49:	44 8b 76 30          	mov    0x30(%rsi),%r14d
    bb4d:	44 89 b4 24 80 00 00 	mov    %r14d,0x80(%rsp)
    bb54:	00 
    bb55:	41 c1 c5 16          	rol    $0x16,%r13d
    bb59:	45 01 e5             	add    %r12d,%r13d
    bb5c:	41 01 ce             	add    %ecx,%r14d
    bb5f:	45 89 e2             	mov    %r12d,%r10d
    bb62:	41 31 fa             	xor    %edi,%r10d
    bb65:	45 21 ea             	and    %r13d,%r10d
    bb68:	44 31 d7             	xor    %r10d,%edi
    bb6b:	42 8d 8c 39 93 71 98 	lea    0xfffffffffd987193(%rcx,%r15,1),%ecx
    bb72:	fd 
    bb73:	45 8d 94 3e 22 11 90 	lea    0x6b901122(%r14,%rdi,1),%r10d
    bb7a:	6b 
    bb7b:	44 8b 76 34          	mov    0x34(%rsi),%r14d
    bb7f:	44 89 74 24 40       	mov    %r14d,0x40(%rsp)
    bb84:	41 c1 c2 07          	rol    $0x7,%r10d
    bb88:	45 01 ea             	add    %r13d,%r10d
    bb8b:	44 89 ef             	mov    %r13d,%edi
    bb8e:	44 31 e7             	xor    %r12d,%edi
    bb91:	44 21 d7             	and    %r10d,%edi
    bb94:	44 31 e7             	xor    %r12d,%edi
    bb97:	44 01 f7             	add    %r14d,%edi
    bb9a:	01 cf                	add    %ecx,%edi
    bb9c:	8b 4e 38             	mov    0x38(%rsi),%ecx
    bb9f:	c1 c7 0c             	rol    $0xc,%edi
    bba2:	45 8d 34 3a          	lea    (%r10,%rdi,1),%r14d
    bba6:	41 01 cc             	add    %ecx,%r12d
    bba9:	45 89 d7             	mov    %r10d,%r15d
    bbac:	45 31 ef             	xor    %r13d,%r15d
    bbaf:	45 21 f7             	and    %r14d,%r15d
    bbb2:	45 31 ef             	xor    %r13d,%r15d
    bbb5:	47 8d bc 3c 8e 43 79 	lea    0xffffffffa679438e(%r12,%r15,1),%r15d
    bbbc:	a6 
    bbbd:	44 8b 66 3c          	mov    0x3c(%rsi),%r12d
    bbc1:	44 89 a4 24 88 00 00 	mov    %r12d,0x88(%rsp)
    bbc8:	00 
    bbc9:	41 c1 c7 11          	rol    $0x11,%r15d
    bbcd:	45 01 f7             	add    %r14d,%r15d
    bbd0:	45 01 e5             	add    %r12d,%r13d
    bbd3:	44 89 d6             	mov    %r10d,%esi
    bbd6:	44 31 f6             	xor    %r14d,%esi
    bbd9:	44 21 fe             	and    %r15d,%esi
    bbdc:	44 31 d6             	xor    %r10d,%esi
    bbdf:	41 8d b4 35 21 08 b4 	lea    0x49b40821(%r13,%rsi,1),%esi
    bbe6:	49 
    bbe7:	c1 c6 16             	rol    $0x16,%esi
    bbea:	44 01 fe             	add    %r15d,%esi
    bbed:	47 8d 2c 1a          	lea    (%r10,%r11,1),%r13d
    bbf1:	41 89 f3             	mov    %esi,%r11d
    bbf4:	45 31 fb             	xor    %r15d,%r11d
    bbf7:	45 21 de             	and    %r11d,%r14d
    bbfa:	45 31 fe             	xor    %r15d,%r14d
    bbfd:	47 8d b4 35 62 25 1e 	lea    0xfffffffff61e2562(%r13,%r14,1),%r14d
    bc04:	f6 
    bc05:	41 c1 c6 05          	rol    $0x5,%r14d
    bc09:	41 01 f6             	add    %esi,%r14d
    bc0c:	45 89 f3             	mov    %r14d,%r11d
    bc0f:	41 31 f3             	xor    %esi,%r11d
    bc12:	45 21 fb             	and    %r15d,%r11d
    bc15:	41 31 f3             	xor    %esi,%r11d
    bc18:	41 01 eb             	add    %ebp,%r11d
    bc1b:	41 8d bc 3a 40 b3 40 	lea    0xffffffffc040b340(%r10,%rdi,1),%edi
    bc22:	c0 
    bc23:	41 01 fb             	add    %edi,%r11d
    bc26:	41 c1 c3 09          	rol    $0x9,%r11d
    bc2a:	43 8d 2c 1e          	lea    (%r14,%r11,1),%ebp
    bc2e:	41 01 df             	add    %ebx,%r15d
    bc31:	45 89 f2             	mov    %r14d,%r10d
    bc34:	47 8d 9c 1e 53 14 44 	lea    0x2441453(%r14,%r11,1),%r11d
    bc3b:	02 
    bc3c:	41 31 ea             	xor    %ebp,%r10d
    bc3f:	41 21 f2             	and    %esi,%r10d
    bc42:	45 31 f2             	xor    %r14d,%r10d
    bc45:	44 01 c6             	add    %r8d,%esi
    bc48:	43 8d bc 17 51 5a 5e 	lea    0x265e5a51(%r15,%r10,1),%edi
    bc4f:	26 
    bc50:	c1 c7 0e             	rol    $0xe,%edi
    bc53:	01 ef                	add    %ebp,%edi
    bc55:	41 89 ff             	mov    %edi,%r15d
    bc58:	41 31 ef             	xor    %ebp,%r15d
    bc5b:	45 21 f7             	and    %r14d,%r15d
    bc5e:	41 31 ef             	xor    %ebp,%r15d
    bc61:	46 8d ac 3e aa c7 b6 	lea    0xffffffffe9b6c7aa(%rsi,%r15,1),%r13d
    bc68:	e9 
    bc69:	41 c1 c5 14          	rol    $0x14,%r13d
    bc6d:	41 01 fd             	add    %edi,%r13d
    bc70:	41 8d 34 06          	lea    (%r14,%rax,1),%esi
    bc74:	45 89 ea             	mov    %r13d,%r10d
    bc77:	41 31 fa             	xor    %edi,%r10d
    bc7a:	44 21 d5             	and    %r10d,%ebp
    bc7d:	31 fd                	xor    %edi,%ebp
    bc7f:	8d b4 2e 5d 10 2f d6 	lea    0xffffffffd62f105d(%rsi,%rbp,1),%esi
    bc86:	c1 c6 05             	rol    $0x5,%esi
    bc89:	44 01 ee             	add    %r13d,%esi
    bc8c:	89 f5                	mov    %esi,%ebp
    bc8e:	44 31 ed             	xor    %r13d,%ebp
    bc91:	21 fd                	and    %edi,%ebp
    bc93:	44 31 ed             	xor    %r13d,%ebp
    bc96:	44 01 cd             	add    %r9d,%ebp
    bc99:	44 01 dd             	add    %r11d,%ebp
    bc9c:	c1 c5 09             	rol    $0x9,%ebp
    bc9f:	44 8d 14 2e          	lea    (%rsi,%rbp,1),%r10d
    bca3:	44 01 e7             	add    %r12d,%edi
    bca6:	41 89 f4             	mov    %esi,%r12d
    bca9:	45 31 d4             	xor    %r10d,%r12d
    bcac:	45 21 ec             	and    %r13d,%r12d
    bcaf:	41 31 f4             	xor    %esi,%r12d
    bcb2:	46 8d b4 27 81 e6 a1 	lea    0xffffffffd8a1e681(%rdi,%r12,1),%r14d
    bcb9:	d8 
    bcba:	41 c1 c6 0e          	rol    $0xe,%r14d
    bcbe:	45 01 d6             	add    %r10d,%r14d
    bcc1:	41 01 d5             	add    %edx,%r13d
    bcc4:	44 89 f7             	mov    %r14d,%edi
    bcc7:	44 31 d7             	xor    %r10d,%edi
    bcca:	21 f7                	and    %esi,%edi
    bccc:	44 31 d7             	xor    %r10d,%edi
    bccf:	45 8d a4 3d c8 fb d3 	lea    0xffffffffe7d3fbc8(%r13,%rdi,1),%r12d
    bcd6:	e7 
    bcd7:	41 c1 c4 14          	rol    $0x14,%r12d
    bcdb:	45 01 f4             	add    %r14d,%r12d
    bcde:	44 8b 6c 24 38       	mov    0x38(%rsp),%r13d
    bce3:	46 8d 3c 2e          	lea    (%rsi,%r13,1),%r15d
    bce7:	44 89 e7             	mov    %r12d,%edi
    bcea:	44 31 f7             	xor    %r14d,%edi
    bced:	41 21 fa             	and    %edi,%r10d
    bcf0:	45 31 f2             	xor    %r14d,%r10d
    bcf3:	43 8d bc 17 e6 cd e1 	lea    0x21e1cde6(%r15,%r10,1),%edi
    bcfa:	21 
    bcfb:	c1 c7 05             	rol    $0x5,%edi
    bcfe:	44 01 e7             	add    %r12d,%edi
    bd01:	41 89 ff             	mov    %edi,%r15d
    bd04:	45 31 e7             	xor    %r12d,%r15d
    bd07:	45 21 f7             	and    %r14d,%r15d
    bd0a:	44 03 74 24 68       	add    0x68(%rsp),%r14d
    bd0f:	45 31 e7             	xor    %r12d,%r15d
    bd12:	41 01 cf             	add    %ecx,%r15d
    bd15:	8d ac 2e d6 07 37 c3 	lea    0xffffffffc33707d6(%rsi,%rbp,1),%ebp
    bd1c:	41 01 ef             	add    %ebp,%r15d
    bd1f:	8b 6c 24 30          	mov    0x30(%rsp),%ebp
    bd23:	41 c1 c7 09          	rol    $0x9,%r15d
    bd27:	42 8d 34 3f          	lea    (%rdi,%r15,1),%esi
    bd2b:	41 89 fa             	mov    %edi,%r10d
    bd2e:	41 31 f2             	xor    %esi,%r10d
    bd31:	45 21 e2             	and    %r12d,%r10d
    bd34:	41 31 fa             	xor    %edi,%r10d
    bd37:	47 8d 9c 16 87 0d d5 	lea    0xfffffffff4d50d87(%r14,%r10,1),%r11d
    bd3e:	f4 
    bd3f:	41 c1 c3 0e          	rol    $0xe,%r11d
    bd43:	41 01 f3             	add    %esi,%r11d
    bd46:	41 01 ec             	add    %ebp,%r12d
    bd49:	45 89 de             	mov    %r11d,%r14d
    bd4c:	41 31 f6             	xor    %esi,%r14d
    bd4f:	41 21 fe             	and    %edi,%r14d
    bd52:	41 31 f6             	xor    %esi,%r14d
    bd55:	47 8d 94 34 ed 14 5a 	lea    0x455a14ed(%r12,%r14,1),%r10d
    bd5c:	45 
    bd5d:	41 c1 c2 14          	rol    $0x14,%r10d
    bd61:	45 01 da             	add    %r11d,%r10d
    bd64:	44 8b 64 24 40       	mov    0x40(%rsp),%r12d
    bd69:	46 8d 34 27          	lea    (%rdi,%r12,1),%r14d
    bd6d:	45 89 d5             	mov    %r10d,%r13d
    bd70:	45 31 dd             	xor    %r11d,%r13d
    bd73:	44 21 ee             	and    %r13d,%esi
    bd76:	44 31 de             	xor    %r11d,%esi
    bd79:	45 8d ac 36 05 e9 e3 	lea    0xffffffffa9e3e905(%r14,%rsi,1),%r13d
    bd80:	a9 
    bd81:	41 c1 c5 05          	rol    $0x5,%r13d
    bd85:	45 01 d5             	add    %r10d,%r13d
    bd88:	44 89 ee             	mov    %r13d,%esi
    bd8b:	44 31 d6             	xor    %r10d,%esi
    bd8e:	44 21 de             	and    %r11d,%esi
    bd91:	44 31 d6             	xor    %r10d,%esi
    bd94:	03 74 24 08          	add    0x8(%rsp),%esi
    bd98:	42 8d bc 3f f8 a3 ef 	lea    0xfffffffffcefa3f8(%rdi,%r15,1),%edi
    bd9f:	fc 
    bda0:	01 fe                	add    %edi,%esi
    bda2:	8b 7c 24 78          	mov    0x78(%rsp),%edi
    bda6:	c1 c6 09             	rol    $0x9,%esi
    bda9:	45 8d 7c 35 00       	lea    0x0(%r13,%rsi,1),%r15d
    bdae:	41 01 fb             	add    %edi,%r11d
    bdb1:	45 89 ee             	mov    %r13d,%r14d
    bdb4:	45 31 fe             	xor    %r15d,%r14d
    bdb7:	45 21 d6             	and    %r10d,%r14d
    bdba:	44 03 94 24 80 00 00 	add    0x80(%rsp),%r10d
    bdc1:	00 
    bdc2:	45 31 ee             	xor    %r13d,%r14d
    bdc5:	44 01 e8             	add    %r13d,%eax
    bdc8:	47 8d b4 33 d9 02 6f 	lea    0x676f02d9(%r11,%r14,1),%r14d
    bdcf:	67 
    bdd0:	41 c1 c6 0e          	rol    $0xe,%r14d
    bdd4:	45 01 fe             	add    %r15d,%r14d
    bdd7:	45 89 f3             	mov    %r14d,%r11d
    bdda:	45 31 fb             	xor    %r15d,%r11d
    bddd:	45 21 eb             	and    %r13d,%r11d
    bde0:	45 31 fb             	xor    %r15d,%r11d
    bde3:	47 8d 94 1a 8a 4c 2a 	lea    0xffffffff8d2a4c8a(%r10,%r11,1),%r10d
    bdea:	8d 
    bdeb:	41 c1 c2 14          	rol    $0x14,%r10d
    bdef:	45 01 f2             	add    %r14d,%r10d
    bdf2:	45 89 d3             	mov    %r10d,%r11d
    bdf5:	45 31 f3             	xor    %r14d,%r11d
    bdf8:	45 31 fb             	xor    %r15d,%r11d
    bdfb:	46 8d bc 18 42 39 fa 	lea    0xfffffffffffa3942(%rax,%r11,1),%r15d
    be02:	ff 
    be03:	41 c1 c7 04          	rol    $0x4,%r15d
    be07:	45 01 d7             	add    %r10d,%r15d
    be0a:	45 89 fb             	mov    %r15d,%r11d
    be0d:	45 31 d3             	xor    %r10d,%r11d
    be10:	45 31 f3             	xor    %r14d,%r11d
    be13:	41 01 eb             	add    %ebp,%r11d
    be16:	41 8d 84 35 81 f6 71 	lea    0xffffffff8771f681(%r13,%rsi,1),%eax
    be1d:	87 
    be1e:	41 01 c3             	add    %eax,%r11d
    be21:	41 c1 c3 0b          	rol    $0xb,%r11d
    be25:	43 8d 2c 1f          	lea    (%r15,%r11,1),%ebp
    be29:	8b 44 24 60          	mov    0x60(%rsp),%eax
    be2d:	41 01 de             	add    %ebx,%r14d
    be30:	45 89 fd             	mov    %r15d,%r13d
    be33:	41 31 ed             	xor    %ebp,%r13d
    be36:	45 31 d5             	xor    %r10d,%r13d
    be39:	41 01 ca             	add    %ecx,%r10d
    be3c:	47 8d b4 2e 22 61 9d 	lea    0x6d9d6122(%r14,%r13,1),%r14d
    be43:	6d 
    be44:	41 c1 c6 10          	rol    $0x10,%r14d
    be48:	41 01 ee             	add    %ebp,%r14d
    be4b:	44 89 f6             	mov    %r14d,%esi
    be4e:	31 ee                	xor    %ebp,%esi
    be50:	44 31 fe             	xor    %r15d,%esi
    be53:	41 8d b4 32 0c 38 e5 	lea    0xfffffffffde5380c(%r10,%rsi,1),%esi
    be5a:	fd 
    be5b:	c1 c6 17             	rol    $0x17,%esi
    be5e:	44 01 f6             	add    %r14d,%esi
    be61:	45 8d 14 07          	lea    (%r15,%rax,1),%r10d
    be65:	41 89 f5             	mov    %esi,%r13d
    be68:	45 31 f5             	xor    %r14d,%r13d
    be6b:	41 31 ed             	xor    %ebp,%r13d
    be6e:	43 8d ac 2a 44 ea be 	lea    0xffffffffa4beea44(%r10,%r13,1),%ebp
    be75:	a4 
    be76:	c1 c5 04             	rol    $0x4,%ebp
    be79:	01 f5                	add    %esi,%ebp
    be7b:	41 89 ea             	mov    %ebp,%r10d
    be7e:	41 31 f2             	xor    %esi,%r10d
    be81:	45 31 f2             	xor    %r14d,%r10d
    be84:	41 01 d2             	add    %edx,%r10d
    be87:	43 8d 94 1f a9 cf de 	lea    0x4bdecfa9(%r15,%r11,1),%edx
    be8e:	4b 
    be8f:	41 01 d2             	add    %edx,%r10d
    be92:	41 c1 c2 0b          	rol    $0xb,%r10d
    be96:	42 8d 54 15 00       	lea    0x0(%rbp,%r10,1),%edx
    be9b:	41 01 fe             	add    %edi,%r14d
    be9e:	41 89 ef             	mov    %ebp,%r15d
    bea1:	41 31 d7             	xor    %edx,%r15d
    bea4:	41 31 f7             	xor    %esi,%r15d
    bea7:	47 8d b4 3e 60 4b bb 	lea    0xfffffffff6bb4b60(%r14,%r15,1),%r14d
    beae:	f6 
    beaf:	41 c1 c6 10          	rol    $0x10,%r14d
    beb3:	44 8b 7c 24 38       	mov    0x38(%rsp),%r15d
    beb8:	41 01 d6             	add    %edx,%r14d
    bebb:	44 01 ce             	add    %r9d,%esi
    bebe:	45 89 f1             	mov    %r14d,%r9d
    bec1:	41 31 d1             	xor    %edx,%r9d
    bec4:	41 31 e9             	xor    %ebp,%r9d
    bec7:	46 8d 9c 0e 70 bc bf 	lea    0xffffffffbebfbc70(%rsi,%r9,1),%r11d
    bece:	be 
    becf:	41 c1 c3 17          	rol    $0x17,%r11d
    bed3:	45 01 f3             	add    %r14d,%r11d
    bed6:	46 8d 4c 25 00       	lea    0x0(%rbp,%r12,1),%r9d
    bedb:	45 89 dd             	mov    %r11d,%r13d
    bede:	45 31 f5             	xor    %r14d,%r13d
    bee1:	41 31 d5             	xor    %edx,%r13d
    bee4:	43 8d 94 29 c6 7e 9b 	lea    0x289b7ec6(%r9,%r13,1),%edx
    beeb:	28 
    beec:	c1 c2 04             	rol    $0x4,%edx
    beef:	44 01 da             	add    %r11d,%edx
    bef2:	41 89 d1             	mov    %edx,%r9d
    bef5:	45 31 d9             	xor    %r11d,%r9d
    bef8:	45 31 f1             	xor    %r14d,%r9d
    befb:	45 01 c1             	add    %r8d,%r9d
    befe:	42 8d ac 15 fa 27 a1 	lea    0xffffffffeaa127fa(%rbp,%r10,1),%ebp
    bf05:	ea 
    bf06:	41 01 e9             	add    %ebp,%r9d
    bf09:	41 c1 c1 0b          	rol    $0xb,%r9d
    bf0d:	46 8d 2c 0a          	lea    (%rdx,%r9,1),%r13d
    bf11:	8b 6c 24 68          	mov    0x68(%rsp),%ebp
    bf15:	41 01 ee             	add    %ebp,%r14d
    bf18:	41 89 d4             	mov    %edx,%r12d
    bf1b:	45 31 ec             	xor    %r13d,%r12d
    bf1e:	45 31 dc             	xor    %r11d,%r12d
    bf21:	47 8d 94 26 85 30 ef 	lea    0xffffffffd4ef3085(%r14,%r12,1),%r10d
    bf28:	d4 
    bf29:	44 03 5c 24 18       	add    0x18(%rsp),%r11d
    bf2e:	41 c1 c2 10          	rol    $0x10,%r10d
    bf32:	45 01 ea             	add    %r13d,%r10d
    bf35:	44 89 d6             	mov    %r10d,%esi
    bf38:	44 31 ee             	xor    %r13d,%esi
    bf3b:	31 d6                	xor    %edx,%esi
    bf3d:	45 8d a4 33 05 1d 88 	lea    0x4881d05(%r11,%rsi,1),%r12d
    bf44:	04 
    bf45:	41 c1 c4 17          	rol    $0x17,%r12d
    bf49:	45 01 d4             	add    %r10d,%r12d
    bf4c:	46 8d 1c 3a          	lea    (%rdx,%r15,1),%r11d
    bf50:	45 89 e6             	mov    %r12d,%r14d
    bf53:	45 31 d6             	xor    %r10d,%r14d
    bf56:	45 31 ee             	xor    %r13d,%r14d
    bf59:	44 8b ac 24 80 00 00 	mov    0x80(%rsp),%r13d
    bf60:	00 
    bf61:	47 8d bc 33 39 d0 d4 	lea    0xffffffffd9d4d039(%r11,%r14,1),%r15d
    bf68:	d9 
    bf69:	41 c1 c7 04          	rol    $0x4,%r15d
    bf6d:	45 01 e7             	add    %r12d,%r15d
    bf70:	44 89 fe             	mov    %r15d,%esi
    bf73:	44 31 e6             	xor    %r12d,%esi
    bf76:	44 31 d6             	xor    %r10d,%esi
    bf79:	44 01 ee             	add    %r13d,%esi
    bf7c:	42 8d 94 0a e5 99 db 	lea    0xffffffffe6db99e5(%rdx,%r9,1),%edx
    bf83:	e6 
    bf84:	01 d6                	add    %edx,%esi
    bf86:	8b 94 24 88 00 00 00 	mov    0x88(%rsp),%edx
    bf8d:	c1 c6 0b             	rol    $0xb,%esi
    bf90:	45 8d 1c 37          	lea    (%r15,%rsi,1),%r11d
    bf94:	41 01 d2             	add    %edx,%r10d
    bf97:	45 89 f9             	mov    %r15d,%r9d
    bf9a:	45 31 d9             	xor    %r11d,%r9d
    bf9d:	45 31 e1             	xor    %r12d,%r9d
    bfa0:	44 03 64 24 08       	add    0x8(%rsp),%r12d
    bfa5:	45 01 f8             	add    %r15d,%r8d
    bfa8:	47 8d 94 0a f8 7c a2 	lea    0x1fa27cf8(%r10,%r9,1),%r10d
    bfaf:	1f 
    bfb0:	41 c1 c2 10          	rol    $0x10,%r10d
    bfb4:	45 01 da             	add    %r11d,%r10d
    bfb7:	45 89 d6             	mov    %r10d,%r14d
    bfba:	45 31 de             	xor    %r11d,%r14d
    bfbd:	45 31 fe             	xor    %r15d,%r14d
    bfc0:	47 8d 8c 34 65 56 ac 	lea    0xffffffffc4ac5665(%r12,%r14,1),%r9d
    bfc7:	c4 
    bfc8:	45 8d a4 37 97 ff 2a 	lea    0x432aff97(%r15,%rsi,1),%r12d
    bfcf:	43 
    bfd0:	41 c1 c1 17          	rol    $0x17,%r9d
    bfd4:	45 01 d1             	add    %r10d,%r9d
    bfd7:	41 f7 d3             	not    %r11d
    bfda:	45 09 cb             	or     %r9d,%r11d
    bfdd:	45 31 d3             	xor    %r10d,%r11d
    bfe0:	47 8d 84 18 44 22 29 	lea    0xfffffffff4292244(%r8,%r11,1),%r8d
    bfe7:	f4 
    bfe8:	41 c1 c0 06          	rol    $0x6,%r8d
    bfec:	45 01 c8             	add    %r9d,%r8d
    bfef:	45 89 d3             	mov    %r10d,%r11d
    bff2:	41 f7 d3             	not    %r11d
    bff5:	45 09 c3             	or     %r8d,%r11d
    bff8:	45 31 cb             	xor    %r9d,%r11d
    bffb:	44 01 df             	add    %r11d,%edi
    bffe:	44 01 e7             	add    %r12d,%edi
    c001:	c1 c7 0a             	rol    $0xa,%edi
    c004:	45 8d 3c 38          	lea    (%r8,%rdi,1),%r15d
    c008:	41 01 ca             	add    %ecx,%r10d
    c00b:	44 89 c9             	mov    %r9d,%ecx
    c00e:	44 03 4c 24 70       	add    0x70(%rsp),%r9d
    c013:	f7 d1                	not    %ecx
    c015:	44 09 f9             	or     %r15d,%ecx
    c018:	44 31 c1             	xor    %r8d,%ecx
    c01b:	45 8d 94 0a a7 23 94 	lea    0xffffffffab9423a7(%r10,%rcx,1),%r10d
    c022:	ab 
    c023:	41 c1 c2 0f          	rol    $0xf,%r10d
    c027:	45 01 fa             	add    %r15d,%r10d
    c02a:	44 89 c6             	mov    %r8d,%esi
    c02d:	f7 d6                	not    %esi
    c02f:	44 09 d6             	or     %r10d,%esi
    c032:	44 31 fe             	xor    %r15d,%esi
    c035:	45 8d 8c 31 39 a0 93 	lea    0xfffffffffc93a039(%r9,%rsi,1),%r9d
    c03c:	fc 
    c03d:	41 c1 c1 15          	rol    $0x15,%r9d
    c041:	45 01 d1             	add    %r10d,%r9d
    c044:	8b 74 24 50          	mov    0x50(%rsp),%esi
    c048:	45 01 c5             	add    %r8d,%r13d
    c04b:	41 f7 d7             	not    %r15d
    c04e:	45 09 cf             	or     %r9d,%r15d
    c051:	45 31 d7             	xor    %r10d,%r15d
    c054:	45 8d 9c 38 92 cc 0c 	lea    0xffffffff8f0ccc92(%r8,%rdi,1),%r11d
    c05b:	8f 
    c05c:	8b 7c 24 58          	mov    0x58(%rsp),%edi
    c060:	4c 8b 44 24 48       	mov    0x48(%rsp),%r8
    c065:	43 8d 8c 3d c3 59 5b 	lea    0x655b59c3(%r13,%r15,1),%ecx
    c06c:	65 
    c06d:	c1 c1 06             	rol    $0x6,%ecx
    c070:	44 01 c9             	add    %r9d,%ecx
    c073:	45 89 d5             	mov    %r10d,%r13d
    c076:	41 f7 d5             	not    %r13d
    c079:	41 09 cd             	or     %ecx,%r13d
    c07c:	45 31 cd             	xor    %r9d,%r13d
    c07f:	44 01 ed             	add    %r13d,%ebp
    c082:	44 03 54 24 20       	add    0x20(%rsp),%r10d
    c087:	44 01 dd             	add    %r11d,%ebp
    c08a:	c1 c5 0a             	rol    $0xa,%ebp
    c08d:	44 8d 2c 29          	lea    (%rcx,%rbp,1),%r13d
    c091:	45 89 ce             	mov    %r9d,%r14d
    c094:	41 f7 d6             	not    %r14d
    c097:	45 09 ee             	or     %r13d,%r14d
    c09a:	41 31 ce             	xor    %ecx,%r14d
    c09d:	47 8d a4 32 7d f4 ef 	lea    0xffffffffffeff47d(%r10,%r14,1),%r12d
    c0a4:	ff 
    c0a5:	41 c1 c4 0f          	rol    $0xf,%r12d
    c0a9:	45 01 ec             	add    %r13d,%r12d
    c0ac:	41 01 c1             	add    %eax,%r9d
    c0af:	8b 44 24 30          	mov    0x30(%rsp),%eax
    c0b3:	41 89 cf             	mov    %ecx,%r15d
    c0b6:	41 f7 d7             	not    %r15d
    c0b9:	45 09 e7             	or     %r12d,%r15d
    c0bc:	45 31 ef             	xor    %r13d,%r15d
    c0bf:	47 8d 9c 39 d1 5d 84 	lea    0xffffffff85845dd1(%r9,%r15,1),%r11d
    c0c6:	85 
    c0c7:	41 c1 c3 15          	rol    $0x15,%r11d
    c0cb:	45 01 e3             	add    %r12d,%r11d
    c0ce:	01 c8                	add    %ecx,%eax
    c0d0:	41 f7 d5             	not    %r13d
    c0d3:	45 09 dd             	or     %r11d,%r13d
    c0d6:	45 31 e5             	xor    %r12d,%r13d
    c0d9:	46 8d 94 28 4f 7e a8 	lea    0x6fa87e4f(%rax,%r13,1),%r10d
    c0e0:	6f 
    c0e1:	41 c1 c2 06          	rol    $0x6,%r10d
    c0e5:	45 01 da             	add    %r11d,%r10d
    c0e8:	45 89 e1             	mov    %r12d,%r9d
    c0eb:	41 f7 d1             	not    %r9d
    c0ee:	44 03 64 24 18       	add    0x18(%rsp),%r12d
    c0f3:	45 09 d1             	or     %r10d,%r9d
    c0f6:	45 31 d9             	xor    %r11d,%r9d
    c0f9:	44 01 ca             	add    %r9d,%edx
    c0fc:	8d ac 29 e0 e6 2c fe 	lea    0xfffffffffe2ce6e0(%rcx,%rbp,1),%ebp
    c103:	01 ea                	add    %ebp,%edx
    c105:	c1 c2 0a             	rol    $0xa,%edx
    c108:	45 8d 2c 12          	lea    (%r10,%rdx,1),%r13d
    c10c:	44 89 d9             	mov    %r11d,%ecx
    c10f:	f7 d1                	not    %ecx
    c111:	44 09 e9             	or     %r13d,%ecx
    c114:	44 03 5c 24 40       	add    0x40(%rsp),%r11d
    c119:	44 31 d1             	xor    %r10d,%ecx
    c11c:	45 8d 8c 0c 14 43 01 	lea    0xffffffffa3014314(%r12,%rcx,1),%r9d
    c123:	a3 
    c124:	41 c1 c1 0f          	rol    $0xf,%r9d
    c128:	45 01 e9             	add    %r13d,%r9d
    c12b:	44 89 d0             	mov    %r10d,%eax
    c12e:	f7 d0                	not    %eax
    c130:	44 09 c8             	or     %r9d,%eax
    c133:	44 31 e8             	xor    %r13d,%eax
    c136:	41 f7 d5             	not    %r13d
    c139:	45 89 cc             	mov    %r9d,%r12d
    c13c:	41 8d 84 03 a1 11 08 	lea    0x4e0811a1(%r11,%rax,1),%eax
    c143:	4e 
    c144:	44 8b 5c 24 28       	mov    0x28(%rsp),%r11d
    c149:	c1 c0 15             	rol    $0x15,%eax
    c14c:	44 01 c8             	add    %r9d,%eax
    c14f:	45 01 d3             	add    %r10d,%r11d
    c152:	41 09 c5             	or     %eax,%r13d
    c155:	45 31 cd             	xor    %r9d,%r13d
    c158:	44 03 4c 24 08       	add    0x8(%rsp),%r9d
    c15d:	43 8d 8c 2b 82 7e 53 	lea    0xfffffffff7537e82(%r11,%r13,1),%ecx
    c164:	f7 
    c165:	c1 c1 06             	rol    $0x6,%ecx
    c168:	01 c1                	add    %eax,%ecx
    c16a:	41 f7 d4             	not    %r12d
    c16d:	41 09 cc             	or     %ecx,%r12d
    c170:	41 31 c4             	xor    %eax,%r12d
    c173:	44 01 e3             	add    %r12d,%ebx
    c176:	41 8d 94 12 35 f2 3a 	lea    0xffffffffbd3af235(%r10,%rdx,1),%edx
    c17d:	bd 
    c17e:	01 d3                	add    %edx,%ebx
    c180:	c1 c3 0a             	rol    $0xa,%ebx
    c183:	01 cb                	add    %ecx,%ebx
    c185:	41 89 c2             	mov    %eax,%r10d
    c188:	41 f7 d2             	not    %r10d
    c18b:	41 09 da             	or     %ebx,%r10d
    c18e:	03 44 24 38          	add    0x38(%rsp),%eax
    c192:	41 31 ca             	xor    %ecx,%r10d
    c195:	43 8d ac 11 bb d2 d7 	lea    0x2ad7d2bb(%r9,%r10,1),%ebp
    c19c:	2a 
    c19d:	c1 c5 0f             	rol    $0xf,%ebp
    c1a0:	01 dd                	add    %ebx,%ebp
    c1a2:	41 89 c9             	mov    %ecx,%r9d
    c1a5:	41 f7 d1             	not    %r9d
    c1a8:	41 09 e9             	or     %ebp,%r9d
    c1ab:	41 31 d9             	xor    %ebx,%r9d
    c1ae:	46 8d 9c 08 91 d3 86 	lea    0xffffffffeb86d391(%rax,%r9,1),%r11d
    c1b5:	eb 
    c1b6:	41 c1 c3 15          	rol    $0x15,%r11d
    c1ba:	03 5c 24 10          	add    0x10(%rsp),%ebx
    c1be:	8b 04 24             	mov    (%rsp),%eax
    c1c1:	41 01 eb             	add    %ebp,%r11d
    c1c4:	01 c8                	add    %ecx,%eax
    c1c6:	41 89 00             	mov    %eax,(%r8)
    c1c9:	44 01 de             	add    %r11d,%esi
    c1cc:	41 89 70 04          	mov    %esi,0x4(%r8)
    c1d0:	01 ef                	add    %ebp,%edi
    c1d2:	41 89 78 08          	mov    %edi,0x8(%r8)
    c1d6:	41 89 58 0c          	mov    %ebx,0xc(%r8)
    c1da:	48 81 c4 98 00 00 00 	add    $0x98,%rsp
    c1e1:	5b                   	pop    %rbx
    c1e2:	5d                   	pop    %rbp
    c1e3:	41 5c                	pop    %r12
    c1e5:	41 5d                	pop    %r13
    c1e7:	41 5e                	pop    %r14
    c1e9:	41 5f                	pop    %r15
    c1eb:	c3                   	retq   
    c1ec:	66 66 66 90          	xchg   %ax,%ax

000000000000c1f0 <main_test>:
    c1f0:	56                   	push   %rsi
    c1f1:	31 db                	xor    %ebx,%ebx
    c1f3:	eb 05                	jmp    c1fa <main_test+0xa>
    c1f5:	e8 d6 01 00 00       	callq  c3d0 <correct>
    c1fa:	31 ed                	xor    %ebp,%ebp
    c1fc:	45 31 e4             	xor    %r12d,%r12d
    c1ff:	e8 7c 00 00 00       	callq  c280 <self_check>
    c204:	85 c0                	test   %eax,%eax
    c206:	75 07                	jne    c20f <main_test+0x1f>
    c208:	e8 e3 01 00 00       	callq  c3f0 <sdc>
    c20d:	eb 0a                	jmp    c219 <main_test+0x29>
    c20f:	83 f8 01             	cmp    $0x1,%eax
    c212:	75 05                	jne    c219 <main_test+0x29>
    c214:	e8 b7 01 00 00       	callq  c3d0 <correct>
    c219:	41 ff c4             	inc    %r12d
    c21c:	41 81 fc 40 42 0f 00 	cmp    $0xf4240,%r12d
    c223:	7e da                	jle    c1ff <main_test+0xf>
    c225:	45 31 e4             	xor    %r12d,%r12d
    c228:	ff cb                	dec    %ebx
    c22a:	e8 51 00 00 00       	callq  c280 <self_check>
    c22f:	85 c0                	test   %eax,%eax
    c231:	75 07                	jne    c23a <main_test+0x4a>
    c233:	e8 b8 01 00 00       	callq  c3f0 <sdc>
    c238:	eb 0a                	jmp    c244 <main_test+0x54>
    c23a:	83 f8 01             	cmp    $0x1,%eax
    c23d:	75 05                	jne    c244 <main_test+0x54>
    c23f:	e8 8c 01 00 00       	callq  c3d0 <correct>
    c244:	41 ff c4             	inc    %r12d
    c247:	41 81 fc 40 42 0f 00 	cmp    $0xf4240,%r12d
    c24e:	7e d8                	jle    c228 <main_test+0x38>
    c250:	90                   	nop    
    c251:	90                   	nop    
    c252:	85 db                	test   %ebx,%ebx
    c254:	75 0c                	jne    c262 <main_test+0x72>
    c256:	ff c5                	inc    %ebp
    c258:	81 fd a0 0f 00 00    	cmp    $0xfa0,%ebp
    c25e:	7e 9c                	jle    c1fc <main_test+0xc>
    c260:	eb 93                	jmp    c1f5 <main_test+0x5>
    c262:	90                   	nop    
    c263:	90                   	nop    
    c264:	48 8d bf 00 00 00 00 	lea    0x0(%rdi),%rdi
    c26b:	e8 80 01 00 00       	callq  c3f0 <sdc>
    c270:	eb fe                	jmp    c270 <main_test+0x80>
    c272:	66 66 66 90          	xchg   %ax,%ax
    c276:	66 66 66 90          	xchg   %ax,%ax
    c27a:	66 66 90             	xchg   %ax,%ax
    c27d:	66 66 90             	xchg   %ax,%ax

000000000000c280 <self_check>:
    c280:	48 83 ec 18          	sub    $0x18,%rsp
    c284:	c6 44 24 10 61       	movb   $0x61,0x10(%rsp)
    c289:	be 01 00 00 00       	mov    $0x1,%esi
    c28e:	48 8d 7c 24 10       	lea    0x10(%rsp),%rdi
    c293:	48 8d 14 24          	lea    (%rsp),%rdx
    c297:	e8 44 00 00 00       	callq  c2e0 <md5_hash>
    c29c:	8b 04 24             	mov    (%rsp),%eax
    c29f:	3d 0c c1 75 b9       	cmp    $0xb975c10c,%eax
    c2a4:	75 2b                	jne    c2d1 <self_check+0x51>
    c2a6:	8b 44 24 04          	mov    0x4(%rsp),%eax
    c2aa:	3d c0 f1 b6 a8       	cmp    $0xa8b6f1c0,%eax
    c2af:	75 20                	jne    c2d1 <self_check+0x51>
    c2b1:	8b 44 24 08          	mov    0x8(%rsp),%eax
    c2b5:	3d 31 c3 99 e2       	cmp    $0xe299c331,%eax
    c2ba:	75 15                	jne    c2d1 <self_check+0x51>
    c2bc:	8b 44 24 0c          	mov    0xc(%rsp),%eax
    c2c0:	3d 69 77 26 61       	cmp    $0x61267769,%eax
    c2c5:	75 0a                	jne    c2d1 <self_check+0x51>
    c2c7:	b8 01 00 00 00       	mov    $0x1,%eax
    c2cc:	48 83 c4 18          	add    $0x18,%rsp
    c2d0:	c3                   	retq   
    c2d1:	31 c0                	xor    %eax,%eax
    c2d3:	48 83 c4 18          	add    $0x18,%rsp
    c2d7:	c3                   	retq   
    c2d8:	66 66 66 90          	xchg   %ax,%ax
    c2dc:	66 66 66 90          	xchg   %ax,%ax

000000000000c2e0 <md5_hash>:
    c2e0:	41 57                	push   %r15
    c2e2:	48 83 ec 40          	sub    $0x40,%rsp
    c2e6:	49 89 d7             	mov    %rdx,%r15
    c2e9:	41 c7 07 01 23 45 67 	movl   $0x67452301,(%r15)
    c2f0:	41 c7 47 04 89 ab cd 	movl   $0xefcdab89,0x4(%r15)
    c2f7:	ef 
    c2f8:	41 c7 47 08 fe dc ba 	movl   $0x98badcfe,0x8(%r15)
    c2ff:	98 
    c300:	41 c7 47 0c 76 54 32 	movl   $0x10325476,0xc(%r15)
    c307:	10 
    c308:	0f b6 07             	movzbl (%rdi),%eax
    c30b:	88 04 24             	mov    %al,(%rsp)
    c30e:	c6 44 24 01 80       	movb   $0x80,0x1(%rsp)
    c313:	48 8d 7c 24 02       	lea    0x2(%rsp),%rdi
    c318:	31 f6                	xor    %esi,%esi
    c31a:	ba 36 00 00 00       	mov    $0x36,%edx
    c31f:	e8 2c 00 00 00       	callq  c350 <memset_nik>
    c324:	c7 44 24 38 08 00 00 	movl   $0x8,0x38(%rsp)
    c32b:	00 
    c32c:	48 8d 34 24          	lea    (%rsp),%rsi
    c330:	4c 89 ff             	mov    %r15,%rdi
    c333:	c7 44 24 3c 00 00 00 	movl   $0x0,0x3c(%rsp)
    c33a:	00 
    c33b:	e8 20 f6 ff ff       	callq  b960 <md5_compress>
    c340:	48 83 c4 40          	add    $0x40,%rsp
    c344:	41 5f                	pop    %r15
    c346:	c3                   	retq   
    c347:	66 66 90             	xchg   %ax,%ax
    c34a:	66 66 90             	xchg   %ax,%ax
    c34d:	66 66 90             	xchg   %ax,%ax

000000000000c350 <memset_nik>:
    c350:	48 85 d2             	test   %rdx,%rdx
    c353:	74 69                	je     c3be <memset_nik+0x6e>
    c355:	49 89 f8             	mov    %rdi,%r8
    c358:	49 83 e0 0f          	and    $0xf,%r8
    c35c:	4c 89 c1             	mov    %r8,%rcx
    c35f:	48 f7 d9             	neg    %rcx
    c362:	48 83 c1 10          	add    $0x10,%rcx
    c366:	49 83 f8 00          	cmp    $0x0,%r8
    c36a:	4c 0f 45 c1          	cmovne %rcx,%r8
    c36e:	49 8d 70 10          	lea    0x10(%r8),%rsi
    c372:	48 39 f2             	cmp    %rsi,%rdx
    c375:	7c 4b                	jl     c3c2 <memset_nik+0x72>
    c377:	48 89 d6             	mov    %rdx,%rsi
    c37a:	4c 29 c6             	sub    %r8,%rsi
    c37d:	48 83 e6 0f          	and    $0xf,%rsi
    c381:	48 f7 de             	neg    %rsi
    c384:	48 01 d6             	add    %rdx,%rsi
    c387:	31 c9                	xor    %ecx,%ecx
    c389:	4d 85 c0             	test   %r8,%r8
    c38c:	76 0c                	jbe    c39a <memset_nik+0x4a>
    c38e:	c6 04 39 00          	movb   $0x0,(%rcx,%rdi,1)
    c392:	48 ff c1             	inc    %rcx
    c395:	4c 39 c1             	cmp    %r8,%rcx
    c398:	72 f4                	jb     c38e <memset_nik+0x3e>
    c39a:	66 0f ef c0          	pxor   %xmm0,%xmm0
    c39e:	66 41 0f 7f 04 38    	movdqa %xmm0,(%r8,%rdi,1)
    c3a4:	49 83 c0 10          	add    $0x10,%r8
    c3a8:	49 39 f0             	cmp    %rsi,%r8
    c3ab:	72 f1                	jb     c39e <memset_nik+0x4e>
    c3ad:	48 39 d6             	cmp    %rdx,%rsi
    c3b0:	73 0c                	jae    c3be <memset_nik+0x6e>
    c3b2:	c6 04 3e 00          	movb   $0x0,(%rsi,%rdi,1)
    c3b6:	48 ff c6             	inc    %rsi
    c3b9:	48 39 d6             	cmp    %rdx,%rsi
    c3bc:	72 f4                	jb     c3b2 <memset_nik+0x62>
    c3be:	48 89 f8             	mov    %rdi,%rax
    c3c1:	c3                   	retq   
    c3c2:	31 f6                	xor    %esi,%esi
    c3c4:	eb e7                	jmp    c3ad <memset_nik+0x5d>
    c3c6:	66 66 66 90          	xchg   %ax,%ax
    c3ca:	66 66 90             	xchg   %ax,%ax
    c3cd:	66 66 90             	xchg   %ax,%ax

000000000000c3d0 <correct>:
    c3d0:	31 c0                	xor    %eax,%eax
    c3d2:	b8 01 00 00 00       	mov    $0x1,%eax
    c3d7:	0f a2                	cpuid  
    c3d9:	c1 eb 18             	shr    $0x18,%ebx
    c3dc:	31 c0                	xor    %eax,%eax
    c3de:	01 d8                	add    %ebx,%eax
    c3e0:	c1 e0 02             	shl    $0x2,%eax
    c3e3:	66 ba f8 03          	mov    $0x3f8,%dx
    c3e7:	ee                   	out    %al,(%dx)
    c3e8:	31 db                	xor    %ebx,%ebx
    c3ea:	c3                   	retq   
    c3eb:	66 66 90             	xchg   %ax,%ax
    c3ee:	66 90                	xchg   %ax,%ax

000000000000c3f0 <sdc>:
    c3f0:	31 c0                	xor    %eax,%eax
    c3f2:	b8 01 00 00 00       	mov    $0x1,%eax
    c3f7:	0f a2                	cpuid  
    c3f9:	c1 eb 18             	shr    $0x18,%ebx
    c3fc:	31 c0                	xor    %eax,%eax
    c3fe:	01 d8                	add    %ebx,%eax
    c400:	c1 e0 02             	shl    $0x2,%eax
    c403:	66 ba f8 03          	mov    $0x3f8,%dx
    c407:	83 c0 01             	add    $0x1,%eax
    c40a:	ee                   	out    %al,(%dx)
    c40b:	c3                   	retq   
    c40c:	66 66 66 90          	xchg   %ax,%ax

000000000000c410 <start_delay>:
    c410:	31 c0                	xor    %eax,%eax
    c412:	b8 01 00 00 00       	mov    $0x1,%eax
    c417:	0f a2                	cpuid  
    c419:	c1 eb 12             	shr    $0x12,%ebx
    c41c:	31 c9                	xor    %ecx,%ecx
    c41e:	01 d9                	add    %ebx,%ecx
    c420:	48 c1 e1 14          	shl    $0x14,%rcx
    c424:	e2 fe                	loop   c424 <start_delay+0x14>
    c426:	c3                   	retq   
    c427:	66 66 90             	xchg   %ax,%ax
    c42a:	66 66 90             	xchg   %ax,%ax
    c42d:	66 66 90             	xchg   %ax,%ax

000000000000c430 <__intel_proc_init_N.A>:
    c430:	48 81 ec 08 02 00 00 	sub    $0x208,%rsp
    c437:	bf 01 00 00 00       	mov    $0x1,%edi
    c43c:	33 f6                	xor    %esi,%esi
    c43e:	33 d2                	xor    %edx,%edx
    c440:	33 c0                	xor    %eax,%eax
    c442:	e8 29 15 00 00       	callq  d970 <irc__print>
    c447:	bf 01 00 00 00       	mov    $0x1,%edi
    c44c:	be 17 00 00 00       	mov    $0x17,%esi
    c451:	33 d2                	xor    %edx,%edx
    c453:	33 c0                	xor    %eax,%eax
    c455:	e8 16 15 00 00       	callq  d970 <irc__print>
    c45a:	bf 2d 00 00 00       	mov    $0x2d,%edi
    c45f:	33 f6                	xor    %esi,%esi
    c461:	33 c0                	xor    %eax,%eax
    c463:	e8 58 17 00 00       	callq  dbc0 <irc__get_msg>
    c468:	48 8d 3c 24          	lea    (%rsp),%rdi
    c46c:	48 89 c6             	mov    %rax,%rsi
    c46f:	ba 00 02 00 00       	mov    $0x200,%edx
    c474:	e8 ff f0 ff ff       	callq  b578 <getenv@plt+0x8>
    c479:	48 8d 0c 24          	lea    (%rsp),%rcx
    c47d:	bf 01 00 00 00       	mov    $0x1,%edi
    c482:	be 18 00 00 00       	mov    $0x18,%esi
    c487:	89 fa                	mov    %edi,%edx
    c489:	33 c0                	xor    %eax,%eax
    c48b:	e8 e0 14 00 00       	callq  d970 <irc__print>
    c490:	bf 01 00 00 00       	mov    $0x1,%edi
    c495:	33 f6                	xor    %esi,%esi
    c497:	33 d2                	xor    %edx,%edx
    c499:	33 c0                	xor    %eax,%eax
    c49b:	e8 d0 14 00 00       	callq  d970 <irc__print>
    c4a0:	bf 01 00 00 00       	mov    $0x1,%edi
    c4a5:	e8 3e f1 ff ff       	callq  b5e8 <memset@plt+0x8>
    c4aa:	90                   	nop    
    c4ab:	48 8d 74 26 00       	lea    0x0(%rsi),%rsi

000000000000c4b0 <__intel_proc_init_N.J>:
    c4b0:	48 81 ec 08 02 00 00 	sub    $0x208,%rsp
    c4b7:	48 8d 3c 24          	lea    (%rsp),%rdi
    c4bb:	33 f6                	xor    %esi,%esi
    c4bd:	ba 00 02 00 00       	mov    $0x200,%edx
    c4c2:	e8 11 f1 ff ff       	callq  b5d8 <strchr@plt+0x8>
    c4c7:	0f ae 04 24          	fxsave (%rsp)
    c4cb:	8b 54 24 1c          	mov    0x1c(%rsp),%edx
    c4cf:	0f ae 9c 24 00 02 00 	stmxcsr 0x200(%rsp)
    c4d6:	00 
    c4d7:	8b 84 24 00 02 00 00 	mov    0x200(%rsp),%eax
    c4de:	83 e2 40             	and    $0x40,%edx
    c4e1:	0d 00 80 00 00       	or     $0x8000,%eax
    c4e6:	89 84 24 00 02 00 00 	mov    %eax,0x200(%rsp)
    c4ed:	0f ae 94 24 00 02 00 	ldmxcsr 0x200(%rsp)
    c4f4:	00 
    c4f5:	85 d2                	test   %edx,%edx
    c4f7:	74 21                	je     c51a <__intel_proc_init_N.J+0x6a>
    c4f9:	0f ae 9c 24 00 02 00 	stmxcsr 0x200(%rsp)
    c500:	00 
    c501:	8b 84 24 00 02 00 00 	mov    0x200(%rsp),%eax
    c508:	83 c8 40             	or     $0x40,%eax
    c50b:	89 84 24 00 02 00 00 	mov    %eax,0x200(%rsp)
    c512:	0f ae 94 24 00 02 00 	ldmxcsr 0x200(%rsp)
    c519:	00 
    c51a:	48 81 c4 08 02 00 00 	add    $0x208,%rsp
    c521:	c3                   	retq   
    c522:	48 8d b6 00 00 00 00 	lea    0x0(%rsi),%rsi
    c529:	48 8d bf 00 00 00 00 	lea    0x0(%rdi),%rdi

000000000000c530 <__intel_proc_init_N.K>:
    c530:	0f ae 5c 24 f8       	stmxcsr 0xfffffffffffffff8(%rsp)
    c535:	8b 44 24 f8          	mov    0xfffffffffffffff8(%rsp),%eax
    c539:	0d 00 80 00 00       	or     $0x8000,%eax
    c53e:	89 44 24 f8          	mov    %eax,0xfffffffffffffff8(%rsp)
    c542:	0f ae 54 24 f8       	ldmxcsr 0xfffffffffffffff8(%rsp)
    c547:	0f ae 5c 24 f8       	stmxcsr 0xfffffffffffffff8(%rsp)
    c54c:	8b 44 24 f8          	mov    0xfffffffffffffff8(%rsp),%eax
    c550:	83 c8 40             	or     $0x40,%eax
    c553:	89 44 24 f8          	mov    %eax,0xfffffffffffffff8(%rsp)
    c557:	0f ae 54 24 f8       	ldmxcsr 0xfffffffffffffff8(%rsp)
    c55c:	c3                   	retq   
    c55d:	48 89 f6             	mov    %rsi,%rsi

000000000000c560 <__intel_proc_init_N.L>:
    c560:	0f ae 5c 24 f8       	stmxcsr 0xfffffffffffffff8(%rsp)
    c565:	8b 44 24 f8          	mov    0xfffffffffffffff8(%rsp),%eax
    c569:	0d 00 80 00 00       	or     $0x8000,%eax
    c56e:	89 44 24 f8          	mov    %eax,0xfffffffffffffff8(%rsp)
    c572:	0f ae 54 24 f8       	ldmxcsr 0xfffffffffffffff8(%rsp)
    c577:	0f ae 5c 24 f8       	stmxcsr 0xfffffffffffffff8(%rsp)
    c57c:	8b 44 24 f8          	mov    0xfffffffffffffff8(%rsp),%eax
    c580:	83 c8 40             	or     $0x40,%eax
    c583:	89 44 24 f8          	mov    %eax,0xfffffffffffffff8(%rsp)
    c587:	0f ae 54 24 f8       	ldmxcsr 0xfffffffffffffff8(%rsp)
    c58c:	c3                   	retq   
    c58d:	48 89 f6             	mov    %rsi,%rsi

000000000000c590 <__intel_proc_init_N>:
    c590:	48 8b 05 11 3a 10 00 	mov    1063441(%rip),%rax        # 10ffa8 <_IO_stdin_used+0x101fa8>
    c597:	8b 00                	mov    (%rax),%eax
    c599:	a9 00 f8 ff ff       	test   $0xfffff800,%eax
    c59e:	0f 85 bc ff ff ff    	jne    c560 <__intel_proc_init_N.L>
    c5a4:	a9 00 04 00 00       	test   $0x400,%eax
    c5a9:	0f 85 81 ff ff ff    	jne    c530 <__intel_proc_init_N.K>
    c5af:	a9 00 fe ff ff       	test   $0xfffffe00,%eax
    c5b4:	0f 85 f6 fe ff ff    	jne    c4b0 <__intel_proc_init_N.J>
    c5ba:	a9 ff ff ff ff       	test   $0xffffffff,%eax
    c5bf:	0f 85 6b fe ff ff    	jne    c430 <__intel_proc_init_N.A>
    c5c5:	48 83 ec 08          	sub    $0x8,%rsp
    c5c9:	e8 e2 17 00 00       	callq  ddb0 <__intel_cpu_indicator_init>
    c5ce:	48 83 c4 08          	add    $0x8,%rsp
    c5d2:	eb bc                	jmp    c590 <__intel_proc_init_N>
    c5d4:	90                   	nop    
    c5d5:	48 8d 74 26 00       	lea    0x0(%rsi),%rsi
    c5da:	90                   	nop    
    c5db:	48 8d 7c 27 00       	lea    0x0(%rdi),%rdi

000000000000c5e0 <__intel_new_proc_init_N.A>:
    c5e0:	48 81 ec 08 02 00 00 	sub    $0x208,%rsp
    c5e7:	bf 01 00 00 00       	mov    $0x1,%edi
    c5ec:	33 f6                	xor    %esi,%esi
    c5ee:	33 d2                	xor    %edx,%edx
    c5f0:	33 c0                	xor    %eax,%eax
    c5f2:	e8 79 13 00 00       	callq  d970 <irc__print>
    c5f7:	bf 01 00 00 00       	mov    $0x1,%edi
    c5fc:	be 17 00 00 00       	mov    $0x17,%esi
    c601:	33 d2                	xor    %edx,%edx
    c603:	33 c0                	xor    %eax,%eax
    c605:	e8 66 13 00 00       	callq  d970 <irc__print>
    c60a:	bf 2d 00 00 00       	mov    $0x2d,%edi
    c60f:	33 f6                	xor    %esi,%esi
    c611:	33 c0                	xor    %eax,%eax
    c613:	e8 a8 15 00 00       	callq  dbc0 <irc__get_msg>
    c618:	48 8d 3c 24          	lea    (%rsp),%rdi
    c61c:	48 89 c6             	mov    %rax,%rsi
    c61f:	ba 00 02 00 00       	mov    $0x200,%edx
    c624:	e8 4f ef ff ff       	callq  b578 <getenv@plt+0x8>
    c629:	48 8d 0c 24          	lea    (%rsp),%rcx
    c62d:	bf 01 00 00 00       	mov    $0x1,%edi
    c632:	be 18 00 00 00       	mov    $0x18,%esi
    c637:	89 fa                	mov    %edi,%edx
    c639:	33 c0                	xor    %eax,%eax
    c63b:	e8 30 13 00 00       	callq  d970 <irc__print>
    c640:	bf 01 00 00 00       	mov    $0x1,%edi
    c645:	33 f6                	xor    %esi,%esi
    c647:	33 d2                	xor    %edx,%edx
    c649:	33 c0                	xor    %eax,%eax
    c64b:	e8 20 13 00 00       	callq  d970 <irc__print>
    c650:	bf 01 00 00 00       	mov    $0x1,%edi
    c655:	e8 8e ef ff ff       	callq  b5e8 <memset@plt+0x8>
    c65a:	90                   	nop    
    c65b:	48 8d 74 26 00       	lea    0x0(%rsi),%rsi

000000000000c660 <__intel_new_proc_init_N.J>:
    c660:	41 57                	push   %r15
    c662:	41 56                	push   %r14
    c664:	55                   	push   %rbp
    c665:	48 81 ec 10 02 00 00 	sub    $0x210,%rsp
    c66c:	41 89 ff             	mov    %edi,%r15d
    c66f:	44 89 fd             	mov    %r15d,%ebp
    c672:	83 e5 02             	and    $0x2,%ebp
    c675:	45 89 fe             	mov    %r15d,%r14d
    c678:	41 83 e6 04          	and    $0x4,%r14d
    c67c:	85 ed                	test   %ebp,%ebp
    c67e:	75 05                	jne    c685 <__intel_new_proc_init_N.J+0x25>
    c680:	45 85 f6             	test   %r14d,%r14d
    c683:	74 2c                	je     c6b1 <__intel_new_proc_init_N.J+0x51>
    c685:	48 8d 3c 24          	lea    (%rsp),%rdi
    c689:	33 f6                	xor    %esi,%esi
    c68b:	ba 00 02 00 00       	mov    $0x200,%edx
    c690:	e8 43 ef ff ff       	callq  b5d8 <strchr@plt+0x8>
    c695:	0f ae 04 24          	fxsave (%rsp)
    c699:	8b 54 24 1c          	mov    0x1c(%rsp),%edx
    c69d:	33 c9                	xor    %ecx,%ecx
    c69f:	89 d0                	mov    %edx,%eax
    c6a1:	83 e0 40             	and    $0x40,%eax
    c6a4:	0f 44 e9             	cmove  %ecx,%ebp
    c6a7:	81 e2 00 00 02 00    	and    $0x20000,%edx
    c6ad:	44 0f 44 f1          	cmove  %ecx,%r14d
    c6b1:	41 f7 c7 01 00 00 00 	test   $0x1,%r15d
    c6b8:	75 5a                	jne    c714 <__intel_new_proc_init_N.J+0xb4>
    c6ba:	85 ed                	test   %ebp,%ebp
    c6bc:	74 21                	je     c6df <__intel_new_proc_init_N.J+0x7f>
    c6be:	0f ae 9c 24 00 02 00 	stmxcsr 0x200(%rsp)
    c6c5:	00 
    c6c6:	8b 84 24 00 02 00 00 	mov    0x200(%rsp),%eax
    c6cd:	83 c8 40             	or     $0x40,%eax
    c6d0:	89 84 24 00 02 00 00 	mov    %eax,0x200(%rsp)
    c6d7:	0f ae 94 24 00 02 00 	ldmxcsr 0x200(%rsp)
    c6de:	00 
    c6df:	45 85 f6             	test   %r14d,%r14d
    c6e2:	74 23                	je     c707 <__intel_new_proc_init_N.J+0xa7>
    c6e4:	0f ae 9c 24 00 02 00 	stmxcsr 0x200(%rsp)
    c6eb:	00 
    c6ec:	8b 84 24 00 02 00 00 	mov    0x200(%rsp),%eax
    c6f3:	0d 00 00 02 00       	or     $0x20000,%eax
    c6f8:	89 84 24 00 02 00 00 	mov    %eax,0x200(%rsp)
    c6ff:	0f ae 94 24 00 02 00 	ldmxcsr 0x200(%rsp)
    c706:	00 
    c707:	48 81 c4 10 02 00 00 	add    $0x210,%rsp
    c70e:	5d                   	pop    %rbp
    c70f:	41 5e                	pop    %r14
    c711:	41 5f                	pop    %r15
    c713:	c3                   	retq   
    c714:	0f ae 9c 24 00 02 00 	stmxcsr 0x200(%rsp)
    c71b:	00 
    c71c:	8b 84 24 00 02 00 00 	mov    0x200(%rsp),%eax
    c723:	0d 00 80 00 00       	or     $0x8000,%eax
    c728:	89 84 24 00 02 00 00 	mov    %eax,0x200(%rsp)
    c72f:	0f ae 94 24 00 02 00 	ldmxcsr 0x200(%rsp)
    c736:	00 
    c737:	eb 81                	jmp    c6ba <__intel_new_proc_init_N.J+0x5a>
    c739:	48 8d b6 00 00 00 00 	lea    0x0(%rsi),%rsi

000000000000c740 <__intel_new_proc_init_N.K>:
    c740:	41 57                	push   %r15
    c742:	41 56                	push   %r14
    c744:	55                   	push   %rbp
    c745:	48 81 ec 10 02 00 00 	sub    $0x210,%rsp
    c74c:	41 89 ff             	mov    %edi,%r15d
    c74f:	44 89 fd             	mov    %r15d,%ebp
    c752:	83 e5 02             	and    $0x2,%ebp
    c755:	45 89 fe             	mov    %r15d,%r14d
    c758:	41 83 e6 04          	and    $0x4,%r14d
    c75c:	74 2c                	je     c78a <__intel_new_proc_init_N.K+0x4a>
    c75e:	48 8d 3c 24          	lea    (%rsp),%rdi
    c762:	33 f6                	xor    %esi,%esi
    c764:	ba 00 02 00 00       	mov    $0x200,%edx
    c769:	e8 6a ee ff ff       	callq  b5d8 <strchr@plt+0x8>
    c76e:	0f ae 04 24          	fxsave (%rsp)
    c772:	8b 54 24 1c          	mov    0x1c(%rsp),%edx
    c776:	33 c9                	xor    %ecx,%ecx
    c778:	89 d0                	mov    %edx,%eax
    c77a:	83 e0 40             	and    $0x40,%eax
    c77d:	0f 44 e9             	cmove  %ecx,%ebp
    c780:	81 e2 00 00 02 00    	and    $0x20000,%edx
    c786:	44 0f 44 f1          	cmove  %ecx,%r14d
    c78a:	41 f7 c7 01 00 00 00 	test   $0x1,%r15d
    c791:	75 5a                	jne    c7ed <__intel_new_proc_init_N.K+0xad>
    c793:	85 ed                	test   %ebp,%ebp
    c795:	74 21                	je     c7b8 <__intel_new_proc_init_N.K+0x78>
    c797:	0f ae 9c 24 00 02 00 	stmxcsr 0x200(%rsp)
    c79e:	00 
    c79f:	8b 84 24 00 02 00 00 	mov    0x200(%rsp),%eax
    c7a6:	83 c8 40             	or     $0x40,%eax
    c7a9:	89 84 24 00 02 00 00 	mov    %eax,0x200(%rsp)
    c7b0:	0f ae 94 24 00 02 00 	ldmxcsr 0x200(%rsp)
    c7b7:	00 
    c7b8:	45 85 f6             	test   %r14d,%r14d
    c7bb:	74 23                	je     c7e0 <__intel_new_proc_init_N.K+0xa0>
    c7bd:	0f ae 9c 24 00 02 00 	stmxcsr 0x200(%rsp)
    c7c4:	00 
    c7c5:	8b 84 24 00 02 00 00 	mov    0x200(%rsp),%eax
    c7cc:	0d 00 00 02 00       	or     $0x20000,%eax
    c7d1:	89 84 24 00 02 00 00 	mov    %eax,0x200(%rsp)
    c7d8:	0f ae 94 24 00 02 00 	ldmxcsr 0x200(%rsp)
    c7df:	00 
    c7e0:	48 81 c4 10 02 00 00 	add    $0x210,%rsp
    c7e7:	5d                   	pop    %rbp
    c7e8:	41 5e                	pop    %r14
    c7ea:	41 5f                	pop    %r15
    c7ec:	c3                   	retq   
    c7ed:	0f ae 9c 24 00 02 00 	stmxcsr 0x200(%rsp)
    c7f4:	00 
    c7f5:	8b 84 24 00 02 00 00 	mov    0x200(%rsp),%eax
    c7fc:	0d 00 80 00 00       	or     $0x8000,%eax
    c801:	89 84 24 00 02 00 00 	mov    %eax,0x200(%rsp)
    c808:	0f ae 94 24 00 02 00 	ldmxcsr 0x200(%rsp)
    c80f:	00 
    c810:	eb 81                	jmp    c793 <__intel_new_proc_init_N.K+0x53>
    c812:	48 8d b6 00 00 00 00 	lea    0x0(%rsi),%rsi
    c819:	48 8d bf 00 00 00 00 	lea    0x0(%rdi),%rdi

000000000000c820 <__intel_new_proc_init_N.L>:
    c820:	41 57                	push   %r15
    c822:	41 56                	push   %r14
    c824:	55                   	push   %rbp
    c825:	48 81 ec 10 02 00 00 	sub    $0x210,%rsp
    c82c:	41 89 ff             	mov    %edi,%r15d
    c82f:	44 89 fd             	mov    %r15d,%ebp
    c832:	83 e5 02             	and    $0x2,%ebp
    c835:	45 89 fe             	mov    %r15d,%r14d
    c838:	41 83 e6 04          	and    $0x4,%r14d
    c83c:	74 2c                	je     c86a <__intel_new_proc_init_N.L+0x4a>
    c83e:	48 8d 3c 24          	lea    (%rsp),%rdi
    c842:	33 f6                	xor    %esi,%esi
    c844:	ba 00 02 00 00       	mov    $0x200,%edx
    c849:	e8 8a ed ff ff       	callq  b5d8 <strchr@plt+0x8>
    c84e:	0f ae 04 24          	fxsave (%rsp)
    c852:	8b 54 24 1c          	mov    0x1c(%rsp),%edx
    c856:	33 c9                	xor    %ecx,%ecx
    c858:	89 d0                	mov    %edx,%eax
    c85a:	83 e0 40             	and    $0x40,%eax
    c85d:	0f 44 e9             	cmove  %ecx,%ebp
    c860:	81 e2 00 00 02 00    	and    $0x20000,%edx
    c866:	44 0f 44 f1          	cmove  %ecx,%r14d
    c86a:	41 f7 c7 01 00 00 00 	test   $0x1,%r15d
    c871:	75 5a                	jne    c8cd <__intel_new_proc_init_N.L+0xad>
    c873:	85 ed                	test   %ebp,%ebp
    c875:	74 21                	je     c898 <__intel_new_proc_init_N.L+0x78>
    c877:	0f ae 9c 24 00 02 00 	stmxcsr 0x200(%rsp)
    c87e:	00 
    c87f:	8b 84 24 00 02 00 00 	mov    0x200(%rsp),%eax
    c886:	83 c8 40             	or     $0x40,%eax
    c889:	89 84 24 00 02 00 00 	mov    %eax,0x200(%rsp)
    c890:	0f ae 94 24 00 02 00 	ldmxcsr 0x200(%rsp)
    c897:	00 
    c898:	45 85 f6             	test   %r14d,%r14d
    c89b:	74 23                	je     c8c0 <__intel_new_proc_init_N.L+0xa0>
    c89d:	0f ae 9c 24 00 02 00 	stmxcsr 0x200(%rsp)
    c8a4:	00 
    c8a5:	8b 84 24 00 02 00 00 	mov    0x200(%rsp),%eax
    c8ac:	0d 00 00 02 00       	or     $0x20000,%eax
    c8b1:	89 84 24 00 02 00 00 	mov    %eax,0x200(%rsp)
    c8b8:	0f ae 94 24 00 02 00 	ldmxcsr 0x200(%rsp)
    c8bf:	00 
    c8c0:	48 81 c4 10 02 00 00 	add    $0x210,%rsp
    c8c7:	5d                   	pop    %rbp
    c8c8:	41 5e                	pop    %r14
    c8ca:	41 5f                	pop    %r15
    c8cc:	c3                   	retq   
    c8cd:	0f ae 9c 24 00 02 00 	stmxcsr 0x200(%rsp)
    c8d4:	00 
    c8d5:	8b 84 24 00 02 00 00 	mov    0x200(%rsp),%eax
    c8dc:	0d 00 80 00 00       	or     $0x8000,%eax
    c8e1:	89 84 24 00 02 00 00 	mov    %eax,0x200(%rsp)
    c8e8:	0f ae 94 24 00 02 00 	ldmxcsr 0x200(%rsp)
    c8ef:	00 
    c8f0:	eb 81                	jmp    c873 <__intel_new_proc_init_N.L+0x53>
    c8f2:	48 8d b6 00 00 00 00 	lea    0x0(%rsi),%rsi
    c8f9:	48 8d bf 00 00 00 00 	lea    0x0(%rdi),%rdi

000000000000c900 <__intel_new_proc_init_N>:
    c900:	48 8b 05 a1 36 10 00 	mov    1062561(%rip),%rax        # 10ffa8 <_IO_stdin_used+0x101fa8>
    c907:	8b 00                	mov    (%rax),%eax
    c909:	a9 00 f8 ff ff       	test   $0xfffff800,%eax
    c90e:	0f 85 0c ff ff ff    	jne    c820 <__intel_new_proc_init_N.L>
    c914:	a9 00 04 00 00       	test   $0x400,%eax
    c919:	0f 85 21 fe ff ff    	jne    c740 <__intel_new_proc_init_N.K>
    c91f:	a9 00 fe ff ff       	test   $0xfffffe00,%eax
    c924:	0f 85 36 fd ff ff    	jne    c660 <__intel_new_proc_init_N.J>
    c92a:	a9 ff ff ff ff       	test   $0xffffffff,%eax
    c92f:	0f 85 ab fc ff ff    	jne    c5e0 <__intel_new_proc_init_N.A>
    c935:	48 83 ec 08          	sub    $0x8,%rsp
    c939:	e8 72 14 00 00       	callq  ddb0 <__intel_cpu_indicator_init>
    c93e:	48 83 c4 08          	add    $0x8,%rsp
    c942:	eb bc                	jmp    c900 <__intel_new_proc_init_N>
    c944:	90                   	nop    
    c945:	48 8d 74 26 00       	lea    0x0(%rsi),%rsi
    c94a:	90                   	nop    
    c94b:	48 8d 7c 27 00       	lea    0x0(%rdi),%rdi

000000000000c950 <__intel_proc_init_B.A>:
    c950:	48 81 ec 08 02 00 00 	sub    $0x208,%rsp
    c957:	bf 01 00 00 00       	mov    $0x1,%edi
    c95c:	33 f6                	xor    %esi,%esi
    c95e:	33 d2                	xor    %edx,%edx
    c960:	33 c0                	xor    %eax,%eax
    c962:	e8 09 10 00 00       	callq  d970 <irc__print>
    c967:	bf 01 00 00 00       	mov    $0x1,%edi
    c96c:	be 17 00 00 00       	mov    $0x17,%esi
    c971:	33 d2                	xor    %edx,%edx
    c973:	33 c0                	xor    %eax,%eax
    c975:	e8 f6 0f 00 00       	callq  d970 <irc__print>
    c97a:	bf 2c 00 00 00       	mov    $0x2c,%edi
    c97f:	33 f6                	xor    %esi,%esi
    c981:	33 c0                	xor    %eax,%eax
    c983:	e8 38 12 00 00       	callq  dbc0 <irc__get_msg>
    c988:	48 8d 3c 24          	lea    (%rsp),%rdi
    c98c:	48 89 c6             	mov    %rax,%rsi
    c98f:	ba 00 02 00 00       	mov    $0x200,%edx
    c994:	e8 df eb ff ff       	callq  b578 <getenv@plt+0x8>
    c999:	48 8d 0c 24          	lea    (%rsp),%rcx
    c99d:	bf 01 00 00 00       	mov    $0x1,%edi
    c9a2:	be 18 00 00 00       	mov    $0x18,%esi
    c9a7:	89 fa                	mov    %edi,%edx
    c9a9:	33 c0                	xor    %eax,%eax
    c9ab:	e8 c0 0f 00 00       	callq  d970 <irc__print>
    c9b0:	bf 01 00 00 00       	mov    $0x1,%edi
    c9b5:	33 f6                	xor    %esi,%esi
    c9b7:	33 d2                	xor    %edx,%edx
    c9b9:	33 c0                	xor    %eax,%eax
    c9bb:	e8 b0 0f 00 00       	callq  d970 <irc__print>
    c9c0:	bf 01 00 00 00       	mov    $0x1,%edi
    c9c5:	e8 1e ec ff ff       	callq  b5e8 <memset@plt+0x8>
    c9ca:	90                   	nop    
    c9cb:	48 8d 74 26 00       	lea    0x0(%rsi),%rsi

000000000000c9d0 <__intel_proc_init_B.J>:
    c9d0:	48 81 ec 08 02 00 00 	sub    $0x208,%rsp
    c9d7:	48 8d 3c 24          	lea    (%rsp),%rdi
    c9db:	33 f6                	xor    %esi,%esi
    c9dd:	ba 00 02 00 00       	mov    $0x200,%edx
    c9e2:	e8 f1 eb ff ff       	callq  b5d8 <strchr@plt+0x8>
    c9e7:	0f ae 04 24          	fxsave (%rsp)
    c9eb:	8b 54 24 1c          	mov    0x1c(%rsp),%edx
    c9ef:	0f ae 9c 24 00 02 00 	stmxcsr 0x200(%rsp)
    c9f6:	00 
    c9f7:	8b 84 24 00 02 00 00 	mov    0x200(%rsp),%eax
    c9fe:	83 e2 40             	and    $0x40,%edx
    ca01:	0d 00 80 00 00       	or     $0x8000,%eax
    ca06:	89 84 24 00 02 00 00 	mov    %eax,0x200(%rsp)
    ca0d:	0f ae 94 24 00 02 00 	ldmxcsr 0x200(%rsp)
    ca14:	00 
    ca15:	85 d2                	test   %edx,%edx
    ca17:	74 21                	je     ca3a <__intel_proc_init_B.J+0x6a>
    ca19:	0f ae 9c 24 00 02 00 	stmxcsr 0x200(%rsp)
    ca20:	00 
    ca21:	8b 84 24 00 02 00 00 	mov    0x200(%rsp),%eax
    ca28:	83 c8 40             	or     $0x40,%eax
    ca2b:	89 84 24 00 02 00 00 	mov    %eax,0x200(%rsp)
    ca32:	0f ae 94 24 00 02 00 	ldmxcsr 0x200(%rsp)
    ca39:	00 
    ca3a:	48 81 c4 08 02 00 00 	add    $0x208,%rsp
    ca41:	c3                   	retq   
    ca42:	48 8d b6 00 00 00 00 	lea    0x0(%rsi),%rsi
    ca49:	48 8d bf 00 00 00 00 	lea    0x0(%rdi),%rdi

000000000000ca50 <__intel_proc_init_B.K>:
    ca50:	0f ae 5c 24 f8       	stmxcsr 0xfffffffffffffff8(%rsp)
    ca55:	8b 44 24 f8          	mov    0xfffffffffffffff8(%rsp),%eax
    ca59:	0d 00 80 00 00       	or     $0x8000,%eax
    ca5e:	89 44 24 f8          	mov    %eax,0xfffffffffffffff8(%rsp)
    ca62:	0f ae 54 24 f8       	ldmxcsr 0xfffffffffffffff8(%rsp)
    ca67:	0f ae 5c 24 f8       	stmxcsr 0xfffffffffffffff8(%rsp)
    ca6c:	8b 44 24 f8          	mov    0xfffffffffffffff8(%rsp),%eax
    ca70:	83 c8 40             	or     $0x40,%eax
    ca73:	89 44 24 f8          	mov    %eax,0xfffffffffffffff8(%rsp)
    ca77:	0f ae 54 24 f8       	ldmxcsr 0xfffffffffffffff8(%rsp)
    ca7c:	c3                   	retq   
    ca7d:	48 89 f6             	mov    %rsi,%rsi

000000000000ca80 <__intel_proc_init_B.L>:
    ca80:	0f ae 5c 24 f8       	stmxcsr 0xfffffffffffffff8(%rsp)
    ca85:	8b 44 24 f8          	mov    0xfffffffffffffff8(%rsp),%eax
    ca89:	0d 00 80 00 00       	or     $0x8000,%eax
    ca8e:	89 44 24 f8          	mov    %eax,0xfffffffffffffff8(%rsp)
    ca92:	0f ae 54 24 f8       	ldmxcsr 0xfffffffffffffff8(%rsp)
    ca97:	0f ae 5c 24 f8       	stmxcsr 0xfffffffffffffff8(%rsp)
    ca9c:	8b 44 24 f8          	mov    0xfffffffffffffff8(%rsp),%eax
    caa0:	83 c8 40             	or     $0x40,%eax
    caa3:	89 44 24 f8          	mov    %eax,0xfffffffffffffff8(%rsp)
    caa7:	0f ae 54 24 f8       	ldmxcsr 0xfffffffffffffff8(%rsp)
    caac:	c3                   	retq   
    caad:	48 89 f6             	mov    %rsi,%rsi

000000000000cab0 <__intel_proc_init_B>:
    cab0:	48 8b 05 f1 34 10 00 	mov    1062129(%rip),%rax        # 10ffa8 <_IO_stdin_used+0x101fa8>
    cab7:	8b 00                	mov    (%rax),%eax
    cab9:	a9 00 f8 ff ff       	test   $0xfffff800,%eax
    cabe:	0f 85 bc ff ff ff    	jne    ca80 <__intel_proc_init_B.L>
    cac4:	a9 00 04 00 00       	test   $0x400,%eax
    cac9:	0f 85 81 ff ff ff    	jne    ca50 <__intel_proc_init_B.K>
    cacf:	a9 00 fe ff ff       	test   $0xfffffe00,%eax
    cad4:	0f 85 f6 fe ff ff    	jne    c9d0 <__intel_proc_init_B.J>
    cada:	a9 ff ff ff ff       	test   $0xffffffff,%eax
    cadf:	0f 85 6b fe ff ff    	jne    c950 <__intel_proc_init_B.A>
    cae5:	48 83 ec 08          	sub    $0x8,%rsp
    cae9:	e8 c2 12 00 00       	callq  ddb0 <__intel_cpu_indicator_init>
    caee:	48 83 c4 08          	add    $0x8,%rsp
    caf2:	eb bc                	jmp    cab0 <__intel_proc_init_B>
    caf4:	90                   	nop    
    caf5:	48 8d 74 26 00       	lea    0x0(%rsi),%rsi
    cafa:	90                   	nop    
    cafb:	48 8d 7c 27 00       	lea    0x0(%rdi),%rdi

000000000000cb00 <__intel_new_proc_init_B.A>:
    cb00:	48 81 ec 08 02 00 00 	sub    $0x208,%rsp
    cb07:	bf 01 00 00 00       	mov    $0x1,%edi
    cb0c:	33 f6                	xor    %esi,%esi
    cb0e:	33 d2                	xor    %edx,%edx
    cb10:	33 c0                	xor    %eax,%eax
    cb12:	e8 59 0e 00 00       	callq  d970 <irc__print>
    cb17:	bf 01 00 00 00       	mov    $0x1,%edi
    cb1c:	be 17 00 00 00       	mov    $0x17,%esi
    cb21:	33 d2                	xor    %edx,%edx
    cb23:	33 c0                	xor    %eax,%eax
    cb25:	e8 46 0e 00 00       	callq  d970 <irc__print>
    cb2a:	bf 2c 00 00 00       	mov    $0x2c,%edi
    cb2f:	33 f6                	xor    %esi,%esi
    cb31:	33 c0                	xor    %eax,%eax
    cb33:	e8 88 10 00 00       	callq  dbc0 <irc__get_msg>
    cb38:	48 8d 3c 24          	lea    (%rsp),%rdi
    cb3c:	48 89 c6             	mov    %rax,%rsi
    cb3f:	ba 00 02 00 00       	mov    $0x200,%edx
    cb44:	e8 2f ea ff ff       	callq  b578 <getenv@plt+0x8>
    cb49:	48 8d 0c 24          	lea    (%rsp),%rcx
    cb4d:	bf 01 00 00 00       	mov    $0x1,%edi
    cb52:	be 18 00 00 00       	mov    $0x18,%esi
    cb57:	89 fa                	mov    %edi,%edx
    cb59:	33 c0                	xor    %eax,%eax
    cb5b:	e8 10 0e 00 00       	callq  d970 <irc__print>
    cb60:	bf 01 00 00 00       	mov    $0x1,%edi
    cb65:	33 f6                	xor    %esi,%esi
    cb67:	33 d2                	xor    %edx,%edx
    cb69:	33 c0                	xor    %eax,%eax
    cb6b:	e8 00 0e 00 00       	callq  d970 <irc__print>
    cb70:	bf 01 00 00 00       	mov    $0x1,%edi
    cb75:	e8 6e ea ff ff       	callq  b5e8 <memset@plt+0x8>
    cb7a:	90                   	nop    
    cb7b:	48 8d 74 26 00       	lea    0x0(%rsi),%rsi

000000000000cb80 <__intel_new_proc_init_B.J>:
    cb80:	41 57                	push   %r15
    cb82:	41 56                	push   %r14
    cb84:	55                   	push   %rbp
    cb85:	48 81 ec 10 02 00 00 	sub    $0x210,%rsp
    cb8c:	41 89 ff             	mov    %edi,%r15d
    cb8f:	44 89 fd             	mov    %r15d,%ebp
    cb92:	83 e5 02             	and    $0x2,%ebp
    cb95:	45 89 fe             	mov    %r15d,%r14d
    cb98:	41 83 e6 04          	and    $0x4,%r14d
    cb9c:	85 ed                	test   %ebp,%ebp
    cb9e:	75 05                	jne    cba5 <__intel_new_proc_init_B.J+0x25>
    cba0:	45 85 f6             	test   %r14d,%r14d
    cba3:	74 2c                	je     cbd1 <__intel_new_proc_init_B.J+0x51>
    cba5:	48 8d 3c 24          	lea    (%rsp),%rdi
    cba9:	33 f6                	xor    %esi,%esi
    cbab:	ba 00 02 00 00       	mov    $0x200,%edx
    cbb0:	e8 23 ea ff ff       	callq  b5d8 <strchr@plt+0x8>
    cbb5:	0f ae 04 24          	fxsave (%rsp)
    cbb9:	8b 54 24 1c          	mov    0x1c(%rsp),%edx
    cbbd:	33 c9                	xor    %ecx,%ecx
    cbbf:	89 d0                	mov    %edx,%eax
    cbc1:	83 e0 40             	and    $0x40,%eax
    cbc4:	0f 44 e9             	cmove  %ecx,%ebp
    cbc7:	81 e2 00 00 02 00    	and    $0x20000,%edx
    cbcd:	44 0f 44 f1          	cmove  %ecx,%r14d
    cbd1:	41 f7 c7 01 00 00 00 	test   $0x1,%r15d
    cbd8:	75 5a                	jne    cc34 <__intel_new_proc_init_B.J+0xb4>
    cbda:	85 ed                	test   %ebp,%ebp
    cbdc:	74 21                	je     cbff <__intel_new_proc_init_B.J+0x7f>
    cbde:	0f ae 9c 24 00 02 00 	stmxcsr 0x200(%rsp)
    cbe5:	00 
    cbe6:	8b 84 24 00 02 00 00 	mov    0x200(%rsp),%eax
    cbed:	83 c8 40             	or     $0x40,%eax
    cbf0:	89 84 24 00 02 00 00 	mov    %eax,0x200(%rsp)
    cbf7:	0f ae 94 24 00 02 00 	ldmxcsr 0x200(%rsp)
    cbfe:	00 
    cbff:	45 85 f6             	test   %r14d,%r14d
    cc02:	74 23                	je     cc27 <__intel_new_proc_init_B.J+0xa7>
    cc04:	0f ae 9c 24 00 02 00 	stmxcsr 0x200(%rsp)
    cc0b:	00 
    cc0c:	8b 84 24 00 02 00 00 	mov    0x200(%rsp),%eax
    cc13:	0d 00 00 02 00       	or     $0x20000,%eax
    cc18:	89 84 24 00 02 00 00 	mov    %eax,0x200(%rsp)
    cc1f:	0f ae 94 24 00 02 00 	ldmxcsr 0x200(%rsp)
    cc26:	00 
    cc27:	48 81 c4 10 02 00 00 	add    $0x210,%rsp
    cc2e:	5d                   	pop    %rbp
    cc2f:	41 5e                	pop    %r14
    cc31:	41 5f                	pop    %r15
    cc33:	c3                   	retq   
    cc34:	0f ae 9c 24 00 02 00 	stmxcsr 0x200(%rsp)
    cc3b:	00 
    cc3c:	8b 84 24 00 02 00 00 	mov    0x200(%rsp),%eax
    cc43:	0d 00 80 00 00       	or     $0x8000,%eax
    cc48:	89 84 24 00 02 00 00 	mov    %eax,0x200(%rsp)
    cc4f:	0f ae 94 24 00 02 00 	ldmxcsr 0x200(%rsp)
    cc56:	00 
    cc57:	eb 81                	jmp    cbda <__intel_new_proc_init_B.J+0x5a>
    cc59:	48 8d b6 00 00 00 00 	lea    0x0(%rsi),%rsi

000000000000cc60 <__intel_new_proc_init_B.K>:
    cc60:	41 57                	push   %r15
    cc62:	41 56                	push   %r14
    cc64:	55                   	push   %rbp
    cc65:	48 81 ec 10 02 00 00 	sub    $0x210,%rsp
    cc6c:	41 89 ff             	mov    %edi,%r15d
    cc6f:	44 89 fd             	mov    %r15d,%ebp
    cc72:	83 e5 02             	and    $0x2,%ebp
    cc75:	45 89 fe             	mov    %r15d,%r14d
    cc78:	41 83 e6 04          	and    $0x4,%r14d
    cc7c:	74 2c                	je     ccaa <__intel_new_proc_init_B.K+0x4a>
    cc7e:	48 8d 3c 24          	lea    (%rsp),%rdi
    cc82:	33 f6                	xor    %esi,%esi
    cc84:	ba 00 02 00 00       	mov    $0x200,%edx
    cc89:	e8 4a e9 ff ff       	callq  b5d8 <strchr@plt+0x8>
    cc8e:	0f ae 04 24          	fxsave (%rsp)
    cc92:	8b 54 24 1c          	mov    0x1c(%rsp),%edx
    cc96:	33 c9                	xor    %ecx,%ecx
    cc98:	89 d0                	mov    %edx,%eax
    cc9a:	83 e0 40             	and    $0x40,%eax
    cc9d:	0f 44 e9             	cmove  %ecx,%ebp
    cca0:	81 e2 00 00 02 00    	and    $0x20000,%edx
    cca6:	44 0f 44 f1          	cmove  %ecx,%r14d
    ccaa:	41 f7 c7 01 00 00 00 	test   $0x1,%r15d
    ccb1:	75 5a                	jne    cd0d <__intel_new_proc_init_B.K+0xad>
    ccb3:	85 ed                	test   %ebp,%ebp
    ccb5:	74 21                	je     ccd8 <__intel_new_proc_init_B.K+0x78>
    ccb7:	0f ae 9c 24 00 02 00 	stmxcsr 0x200(%rsp)
    ccbe:	00 
    ccbf:	8b 84 24 00 02 00 00 	mov    0x200(%rsp),%eax
    ccc6:	83 c8 40             	or     $0x40,%eax
    ccc9:	89 84 24 00 02 00 00 	mov    %eax,0x200(%rsp)
    ccd0:	0f ae 94 24 00 02 00 	ldmxcsr 0x200(%rsp)
    ccd7:	00 
    ccd8:	45 85 f6             	test   %r14d,%r14d
    ccdb:	74 23                	je     cd00 <__intel_new_proc_init_B.K+0xa0>
    ccdd:	0f ae 9c 24 00 02 00 	stmxcsr 0x200(%rsp)
    cce4:	00 
    cce5:	8b 84 24 00 02 00 00 	mov    0x200(%rsp),%eax
    ccec:	0d 00 00 02 00       	or     $0x20000,%eax
    ccf1:	89 84 24 00 02 00 00 	mov    %eax,0x200(%rsp)
    ccf8:	0f ae 94 24 00 02 00 	ldmxcsr 0x200(%rsp)
    ccff:	00 
    cd00:	48 81 c4 10 02 00 00 	add    $0x210,%rsp
    cd07:	5d                   	pop    %rbp
    cd08:	41 5e                	pop    %r14
    cd0a:	41 5f                	pop    %r15
    cd0c:	c3                   	retq   
    cd0d:	0f ae 9c 24 00 02 00 	stmxcsr 0x200(%rsp)
    cd14:	00 
    cd15:	8b 84 24 00 02 00 00 	mov    0x200(%rsp),%eax
    cd1c:	0d 00 80 00 00       	or     $0x8000,%eax
    cd21:	89 84 24 00 02 00 00 	mov    %eax,0x200(%rsp)
    cd28:	0f ae 94 24 00 02 00 	ldmxcsr 0x200(%rsp)
    cd2f:	00 
    cd30:	eb 81                	jmp    ccb3 <__intel_new_proc_init_B.K+0x53>
    cd32:	48 8d b6 00 00 00 00 	lea    0x0(%rsi),%rsi
    cd39:	48 8d bf 00 00 00 00 	lea    0x0(%rdi),%rdi

000000000000cd40 <__intel_new_proc_init_B.L>:
    cd40:	41 57                	push   %r15
    cd42:	41 56                	push   %r14
    cd44:	55                   	push   %rbp
    cd45:	48 81 ec 10 02 00 00 	sub    $0x210,%rsp
    cd4c:	41 89 ff             	mov    %edi,%r15d
    cd4f:	44 89 fd             	mov    %r15d,%ebp
    cd52:	83 e5 02             	and    $0x2,%ebp
    cd55:	45 89 fe             	mov    %r15d,%r14d
    cd58:	41 83 e6 04          	and    $0x4,%r14d
    cd5c:	74 2c                	je     cd8a <__intel_new_proc_init_B.L+0x4a>
    cd5e:	48 8d 3c 24          	lea    (%rsp),%rdi
    cd62:	33 f6                	xor    %esi,%esi
    cd64:	ba 00 02 00 00       	mov    $0x200,%edx
    cd69:	e8 6a e8 ff ff       	callq  b5d8 <strchr@plt+0x8>
    cd6e:	0f ae 04 24          	fxsave (%rsp)
    cd72:	8b 54 24 1c          	mov    0x1c(%rsp),%edx
    cd76:	33 c9                	xor    %ecx,%ecx
    cd78:	89 d0                	mov    %edx,%eax
    cd7a:	83 e0 40             	and    $0x40,%eax
    cd7d:	0f 44 e9             	cmove  %ecx,%ebp
    cd80:	81 e2 00 00 02 00    	and    $0x20000,%edx
    cd86:	44 0f 44 f1          	cmove  %ecx,%r14d
    cd8a:	41 f7 c7 01 00 00 00 	test   $0x1,%r15d
    cd91:	75 5a                	jne    cded <__intel_new_proc_init_B.L+0xad>
    cd93:	85 ed                	test   %ebp,%ebp
    cd95:	74 21                	je     cdb8 <__intel_new_proc_init_B.L+0x78>
    cd97:	0f ae 9c 24 00 02 00 	stmxcsr 0x200(%rsp)
    cd9e:	00 
    cd9f:	8b 84 24 00 02 00 00 	mov    0x200(%rsp),%eax
    cda6:	83 c8 40             	or     $0x40,%eax
    cda9:	89 84 24 00 02 00 00 	mov    %eax,0x200(%rsp)
    cdb0:	0f ae 94 24 00 02 00 	ldmxcsr 0x200(%rsp)
    cdb7:	00 
    cdb8:	45 85 f6             	test   %r14d,%r14d
    cdbb:	74 23                	je     cde0 <__intel_new_proc_init_B.L+0xa0>
    cdbd:	0f ae 9c 24 00 02 00 	stmxcsr 0x200(%rsp)
    cdc4:	00 
    cdc5:	8b 84 24 00 02 00 00 	mov    0x200(%rsp),%eax
    cdcc:	0d 00 00 02 00       	or     $0x20000,%eax
    cdd1:	89 84 24 00 02 00 00 	mov    %eax,0x200(%rsp)
    cdd8:	0f ae 94 24 00 02 00 	ldmxcsr 0x200(%rsp)
    cddf:	00 
    cde0:	48 81 c4 10 02 00 00 	add    $0x210,%rsp
    cde7:	5d                   	pop    %rbp
    cde8:	41 5e                	pop    %r14
    cdea:	41 5f                	pop    %r15
    cdec:	c3                   	retq   
    cded:	0f ae 9c 24 00 02 00 	stmxcsr 0x200(%rsp)
    cdf4:	00 
    cdf5:	8b 84 24 00 02 00 00 	mov    0x200(%rsp),%eax
    cdfc:	0d 00 80 00 00       	or     $0x8000,%eax
    ce01:	89 84 24 00 02 00 00 	mov    %eax,0x200(%rsp)
    ce08:	0f ae 94 24 00 02 00 	ldmxcsr 0x200(%rsp)
    ce0f:	00 
    ce10:	eb 81                	jmp    cd93 <__intel_new_proc_init_B.L+0x53>
    ce12:	48 8d b6 00 00 00 00 	lea    0x0(%rsi),%rsi
    ce19:	48 8d bf 00 00 00 00 	lea    0x0(%rdi),%rdi

000000000000ce20 <__intel_new_proc_init_B>:
    ce20:	48 8b 05 81 31 10 00 	mov    1061249(%rip),%rax        # 10ffa8 <_IO_stdin_used+0x101fa8>
    ce27:	8b 00                	mov    (%rax),%eax
    ce29:	a9 00 f8 ff ff       	test   $0xfffff800,%eax
    ce2e:	0f 85 0c ff ff ff    	jne    cd40 <__intel_new_proc_init_B.L>
    ce34:	a9 00 04 00 00       	test   $0x400,%eax
    ce39:	0f 85 21 fe ff ff    	jne    cc60 <__intel_new_proc_init_B.K>
    ce3f:	a9 00 fe ff ff       	test   $0xfffffe00,%eax
    ce44:	0f 85 36 fd ff ff    	jne    cb80 <__intel_new_proc_init_B.J>
    ce4a:	a9 ff ff ff ff       	test   $0xffffffff,%eax
    ce4f:	0f 85 ab fc ff ff    	jne    cb00 <__intel_new_proc_init_B.A>
    ce55:	48 83 ec 08          	sub    $0x8,%rsp
    ce59:	e8 52 0f 00 00       	callq  ddb0 <__intel_cpu_indicator_init>
    ce5e:	48 83 c4 08          	add    $0x8,%rsp
    ce62:	eb bc                	jmp    ce20 <__intel_new_proc_init_B>
    ce64:	90                   	nop    
    ce65:	48 8d 74 26 00       	lea    0x0(%rsi),%rsi
    ce6a:	90                   	nop    
    ce6b:	48 8d 7c 27 00       	lea    0x0(%rdi),%rdi

000000000000ce70 <__intel_proc_init_P.A>:
    ce70:	48 81 ec 08 02 00 00 	sub    $0x208,%rsp
    ce77:	bf 01 00 00 00       	mov    $0x1,%edi
    ce7c:	33 f6                	xor    %esi,%esi
    ce7e:	33 d2                	xor    %edx,%edx
    ce80:	33 c0                	xor    %eax,%eax
    ce82:	e8 e9 0a 00 00       	callq  d970 <irc__print>
    ce87:	bf 01 00 00 00       	mov    $0x1,%edi
    ce8c:	be 17 00 00 00       	mov    $0x17,%esi
    ce91:	33 d2                	xor    %edx,%edx
    ce93:	33 c0                	xor    %eax,%eax
    ce95:	e8 d6 0a 00 00       	callq  d970 <irc__print>
    ce9a:	bf 2b 00 00 00       	mov    $0x2b,%edi
    ce9f:	33 f6                	xor    %esi,%esi
    cea1:	33 c0                	xor    %eax,%eax
    cea3:	e8 18 0d 00 00       	callq  dbc0 <irc__get_msg>
    cea8:	48 8d 3c 24          	lea    (%rsp),%rdi
    ceac:	48 89 c6             	mov    %rax,%rsi
    ceaf:	ba 00 02 00 00       	mov    $0x200,%edx
    ceb4:	e8 bf e6 ff ff       	callq  b578 <getenv@plt+0x8>
    ceb9:	48 8d 0c 24          	lea    (%rsp),%rcx
    cebd:	bf 01 00 00 00       	mov    $0x1,%edi
    cec2:	be 18 00 00 00       	mov    $0x18,%esi
    cec7:	89 fa                	mov    %edi,%edx
    cec9:	33 c0                	xor    %eax,%eax
    cecb:	e8 a0 0a 00 00       	callq  d970 <irc__print>
    ced0:	bf 01 00 00 00       	mov    $0x1,%edi
    ced5:	33 f6                	xor    %esi,%esi
    ced7:	33 d2                	xor    %edx,%edx
    ced9:	33 c0                	xor    %eax,%eax
    cedb:	e8 90 0a 00 00       	callq  d970 <irc__print>
    cee0:	bf 01 00 00 00       	mov    $0x1,%edi
    cee5:	e8 fe e6 ff ff       	callq  b5e8 <memset@plt+0x8>
    ceea:	90                   	nop    
    ceeb:	48 8d 74 26 00       	lea    0x0(%rsi),%rsi

000000000000cef0 <__intel_proc_init_P.L>:
    cef0:	0f ae 5c 24 f8       	stmxcsr 0xfffffffffffffff8(%rsp)
    cef5:	8b 44 24 f8          	mov    0xfffffffffffffff8(%rsp),%eax
    cef9:	0d 00 80 00 00       	or     $0x8000,%eax
    cefe:	89 44 24 f8          	mov    %eax,0xfffffffffffffff8(%rsp)
    cf02:	0f ae 54 24 f8       	ldmxcsr 0xfffffffffffffff8(%rsp)
    cf07:	0f ae 5c 24 f8       	stmxcsr 0xfffffffffffffff8(%rsp)
    cf0c:	8b 44 24 f8          	mov    0xfffffffffffffff8(%rsp),%eax
    cf10:	83 c8 40             	or     $0x40,%eax
    cf13:	89 44 24 f8          	mov    %eax,0xfffffffffffffff8(%rsp)
    cf17:	0f ae 54 24 f8       	ldmxcsr 0xfffffffffffffff8(%rsp)
    cf1c:	c3                   	retq   
    cf1d:	48 89 f6             	mov    %rsi,%rsi

000000000000cf20 <__intel_proc_init_P>:
    cf20:	48 8b 05 81 30 10 00 	mov    1060993(%rip),%rax        # 10ffa8 <_IO_stdin_used+0x101fa8>
    cf27:	8b 00                	mov    (%rax),%eax
    cf29:	a9 00 f8 ff ff       	test   $0xfffff800,%eax
    cf2e:	0f 85 bc ff ff ff    	jne    cef0 <__intel_proc_init_P.L>
    cf34:	a9 ff ff ff ff       	test   $0xffffffff,%eax
    cf39:	0f 85 31 ff ff ff    	jne    ce70 <__intel_proc_init_P.A>
    cf3f:	48 83 ec 08          	sub    $0x8,%rsp
    cf43:	e8 68 0e 00 00       	callq  ddb0 <__intel_cpu_indicator_init>
    cf48:	48 83 c4 08          	add    $0x8,%rsp
    cf4c:	eb d2                	jmp    cf20 <__intel_proc_init_P>
    cf4e:	90                   	nop    
    cf4f:	90                   	nop    

000000000000cf50 <__intel_new_proc_init_P.A>:
    cf50:	48 81 ec 08 02 00 00 	sub    $0x208,%rsp
    cf57:	bf 01 00 00 00       	mov    $0x1,%edi
    cf5c:	33 f6                	xor    %esi,%esi
    cf5e:	33 d2                	xor    %edx,%edx
    cf60:	33 c0                	xor    %eax,%eax
    cf62:	e8 09 0a 00 00       	callq  d970 <irc__print>
    cf67:	bf 01 00 00 00       	mov    $0x1,%edi
    cf6c:	be 17 00 00 00       	mov    $0x17,%esi
    cf71:	33 d2                	xor    %edx,%edx
    cf73:	33 c0                	xor    %eax,%eax
    cf75:	e8 f6 09 00 00       	callq  d970 <irc__print>
    cf7a:	bf 2b 00 00 00       	mov    $0x2b,%edi
    cf7f:	33 f6                	xor    %esi,%esi
    cf81:	33 c0                	xor    %eax,%eax
    cf83:	e8 38 0c 00 00       	callq  dbc0 <irc__get_msg>
    cf88:	48 8d 3c 24          	lea    (%rsp),%rdi
    cf8c:	48 89 c6             	mov    %rax,%rsi
    cf8f:	ba 00 02 00 00       	mov    $0x200,%edx
    cf94:	e8 df e5 ff ff       	callq  b578 <getenv@plt+0x8>
    cf99:	48 8d 0c 24          	lea    (%rsp),%rcx
    cf9d:	bf 01 00 00 00       	mov    $0x1,%edi
    cfa2:	be 18 00 00 00       	mov    $0x18,%esi
    cfa7:	89 fa                	mov    %edi,%edx
    cfa9:	33 c0                	xor    %eax,%eax
    cfab:	e8 c0 09 00 00       	callq  d970 <irc__print>
    cfb0:	bf 01 00 00 00       	mov    $0x1,%edi
    cfb5:	33 f6                	xor    %esi,%esi
    cfb7:	33 d2                	xor    %edx,%edx
    cfb9:	33 c0                	xor    %eax,%eax
    cfbb:	e8 b0 09 00 00       	callq  d970 <irc__print>
    cfc0:	bf 01 00 00 00       	mov    $0x1,%edi
    cfc5:	e8 1e e6 ff ff       	callq  b5e8 <memset@plt+0x8>
    cfca:	90                   	nop    
    cfcb:	48 8d 74 26 00       	lea    0x0(%rsi),%rsi

000000000000cfd0 <__intel_new_proc_init_P.L>:
    cfd0:	41 57                	push   %r15
    cfd2:	41 56                	push   %r14
    cfd4:	55                   	push   %rbp
    cfd5:	48 81 ec 10 02 00 00 	sub    $0x210,%rsp
    cfdc:	41 89 ff             	mov    %edi,%r15d
    cfdf:	44 89 fd             	mov    %r15d,%ebp
    cfe2:	83 e5 02             	and    $0x2,%ebp
    cfe5:	45 89 fe             	mov    %r15d,%r14d
    cfe8:	41 83 e6 04          	and    $0x4,%r14d
    cfec:	74 2c                	je     d01a <__intel_new_proc_init_P.L+0x4a>
    cfee:	48 8d 3c 24          	lea    (%rsp),%rdi
    cff2:	33 f6                	xor    %esi,%esi
    cff4:	ba 00 02 00 00       	mov    $0x200,%edx
    cff9:	e8 da e5 ff ff       	callq  b5d8 <strchr@plt+0x8>
    cffe:	0f ae 04 24          	fxsave (%rsp)
    d002:	8b 54 24 1c          	mov    0x1c(%rsp),%edx
    d006:	33 c9                	xor    %ecx,%ecx
    d008:	89 d0                	mov    %edx,%eax
    d00a:	83 e0 40             	and    $0x40,%eax
    d00d:	0f 44 e9             	cmove  %ecx,%ebp
    d010:	81 e2 00 00 02 00    	and    $0x20000,%edx
    d016:	44 0f 44 f1          	cmove  %ecx,%r14d
    d01a:	41 f7 c7 01 00 00 00 	test   $0x1,%r15d
    d021:	75 5a                	jne    d07d <__intel_new_proc_init_P.L+0xad>
    d023:	85 ed                	test   %ebp,%ebp
    d025:	74 21                	je     d048 <__intel_new_proc_init_P.L+0x78>
    d027:	0f ae 9c 24 00 02 00 	stmxcsr 0x200(%rsp)
    d02e:	00 
    d02f:	8b 84 24 00 02 00 00 	mov    0x200(%rsp),%eax
    d036:	83 c8 40             	or     $0x40,%eax
    d039:	89 84 24 00 02 00 00 	mov    %eax,0x200(%rsp)
    d040:	0f ae 94 24 00 02 00 	ldmxcsr 0x200(%rsp)
    d047:	00 
    d048:	45 85 f6             	test   %r14d,%r14d
    d04b:	74 23                	je     d070 <__intel_new_proc_init_P.L+0xa0>
    d04d:	0f ae 9c 24 00 02 00 	stmxcsr 0x200(%rsp)
    d054:	00 
    d055:	8b 84 24 00 02 00 00 	mov    0x200(%rsp),%eax
    d05c:	0d 00 00 02 00       	or     $0x20000,%eax
    d061:	89 84 24 00 02 00 00 	mov    %eax,0x200(%rsp)
    d068:	0f ae 94 24 00 02 00 	ldmxcsr 0x200(%rsp)
    d06f:	00 
    d070:	48 81 c4 10 02 00 00 	add    $0x210,%rsp
    d077:	5d                   	pop    %rbp
    d078:	41 5e                	pop    %r14
    d07a:	41 5f                	pop    %r15
    d07c:	c3                   	retq   
    d07d:	0f ae 9c 24 00 02 00 	stmxcsr 0x200(%rsp)
    d084:	00 
    d085:	8b 84 24 00 02 00 00 	mov    0x200(%rsp),%eax
    d08c:	0d 00 80 00 00       	or     $0x8000,%eax
    d091:	89 84 24 00 02 00 00 	mov    %eax,0x200(%rsp)
    d098:	0f ae 94 24 00 02 00 	ldmxcsr 0x200(%rsp)
    d09f:	00 
    d0a0:	eb 81                	jmp    d023 <__intel_new_proc_init_P.L+0x53>
    d0a2:	48 8d b6 00 00 00 00 	lea    0x0(%rsi),%rsi
    d0a9:	48 8d bf 00 00 00 00 	lea    0x0(%rdi),%rdi

000000000000d0b0 <__intel_new_proc_init_P>:
    d0b0:	48 8b 05 f1 2e 10 00 	mov    1060593(%rip),%rax        # 10ffa8 <_IO_stdin_used+0x101fa8>
    d0b7:	8b 00                	mov    (%rax),%eax
    d0b9:	a9 00 f8 ff ff       	test   $0xfffff800,%eax
    d0be:	0f 85 0c ff ff ff    	jne    cfd0 <__intel_new_proc_init_P.L>
    d0c4:	a9 ff ff ff ff       	test   $0xffffffff,%eax
    d0c9:	0f 85 81 fe ff ff    	jne    cf50 <__intel_new_proc_init_P.A>
    d0cf:	48 83 ec 08          	sub    $0x8,%rsp
    d0d3:	e8 d8 0c 00 00       	callq  ddb0 <__intel_cpu_indicator_init>
    d0d8:	48 83 c4 08          	add    $0x8,%rsp
    d0dc:	eb d2                	jmp    d0b0 <__intel_new_proc_init_P>
    d0de:	90                   	nop    
    d0df:	90                   	nop    

000000000000d0e0 <__intel_proc_init_T.A>:
    d0e0:	48 81 ec 08 02 00 00 	sub    $0x208,%rsp
    d0e7:	bf 01 00 00 00       	mov    $0x1,%edi
    d0ec:	33 f6                	xor    %esi,%esi
    d0ee:	33 d2                	xor    %edx,%edx
    d0f0:	33 c0                	xor    %eax,%eax
    d0f2:	e8 79 08 00 00       	callq  d970 <irc__print>
    d0f7:	bf 01 00 00 00       	mov    $0x1,%edi
    d0fc:	be 17 00 00 00       	mov    $0x17,%esi
    d101:	33 d2                	xor    %edx,%edx
    d103:	33 c0                	xor    %eax,%eax
    d105:	e8 66 08 00 00       	callq  d970 <irc__print>
    d10a:	bf 2a 00 00 00       	mov    $0x2a,%edi
    d10f:	33 f6                	xor    %esi,%esi
    d111:	33 c0                	xor    %eax,%eax
    d113:	e8 a8 0a 00 00       	callq  dbc0 <irc__get_msg>
    d118:	48 8d 3c 24          	lea    (%rsp),%rdi
    d11c:	48 89 c6             	mov    %rax,%rsi
    d11f:	ba 00 02 00 00       	mov    $0x200,%edx
    d124:	e8 4f e4 ff ff       	callq  b578 <getenv@plt+0x8>
    d129:	48 8d 0c 24          	lea    (%rsp),%rcx
    d12d:	bf 01 00 00 00       	mov    $0x1,%edi
    d132:	be 18 00 00 00       	mov    $0x18,%esi
    d137:	89 fa                	mov    %edi,%edx
    d139:	33 c0                	xor    %eax,%eax
    d13b:	e8 30 08 00 00       	callq  d970 <irc__print>
    d140:	bf 01 00 00 00       	mov    $0x1,%edi
    d145:	33 f6                	xor    %esi,%esi
    d147:	33 d2                	xor    %edx,%edx
    d149:	33 c0                	xor    %eax,%eax
    d14b:	e8 20 08 00 00       	callq  d970 <irc__print>
    d150:	bf 01 00 00 00       	mov    $0x1,%edi
    d155:	e8 8e e4 ff ff       	callq  b5e8 <memset@plt+0x8>
    d15a:	90                   	nop    
    d15b:	48 8d 74 26 00       	lea    0x0(%rsi),%rsi

000000000000d160 <__intel_proc_init_T.M>:
    d160:	0f ae 5c 24 f8       	stmxcsr 0xfffffffffffffff8(%rsp)
    d165:	8b 44 24 f8          	mov    0xfffffffffffffff8(%rsp),%eax
    d169:	0d 00 80 00 00       	or     $0x8000,%eax
    d16e:	89 44 24 f8          	mov    %eax,0xfffffffffffffff8(%rsp)
    d172:	0f ae 54 24 f8       	ldmxcsr 0xfffffffffffffff8(%rsp)
    d177:	0f ae 5c 24 f8       	stmxcsr 0xfffffffffffffff8(%rsp)
    d17c:	8b 44 24 f8          	mov    0xfffffffffffffff8(%rsp),%eax
    d180:	83 c8 40             	or     $0x40,%eax
    d183:	89 44 24 f8          	mov    %eax,0xfffffffffffffff8(%rsp)
    d187:	0f ae 54 24 f8       	ldmxcsr 0xfffffffffffffff8(%rsp)
    d18c:	c3                   	retq   
    d18d:	48 89 f6             	mov    %rsi,%rsi

000000000000d190 <__intel_proc_init_T>:
    d190:	48 8b 05 11 2e 10 00 	mov    1060369(%rip),%rax        # 10ffa8 <_IO_stdin_used+0x101fa8>
    d197:	8b 00                	mov    (%rax),%eax
    d199:	a9 00 f0 ff ff       	test   $0xfffff000,%eax
    d19e:	0f 85 bc ff ff ff    	jne    d160 <__intel_proc_init_T.M>
    d1a4:	a9 ff ff ff ff       	test   $0xffffffff,%eax
    d1a9:	0f 85 31 ff ff ff    	jne    d0e0 <__intel_proc_init_T.A>
    d1af:	48 83 ec 08          	sub    $0x8,%rsp
    d1b3:	e8 f8 0b 00 00       	callq  ddb0 <__intel_cpu_indicator_init>
    d1b8:	48 83 c4 08          	add    $0x8,%rsp
    d1bc:	eb d2                	jmp    d190 <__intel_proc_init_T>
    d1be:	90                   	nop    
    d1bf:	90                   	nop    

000000000000d1c0 <__intel_new_proc_init_T.A>:
    d1c0:	48 81 ec 08 02 00 00 	sub    $0x208,%rsp
    d1c7:	bf 01 00 00 00       	mov    $0x1,%edi
    d1cc:	33 f6                	xor    %esi,%esi
    d1ce:	33 d2                	xor    %edx,%edx
    d1d0:	33 c0                	xor    %eax,%eax
    d1d2:	e8 99 07 00 00       	callq  d970 <irc__print>
    d1d7:	bf 01 00 00 00       	mov    $0x1,%edi
    d1dc:	be 17 00 00 00       	mov    $0x17,%esi
    d1e1:	33 d2                	xor    %edx,%edx
    d1e3:	33 c0                	xor    %eax,%eax
    d1e5:	e8 86 07 00 00       	callq  d970 <irc__print>
    d1ea:	bf 2a 00 00 00       	mov    $0x2a,%edi
    d1ef:	33 f6                	xor    %esi,%esi
    d1f1:	33 c0                	xor    %eax,%eax
    d1f3:	e8 c8 09 00 00       	callq  dbc0 <irc__get_msg>
    d1f8:	48 8d 3c 24          	lea    (%rsp),%rdi
    d1fc:	48 89 c6             	mov    %rax,%rsi
    d1ff:	ba 00 02 00 00       	mov    $0x200,%edx
    d204:	e8 6f e3 ff ff       	callq  b578 <getenv@plt+0x8>
    d209:	48 8d 0c 24          	lea    (%rsp),%rcx
    d20d:	bf 01 00 00 00       	mov    $0x1,%edi
    d212:	be 18 00 00 00       	mov    $0x18,%esi
    d217:	89 fa                	mov    %edi,%edx
    d219:	33 c0                	xor    %eax,%eax
    d21b:	e8 50 07 00 00       	callq  d970 <irc__print>
    d220:	bf 01 00 00 00       	mov    $0x1,%edi
    d225:	33 f6                	xor    %esi,%esi
    d227:	33 d2                	xor    %edx,%edx
    d229:	33 c0                	xor    %eax,%eax
    d22b:	e8 40 07 00 00       	callq  d970 <irc__print>
    d230:	bf 01 00 00 00       	mov    $0x1,%edi
    d235:	e8 ae e3 ff ff       	callq  b5e8 <memset@plt+0x8>
    d23a:	90                   	nop    
    d23b:	48 8d 74 26 00       	lea    0x0(%rsi),%rsi

000000000000d240 <__intel_new_proc_init_T.M>:
    d240:	41 57                	push   %r15
    d242:	41 56                	push   %r14
    d244:	55                   	push   %rbp
    d245:	48 81 ec 10 02 00 00 	sub    $0x210,%rsp
    d24c:	41 89 ff             	mov    %edi,%r15d
    d24f:	44 89 fd             	mov    %r15d,%ebp
    d252:	83 e5 02             	and    $0x2,%ebp
    d255:	45 89 fe             	mov    %r15d,%r14d
    d258:	41 83 e6 04          	and    $0x4,%r14d
    d25c:	74 2c                	je     d28a <__intel_new_proc_init_T.M+0x4a>
    d25e:	48 8d 3c 24          	lea    (%rsp),%rdi
    d262:	33 f6                	xor    %esi,%esi
    d264:	ba 00 02 00 00       	mov    $0x200,%edx
    d269:	e8 6a e3 ff ff       	callq  b5d8 <strchr@plt+0x8>
    d26e:	0f ae 04 24          	fxsave (%rsp)
    d272:	8b 54 24 1c          	mov    0x1c(%rsp),%edx
    d276:	33 c9                	xor    %ecx,%ecx
    d278:	89 d0                	mov    %edx,%eax
    d27a:	83 e0 40             	and    $0x40,%eax
    d27d:	0f 44 e9             	cmove  %ecx,%ebp
    d280:	81 e2 00 00 02 00    	and    $0x20000,%edx
    d286:	44 0f 44 f1          	cmove  %ecx,%r14d
    d28a:	41 f7 c7 01 00 00 00 	test   $0x1,%r15d
    d291:	75 5a                	jne    d2ed <__intel_new_proc_init_T.M+0xad>
    d293:	85 ed                	test   %ebp,%ebp
    d295:	74 21                	je     d2b8 <__intel_new_proc_init_T.M+0x78>
    d297:	0f ae 9c 24 00 02 00 	stmxcsr 0x200(%rsp)
    d29e:	00 
    d29f:	8b 84 24 00 02 00 00 	mov    0x200(%rsp),%eax
    d2a6:	83 c8 40             	or     $0x40,%eax
    d2a9:	89 84 24 00 02 00 00 	mov    %eax,0x200(%rsp)
    d2b0:	0f ae 94 24 00 02 00 	ldmxcsr 0x200(%rsp)
    d2b7:	00 
    d2b8:	45 85 f6             	test   %r14d,%r14d
    d2bb:	74 23                	je     d2e0 <__intel_new_proc_init_T.M+0xa0>
    d2bd:	0f ae 9c 24 00 02 00 	stmxcsr 0x200(%rsp)
    d2c4:	00 
    d2c5:	8b 84 24 00 02 00 00 	mov    0x200(%rsp),%eax
    d2cc:	0d 00 00 02 00       	or     $0x20000,%eax
    d2d1:	89 84 24 00 02 00 00 	mov    %eax,0x200(%rsp)
    d2d8:	0f ae 94 24 00 02 00 	ldmxcsr 0x200(%rsp)
    d2df:	00 
    d2e0:	48 81 c4 10 02 00 00 	add    $0x210,%rsp
    d2e7:	5d                   	pop    %rbp
    d2e8:	41 5e                	pop    %r14
    d2ea:	41 5f                	pop    %r15
    d2ec:	c3                   	retq   
    d2ed:	0f ae 9c 24 00 02 00 	stmxcsr 0x200(%rsp)
    d2f4:	00 
    d2f5:	8b 84 24 00 02 00 00 	mov    0x200(%rsp),%eax
    d2fc:	0d 00 80 00 00       	or     $0x8000,%eax
    d301:	89 84 24 00 02 00 00 	mov    %eax,0x200(%rsp)
    d308:	0f ae 94 24 00 02 00 	ldmxcsr 0x200(%rsp)
    d30f:	00 
    d310:	eb 81                	jmp    d293 <__intel_new_proc_init_T.M+0x53>
    d312:	48 8d b6 00 00 00 00 	lea    0x0(%rsi),%rsi
    d319:	48 8d bf 00 00 00 00 	lea    0x0(%rdi),%rdi

000000000000d320 <__intel_new_proc_init_T>:
    d320:	48 8b 05 81 2c 10 00 	mov    1059969(%rip),%rax        # 10ffa8 <_IO_stdin_used+0x101fa8>
    d327:	8b 00                	mov    (%rax),%eax
    d329:	a9 00 f0 ff ff       	test   $0xfffff000,%eax
    d32e:	0f 85 0c ff ff ff    	jne    d240 <__intel_new_proc_init_T.M>
    d334:	a9 ff ff ff ff       	test   $0xffffffff,%eax
    d339:	0f 85 81 fe ff ff    	jne    d1c0 <__intel_new_proc_init_T.A>
    d33f:	48 83 ec 08          	sub    $0x8,%rsp
    d343:	e8 68 0a 00 00       	callq  ddb0 <__intel_cpu_indicator_init>
    d348:	48 83 c4 08          	add    $0x8,%rsp
    d34c:	eb d2                	jmp    d320 <__intel_new_proc_init_T>
    d34e:	90                   	nop    
    d34f:	90                   	nop    

000000000000d350 <__intel_new_proc_init_S.A>:
    d350:	48 81 ec 08 02 00 00 	sub    $0x208,%rsp
    d357:	bf 01 00 00 00       	mov    $0x1,%edi
    d35c:	33 f6                	xor    %esi,%esi
    d35e:	33 d2                	xor    %edx,%edx
    d360:	33 c0                	xor    %eax,%eax
    d362:	e8 09 06 00 00       	callq  d970 <irc__print>
    d367:	bf 01 00 00 00       	mov    $0x1,%edi
    d36c:	be 17 00 00 00       	mov    $0x17,%esi
    d371:	33 d2                	xor    %edx,%edx
    d373:	33 c0                	xor    %eax,%eax
    d375:	e8 f6 05 00 00       	callq  d970 <irc__print>
    d37a:	bf 2e 00 00 00       	mov    $0x2e,%edi
    d37f:	33 f6                	xor    %esi,%esi
    d381:	33 c0                	xor    %eax,%eax
    d383:	e8 38 08 00 00       	callq  dbc0 <irc__get_msg>
    d388:	48 8d 3c 24          	lea    (%rsp),%rdi
    d38c:	48 89 c6             	mov    %rax,%rsi
    d38f:	ba 00 02 00 00       	mov    $0x200,%edx
    d394:	e8 df e1 ff ff       	callq  b578 <getenv@plt+0x8>
    d399:	48 8d 0c 24          	lea    (%rsp),%rcx
    d39d:	bf 01 00 00 00       	mov    $0x1,%edi
    d3a2:	be 18 00 00 00       	mov    $0x18,%esi
    d3a7:	89 fa                	mov    %edi,%edx
    d3a9:	33 c0                	xor    %eax,%eax
    d3ab:	e8 c0 05 00 00       	callq  d970 <irc__print>
    d3b0:	bf 01 00 00 00       	mov    $0x1,%edi
    d3b5:	33 f6                	xor    %esi,%esi
    d3b7:	33 d2                	xor    %edx,%edx
    d3b9:	33 c0                	xor    %eax,%eax
    d3bb:	e8 b0 05 00 00       	callq  d970 <irc__print>
    d3c0:	bf 01 00 00 00       	mov    $0x1,%edi
    d3c5:	e8 1e e2 ff ff       	callq  b5e8 <memset@plt+0x8>
    d3ca:	90                   	nop    
    d3cb:	48 8d 74 26 00       	lea    0x0(%rsi),%rsi

000000000000d3d0 <__intel_new_proc_init_S.N>:
    d3d0:	41 57                	push   %r15
    d3d2:	41 56                	push   %r14
    d3d4:	55                   	push   %rbp
    d3d5:	48 81 ec 10 02 00 00 	sub    $0x210,%rsp
    d3dc:	41 89 ff             	mov    %edi,%r15d
    d3df:	44 89 fd             	mov    %r15d,%ebp
    d3e2:	83 e5 02             	and    $0x2,%ebp
    d3e5:	45 89 fe             	mov    %r15d,%r14d
    d3e8:	41 83 e6 04          	and    $0x4,%r14d
    d3ec:	74 2c                	je     d41a <__intel_new_proc_init_S.N+0x4a>
    d3ee:	48 8d 3c 24          	lea    (%rsp),%rdi
    d3f2:	33 f6                	xor    %esi,%esi
    d3f4:	ba 00 02 00 00       	mov    $0x200,%edx
    d3f9:	e8 da e1 ff ff       	callq  b5d8 <strchr@plt+0x8>
    d3fe:	0f ae 04 24          	fxsave (%rsp)
    d402:	8b 54 24 1c          	mov    0x1c(%rsp),%edx
    d406:	33 c9                	xor    %ecx,%ecx
    d408:	89 d0                	mov    %edx,%eax
    d40a:	83 e0 40             	and    $0x40,%eax
    d40d:	0f 44 e9             	cmove  %ecx,%ebp
    d410:	81 e2 00 00 02 00    	and    $0x20000,%edx
    d416:	44 0f 44 f1          	cmove  %ecx,%r14d
    d41a:	41 f7 c7 01 00 00 00 	test   $0x1,%r15d
    d421:	75 5a                	jne    d47d <__intel_new_proc_init_S.N+0xad>
    d423:	85 ed                	test   %ebp,%ebp
    d425:	74 21                	je     d448 <__intel_new_proc_init_S.N+0x78>
    d427:	0f ae 9c 24 00 02 00 	stmxcsr 0x200(%rsp)
    d42e:	00 
    d42f:	8b 84 24 00 02 00 00 	mov    0x200(%rsp),%eax
    d436:	83 c8 40             	or     $0x40,%eax
    d439:	89 84 24 00 02 00 00 	mov    %eax,0x200(%rsp)
    d440:	0f ae 94 24 00 02 00 	ldmxcsr 0x200(%rsp)
    d447:	00 
    d448:	45 85 f6             	test   %r14d,%r14d
    d44b:	74 23                	je     d470 <__intel_new_proc_init_S.N+0xa0>
    d44d:	0f ae 9c 24 00 02 00 	stmxcsr 0x200(%rsp)
    d454:	00 
    d455:	8b 84 24 00 02 00 00 	mov    0x200(%rsp),%eax
    d45c:	0d 00 00 02 00       	or     $0x20000,%eax
    d461:	89 84 24 00 02 00 00 	mov    %eax,0x200(%rsp)
    d468:	0f ae 94 24 00 02 00 	ldmxcsr 0x200(%rsp)
    d46f:	00 
    d470:	48 81 c4 10 02 00 00 	add    $0x210,%rsp
    d477:	5d                   	pop    %rbp
    d478:	41 5e                	pop    %r14
    d47a:	41 5f                	pop    %r15
    d47c:	c3                   	retq   
    d47d:	0f ae 9c 24 00 02 00 	stmxcsr 0x200(%rsp)
    d484:	00 
    d485:	8b 84 24 00 02 00 00 	mov    0x200(%rsp),%eax
    d48c:	0d 00 80 00 00       	or     $0x8000,%eax
    d491:	89 84 24 00 02 00 00 	mov    %eax,0x200(%rsp)
    d498:	0f ae 94 24 00 02 00 	ldmxcsr 0x200(%rsp)
    d49f:	00 
    d4a0:	eb 81                	jmp    d423 <__intel_new_proc_init_S.N+0x53>
    d4a2:	48 8d b6 00 00 00 00 	lea    0x0(%rsi),%rsi
    d4a9:	48 8d bf 00 00 00 00 	lea    0x0(%rdi),%rdi

000000000000d4b0 <__intel_new_proc_init_S>:
    d4b0:	48 8b 05 f1 2a 10 00 	mov    1059569(%rip),%rax        # 10ffa8 <_IO_stdin_used+0x101fa8>
    d4b7:	8b 00                	mov    (%rax),%eax
    d4b9:	a9 00 a0 ff ff       	test   $0xffffa000,%eax
    d4be:	0f 85 0c ff ff ff    	jne    d3d0 <__intel_new_proc_init_S.N>
    d4c4:	a9 ff ff ff ff       	test   $0xffffffff,%eax
    d4c9:	0f 85 81 fe ff ff    	jne    d350 <__intel_new_proc_init_S.A>
    d4cf:	48 83 ec 08          	sub    $0x8,%rsp
    d4d3:	e8 d8 08 00 00       	callq  ddb0 <__intel_cpu_indicator_init>
    d4d8:	48 83 c4 08          	add    $0x8,%rsp
    d4dc:	eb d2                	jmp    d4b0 <__intel_new_proc_init_S>
    d4de:	90                   	nop    
    d4df:	90                   	nop    

000000000000d4e0 <__intel_new_proc_init_L.A>:
    d4e0:	48 81 ec 08 02 00 00 	sub    $0x208,%rsp
    d4e7:	bf 01 00 00 00       	mov    $0x1,%edi
    d4ec:	33 f6                	xor    %esi,%esi
    d4ee:	33 d2                	xor    %edx,%edx
    d4f0:	33 c0                	xor    %eax,%eax
    d4f2:	e8 79 04 00 00       	callq  d970 <irc__print>
    d4f7:	bf 01 00 00 00       	mov    $0x1,%edi
    d4fc:	be 17 00 00 00       	mov    $0x17,%esi
    d501:	33 d2                	xor    %edx,%edx
    d503:	33 c0                	xor    %eax,%eax
    d505:	e8 66 04 00 00       	callq  d970 <irc__print>
    d50a:	bf 30 00 00 00       	mov    $0x30,%edi
    d50f:	33 f6                	xor    %esi,%esi
    d511:	33 c0                	xor    %eax,%eax
    d513:	e8 a8 06 00 00       	callq  dbc0 <irc__get_msg>
    d518:	48 8d 3c 24          	lea    (%rsp),%rdi
    d51c:	48 89 c6             	mov    %rax,%rsi
    d51f:	ba 00 02 00 00       	mov    $0x200,%edx
    d524:	e8 4f e0 ff ff       	callq  b578 <getenv@plt+0x8>
    d529:	48 8d 0c 24          	lea    (%rsp),%rcx
    d52d:	bf 01 00 00 00       	mov    $0x1,%edi
    d532:	be 18 00 00 00       	mov    $0x18,%esi
    d537:	89 fa                	mov    %edi,%edx
    d539:	33 c0                	xor    %eax,%eax
    d53b:	e8 30 04 00 00       	callq  d970 <irc__print>
    d540:	bf 01 00 00 00       	mov    $0x1,%edi
    d545:	33 f6                	xor    %esi,%esi
    d547:	33 d2                	xor    %edx,%edx
    d549:	33 c0                	xor    %eax,%eax
    d54b:	e8 20 04 00 00       	callq  d970 <irc__print>
    d550:	bf 01 00 00 00       	mov    $0x1,%edi
    d555:	e8 8e e0 ff ff       	callq  b5e8 <memset@plt+0x8>
    d55a:	90                   	nop    
    d55b:	48 8d 74 26 00       	lea    0x0(%rsi),%rsi

000000000000d560 <__intel_new_proc_init_L.O>:
    d560:	41 57                	push   %r15
    d562:	41 56                	push   %r14
    d564:	55                   	push   %rbp
    d565:	48 81 ec 10 02 00 00 	sub    $0x210,%rsp
    d56c:	41 89 ff             	mov    %edi,%r15d
    d56f:	44 89 fd             	mov    %r15d,%ebp
    d572:	45 89 fe             	mov    %r15d,%r14d
    d575:	83 e5 02             	and    $0x2,%ebp
    d578:	41 83 e6 04          	and    $0x4,%r14d
    d57c:	74 2c                	je     d5aa <__intel_new_proc_init_L.O+0x4a>
    d57e:	33 f6                	xor    %esi,%esi
    d580:	ba 00 02 00 00       	mov    $0x200,%edx
    d585:	48 8d 3c 24          	lea    (%rsp),%rdi
    d589:	e8 4a e0 ff ff       	callq  b5d8 <strchr@plt+0x8>
    d58e:	0f ae 04 24          	fxsave (%rsp)
    d592:	8b 54 24 1c          	mov    0x1c(%rsp),%edx
    d596:	89 d0                	mov    %edx,%eax
    d598:	33 c9                	xor    %ecx,%ecx
    d59a:	83 e0 40             	and    $0x40,%eax
    d59d:	0f 44 e9             	cmove  %ecx,%ebp
    d5a0:	81 e2 00 00 02 00    	and    $0x20000,%edx
    d5a6:	44 0f 44 f1          	cmove  %ecx,%r14d
    d5aa:	41 f7 c7 01 00 00 00 	test   $0x1,%r15d
    d5b1:	75 5b                	jne    d60e <__intel_new_proc_init_L.O+0xae>
    d5b3:	85 ed                	test   %ebp,%ebp
    d5b5:	74 21                	je     d5d8 <__intel_new_proc_init_L.O+0x78>
    d5b7:	0f ae 9c 24 00 02 00 	stmxcsr 0x200(%rsp)
    d5be:	00 
    d5bf:	8b 84 24 00 02 00 00 	mov    0x200(%rsp),%eax
    d5c6:	83 c8 40             	or     $0x40,%eax
    d5c9:	89 84 24 00 02 00 00 	mov    %eax,0x200(%rsp)
    d5d0:	0f ae 94 24 00 02 00 	ldmxcsr 0x200(%rsp)
    d5d7:	00 
    d5d8:	45 85 f6             	test   %r14d,%r14d
    d5db:	74 23                	je     d600 <__intel_new_proc_init_L.O+0xa0>
    d5dd:	0f ae 9c 24 00 02 00 	stmxcsr 0x200(%rsp)
    d5e4:	00 
    d5e5:	8b 84 24 00 02 00 00 	mov    0x200(%rsp),%eax
    d5ec:	0d 00 00 02 00       	or     $0x20000,%eax
    d5f1:	89 84 24 00 02 00 00 	mov    %eax,0x200(%rsp)
    d5f8:	0f ae 94 24 00 02 00 	ldmxcsr 0x200(%rsp)
    d5ff:	00 
    d600:	48 8d a4 24 10 02 00 	lea    0x210(%rsp),%rsp
    d607:	00 
    d608:	5d                   	pop    %rbp
    d609:	41 5e                	pop    %r14
    d60b:	41 5f                	pop    %r15
    d60d:	c3                   	retq   
    d60e:	0f ae 9c 24 00 02 00 	stmxcsr 0x200(%rsp)
    d615:	00 
    d616:	8b 84 24 00 02 00 00 	mov    0x200(%rsp),%eax
    d61d:	0d 00 80 00 00       	or     $0x8000,%eax
    d622:	89 84 24 00 02 00 00 	mov    %eax,0x200(%rsp)
    d629:	0f ae 94 24 00 02 00 	ldmxcsr 0x200(%rsp)
    d630:	00 
    d631:	eb 80                	jmp    d5b3 <__intel_new_proc_init_L.O+0x53>
    d633:	90                   	nop    
    d634:	48 8d 74 26 00       	lea    0x0(%rsi),%rsi
    d639:	48 8d bf 00 00 00 00 	lea    0x0(%rdi),%rdi

000000000000d640 <__intel_new_proc_init_L>:
    d640:	48 8b 05 61 29 10 00 	mov    1059169(%rip),%rax        # 10ffa8 <_IO_stdin_used+0x101fa8>
    d647:	8b 00                	mov    (%rax),%eax
    d649:	a9 00 40 00 00       	test   $0x4000,%eax
    d64e:	0f 85 0c ff ff ff    	jne    d560 <__intel_new_proc_init_L.O>
    d654:	a9 ff ff ff ff       	test   $0xffffffff,%eax
    d659:	0f 85 81 fe ff ff    	jne    d4e0 <__intel_new_proc_init_L.A>
    d65f:	48 8d 64 24 f8       	lea    0xfffffffffffffff8(%rsp),%rsp
    d664:	e8 47 07 00 00       	callq  ddb0 <__intel_cpu_indicator_init>
    d669:	48 8d 64 24 08       	lea    0x8(%rsp),%rsp
    d66e:	eb d0                	jmp    d640 <__intel_new_proc_init_L>

000000000000d670 <__intel_new_proc_init_H.A>:
    d670:	48 81 ec 08 02 00 00 	sub    $0x208,%rsp
    d677:	bf 01 00 00 00       	mov    $0x1,%edi
    d67c:	33 f6                	xor    %esi,%esi
    d67e:	33 d2                	xor    %edx,%edx
    d680:	33 c0                	xor    %eax,%eax
    d682:	e8 e9 02 00 00       	callq  d970 <irc__print>
    d687:	bf 01 00 00 00       	mov    $0x1,%edi
    d68c:	be 17 00 00 00       	mov    $0x17,%esi
    d691:	33 d2                	xor    %edx,%edx
    d693:	33 c0                	xor    %eax,%eax
    d695:	e8 d6 02 00 00       	callq  d970 <irc__print>
    d69a:	bf 2f 00 00 00       	mov    $0x2f,%edi
    d69f:	33 f6                	xor    %esi,%esi
    d6a1:	33 c0                	xor    %eax,%eax
    d6a3:	e8 18 05 00 00       	callq  dbc0 <irc__get_msg>
    d6a8:	48 8d 3c 24          	lea    (%rsp),%rdi
    d6ac:	48 89 c6             	mov    %rax,%rsi
    d6af:	ba 00 02 00 00       	mov    $0x200,%edx
    d6b4:	e8 bf de ff ff       	callq  b578 <getenv@plt+0x8>
    d6b9:	48 8d 0c 24          	lea    (%rsp),%rcx
    d6bd:	bf 01 00 00 00       	mov    $0x1,%edi
    d6c2:	be 18 00 00 00       	mov    $0x18,%esi
    d6c7:	89 fa                	mov    %edi,%edx
    d6c9:	33 c0                	xor    %eax,%eax
    d6cb:	e8 a0 02 00 00       	callq  d970 <irc__print>
    d6d0:	bf 01 00 00 00       	mov    $0x1,%edi
    d6d5:	33 f6                	xor    %esi,%esi
    d6d7:	33 d2                	xor    %edx,%edx
    d6d9:	33 c0                	xor    %eax,%eax
    d6db:	e8 90 02 00 00       	callq  d970 <irc__print>
    d6e0:	bf 01 00 00 00       	mov    $0x1,%edi
    d6e5:	e8 fe de ff ff       	callq  b5e8 <memset@plt+0x8>
    d6ea:	90                   	nop    
    d6eb:	48 8d 74 26 00       	lea    0x0(%rsi),%rsi

000000000000d6f0 <__intel_new_proc_init_H.P>:
    d6f0:	89 f8                	mov    %edi,%eax
    d6f2:	83 e0 02             	and    $0x2,%eax
    d6f5:	89 fa                	mov    %edi,%edx
    d6f7:	83 e2 04             	and    $0x4,%edx
    d6fa:	f7 c7 01 00 00 00    	test   $0x1,%edi
    d700:	75 35                	jne    d737 <__intel_new_proc_init_H.P+0x47>
    d702:	85 c0                	test   %eax,%eax
    d704:	74 15                	je     d71b <__intel_new_proc_init_H.P+0x2b>
    d706:	0f ae 5c 24 f8       	stmxcsr 0xfffffffffffffff8(%rsp)
    d70b:	8b 44 24 f8          	mov    0xfffffffffffffff8(%rsp),%eax
    d70f:	83 c8 40             	or     $0x40,%eax
    d712:	89 44 24 f8          	mov    %eax,0xfffffffffffffff8(%rsp)
    d716:	0f ae 54 24 f8       	ldmxcsr 0xfffffffffffffff8(%rsp)
    d71b:	85 d2                	test   %edx,%edx
    d71d:	74 17                	je     d736 <__intel_new_proc_init_H.P+0x46>
    d71f:	0f ae 5c 24 f8       	stmxcsr 0xfffffffffffffff8(%rsp)
    d724:	8b 44 24 f8          	mov    0xfffffffffffffff8(%rsp),%eax
    d728:	0d 00 00 02 00       	or     $0x20000,%eax
    d72d:	89 44 24 f8          	mov    %eax,0xfffffffffffffff8(%rsp)
    d731:	0f ae 54 24 f8       	ldmxcsr 0xfffffffffffffff8(%rsp)
    d736:	c3                   	retq   
    d737:	0f ae 5c 24 f8       	stmxcsr 0xfffffffffffffff8(%rsp)
    d73c:	8b 4c 24 f8          	mov    0xfffffffffffffff8(%rsp),%ecx
    d740:	81 c9 00 80 00 00    	or     $0x8000,%ecx
    d746:	89 4c 24 f8          	mov    %ecx,0xfffffffffffffff8(%rsp)
    d74a:	0f ae 54 24 f8       	ldmxcsr 0xfffffffffffffff8(%rsp)
    d74f:	eb b1                	jmp    d702 <__intel_new_proc_init_H.P+0x12>
    d751:	48 8d b4 26 00 00 00 	lea    0x0(%rsi),%rsi
    d758:	00 
    d759:	48 8d bf 00 00 00 00 	lea    0x0(%rdi),%rdi

000000000000d760 <__intel_new_proc_init_H>:
    d760:	48 8b 05 41 28 10 00 	mov    1058881(%rip),%rax        # 10ffa8 <_IO_stdin_used+0x101fa8>
    d767:	8b 00                	mov    (%rax),%eax
    d769:	a9 00 80 ff ff       	test   $0xffff8000,%eax
    d76e:	0f 85 7c ff ff ff    	jne    d6f0 <__intel_new_proc_init_H.P>
    d774:	a9 ff ff ff ff       	test   $0xffffffff,%eax
    d779:	0f 85 f1 fe ff ff    	jne    d670 <__intel_new_proc_init_H.A>
    d77f:	48 83 ec 08          	sub    $0x8,%rsp
    d783:	e8 28 06 00 00       	callq  ddb0 <__intel_cpu_indicator_init>
    d788:	48 83 c4 08          	add    $0x8,%rsp
    d78c:	eb d2                	jmp    d760 <__intel_new_proc_init_H>
    d78e:	90                   	nop    
    d78f:	90                   	nop    

000000000000d790 <__intel_proc_init.A>:
    d790:	c3                   	retq   
    d791:	48 8d b4 26 00 00 00 	lea    0x0(%rsi),%rsi
    d798:	00 
    d799:	48 8d bf 00 00 00 00 	lea    0x0(%rdi),%rdi

000000000000d7a0 <__intel_proc_init.H>:
    d7a0:	48 81 ec 08 02 00 00 	sub    $0x208,%rsp
    d7a7:	48 8d 3c 24          	lea    (%rsp),%rdi
    d7ab:	33 f6                	xor    %esi,%esi
    d7ad:	ba 00 02 00 00       	mov    $0x200,%edx
    d7b2:	e8 21 de ff ff       	callq  b5d8 <strchr@plt+0x8>
    d7b7:	0f ae 04 24          	fxsave (%rsp)
    d7bb:	8b 54 24 1c          	mov    0x1c(%rsp),%edx
    d7bf:	0f ae 9c 24 00 02 00 	stmxcsr 0x200(%rsp)
    d7c6:	00 
    d7c7:	8b 84 24 00 02 00 00 	mov    0x200(%rsp),%eax
    d7ce:	83 e2 40             	and    $0x40,%edx
    d7d1:	0d 00 80 00 00       	or     $0x8000,%eax
    d7d6:	89 84 24 00 02 00 00 	mov    %eax,0x200(%rsp)
    d7dd:	0f ae 94 24 00 02 00 	ldmxcsr 0x200(%rsp)
    d7e4:	00 
    d7e5:	85 d2                	test   %edx,%edx
    d7e7:	74 21                	je     d80a <__intel_proc_init.H+0x6a>
    d7e9:	0f ae 9c 24 00 02 00 	stmxcsr 0x200(%rsp)
    d7f0:	00 
    d7f1:	8b 84 24 00 02 00 00 	mov    0x200(%rsp),%eax
    d7f8:	83 c8 40             	or     $0x40,%eax
    d7fb:	89 84 24 00 02 00 00 	mov    %eax,0x200(%rsp)
    d802:	0f ae 94 24 00 02 00 	ldmxcsr 0x200(%rsp)
    d809:	00 
    d80a:	48 81 c4 08 02 00 00 	add    $0x208,%rsp
    d811:	c3                   	retq   
    d812:	48 8d b6 00 00 00 00 	lea    0x0(%rsi),%rsi
    d819:	48 8d bf 00 00 00 00 	lea    0x0(%rdi),%rdi

000000000000d820 <__intel_proc_init>:
    d820:	48 8b 05 81 27 10 00 	mov    1058689(%rip),%rax        # 10ffa8 <_IO_stdin_used+0x101fa8>
    d827:	8b 00                	mov    (%rax),%eax
    d829:	a9 80 ff ff ff       	test   $0xffffff80,%eax
    d82e:	0f 85 6c ff ff ff    	jne    d7a0 <__intel_proc_init.H>
    d834:	a9 ff ff ff ff       	test   $0xffffffff,%eax
    d839:	0f 85 51 ff ff ff    	jne    d790 <__intel_proc_init.A>
    d83f:	48 83 ec 08          	sub    $0x8,%rsp
    d843:	e8 68 05 00 00       	callq  ddb0 <__intel_cpu_indicator_init>
    d848:	48 83 c4 08          	add    $0x8,%rsp
    d84c:	eb d2                	jmp    d820 <__intel_proc_init>
    d84e:	90                   	nop    
    d84f:	90                   	nop    

000000000000d850 <__intel_new_proc_init.A>:
    d850:	c3                   	retq   
    d851:	48 8d b4 26 00 00 00 	lea    0x0(%rsi),%rsi
    d858:	00 
    d859:	48 8d bf 00 00 00 00 	lea    0x0(%rdi),%rdi

000000000000d860 <__intel_new_proc_init.H>:
    d860:	41 57                	push   %r15
    d862:	41 56                	push   %r14
    d864:	55                   	push   %rbp
    d865:	48 81 ec 10 02 00 00 	sub    $0x210,%rsp
    d86c:	41 89 ff             	mov    %edi,%r15d
    d86f:	44 89 fd             	mov    %r15d,%ebp
    d872:	83 e5 02             	and    $0x2,%ebp
    d875:	45 89 fe             	mov    %r15d,%r14d
    d878:	41 83 e6 04          	and    $0x4,%r14d
    d87c:	85 ed                	test   %ebp,%ebp
    d87e:	75 05                	jne    d885 <__intel_new_proc_init.H+0x25>
    d880:	45 85 f6             	test   %r14d,%r14d
    d883:	74 2c                	je     d8b1 <__intel_new_proc_init.H+0x51>
    d885:	48 8d 3c 24          	lea    (%rsp),%rdi
    d889:	33 f6                	xor    %esi,%esi
    d88b:	ba 00 02 00 00       	mov    $0x200,%edx
    d890:	e8 43 dd ff ff       	callq  b5d8 <strchr@plt+0x8>
    d895:	0f ae 04 24          	fxsave (%rsp)
    d899:	8b 54 24 1c          	mov    0x1c(%rsp),%edx
    d89d:	33 c9                	xor    %ecx,%ecx
    d89f:	89 d0                	mov    %edx,%eax
    d8a1:	83 e0 40             	and    $0x40,%eax
    d8a4:	0f 44 e9             	cmove  %ecx,%ebp
    d8a7:	81 e2 00 00 02 00    	and    $0x20000,%edx
    d8ad:	44 0f 44 f1          	cmove  %ecx,%r14d
    d8b1:	41 f7 c7 01 00 00 00 	test   $0x1,%r15d
    d8b8:	75 5a                	jne    d914 <__intel_new_proc_init.H+0xb4>
    d8ba:	85 ed                	test   %ebp,%ebp
    d8bc:	74 21                	je     d8df <__intel_new_proc_init.H+0x7f>
    d8be:	0f ae 9c 24 00 02 00 	stmxcsr 0x200(%rsp)
    d8c5:	00 
    d8c6:	8b 84 24 00 02 00 00 	mov    0x200(%rsp),%eax
    d8cd:	83 c8 40             	or     $0x40,%eax
    d8d0:	89 84 24 00 02 00 00 	mov    %eax,0x200(%rsp)
    d8d7:	0f ae 94 24 00 02 00 	ldmxcsr 0x200(%rsp)
    d8de:	00 
    d8df:	45 85 f6             	test   %r14d,%r14d
    d8e2:	74 23                	je     d907 <__intel_new_proc_init.H+0xa7>
    d8e4:	0f ae 9c 24 00 02 00 	stmxcsr 0x200(%rsp)
    d8eb:	00 
    d8ec:	8b 84 24 00 02 00 00 	mov    0x200(%rsp),%eax
    d8f3:	0d 00 00 02 00       	or     $0x20000,%eax
    d8f8:	89 84 24 00 02 00 00 	mov    %eax,0x200(%rsp)
    d8ff:	0f ae 94 24 00 02 00 	ldmxcsr 0x200(%rsp)
    d906:	00 
    d907:	48 81 c4 10 02 00 00 	add    $0x210,%rsp
    d90e:	5d                   	pop    %rbp
    d90f:	41 5e                	pop    %r14
    d911:	41 5f                	pop    %r15
    d913:	c3                   	retq   
    d914:	0f ae 9c 24 00 02 00 	stmxcsr 0x200(%rsp)
    d91b:	00 
    d91c:	8b 84 24 00 02 00 00 	mov    0x200(%rsp),%eax
    d923:	0d 00 80 00 00       	or     $0x8000,%eax
    d928:	89 84 24 00 02 00 00 	mov    %eax,0x200(%rsp)
    d92f:	0f ae 94 24 00 02 00 	ldmxcsr 0x200(%rsp)
    d936:	00 
    d937:	eb 81                	jmp    d8ba <__intel_new_proc_init.H+0x5a>
    d939:	48 8d b6 00 00 00 00 	lea    0x0(%rsi),%rsi

000000000000d940 <__intel_new_proc_init>:
    d940:	48 8b 05 61 26 10 00 	mov    1058401(%rip),%rax        # 10ffa8 <_IO_stdin_used+0x101fa8>
    d947:	8b 00                	mov    (%rax),%eax
    d949:	a9 80 ff ff ff       	test   $0xffffff80,%eax
    d94e:	0f 85 0c ff ff ff    	jne    d860 <__intel_new_proc_init.H>
    d954:	a9 ff ff ff ff       	test   $0xffffffff,%eax
    d959:	0f 85 f1 fe ff ff    	jne    d850 <__intel_new_proc_init.A>
    d95f:	48 83 ec 08          	sub    $0x8,%rsp
    d963:	e8 48 04 00 00       	callq  ddb0 <__intel_cpu_indicator_init>
    d968:	48 83 c4 08          	add    $0x8,%rsp
    d96c:	eb d2                	jmp    d940 <__intel_new_proc_init>
    d96e:	90                   	nop    
    d96f:	90                   	nop    

000000000000d970 <irc__print>:
    d970:	41 57                	push   %r15
    d972:	55                   	push   %rbp
    d973:	53                   	push   %rbx
    d974:	48 81 ec 00 01 00 00 	sub    $0x100,%rsp
    d97b:	48 89 4c 24 48       	mov    %rcx,0x48(%rsp)
    d980:	4c 89 44 24 50       	mov    %r8,0x50(%rsp)
    d985:	4c 89 4c 24 58       	mov    %r9,0x58(%rsp)
    d98a:	44 0f b6 d8          	movzbl %al,%r11d
    d98e:	4a 8d 04 9d 00 00 00 	lea    0x0(,%r11,4),%rax
    d995:	00 
    d996:	4c 8d 1d 2e 00 00 00 	lea    46(%rip),%r11        # d9cb <irc__print+0x5b>
    d99d:	4c 2b d8             	sub    %rax,%r11
    d9a0:	48 8d 84 24 df 00 00 	lea    0xdf(%rsp),%rax
    d9a7:	00 
    d9a8:	41 ff e3             	jmpq   *%r11
    d9ab:	0f 29 78 f1          	movaps %xmm7,0xfffffffffffffff1(%rax)
    d9af:	0f 29 70 e1          	movaps %xmm6,0xffffffffffffffe1(%rax)
    d9b3:	0f 29 68 d1          	movaps %xmm5,0xffffffffffffffd1(%rax)
    d9b7:	0f 29 60 c1          	movaps %xmm4,0xffffffffffffffc1(%rax)
    d9bb:	0f 29 58 b1          	movaps %xmm3,0xffffffffffffffb1(%rax)
    d9bf:	0f 29 50 a1          	movaps %xmm2,0xffffffffffffffa1(%rax)
    d9c3:	0f 29 48 91          	movaps %xmm1,0xffffffffffffff91(%rax)
    d9c7:	0f 29 40 81          	movaps %xmm0,0xffffffffffffff81(%rax)
    d9cb:	41 89 d7             	mov    %edx,%r15d
    d9ce:	89 f5                	mov    %esi,%ebp
    d9d0:	89 fb                	mov    %edi,%ebx
    d9d2:	85 ed                	test   %ebp,%ebp
    d9d4:	75 23                	jne    d9f9 <irc__print+0x89>
    d9d6:	83 fb 01             	cmp    $0x1,%ebx
    d9d9:	0f 84 b4 01 00 00    	je     db93 <irc__print+0x223>
    d9df:	48 8d 3d 1e 06 00 00 	lea    1566(%rip),%rdi        # e004 <_IO_stdin_used+0x4>
    d9e6:	33 c0                	xor    %eax,%eax
    d9e8:	e8 bb db ff ff       	callq  b5a8 <fprintf@plt+0x8>
    d9ed:	48 81 c4 00 01 00 00 	add    $0x100,%rsp
    d9f4:	5b                   	pop    %rbx
    d9f5:	5d                   	pop    %rbp
    d9f6:	41 5f                	pop    %r15
    d9f8:	c3                   	retq   
    d9f9:	8b 05 61 26 10 00    	mov    1058401(%rip),%eax        # 110060 <_IO_stdin_used+0x102060>
    d9ff:	85 c0                	test   %eax,%eax
    da01:	74 35                	je     da38 <irc__print+0xc8>
    da03:	c7 05 53 26 10 00 00 	movl   $0x0,1058387(%rip)        # 110060 <_IO_stdin_used+0x102060>
    da0a:	00 00 00 
    da0d:	48 8d 3d f4 05 00 00 	lea    1524(%rip),%rdi        # e008 <_IO_stdin_used+0x8>
    da14:	33 f6                	xor    %esi,%esi
    da16:	e8 9d db ff ff       	callq  b5b8 <printf@plt+0x8>
    da1b:	48 89 05 be 2d 10 00 	mov    %rax,1060286(%rip)        # 1107e0 <__bss_start+0x1e0>
    da22:	48 83 f8 ff          	cmp    $0xffffffffffffffff,%rax
    da26:	0f 84 d2 00 00 00    	je     dafe <irc__print+0x18e>
    da2c:	c7 05 3a 26 10 00 00 	movl   $0x0,1058362(%rip)        # 110070 <_IO_stdin_used+0x102070>
    da33:	00 00 00 
    da36:	eb 1e                	jmp    da56 <irc__print+0xe6>
    da38:	8b 05 32 26 10 00    	mov    1058354(%rip),%eax        # 110070 <_IO_stdin_used+0x102070>
    da3e:	85 c0                	test   %eax,%eax
    da40:	74 14                	je     da56 <irc__print+0xe6>
    da42:	48 63 c5             	movslq %ebp,%rax
    da45:	48 c1 e0 04          	shl    $0x4,%rax
    da49:	48 8d 15 58 26 10 00 	lea    1058392(%rip),%rdx        # 1100a8 <_IO_stdin_used+0x1020a8>
    da50:	48 8b 04 10          	mov    (%rax,%rdx,1),%rax
    da54:	eb 25                	jmp    da7b <irc__print+0x10b>
    da56:	48 8b 3d 83 2d 10 00 	mov    1060227(%rip),%rdi        # 1107e0 <__bss_start+0x1e0>
    da5d:	48 63 c5             	movslq %ebp,%rax
    da60:	48 c1 e0 04          	shl    $0x4,%rax
    da64:	4c 8d 05 3d 26 10 00 	lea    1058365(%rip),%r8        # 1100a8 <_IO_stdin_used+0x1020a8>
    da6b:	4a 8b 0c 00          	mov    (%rax,%r8,1),%rcx
    da6f:	be 01 00 00 00       	mov    $0x1,%esi
    da74:	89 ea                	mov    %ebp,%edx
    da76:	e8 cd da ff ff       	callq  b548 <__libc_start_main@plt+0x8>
    da7b:	45 85 ff             	test   %r15d,%r15d
    da7e:	7e 51                	jle    dad1 <irc__print+0x161>
    da80:	c7 84 24 e0 00 00 00 	movl   $0x18,0xe0(%rsp)
    da87:	18 00 00 00 
    da8b:	48 8d 94 24 20 01 00 	lea    0x120(%rsp),%rdx
    da92:	00 
    da93:	48 8d 4c 24 30       	lea    0x30(%rsp),%rcx
    da98:	c7 84 24 e4 00 00 00 	movl   $0x30,0xe4(%rsp)
    da9f:	30 00 00 00 
    daa3:	48 89 94 24 e8 00 00 	mov    %rdx,0xe8(%rsp)
    daaa:	00 
    daab:	48 89 8c 24 f0 00 00 	mov    %rcx,0xf0(%rsp)
    dab2:	00 
    dab3:	48 8d 94 24 e0 00 00 	lea    0xe0(%rsp),%rdx
    daba:	00 
    dabb:	48 8d 3d 1e 29 10 00 	lea    1059102(%rip),%rdi        # 1103e0 <__xxref+0x120>
    dac2:	48 89 c6             	mov    %rax,%rsi
    dac5:	e8 8e da ff ff       	callq  b558 <catgets@plt+0x8>
    daca:	48 8d 05 0f 29 10 00 	lea    1059087(%rip),%rax        # 1103e0 <__xxref+0x120>
    dad1:	83 fb 01             	cmp    $0x1,%ebx
    dad4:	0f 84 a5 00 00 00    	je     db7f <irc__print+0x20f>
    dada:	48 89 c7             	mov    %rax,%rdi
    dadd:	33 c0                	xor    %eax,%eax
    dadf:	e8 c4 da ff ff       	callq  b5a8 <fprintf@plt+0x8>
    dae4:	48 8d 3d 19 05 00 00 	lea    1305(%rip),%rdi        # e004 <_IO_stdin_used+0x4>
    daeb:	33 c0                	xor    %eax,%eax
    daed:	e8 b6 da ff ff       	callq  b5a8 <fprintf@plt+0x8>
    daf2:	48 81 c4 00 01 00 00 	add    $0x100,%rsp
    daf9:	5b                   	pop    %rbx
    dafa:	5d                   	pop    %rbp
    dafb:	41 5f                	pop    %r15
    dafd:	c3                   	retq   
    dafe:	48 8d 3d 0f 05 00 00 	lea    1295(%rip),%rdi        # e014 <_IO_stdin_used+0x14>
    db05:	e8 5e da ff ff       	callq  b568 <vsprintf@plt+0x8>
    db0a:	48 8d 3c 24          	lea    (%rsp),%rdi
    db0e:	48 8d 35 03 05 00 00 	lea    1283(%rip),%rsi        # e018 <_IO_stdin_used+0x18>
    db15:	48 83 f8 00          	cmp    $0x0,%rax
    db19:	48 0f 45 f0          	cmovne %rax,%rsi
    db1d:	ba 28 00 00 00       	mov    $0x28,%edx
    db22:	e8 51 da ff ff       	callq  b578 <getenv@plt+0x8>
    db27:	48 8d 3c 24          	lea    (%rsp),%rdi
    db2b:	be 2e 00 00 00       	mov    $0x2e,%esi
    db30:	e8 93 da ff ff       	callq  b5c8 <catopen@plt+0x8>
    db35:	48 85 c0             	test   %rax,%rax
    db38:	74 2f                	je     db69 <irc__print+0x1f9>
    db3a:	c6 00 00             	movb   $0x0,(%rax)
    db3d:	48 8d 34 24          	lea    (%rsp),%rsi
    db41:	48 8d 3d cc 04 00 00 	lea    1228(%rip),%rdi        # e014 <_IO_stdin_used+0x14>
    db48:	ba 01 00 00 00       	mov    $0x1,%edx
    db4d:	e8 36 da ff ff       	callq  b588 <strncpy@plt+0x8>
    db52:	48 8d 3d af 04 00 00 	lea    1199(%rip),%rdi        # e008 <_IO_stdin_used+0x8>
    db59:	33 f6                	xor    %esi,%esi
    db5b:	e8 58 da ff ff       	callq  b5b8 <printf@plt+0x8>
    db60:	48 89 05 79 2c 10 00 	mov    %rax,1059961(%rip)        # 1107e0 <__bss_start+0x1e0>
    db67:	eb 07                	jmp    db70 <irc__print+0x200>
    db69:	48 8b 05 70 2c 10 00 	mov    1059952(%rip),%rax        # 1107e0 <__bss_start+0x1e0>
    db70:	48 83 f8 ff          	cmp    $0xffffffffffffffff,%rax
    db74:	0f 85 b2 fe ff ff    	jne    da2c <irc__print+0xbc>
    db7a:	e9 b9 fe ff ff       	jmpq   da38 <irc__print+0xc8>
    db7f:	48 8b 15 2a 24 10 00 	mov    1057834(%rip),%rdx        # 10ffb0 <_IO_stdin_used+0x101fb0>
    db86:	48 8b 3a             	mov    (%rdx),%rdi
    db89:	48 89 c6             	mov    %rax,%rsi
    db8c:	33 c0                	xor    %eax,%eax
    db8e:	e8 05 da ff ff       	callq  b598 <setenv@plt+0x8>
    db93:	48 8b 15 16 24 10 00 	mov    1057814(%rip),%rdx        # 10ffb0 <_IO_stdin_used+0x101fb0>
    db9a:	48 8b 3a             	mov    (%rdx),%rdi
    db9d:	48 8d 35 60 04 00 00 	lea    1120(%rip),%rsi        # e004 <_IO_stdin_used+0x4>
    dba4:	33 c0                	xor    %eax,%eax
    dba6:	e8 ed d9 ff ff       	callq  b598 <setenv@plt+0x8>
    dbab:	48 81 c4 00 01 00 00 	add    $0x100,%rsp
    dbb2:	5b                   	pop    %rbx
    dbb3:	5d                   	pop    %rbp
    dbb4:	41 5f                	pop    %r15
    dbb6:	c3                   	retq   
    dbb7:	90                   	nop    
    dbb8:	90                   	nop    
    dbb9:	48 8d bf 00 00 00 00 	lea    0x0(%rdi),%rdi

000000000000dbc0 <irc__get_msg>:
    dbc0:	41 56                	push   %r14
    dbc2:	41 55                	push   %r13
    dbc4:	48 81 ec f8 00 00 00 	sub    $0xf8,%rsp
    dbcb:	48 89 54 24 40       	mov    %rdx,0x40(%rsp)
    dbd0:	48 89 4c 24 48       	mov    %rcx,0x48(%rsp)
    dbd5:	4c 89 44 24 50       	mov    %r8,0x50(%rsp)
    dbda:	4c 89 4c 24 58       	mov    %r9,0x58(%rsp)
    dbdf:	44 0f b6 d8          	movzbl %al,%r11d
    dbe3:	4a 8d 04 9d 00 00 00 	lea    0x0(,%r11,4),%rax
    dbea:	00 
    dbeb:	4c 8d 1d 2e 00 00 00 	lea    46(%rip),%r11        # dc20 <irc__get_msg+0x60>
    dbf2:	4c 2b d8             	sub    %rax,%r11
    dbf5:	48 8d 84 24 df 00 00 	lea    0xdf(%rsp),%rax
    dbfc:	00 
    dbfd:	41 ff e3             	jmpq   *%r11
    dc00:	0f 29 78 f1          	movaps %xmm7,0xfffffffffffffff1(%rax)
    dc04:	0f 29 70 e1          	movaps %xmm6,0xffffffffffffffe1(%rax)
    dc08:	0f 29 68 d1          	movaps %xmm5,0xffffffffffffffd1(%rax)
    dc0c:	0f 29 60 c1          	movaps %xmm4,0xffffffffffffffc1(%rax)
    dc10:	0f 29 58 b1          	movaps %xmm3,0xffffffffffffffb1(%rax)
    dc14:	0f 29 50 a1          	movaps %xmm2,0xffffffffffffffa1(%rax)
    dc18:	0f 29 48 91          	movaps %xmm1,0xffffffffffffff91(%rax)
    dc1c:	0f 29 40 81          	movaps %xmm0,0xffffffffffffff81(%rax)
    dc20:	41 89 f6             	mov    %esi,%r14d
    dc23:	41 89 fd             	mov    %edi,%r13d
    dc26:	45 85 ed             	test   %r13d,%r13d
    dc29:	0f 84 85 00 00 00    	je     dcb4 <irc__get_msg+0xf4>
    dc2f:	8b 05 2b 24 10 00    	mov    1057835(%rip),%eax        # 110060 <_IO_stdin_used+0x102060>
    dc35:	85 c0                	test   %eax,%eax
    dc37:	74 35                	je     dc6e <irc__get_msg+0xae>
    dc39:	c7 05 1d 24 10 00 00 	movl   $0x0,1057821(%rip)        # 110060 <_IO_stdin_used+0x102060>
    dc40:	00 00 00 
    dc43:	48 8d 3d be 03 00 00 	lea    958(%rip),%rdi        # e008 <_IO_stdin_used+0x8>
    dc4a:	33 f6                	xor    %esi,%esi
    dc4c:	e8 67 d9 ff ff       	callq  b5b8 <printf@plt+0x8>
    dc51:	48 89 05 88 2b 10 00 	mov    %rax,1059720(%rip)        # 1107e0 <__bss_start+0x1e0>
    dc58:	48 83 f8 ff          	cmp    $0xffffffffffffffff,%rax
    dc5c:	0f 84 c7 00 00 00    	je     dd29 <irc__get_msg+0x169>
    dc62:	c7 05 04 24 10 00 00 	movl   $0x0,1057796(%rip)        # 110070 <_IO_stdin_used+0x102070>
    dc69:	00 00 00 
    dc6c:	eb 1e                	jmp    dc8c <irc__get_msg+0xcc>
    dc6e:	8b 05 fc 23 10 00    	mov    1057788(%rip),%eax        # 110070 <_IO_stdin_used+0x102070>
    dc74:	85 c0                	test   %eax,%eax
    dc76:	74 14                	je     dc8c <irc__get_msg+0xcc>
    dc78:	49 63 c5             	movslq %r13d,%rax
    dc7b:	48 c1 e0 04          	shl    $0x4,%rax
    dc7f:	48 8d 15 22 24 10 00 	lea    1057826(%rip),%rdx        # 1100a8 <_IO_stdin_used+0x1020a8>
    dc86:	48 8b 04 10          	mov    (%rax,%rdx,1),%rax
    dc8a:	eb 2f                	jmp    dcbb <irc__get_msg+0xfb>
    dc8c:	48 8b 3d 4d 2b 10 00 	mov    1059661(%rip),%rdi        # 1107e0 <__bss_start+0x1e0>
    dc93:	49 63 c5             	movslq %r13d,%rax
    dc96:	48 c1 e0 04          	shl    $0x4,%rax
    dc9a:	4c 8d 05 07 24 10 00 	lea    1057799(%rip),%r8        # 1100a8 <_IO_stdin_used+0x1020a8>
    dca1:	4a 8b 0c 00          	mov    (%rax,%r8,1),%rcx
    dca5:	be 01 00 00 00       	mov    $0x1,%esi
    dcaa:	44 89 ea             	mov    %r13d,%edx
    dcad:	e8 96 d8 ff ff       	callq  b548 <__libc_start_main@plt+0x8>
    dcb2:	eb 07                	jmp    dcbb <irc__get_msg+0xfb>
    dcb4:	48 8d 05 5d 03 00 00 	lea    861(%rip),%rax        # e018 <_IO_stdin_used+0x18>
    dcbb:	45 85 f6             	test   %r14d,%r14d
    dcbe:	7e 5d                	jle    dd1d <irc__get_msg+0x15d>
    dcc0:	c7 84 24 e0 00 00 00 	movl   $0x10,0xe0(%rsp)
    dcc7:	10 00 00 00 
    dccb:	48 8d 94 24 10 01 00 	lea    0x110(%rsp),%rdx
    dcd2:	00 
    dcd3:	48 8d 4c 24 30       	lea    0x30(%rsp),%rcx
    dcd8:	c7 84 24 e4 00 00 00 	movl   $0x30,0xe4(%rsp)
    dcdf:	30 00 00 00 
    dce3:	48 89 94 24 e8 00 00 	mov    %rdx,0xe8(%rsp)
    dcea:	00 
    dceb:	48 89 8c 24 f0 00 00 	mov    %rcx,0xf0(%rsp)
    dcf2:	00 
    dcf3:	48 8d 94 24 e0 00 00 	lea    0xe0(%rsp),%rdx
    dcfa:	00 
    dcfb:	48 8d 3d de 28 10 00 	lea    1059038(%rip),%rdi        # 1105e0 <__xxref+0x320>
    dd02:	48 89 c6             	mov    %rax,%rsi
    dd05:	e8 4e d8 ff ff       	callq  b558 <catgets@plt+0x8>
    dd0a:	48 8d 05 cf 28 10 00 	lea    1059023(%rip),%rax        # 1105e0 <__xxref+0x320>
    dd11:	48 81 c4 f8 00 00 00 	add    $0xf8,%rsp
    dd18:	41 5d                	pop    %r13
    dd1a:	41 5e                	pop    %r14
    dd1c:	c3                   	retq   
    dd1d:	48 81 c4 f8 00 00 00 	add    $0xf8,%rsp
    dd24:	41 5d                	pop    %r13
    dd26:	41 5e                	pop    %r14
    dd28:	c3                   	retq   
    dd29:	48 8d 3d e4 02 00 00 	lea    740(%rip),%rdi        # e014 <_IO_stdin_used+0x14>
    dd30:	e8 33 d8 ff ff       	callq  b568 <vsprintf@plt+0x8>
    dd35:	48 8d 3c 24          	lea    (%rsp),%rdi
    dd39:	48 8d 35 d8 02 00 00 	lea    728(%rip),%rsi        # e018 <_IO_stdin_used+0x18>
    dd40:	48 83 f8 00          	cmp    $0x0,%rax
    dd44:	48 0f 45 f0          	cmovne %rax,%rsi
    dd48:	ba 28 00 00 00       	mov    $0x28,%edx
    dd4d:	e8 26 d8 ff ff       	callq  b578 <getenv@plt+0x8>
    dd52:	48 8d 3c 24          	lea    (%rsp),%rdi
    dd56:	be 2e 00 00 00       	mov    $0x2e,%esi
    dd5b:	e8 68 d8 ff ff       	callq  b5c8 <catopen@plt+0x8>
    dd60:	48 85 c0             	test   %rax,%rax
    dd63:	74 2f                	je     dd94 <irc__get_msg+0x1d4>
    dd65:	c6 00 00             	movb   $0x0,(%rax)
    dd68:	48 8d 34 24          	lea    (%rsp),%rsi
    dd6c:	48 8d 3d a1 02 00 00 	lea    673(%rip),%rdi        # e014 <_IO_stdin_used+0x14>
    dd73:	ba 01 00 00 00       	mov    $0x1,%edx
    dd78:	e8 0b d8 ff ff       	callq  b588 <strncpy@plt+0x8>
    dd7d:	48 8d 3d 84 02 00 00 	lea    644(%rip),%rdi        # e008 <_IO_stdin_used+0x8>
    dd84:	33 f6                	xor    %esi,%esi
    dd86:	e8 2d d8 ff ff       	callq  b5b8 <printf@plt+0x8>
    dd8b:	48 89 05 4e 2a 10 00 	mov    %rax,1059406(%rip)        # 1107e0 <__bss_start+0x1e0>
    dd92:	eb 07                	jmp    dd9b <irc__get_msg+0x1db>
    dd94:	48 8b 05 45 2a 10 00 	mov    1059397(%rip),%rax        # 1107e0 <__bss_start+0x1e0>
    dd9b:	48 83 f8 ff          	cmp    $0xffffffffffffffff,%rax
    dd9f:	0f 85 bd fe ff ff    	jne    dc62 <irc__get_msg+0xa2>
    dda5:	e9 c4 fe ff ff       	jmpq   dc6e <irc__get_msg+0xae>
    ddaa:	90                   	nop    
    ddab:	48 8d 74 26 00       	lea    0x0(%rsi),%rsi

000000000000ddb0 <__intel_cpu_indicator_init>:
    ddb0:	50                   	push   %rax
    ddb1:	52                   	push   %rdx
    ddb2:	51                   	push   %rcx
    ddb3:	53                   	push   %rbx
    ddb4:	57                   	push   %rdi
    ddb5:	56                   	push   %rsi
    ddb6:	55                   	push   %rbp
    ddb7:	41 54                	push   %r12
    ddb9:	41 55                	push   %r13
    ddbb:	41 56                	push   %r14
    ddbd:	41 57                	push   %r15
    ddbf:	48 89 e5             	mov    %rsp,%rbp
    ddc2:	48 83 ec 50          	sub    $0x50,%rsp
    ddc6:	9c                   	pushfq 
    ddc7:	58                   	pop    %rax
    ddc8:	48 89 c1             	mov    %rax,%rcx
    ddcb:	48 35 00 00 20 00    	xor    $0x200000,%rax
    ddd1:	50                   	push   %rax
    ddd2:	9d                   	popfq  
    ddd3:	9c                   	pushfq 
    ddd4:	58                   	pop    %rax
    ddd5:	48 3b c1             	cmp    %rcx,%rax
    ddd8:	74 2a                	je     de04 <__intel_cpu_indicator_init+0x54>
    ddda:	51                   	push   %rcx
    dddb:	9d                   	popfq  
    dddc:	48 33 c0             	xor    %rax,%rax
    dddf:	0f a2                	cpuid  
    dde1:	89 45 f8             	mov    %eax,0xfffffffffffffff8(%rbp)
    dde4:	89 5d fc             	mov    %ebx,0xfffffffffffffffc(%rbp)
    dde7:	89 4d ec             	mov    %ecx,0xffffffffffffffec(%rbp)
    ddea:	89 55 f4             	mov    %edx,0xfffffffffffffff4(%rbp)
    dded:	48 c7 c0 01 00 00 00 	mov    $0x1,%rax
    ddf4:	0f a2                	cpuid  
    ddf6:	89 45 f0             	mov    %eax,0xfffffffffffffff0(%rbp)
    ddf9:	89 5d e0             	mov    %ebx,0xffffffffffffffe0(%rbp)
    ddfc:	89 4d e8             	mov    %ecx,0xffffffffffffffe8(%rbp)
    ddff:	89 55 e4             	mov    %edx,0xffffffffffffffe4(%rbp)
    de02:	eb 1b                	jmp    de1f <__intel_cpu_indicator_init+0x6f>
    de04:	48 33 c0             	xor    %rax,%rax
    de07:	89 45 f8             	mov    %eax,0xfffffffffffffff8(%rbp)
    de0a:	89 45 fc             	mov    %eax,0xfffffffffffffffc(%rbp)
    de0d:	89 45 ec             	mov    %eax,0xffffffffffffffec(%rbp)
    de10:	89 45 f4             	mov    %eax,0xfffffffffffffff4(%rbp)
    de13:	89 45 f0             	mov    %eax,0xfffffffffffffff0(%rbp)
    de16:	89 45 e0             	mov    %eax,0xffffffffffffffe0(%rbp)
    de19:	89 45 e8             	mov    %eax,0xffffffffffffffe8(%rbp)
    de1c:	89 45 e4             	mov    %eax,0xffffffffffffffe4(%rbp)
    de1f:	8b 45 fc             	mov    0xfffffffffffffffc(%rbp),%eax
    de22:	bb 01 00 00 00       	mov    $0x1,%ebx
    de27:	3d 47 65 6e 75       	cmp    $0x756e6547,%eax
    de2c:	75 1b                	jne    de49 <__intel_cpu_indicator_init+0x99>
    de2e:	8b 45 f4             	mov    0xfffffffffffffff4(%rbp),%eax
    de31:	3d 69 6e 65 49       	cmp    $0x49656e69,%eax
    de36:	75 11                	jne    de49 <__intel_cpu_indicator_init+0x99>
    de38:	8b 45 ec             	mov    0xffffffffffffffec(%rbp),%eax
    de3b:	3d 6e 74 65 6c       	cmp    $0x6c65746e,%eax
    de40:	75 07                	jne    de49 <__intel_cpu_indicator_init+0x99>
    de42:	ba 01 00 00 00       	mov    $0x1,%edx
    de47:	eb 02                	jmp    de4b <__intel_cpu_indicator_init+0x9b>
    de49:	33 d2                	xor    %edx,%edx
    de4b:	8b 45 f8             	mov    0xfffffffffffffff8(%rbp),%eax
    de4e:	85 c0                	test   %eax,%eax
    de50:	0f 84 8e 00 00 00    	je     dee4 <__intel_cpu_indicator_init+0x134>
    de56:	85 d2                	test   %edx,%edx
    de58:	0f 84 86 00 00 00    	je     dee4 <__intel_cpu_indicator_init+0x134>
    de5e:	0f b6 45 f1          	movzbl 0xfffffffffffffff1(%rbp),%eax
    de62:	83 e0 0f             	and    $0xf,%eax
    de65:	83 f8 0f             	cmp    $0xf,%eax
    de68:	75 15                	jne    de7f <__intel_cpu_indicator_init+0xcf>
    de6a:	8b 45 e8             	mov    0xffffffffffffffe8(%rbp),%eax
    de6d:	ba 00 08 00 00       	mov    $0x800,%edx
    de72:	bb 01 00 00 00       	mov    $0x1,%ebx
    de77:	83 e0 01             	and    $0x1,%eax
    de7a:	0f 45 da             	cmovne %edx,%ebx
    de7d:	eb 65                	jmp    dee4 <__intel_cpu_indicator_init+0x134>
    de7f:	83 f8 06             	cmp    $0x6,%eax
    de82:	75 60                	jne    dee4 <__intel_cpu_indicator_init+0x134>
    de84:	8b 55 e8             	mov    0xffffffffffffffe8(%rbp),%edx
    de87:	b9 00 00 01 00       	mov    $0x10000,%ecx
    de8c:	bb 00 08 00 00       	mov    $0x800,%ebx
    de91:	f6 c2 01             	test   $0x1,%dl
    de94:	75 05                	jne    de9b <__intel_cpu_indicator_init+0xeb>
    de96:	bb 01 00 00 00       	mov    $0x1,%ebx
    de9b:	f7 c2 00 02 00 00    	test   $0x200,%edx
    dea1:	89 d0                	mov    %edx,%eax
    dea3:	74 05                	je     deaa <__intel_cpu_indicator_init+0xfa>
    dea5:	bb 00 10 00 00       	mov    $0x1000,%ebx
    deaa:	f7 c2 00 00 40 00    	test   $0x400000,%edx
    deb0:	74 05                	je     deb7 <__intel_cpu_indicator_init+0x107>
    deb2:	bb 00 40 00 00       	mov    $0x4000,%ebx
    deb7:	f7 c2 00 00 08 00    	test   $0x80000,%edx
    debd:	74 05                	je     dec4 <__intel_cpu_indicator_init+0x114>
    debf:	bb 00 20 00 00       	mov    $0x2000,%ebx
    dec4:	25 00 00 90 00       	and    $0x900000,%eax
    dec9:	3d 00 00 90 00       	cmp    $0x900000,%eax
    dece:	75 05                	jne    ded5 <__intel_cpu_indicator_init+0x125>
    ded0:	bb 00 80 00 00       	mov    $0x8000,%ebx
    ded5:	81 e2 02 00 00 02    	and    $0x2000002,%edx
    dedb:	81 fa 02 00 00 02    	cmp    $0x2000002,%edx
    dee1:	0f 44 d9             	cmove  %ecx,%ebx
    dee4:	48 8b 05 bd 20 10 00 	mov    1056957(%rip),%rax        # 10ffa8 <_IO_stdin_used+0x101fa8>
    deeb:	89 18                	mov    %ebx,(%rax)
    deed:	48 83 c4 50          	add    $0x50,%rsp
    def1:	41 5f                	pop    %r15
    def3:	41 5e                	pop    %r14
    def5:	41 5d                	pop    %r13
    def7:	41 5c                	pop    %r12
    def9:	5d                   	pop    %rbp
    defa:	5e                   	pop    %rsi
    defb:	5f                   	pop    %rdi
    defc:	5b                   	pop    %rbx
    defd:	59                   	pop    %rcx
    defe:	5a                   	pop    %rdx
    deff:	58                   	pop    %rax
    df00:	c3                   	retq   
    df01:	48 8d b4 26 00 00 00 	lea    0x0(%rsi),%rsi
    df08:	00 
    df09:	48 8d bf 00 00 00 00 	lea    0x0(%rdi),%rdi

000000000000df10 <__libc_csu_fini>:
    df10:	f3 c3                	repz retq 
    df12:	66 66 66 90          	xchg   %ax,%ax
    df16:	66 66 66 90          	xchg   %ax,%ax
    df1a:	66 66 90             	xchg   %ax,%ax
    df1d:	66 66 90             	xchg   %ax,%ax

000000000000df20 <__libc_csu_init>:
    df20:	4c 89 64 24 e0       	mov    %r12,0xffffffffffffffe0(%rsp)
    df25:	4c 89 6c 24 e8       	mov    %r13,0xffffffffffffffe8(%rsp)
    df2a:	4c 8d 25 8f 1e 10 00 	lea    1056399(%rip),%r12        # 10fdc0 <_IO_stdin_used+0x101dc0>
    df31:	4c 89 74 24 f0       	mov    %r14,0xfffffffffffffff0(%rsp)
    df36:	4c 89 7c 24 f8       	mov    %r15,0xfffffffffffffff8(%rsp)
    df3b:	49 89 f6             	mov    %rsi,%r14
    df3e:	48 89 5c 24 d0       	mov    %rbx,0xffffffffffffffd0(%rsp)
    df43:	48 89 6c 24 d8       	mov    %rbp,0xffffffffffffffd8(%rsp)
    df48:	48 83 ec 38          	sub    $0x38,%rsp
    df4c:	41 89 ff             	mov    %edi,%r15d
    df4f:	49 89 d5             	mov    %rdx,%r13
    df52:	e8 b9 d5 ff ff       	callq  b510 <_init-0x8>
    df57:	48 8d 05 62 1e 10 00 	lea    1056354(%rip),%rax        # 10fdc0 <_IO_stdin_used+0x101dc0>
    df5e:	49 29 c4             	sub    %rax,%r12
    df61:	49 c1 fc 03          	sar    $0x3,%r12
    df65:	4d 85 e4             	test   %r12,%r12
    df68:	74 1e                	je     df88 <__libc_csu_init+0x68>
    df6a:	31 ed                	xor    %ebp,%ebp
    df6c:	48 89 c3             	mov    %rax,%rbx
    df6f:	90                   	nop    
    df70:	48 83 c5 01          	add    $0x1,%rbp
    df74:	4c 89 ea             	mov    %r13,%rdx
    df77:	4c 89 f6             	mov    %r14,%rsi
    df7a:	44 89 ff             	mov    %r15d,%edi
    df7d:	ff 13                	callq  *(%rbx)
    df7f:	48 83 c3 08          	add    $0x8,%rbx
    df83:	49 39 ec             	cmp    %rbp,%r12
    df86:	75 e8                	jne    df70 <__libc_csu_init+0x50>
    df88:	48 8b 5c 24 08       	mov    0x8(%rsp),%rbx
    df8d:	48 8b 6c 24 10       	mov    0x10(%rsp),%rbp
    df92:	4c 8b 64 24 18       	mov    0x18(%rsp),%r12
    df97:	4c 8b 6c 24 20       	mov    0x20(%rsp),%r13
    df9c:	4c 8b 74 24 28       	mov    0x28(%rsp),%r14
    dfa1:	4c 8b 7c 24 30       	mov    0x30(%rsp),%r15
    dfa6:	48 83 c4 38          	add    $0x38,%rsp
    dfaa:	c3                   	retq   
    dfab:	90                   	nop    
    dfac:	90                   	nop    
    dfad:	90                   	nop    
    dfae:	90                   	nop    
    dfaf:	90                   	nop    
    dfb0:	55                   	push   %rbp
    dfb1:	48 89 e5             	mov    %rsp,%rbp
    dfb4:	53                   	push   %rbx
    dfb5:	48 83 ec 08          	sub    $0x8,%rsp
    dfb9:	48 8b 05 00 1e 10 00 	mov    1056256(%rip),%rax        # 10fdc0 <_IO_stdin_used+0x101dc0>
    dfc0:	48 83 f8 ff          	cmp    $0xffffffffffffffff,%rax
    dfc4:	74 1a                	je     dfe0 <__libc_csu_init+0xc0>
    dfc6:	48 8d 1d f3 1d 10 00 	lea    1056243(%rip),%rbx        # 10fdc0 <_IO_stdin_used+0x101dc0>
    dfcd:	66 66 90             	xchg   %ax,%ax
    dfd0:	ff d0                	callq  *%rax
    dfd2:	48 8b 43 f8          	mov    0xfffffffffffffff8(%rbx),%rax
    dfd6:	48 83 eb 08          	sub    $0x8,%rbx
    dfda:	48 83 f8 ff          	cmp    $0xffffffffffffffff,%rax
    dfde:	75 f0                	jne    dfd0 <__libc_csu_init+0xb0>
    dfe0:	48 83 c4 08          	add    $0x8,%rsp
    dfe4:	5b                   	pop    %rbx
    dfe5:	c9                   	leaveq 
    dfe6:	c3                   	retq   
    dfe7:	90                   	nop    
Disassembly of section .fini:

000000000000dfe8 <_fini>:
    dfe8:	55                   	push   %rbp
    dfe9:	48 83 ec 08          	sub    $0x8,%rsp
    dfed:	e8 06 00 00 00       	callq  dff8 <_fini+0x10>
    dff2:	48 83 c4 08          	add    $0x8,%rsp
    dff6:	5d                   	pop    %rbp
    dff7:	c3                   	retq   
    dff8:	e8 53 d6 ff ff       	callq  b650 <_start+0x50>
    dffd:	c3                   	retq   