
stupid.l:     file format elf64-x86-64

Disassembly of section .interp:

000000000000b000 <.interp>:
    b000:	2f                   	(bad)  
    b001:	6c                   	insb   (%dx),%es:(%rdi)
    b002:	69 62 36 34 2f 6c 64 	imul   $0x646c2f34,0x36(%rdx),%esp
    b009:	2d 6c 69 6e 75       	sub    $0x756e696c,%eax
    b00e:	78 2d                	js     b03d <_init-0x4db>
    b010:	78 38                	js     b04a <_init-0x4ce>
    b012:	36                   	ss
    b013:	2d 36 34 2e 73       	sub    $0x732e3436,%eax
    b018:	6f                   	outsl  %ds:(%rsi),(%dx)
    b019:	2e 32 00             	xor    %cs:(%rax),%al
Disassembly of section .note.ABI-tag:

000000000000b01c <.note.ABI-tag>:
    b01c:	04 00                	add    $0x0,%al
    b01e:	00 00                	add    %al,(%rax)
    b020:	10 00                	adc    %al,(%rax)
    b022:	00 00                	add    %al,(%rax)
    b024:	01 00                	add    %eax,(%rax)
    b026:	00 00                	add    %al,(%rax)
    b028:	47                   	rex.RXB
    b029:	4e 55                	rex.WRX push   %rbp
    b02b:	00 00                	add    %al,(%rax)
    b02d:	00 00                	add    %al,(%rax)
    b02f:	00 02                	add    %al,(%rdx)
    b031:	00 00                	add    %al,(%rax)
    b033:	00 06                	add    %al,(%rsi)
    b035:	00 00                	add    %al,(%rax)
    b037:	00 04 00             	add    %al,(%rax,%rax,1)
    b03a:	00 00                	add    %al,(%rax)
Disassembly of section .note.SuSE:

000000000000b03c <.note.SuSE>:
    b03c:	05 00 00 00 04       	add    $0x4000000,%eax
    b041:	00 00                	add    %al,(%rax)
    b043:	00 53 75             	add    %dl,0x75(%rbx)
    b046:	53                   	push   %rbx
    b047:	45 53                	rex.RB push   %r11
    b049:	75 53                	jne    b09e <_init-0x47a>
    b04b:	45 00 00             	add    %r8b,(%r8)
    b04e:	00 00                	add    %al,(%rax)
    b050:	01 01                	add    %eax,(%rcx)
    b052:	0a 01                	or     (%rcx),%al
Disassembly of section .hash:

000000000000b058 <.hash>:
    b058:	11 00                	adc    %eax,(%rax)
    b05a:	00 00                	add    %al,(%rax)
    b05c:	11 00                	adc    %eax,(%rax)
    b05e:	00 00                	add    %al,(%rax)
    b060:	02 00                	add    (%rax),%al
    b062:	00 00                	add    %al,(%rax)
    b064:	00 00                	add    %al,(%rax)
    b066:	00 00                	add    %al,(%rax)
    b068:	07                   	(bad)  
    b069:	00 00                	add    %al,(%rax)
    b06b:	00 0f                	add    %cl,(%rdi)
    b06d:	00 00                	add    %al,(%rax)
    b06f:	00 00                	add    %al,(%rax)
    b071:	00 00                	add    %al,(%rax)
    b073:	00 00                	add    %al,(%rax)
    b075:	00 00                	add    %al,(%rax)
    b077:	00 06                	add    %al,(%rsi)
    b079:	00 00                	add    %al,(%rax)
    b07b:	00 01                	add    %al,(%rcx)
    b07d:	00 00                	add    %al,(%rax)
    b07f:	00 05 00 00 00 00    	add    %al,0(%rip)        # b085 <_init-0x493>
    b085:	00 00                	add    %al,(%rax)
    b087:	00 0a                	add    %cl,(%rdx)
    b089:	00 00                	add    %al,(%rax)
    b08b:	00 00                	add    %al,(%rax)
    b08d:	00 00                	add    %al,(%rax)
    b08f:	00 03                	add    %al,(%rbx)
    b091:	00 00                	add    %al,(%rax)
    b093:	00 0e                	add    %cl,(%rsi)
    b095:	00 00                	add    %al,(%rax)
    b097:	00 09                	add    %cl,(%rcx)
    b099:	00 00                	add    %al,(%rax)
    b09b:	00 10                	add    %dl,(%rax)
    b09d:	00 00                	add    %al,(%rax)
    b09f:	00 00                	add    %al,(%rax)
    b0a1:	00 00                	add    %al,(%rax)
    b0a3:	00 00                	add    %al,(%rax)
    b0a5:	00 00                	add    %al,(%rax)
    b0a7:	00 00                	add    %al,(%rax)
    b0a9:	00 00                	add    %al,(%rax)
    b0ab:	00 00                	add    %al,(%rax)
    b0ad:	00 00                	add    %al,(%rax)
    b0af:	00 00                	add    %al,(%rax)
    b0b1:	00 00                	add    %al,(%rax)
    b0b3:	00 00                	add    %al,(%rax)
    b0b5:	00 00                	add    %al,(%rax)
    b0b7:	00 00                	add    %al,(%rax)
    b0b9:	00 00                	add    %al,(%rax)
    b0bb:	00 00                	add    %al,(%rax)
    b0bd:	00 00                	add    %al,(%rax)
    b0bf:	00 00                	add    %al,(%rax)
    b0c1:	00 00                	add    %al,(%rax)
    b0c3:	00 04 00             	add    %al,(%rax,%rax,1)
    b0c6:	00 00                	add    %al,(%rax)
    b0c8:	00 00                	add    %al,(%rax)
    b0ca:	00 00                	add    %al,(%rax)
    b0cc:	00 00                	add    %al,(%rax)
    b0ce:	00 00                	add    %al,(%rax)
    b0d0:	08 00                	or     %al,(%rax)
    b0d2:	00 00                	add    %al,(%rax)
    b0d4:	0b 00                	or     (%rax),%eax
    b0d6:	00 00                	add    %al,(%rax)
    b0d8:	0c 00                	or     $0x0,%al
    b0da:	00 00                	add    %al,(%rax)
    b0dc:	0d 00 00 00 00       	or     $0x0,%eax
    b0e1:	00 00                	add    %al,(%rax)
    b0e3:	00 00                	add    %al,(%rax)
    b0e5:	00 00                	add    %al,(%rax)
    b0e7:	00                   	.byte 0x0
Disassembly of section .dynsym:

000000000000b0e8 <.dynsym>:
    b0e8:	00 00                	add    %al,(%rax)
    b0ea:	00 00                	add    %al,(%rax)
    b0ec:	00 00                	add    %al,(%rax)
    b0ee:	00 00                	add    %al,(%rax)
    b0f0:	00 00                	add    %al,(%rax)
    b0f2:	00 00                	add    %al,(%rax)
    b0f4:	00 00                	add    %al,(%rax)
    b0f6:	00 00                	add    %al,(%rax)
    b0f8:	00 00                	add    %al,(%rax)
    b0fa:	00 00                	add    %al,(%rax)
    b0fc:	00 00                	add    %al,(%rax)
    b0fe:	00 00                	add    %al,(%rax)
    b100:	90                   	nop    
    b101:	00 00                	add    %al,(%rax)
    b103:	00 12                	add    %dl,(%rdx)
    b105:	00 00                	add    %al,(%rax)
    b107:	00 00                	add    %al,(%rax)
    b109:	00 00                	add    %al,(%rax)
    b10b:	00 00                	add    %al,(%rax)
    b10d:	00 00                	add    %al,(%rax)
    b10f:	00 a5 01 00 00 00    	add    %ah,0x1(%rbp)
    b115:	00 00                	add    %al,(%rax)
    b117:	00 5e 00             	add    %bl,0x0(%rsi)
    b11a:	00 00                	add    %al,(%rax)
    b11c:	12 00                	adc    (%rax),%al
    b11e:	00 00                	add    %al,(%rax)
    b120:	00 00                	add    %al,(%rax)
    b122:	00 00                	add    %al,(%rax)
    b124:	00 00                	add    %al,(%rax)
    b126:	00 00                	add    %al,(%rax)
    b128:	8d 00                	lea    (%rax),%eax
    b12a:	00 00                	add    %al,(%rax)
    b12c:	00 00                	add    %al,(%rax)
    b12e:	00 00                	add    %al,(%rax)
    b130:	b4 00                	mov    $0x0,%ah
    b132:	00 00                	add    %al,(%rax)
    b134:	11 00                	adc    %eax,(%rax)
    b136:	1a 00                	sbb    (%rax),%al
    b138:	40 5a                	rex pop    %rdx
    b13a:	50                   	push   %rax
    b13b:	00 00                	add    %al,(%rax)
    b13d:	00 00                	add    %al,(%rax)
    b13f:	00 04 00             	add    %al,(%rax,%rax,1)
    b142:	00 00                	add    %al,(%rax)
    b144:	00 00                	add    %al,(%rax)
    b146:	00 00                	add    %al,(%rax)
    b148:	46 00 00             	rex.RX add    %r8b,(%rax)
    b14b:	00 12                	add    %dl,(%rdx)
    b14d:	00 00                	add    %al,(%rax)
    b14f:	00 00                	add    %al,(%rax)
    b151:	00 00                	add    %al,(%rax)
    b153:	00 00                	add    %al,(%rax)
    b155:	00 00                	add    %al,(%rax)
    b157:	00 c9                	add    %cl,%cl
    b159:	00 00                	add    %al,(%rax)
    b15b:	00 00                	add    %al,(%rax)
    b15d:	00 00                	add    %al,(%rax)
    b15f:	00 4f 00             	add    %cl,0x0(%rdi)
    b162:	00 00                	add    %al,(%rax)
    b164:	12 00                	adc    (%rax),%al
    b166:	00 00                	add    %al,(%rax)
    b168:	00 00                	add    %al,(%rax)
    b16a:	00 00                	add    %al,(%rax)
    b16c:	00 00                	add    %al,(%rax)
    b16e:	00 00                	add    %al,(%rax)
    b170:	f5                   	cmc    
    b171:	00 00                	add    %al,(%rax)
    b173:	00 00                	add    %al,(%rax)
    b175:	00 00                	add    %al,(%rax)
    b177:	00 66 00             	add    %ah,0x0(%rsi)
    b17a:	00 00                	add    %al,(%rax)
    b17c:	12 00                	adc    (%rax),%al
    b17e:	00 00                	add    %al,(%rax)
    b180:	00 00                	add    %al,(%rax)
    b182:	00 00                	add    %al,(%rax)
    b184:	00 00                	add    %al,(%rax)
    b186:	00 00                	add    %al,(%rax)
    b188:	a6                   	cmpsb  %es:(%rdi),%ds:(%rsi)
    b189:	00 00                	add    %al,(%rax)
    b18b:	00 00                	add    %al,(%rax)
    b18d:	00 00                	add    %al,(%rax)
    b18f:	00 7c 00 00          	add    %bh,0x0(%rax,%rax,1)
    b193:	00 11                	add    %dl,(%rcx)
    b195:	00 00                	add    %al,(%rax)
    b197:	00 00                	add    %al,(%rax)
    b199:	00 00                	add    %al,(%rax)
    b19b:	00 00                	add    %al,(%rax)
    b19d:	00 00                	add    %al,(%rax)
    b19f:	00 08                	add    %cl,(%rax)
    b1a1:	00 00                	add    %al,(%rax)
    b1a3:	00 00                	add    %al,(%rax)
    b1a5:	00 00                	add    %al,(%rax)
    b1a7:	00 6e 00             	add    %ch,0x0(%rsi)
    b1aa:	00 00                	add    %al,(%rax)
    b1ac:	12 00                	adc    (%rax),%al
    b1ae:	00 00                	add    %al,(%rax)
    b1b0:	00 00                	add    %al,(%rax)
    b1b2:	00 00                	add    %al,(%rax)
    b1b4:	00 00                	add    %al,(%rax)
    b1b6:	00 00                	add    %al,(%rax)
    b1b8:	84 00                	test   %al,(%rax)
    b1ba:	00 00                	add    %al,(%rax)
    b1bc:	00 00                	add    %al,(%rax)
    b1be:	00 00                	add    %al,(%rax)
    b1c0:	56                   	push   %rsi
    b1c1:	00 00                	add    %al,(%rax)
    b1c3:	00 12                	add    %dl,(%rdx)
    b1c5:	00 00                	add    %al,(%rax)
    b1c7:	00 00                	add    %al,(%rax)
    b1c9:	00 00                	add    %al,(%rax)
    b1cb:	00 00                	add    %al,(%rax)
    b1cd:	00 00                	add    %al,(%rax)
    b1cf:	00 90 00 00 00 00    	add    %dl,0x0(%rax)
    b1d5:	00 00                	add    %al,(%rax)
    b1d7:	00 57 00             	add    %dl,0x0(%rdi)
    b1da:	00 00                	add    %al,(%rax)
    b1dc:	12 00                	adc    (%rax),%al
    b1de:	00 00                	add    %al,(%rax)
    b1e0:	00 00                	add    %al,(%rax)
    b1e2:	00 00                	add    %al,(%rax)
    b1e4:	00 00                	add    %al,(%rax)
    b1e6:	00 00                	add    %al,(%rax)
    b1e8:	a2 00 00 00 00 00 00 	mov    %al,0x8800000000000000
    b1ef:	00 88 
    b1f1:	00 00                	add    %al,(%rax)
    b1f3:	00 12                	add    %dl,(%rdx)
    b1f5:	00 00                	add    %al,(%rax)
    b1f7:	00 00                	add    %al,(%rax)
    b1f9:	00 00                	add    %al,(%rax)
    b1fb:	00 00                	add    %al,(%rax)
    b1fd:	00 00                	add    %al,(%rax)
    b1ff:	00 21                	add    %ah,(%rcx)
    b201:	02 00                	add    (%rax),%al
    b203:	00 00                	add    %al,(%rax)
    b205:	00 00                	add    %al,(%rax)
    b207:	00 a2 00 00 00 12    	add    %ah,0x12000000(%rdx)
    b20d:	00 00                	add    %al,(%rax)
    b20f:	00 00                	add    %al,(%rax)
    b211:	00 00                	add    %al,(%rax)
    b213:	00 00                	add    %al,(%rax)
    b215:	00 00                	add    %al,(%rax)
    b217:	00 a2 01 00 00 00    	add    %ah,0x1(%rdx)
    b21d:	00 00                	add    %al,(%rax)
    b21f:	00 75 00             	add    %dh,0x0(%rbp)
    b222:	00 00                	add    %al,(%rax)
    b224:	12 00                	adc    (%rax),%al
    b226:	00 00                	add    %al,(%rax)
    b228:	00 00                	add    %al,(%rax)
    b22a:	00 00                	add    %al,(%rax)
    b22c:	00 00                	add    %al,(%rax)
    b22e:	00 00                	add    %al,(%rax)
    b230:	39 02                	cmp    %eax,(%rdx)
    b232:	00 00                	add    %al,(%rax)
    b234:	00 00                	add    %al,(%rax)
    b236:	00 00                	add    %al,(%rax)
    b238:	83 00 00             	addl   $0x0,(%rax)
    b23b:	00 12                	add    %dl,(%rdx)
    b23d:	00 00                	add    %al,(%rax)
    b23f:	00 00                	add    %al,(%rax)
    b241:	00 00                	add    %al,(%rax)
    b243:	00 00                	add    %al,(%rax)
    b245:	00 00                	add    %al,(%rax)
    b247:	00 d5                	add    %dl,%ch
    b249:	00 00                	add    %al,(%rax)
    b24b:	00 00                	add    %al,(%rax)
    b24d:	00 00                	add    %al,(%rax)
    b24f:	00 0b                	add    %cl,(%rbx)
    b251:	00 00                	add    %al,(%rax)
    b253:	00 20                	add    %ah,(%rax)
    b255:	00 00                	add    %al,(%rax)
    b257:	00 00                	add    %al,(%rax)
    b259:	00 00                	add    %al,(%rax)
    b25b:	00 00                	add    %al,(%rax)
    b25d:	00 00                	add    %al,(%rax)
    b25f:	00 00                	add    %al,(%rax)
    b261:	00 00                	add    %al,(%rax)
    b263:	00 00                	add    %al,(%rax)
    b265:	00 00                	add    %al,(%rax)
    b267:	00 1f                	add    %bl,(%rdi)
    b269:	00 00                	add    %al,(%rax)
    b26b:	00 20                	add    %ah,(%rax)
    b26d:	00 00                	add    %al,(%rax)
    b26f:	00 00                	add    %al,(%rax)
    b271:	00 00                	add    %al,(%rax)
    b273:	00 00                	add    %al,(%rax)
    b275:	00 00                	add    %al,(%rax)
    b277:	00 00                	add    %al,(%rax)
    b279:	00 00                	add    %al,(%rax)
    b27b:	00 00                	add    %al,(%rax)
    b27d:	00 00                	add    %al,(%rax)
    b27f:	00                   	.byte 0x0
Disassembly of section .dynstr:

000000000000b280 <.dynstr>:
    b280:	00 6c 69 62          	add    %ch,0x62(%rcx,%rbp,2)
    b284:	6d                   	insl   (%dx),%es:(%rdi)
    b285:	2e 73 6f             	jae,pn b2f7 <_init-0x221>
    b288:	2e 36 00 5f 4a       	add    %bl,%cs:%ss:0x4a(%rdi)
    b28d:	76 5f                	jbe    b2ee <_init-0x22a>
    b28f:	52                   	push   %rdx
    b290:	65 67 69 73 74 65 72 	addr32 imul $0x6c437265,%gs:0x74(%ebx),%esi
    b297:	43 6c 
    b299:	61                   	(bad)  
    b29a:	73 73                	jae    b30f <_init-0x209>
    b29c:	65                   	gs
    b29d:	73 00                	jae    b29f <_init-0x279>
    b29f:	5f                   	pop    %rdi
    b2a0:	5f                   	pop    %rdi
    b2a1:	67 6d                	addr32 insl (%dx),%es:(%edi)
    b2a3:	6f                   	outsl  %ds:(%rsi),(%dx)
    b2a4:	6e                   	outsb  %ds:(%rsi),(%dx)
    b2a5:	5f                   	pop    %rdi
    b2a6:	73 74                	jae    b31c <_init-0x1fc>
    b2a8:	61                   	(bad)  
    b2a9:	72 74                	jb     b31f <_init-0x1f9>
    b2ab:	5f                   	pop    %rdi
    b2ac:	5f                   	pop    %rdi
    b2ad:	00 6c 69 62          	add    %ch,0x62(%rcx,%rbp,2)
    b2b1:	67 63 63 5f          	addr32 movslq 0x5f(%ebx),%esp
    b2b5:	73 2e                	jae    b2e5 <_init-0x233>
    b2b7:	73 6f                	jae    b328 <_init-0x1f0>
    b2b9:	2e 31 00             	xor    %eax,%cs:(%rax)
    b2bc:	6c                   	insb   (%dx),%es:(%rdi)
    b2bd:	69 62 63 2e 73 6f 2e 	imul   $0x2e6f732e,0x63(%rdx),%esp
    b2c4:	36 00 76 73          	add    %dh,%ss:0x73(%rsi)
    b2c8:	70 72                	jo     b33c <_init-0x1dc>
    b2ca:	69 6e 74 66 00 67 65 	imul   $0x65670066,0x74(%rsi),%ebp
    b2d1:	74 65                	je     b338 <_init-0x1e0>
    b2d3:	6e                   	outsb  %ds:(%rsi),(%dx)
    b2d4:	76 00                	jbe    b2d6 <_init-0x242>
    b2d6:	66                   	data16
    b2d7:	70 72                	jo     b34b <_init-0x1cd>
    b2d9:	69 6e 74 66 00 63 61 	imul   $0x61630066,0x74(%rsi),%ebp
    b2e0:	74 67                	je     b349 <_init-0x1cf>
    b2e2:	65                   	gs
    b2e3:	74 73                	je     b358 <_init-0x1c0>
    b2e5:	00 73 74             	add    %dh,0x74(%rbx)
    b2e8:	72 6e                	jb     b358 <_init-0x1c0>
    b2ea:	63 70 79             	movslq 0x79(%rax),%esi
    b2ed:	00 73 65             	add    %dh,0x65(%rbx)
    b2f0:	74 65                	je     b357 <_init-0x1c1>
    b2f2:	6e                   	outsb  %ds:(%rsi),(%dx)
    b2f3:	76 00                	jbe    b2f5 <_init-0x223>
    b2f5:	6d                   	insl   (%dx),%es:(%rdi)
    b2f6:	65                   	gs
    b2f7:	6d                   	insl   (%dx),%es:(%rdi)
    b2f8:	73 65                	jae    b35f <_init-0x1b9>
    b2fa:	74 00                	je     b2fc <_init-0x21c>
    b2fc:	73 74                	jae    b372 <_init-0x1a6>
    b2fe:	64                   	fs
    b2ff:	65                   	gs
    b300:	72 72                	jb     b374 <_init-0x1a4>
    b302:	00 65 78             	add    %ah,0x78(%rbp)
    b305:	69 74 00 63 61 74 6f 	imul   $0x706f7461,0x63(%rax,%rax,1),%esi
    b30c:	70 
    b30d:	65 6e                	outsb  %gs:(%rsi),(%dx)
    b30f:	00 5f 5f             	add    %bl,0x5f(%rdi)
    b312:	6c                   	insb   (%dx),%es:(%rdi)
    b313:	69 62 63 5f 73 74 61 	imul   $0x6174735f,0x63(%rdx),%esp
    b31a:	72 74                	jb     b390 <_init-0x188>
    b31c:	5f                   	pop    %rdi
    b31d:	6d                   	insl   (%dx),%es:(%rdi)
    b31e:	61                   	(bad)  
    b31f:	69 6e 00 73 74 72 63 	imul   $0x63727473,0x0(%rsi),%ebp
    b326:	68 72 00 6c 69       	pushq  $0x696c0072
    b32b:	62                   	(bad)  
    b32c:	64                   	fs
    b32d:	6c                   	insb   (%dx),%es:(%rdi)
    b32e:	2e 73 6f             	jae,pn b3a0 <_init-0x178>
    b331:	2e 32 00             	xor    %cs:(%rax),%al
    b334:	5f                   	pop    %rdi
    b335:	5f                   	pop    %rdi
    b336:	69 6e 74 65 6c 5f 63 	imul   $0x635f6c65,0x74(%rsi),%ebp
    b33d:	70 75                	jo     b3b4 <_init-0x164>
    b33f:	5f                   	pop    %rdi
    b340:	69 6e 64 69 63 61 74 	imul   $0x74616369,0x64(%rsi),%ebp
    b347:	6f                   	outsl  %ds:(%rsi),(%dx)
    b348:	72 00                	jb     b34a <_init-0x1ce>
    b34a:	47                   	rex.RXB
    b34b:	4c                   	rex.WR
    b34c:	49                   	rex.WB
    b34d:	42                   	rex.X
    b34e:	43 5f                	rex.XB pop    %r15
    b350:	32 2e                	xor    (%rsi),%ch
    b352:	32 2e                	xor    (%rsi),%ch
    b354:	35                   	.byte 0x35
    b355:	00                   	.byte 0x0
Disassembly of section .gnu.version:

000000000000b356 <.gnu.version>:
    b356:	00 00                	add    %al,(%rax)
    b358:	02 00                	add    (%rax),%al
    b35a:	02 00                	add    (%rax),%al
    b35c:	01 00                	add    %eax,(%rax)
    b35e:	02 00                	add    (%rax),%al
    b360:	02 00                	add    (%rax),%al
    b362:	02 00                	add    (%rax),%al
    b364:	02 00                	add    (%rax),%al
    b366:	02 00                	add    (%rax),%al
    b368:	02 00                	add    (%rax),%al
    b36a:	02 00                	add    (%rax),%al
    b36c:	02 00                	add    (%rax),%al
    b36e:	02 00                	add    (%rax),%al
    b370:	02 00                	add    (%rax),%al
    b372:	02 00                	add    (%rax),%al
    b374:	00 00                	add    %al,(%rax)
    b376:	00 00                	add    %al,(%rax)
Disassembly of section .gnu.version_r:

000000000000b378 <.gnu.version_r>:
    b378:	01 00                	add    %eax,(%rax)
    b37a:	01 00                	add    %eax,(%rax)
    b37c:	3c 00                	cmp    $0x0,%al
    b37e:	00 00                	add    %al,(%rax)
    b380:	10 00                	adc    %al,(%rax)
    b382:	00 00                	add    %al,(%rax)
    b384:	00 00                	add    %al,(%rax)
    b386:	00 00                	add    %al,(%rax)
    b388:	75 1a                	jne    b3a4 <_init-0x174>
    b38a:	69 09 00 00 02 00    	imul   $0x20000,(%rcx),%ecx
    b390:	ca 00 00             	lret   $0x0
    b393:	00 00                	add    %al,(%rax)
    b395:	00 00                	add    %al,(%rax)
    b397:	00                   	.byte 0x0
Disassembly of section .rela.plt:

000000000000b3f8 <.rela.plt>:
    b3f8:	20 52 50             	and    %dl,0x50(%rdx)
    b3fb:	00 00                	add    %al,(%rax)
    b3fd:	00 00                	add    %al,(%rax)
    b3ff:	00 07                	add    %al,(%rdi)
    b401:	00 00                	add    %al,(%rax)
    b403:	00 01                	add    %al,(%rcx)
    b405:	00 00                	add    %al,(%rax)
    b407:	00 00                	add    %al,(%rax)
    b409:	00 00                	add    %al,(%rax)
    b40b:	00 00                	add    %al,(%rax)
    b40d:	00 00                	add    %al,(%rax)
    b40f:	00 28                	add    %ch,(%rax)
    b411:	52                   	push   %rdx
    b412:	50                   	push   %rax
    b413:	00 00                	add    %al,(%rax)
    b415:	00 00                	add    %al,(%rax)
    b417:	00 07                	add    %al,(%rdi)
    b419:	00 00                	add    %al,(%rax)
    b41b:	00 02                	add    %al,(%rdx)
    b41d:	00 00                	add    %al,(%rax)
    b41f:	00 00                	add    %al,(%rax)
    b421:	00 00                	add    %al,(%rax)
    b423:	00 00                	add    %al,(%rax)
    b425:	00 00                	add    %al,(%rax)
    b427:	00 30                	add    %dh,(%rax)
    b429:	52                   	push   %rdx
    b42a:	50                   	push   %rax
    b42b:	00 00                	add    %al,(%rax)
    b42d:	00 00                	add    %al,(%rax)
    b42f:	00 07                	add    %al,(%rdi)
    b431:	00 00                	add    %al,(%rax)
    b433:	00 04 00             	add    %al,(%rax,%rax,1)
    b436:	00 00                	add    %al,(%rax)
    b438:	00 00                	add    %al,(%rax)
    b43a:	00 00                	add    %al,(%rax)
    b43c:	00 00                	add    %al,(%rax)
    b43e:	00 00                	add    %al,(%rax)
    b440:	38 52 50             	cmp    %dl,0x50(%rdx)
    b443:	00 00                	add    %al,(%rax)
    b445:	00 00                	add    %al,(%rax)
    b447:	00 07                	add    %al,(%rdi)
    b449:	00 00                	add    %al,(%rax)
    b44b:	00 05 00 00 00 00    	add    %al,0(%rip)        # b451 <_init-0xc7>
    b451:	00 00                	add    %al,(%rax)
    b453:	00 00                	add    %al,(%rax)
    b455:	00 00                	add    %al,(%rax)
    b457:	00 40 52             	add    %al,0x52(%rax)
    b45a:	50                   	push   %rax
    b45b:	00 00                	add    %al,(%rax)
    b45d:	00 00                	add    %al,(%rax)
    b45f:	00 07                	add    %al,(%rdi)
    b461:	00 00                	add    %al,(%rax)
    b463:	00 06                	add    %al,(%rsi)
    b465:	00 00                	add    %al,(%rax)
    b467:	00 00                	add    %al,(%rax)
    b469:	00 00                	add    %al,(%rax)
    b46b:	00 00                	add    %al,(%rax)
    b46d:	00 00                	add    %al,(%rax)
    b46f:	00 48 52             	add    %cl,0x52(%rax)
    b472:	50                   	push   %rax
    b473:	00 00                	add    %al,(%rax)
    b475:	00 00                	add    %al,(%rax)
    b477:	00 07                	add    %al,(%rdi)
    b479:	00 00                	add    %al,(%rax)
    b47b:	00 08                	add    %cl,(%rax)
    b47d:	00 00                	add    %al,(%rax)
    b47f:	00 00                	add    %al,(%rax)
    b481:	00 00                	add    %al,(%rax)
    b483:	00 00                	add    %al,(%rax)
    b485:	00 00                	add    %al,(%rax)
    b487:	00 50 52             	add    %dl,0x52(%rax)
    b48a:	50                   	push   %rax
    b48b:	00 00                	add    %al,(%rax)
    b48d:	00 00                	add    %al,(%rax)
    b48f:	00 07                	add    %al,(%rdi)
    b491:	00 00                	add    %al,(%rax)
    b493:	00 09                	add    %cl,(%rcx)
    b495:	00 00                	add    %al,(%rax)
    b497:	00 00                	add    %al,(%rax)
    b499:	00 00                	add    %al,(%rax)
    b49b:	00 00                	add    %al,(%rax)
    b49d:	00 00                	add    %al,(%rax)
    b49f:	00 58 52             	add    %bl,0x52(%rax)
    b4a2:	50                   	push   %rax
    b4a3:	00 00                	add    %al,(%rax)
    b4a5:	00 00                	add    %al,(%rax)
    b4a7:	00 07                	add    %al,(%rdi)
    b4a9:	00 00                	add    %al,(%rax)
    b4ab:	00 0a                	add    %cl,(%rdx)
    b4ad:	00 00                	add    %al,(%rax)
    b4af:	00 00                	add    %al,(%rax)
    b4b1:	00 00                	add    %al,(%rax)
    b4b3:	00 00                	add    %al,(%rax)
    b4b5:	00 00                	add    %al,(%rax)
    b4b7:	00 60 52             	add    %ah,0x52(%rax)
    b4ba:	50                   	push   %rax
    b4bb:	00 00                	add    %al,(%rax)
    b4bd:	00 00                	add    %al,(%rax)
    b4bf:	00 07                	add    %al,(%rdi)
    b4c1:	00 00                	add    %al,(%rax)
    b4c3:	00 0b                	add    %cl,(%rbx)
    b4c5:	00 00                	add    %al,(%rax)
    b4c7:	00 00                	add    %al,(%rax)
    b4c9:	00 00                	add    %al,(%rax)
    b4cb:	00 00                	add    %al,(%rax)
    b4cd:	00 00                	add    %al,(%rax)
    b4cf:	00 68 52             	add    %ch,0x52(%rax)
    b4d2:	50                   	push   %rax
    b4d3:	00 00                	add    %al,(%rax)
    b4d5:	00 00                	add    %al,(%rax)
    b4d7:	00 07                	add    %al,(%rdi)
    b4d9:	00 00                	add    %al,(%rax)
    b4db:	00 0c 00             	add    %cl,(%rax,%rax,1)
    b4de:	00 00                	add    %al,(%rax)
    b4e0:	00 00                	add    %al,(%rax)
    b4e2:	00 00                	add    %al,(%rax)
    b4e4:	00 00                	add    %al,(%rax)
    b4e6:	00 00                	add    %al,(%rax)
    b4e8:	70 52                	jo     b53c <_init+0x24>
    b4ea:	50                   	push   %rax
    b4eb:	00 00                	add    %al,(%rax)
    b4ed:	00 00                	add    %al,(%rax)
    b4ef:	00 07                	add    %al,(%rdi)
    b4f1:	00 00                	add    %al,(%rax)
    b4f3:	00 0d 00 00 00 00    	add    %cl,0(%rip)        # b4f9 <_init-0x1f>
    b4f9:	00 00                	add    %al,(%rax)
    b4fb:	00 00                	add    %al,(%rax)
    b4fd:	00 00                	add    %al,(%rax)
    b4ff:	00 78 52             	add    %bh,0x52(%rax)
    b502:	50                   	push   %rax
    b503:	00 00                	add    %al,(%rax)
    b505:	00 00                	add    %al,(%rax)
    b507:	00 07                	add    %al,(%rdi)
    b509:	00 00                	add    %al,(%rax)
    b50b:	00 0e                	add    %cl,(%rsi)
    b50d:	00 00                	add    %al,(%rax)
    b50f:	00 00                	add    %al,(%rax)
    b511:	00 00                	add    %al,(%rax)
    b513:	00 00                	add    %al,(%rax)
    b515:	00 00                	add    %al,(%rax)
    b517:	00                   	.byte 0x0
Disassembly of section .init:

000000000000b518 <_init>:
    b518:	48 83 ec 08          	sub    $0x8,%rsp
    b51c:	e8 13 01 00 00       	callq  b634 <_start+0x34>
    b521:	e8 72 01 00 00       	callq  b698 <_start+0x98>
    b526:	e8 8d 2a 00 00       	callq  dfb8 <__libc_csu_init+0x98>
    b52b:	48 83 c4 08          	add    $0x8,%rsp
    b52f:	c3                   	retq   
Disassembly of section .plt:

000000000000b530 <__libc_start_main@plt-0x10>:
    b530:	ff 35 a2 4a 10 00    	pushq  1067682(%rip)        # 10ffd8 <_IO_stdin_used+0x101fd8>
    b536:	ff 25 a4 4a 10 00    	jmpq   *1067684(%rip)        # 10ffe0 <_IO_stdin_used+0x101fe0>
    b53c:	90                   	nop    
    b53d:	90                   	nop    
    b53e:	90                   	nop    
    b53f:	90                   	nop    

000000000000b540 <__libc_start_main@plt>:
    b540:	ff 25 a2 4a 10 00    	jmpq   *1067682(%rip)        # 10ffe8 <_IO_stdin_used+0x101fe8>
    b546:	68 00 00 00 00       	pushq  $0x0
    b54b:	e9 e0 ff ff ff       	jmpq   b530 <_init+0x18>

000000000000b550 <catgets@plt>:
    b550:	ff 25 9a 4a 10 00    	jmpq   *1067674(%rip)        # 10fff0 <_IO_stdin_used+0x101ff0>
    b556:	68 01 00 00 00       	pushq  $0x1
    b55b:	e9 d0 ff ff ff       	jmpq   b530 <_init+0x18>

000000000000b560 <vsprintf@plt>:
    b560:	ff 25 92 4a 10 00    	jmpq   *1067666(%rip)        # 10fff8 <_IO_stdin_used+0x101ff8>
    b566:	68 02 00 00 00       	pushq  $0x2
    b56b:	e9 c0 ff ff ff       	jmpq   b530 <_init+0x18>

000000000000b570 <getenv@plt>:
    b570:	ff 25 8a 4a 10 00    	jmpq   *1067658(%rip)        # 110000 <_IO_stdin_used+0x102000>
    b576:	68 03 00 00 00       	pushq  $0x3
    b57b:	e9 b0 ff ff ff       	jmpq   b530 <_init+0x18>

000000000000b580 <strncpy@plt>:
    b580:	ff 25 82 4a 10 00    	jmpq   *1067650(%rip)        # 110008 <_IO_stdin_used+0x102008>
    b586:	68 04 00 00 00       	pushq  $0x4
    b58b:	e9 a0 ff ff ff       	jmpq   b530 <_init+0x18>

000000000000b590 <setenv@plt>:
    b590:	ff 25 7a 4a 10 00    	jmpq   *1067642(%rip)        # 110010 <_IO_stdin_used+0x102010>
    b596:	68 05 00 00 00       	pushq  $0x5
    b59b:	e9 90 ff ff ff       	jmpq   b530 <_init+0x18>

000000000000b5a0 <fprintf@plt>:
    b5a0:	ff 25 72 4a 10 00    	jmpq   *1067634(%rip)        # 110018 <_IO_stdin_used+0x102018>
    b5a6:	68 06 00 00 00       	pushq  $0x6
    b5ab:	e9 80 ff ff ff       	jmpq   b530 <_init+0x18>

000000000000b5b0 <printf@plt>:
    b5b0:	ff 25 6a 4a 10 00    	jmpq   *1067626(%rip)        # 110020 <_IO_stdin_used+0x102020>
    b5b6:	68 07 00 00 00       	pushq  $0x7
    b5bb:	e9 70 ff ff ff       	jmpq   b530 <_init+0x18>

000000000000b5c0 <catopen@plt>:
    b5c0:	ff 25 62 4a 10 00    	jmpq   *1067618(%rip)        # 110028 <_IO_stdin_used+0x102028>
    b5c6:	68 08 00 00 00       	pushq  $0x8
    b5cb:	e9 60 ff ff ff       	jmpq   b530 <_init+0x18>

000000000000b5d0 <strchr@plt>:
    b5d0:	ff 25 5a 4a 10 00    	jmpq   *1067610(%rip)        # 110030 <_IO_stdin_used+0x102030>
    b5d6:	68 09 00 00 00       	pushq  $0x9
    b5db:	e9 50 ff ff ff       	jmpq   b530 <_init+0x18>

000000000000b5e0 <memset@plt>:
    b5e0:	ff 25 52 4a 10 00    	jmpq   *1067602(%rip)        # 110038 <_IO_stdin_used+0x102038>
    b5e6:	68 0a 00 00 00       	pushq  $0xa
    b5eb:	e9 40 ff ff ff       	jmpq   b530 <_init+0x18>

000000000000b5f0 <exit@plt>:
    b5f0:	ff 25 4a 4a 10 00    	jmpq   *1067594(%rip)        # 110040 <_IO_stdin_used+0x102040>
    b5f6:	68 0b 00 00 00       	pushq  $0xb
    b5fb:	e9 30 ff ff ff       	jmpq   b530 <_init+0x18>
Disassembly of section .text:

000000000000b600 <_start>:
    b600:	31 ed                	xor    %ebp,%ebp
    b602:	49 89 d1             	mov    %rdx,%r9
    b605:	5e                   	pop    %rsi
    b606:	48 89 e2             	mov    %rsp,%rdx
    b609:	48 83 e4 f0          	and    $0xfffffffffffffff0,%rsp
    b60d:	50                   	push   %rax
    b60e:	54                   	push   %rsp
    b60f:	49 c7 c0 50 31 40 00 	mov    $0x403150,%r8
    b616:	48 c7 c1 60 31 40 00 	mov    $0x403160,%rcx
    b61d:	48 c7 c7 00 09 40 00 	mov    $0x400900,%rdi
    b624:	e8 0f ff ff ff       	callq  b538 <_init+0x20>
    b629:	f4                   	hlt    
    b62a:	90                   	nop    
    b62b:	90                   	nop    
    b62c:	48 83 ec 08          	sub    $0x8,%rsp
    b630:	48 8b 05 89 49 10 00 	mov    1067401(%rip),%rax        # 10ffc0 <_IO_stdin_used+0x101fc0>
    b637:	48 85 c0             	test   %rax,%rax
    b63a:	74 02                	je     b63e <_start+0x3e>
    b63c:	ff d0                	callq  *%rax
    b63e:	48 83 c4 08          	add    $0x8,%rsp
    b642:	c3                   	retq   
    b643:	90                   	nop    
    b644:	90                   	nop    
    b645:	90                   	nop    
    b646:	90                   	nop    
    b647:	90                   	nop    
    b648:	90                   	nop    
    b649:	90                   	nop    
    b64a:	90                   	nop    
    b64b:	90                   	nop    
    b64c:	90                   	nop    
    b64d:	90                   	nop    
    b64e:	90                   	nop    
    b64f:	90                   	nop    
    b650:	80 3d 69 4d 10 00 00 	cmpb   $0x0,1068393(%rip)        # 1103c0 <__xxref+0x100>
    b657:	55                   	push   %rbp
    b658:	48 89 e5             	mov    %rsp,%rbp
    b65b:	74 10                	je     b66d <_start+0x6d>
    b65d:	eb 24                	jmp    b683 <_start+0x83>
    b65f:	90                   	nop    
    b660:	48 83 c0 08          	add    $0x8,%rax
    b664:	48 89 05 e5 49 10 00 	mov    %rax,1067493(%rip)        # 110050 <_IO_stdin_used+0x102050>
    b66b:	ff d2                	callq  *%rdx
    b66d:	48 8b 05 dc 49 10 00 	mov    1067484(%rip),%rax        # 110050 <_IO_stdin_used+0x102050>
    b674:	48 8b 10             	mov    (%rax),%rdx
    b677:	48 85 d2             	test   %rdx,%rdx
    b67a:	75 e4                	jne    b660 <_start+0x60>
    b67c:	c6 05 3d 4d 10 00 01 	movb   $0x1,1068349(%rip)        # 1103c0 <__xxref+0x100>
    b683:	c9                   	leaveq 
    b684:	c3                   	retq   
    b685:	66 66 66 90          	xchg   %ax,%ax
    b689:	66 66 66 90          	xchg   %ax,%ax
    b68d:	66 66 90             	xchg   %ax,%ax
    b690:	55                   	push   %rbp
    b691:	48 83 3d 47 47 10 00 	cmpq   $0x0,1066823(%rip)        # 10fde0 <_IO_stdin_used+0x101de0>
    b698:	00 
    b699:	48 89 e5             	mov    %rsp,%rbp
    b69c:	74 1a                	je     b6b8 <_start+0xb8>
    b69e:	48 8b 05 13 49 10 00 	mov    1067283(%rip),%rax        # 10ffb8 <_IO_stdin_used+0x101fb8>
    b6a5:	48 85 c0             	test   %rax,%rax
    b6a8:	74 0e                	je     b6b8 <_start+0xb8>
    b6aa:	48 8d 3d 2f 47 10 00 	lea    1066799(%rip),%rdi        # 10fde0 <_IO_stdin_used+0x101de0>
    b6b1:	49 89 c3             	mov    %rax,%r11
    b6b4:	c9                   	leaveq 
    b6b5:	41 ff e3             	jmpq   *%r11
    b6b8:	c9                   	leaveq 
    b6b9:	c3                   	retq   
    b6ba:	90                   	nop    
    b6bb:	90                   	nop    
    b6bc:	90                   	nop    
    b6bd:	90                   	nop    
    b6be:	90                   	nop    
    b6bf:	90                   	nop    

000000000000b6c0 <main>:
    b6c0:	55                   	push   %rbp
    b6c1:	48 89 e5             	mov    %rsp,%rbp
    b6c4:	48 83 e4 80          	and    $0xffffffffffffff80,%rsp
    b6c8:	48 81 ec 00 01 00 00 	sub    $0x100,%rsp
    b6cf:	bf 03 00 00 00       	mov    $0x3,%edi
    b6d4:	e8 67 22 00 00       	callq  d940 <__intel_new_proc_init>
    b6d9:	0f ae 1c 24          	stmxcsr (%rsp)
    b6dd:	81 0c 24 40 80 00 00 	orl    $0x8040,(%rsp)
    b6e4:	0f ae 14 24          	ldmxcsr (%rsp)
    b6e8:	31 c0                	xor    %eax,%eax
    b6ea:	b8 01 00 00 00       	mov    $0x1,%eax
    b6ef:	0f a2                	cpuid  
    b6f1:	c1 eb 18             	shr    $0x18,%ebx
    b6f4:	31 c9                	xor    %ecx,%ecx
    b6f6:	01 d9                	add    %ebx,%ecx
    b6f8:	48 c1 e1 19          	shl    $0x19,%rcx
    b6fc:	83 c1 07             	add    $0x7,%ecx
    b6ff:	90                   	nop    
    b700:	e2 fd                	loop   b6ff <main+0x3f>
    b702:	45 31 e4             	xor    %r12d,%r12d
    b705:	eb 1a                	jmp    b721 <main+0x61>
    b707:	31 c0                	xor    %eax,%eax
    b709:	b8 01 00 00 00       	mov    $0x1,%eax
    b70e:	0f a2                	cpuid  
    b710:	c1 eb 18             	shr    $0x18,%ebx
    b713:	31 c0                	xor    %eax,%eax
    b715:	01 d8                	add    %ebx,%eax
    b717:	c1 e0 02             	shl    $0x2,%eax
    b71a:	66 ba f8 03          	mov    $0x3f8,%dx
    b71e:	ee                   	out    %al,(%dx)
    b71f:	31 db                	xor    %ebx,%ebx
    b721:	45 31 ed             	xor    %r13d,%r13d
    b724:	31 db                	xor    %ebx,%ebx
    b726:	c6 84 24 b0 00 00 00 	movb   $0x61,0xb0(%rsp)
    b72d:	61 
    b72e:	c7 84 24 90 00 00 00 	movl   $0x67452301,0x90(%rsp)
    b735:	01 23 45 67 
    b739:	c7 84 24 94 00 00 00 	movl   $0xefcdab89,0x94(%rsp)
    b740:	89 ab cd ef 
    b744:	c7 84 24 98 00 00 00 	movl   $0x98badcfe,0x98(%rsp)
    b74b:	fe dc ba 98 
    b74f:	c7 84 24 9c 00 00 00 	movl   $0x10325476,0x9c(%rsp)
    b756:	76 54 32 10 
    b75a:	0f b6 84 24 b0 00 00 	movzbl 0xb0(%rsp),%eax
    b761:	00 
    b762:	88 44 24 40          	mov    %al,0x40(%rsp)
    b766:	c6 44 24 41 80       	movb   $0x80,0x41(%rsp)
    b76b:	48 8d 54 24 42       	lea    0x42(%rsp),%rdx
    b770:	b8 35 00 00 00       	mov    $0x35,%eax
    b775:	c6 02 00             	movb   $0x0,(%rdx)
    b778:	48 ff c2             	inc    %rdx
    b77b:	48 ff c8             	dec    %rax
    b77e:	48 83 f8 ff          	cmp    $0xffffffffffffffff,%rax
    b782:	75 f1                	jne    b775 <main+0xb5>
    b784:	c7 44 24 78 08 00 00 	movl   $0x8,0x78(%rsp)
    b78b:	00 
    b78c:	48 8d bc 24 90 00 00 	lea    0x90(%rsp),%rdi
    b793:	00 
    b794:	48 8d 74 24 40       	lea    0x40(%rsp),%rsi
    b799:	c7 44 24 7c 00 00 00 	movl   $0x0,0x7c(%rsp)
    b7a0:	00 
    b7a1:	e8 ba 01 00 00       	callq  b960 <md5_compress>
    b7a6:	8b 84 24 90 00 00 00 	mov    0x90(%rsp),%eax
    b7ad:	3d 0c c1 75 b9       	cmp    $0xb975c10c,%eax
    b7b2:	75 46                	jne    b7fa <main+0x13a>
    b7b4:	8b 84 24 94 00 00 00 	mov    0x94(%rsp),%eax
    b7bb:	3d c0 f1 b6 a8       	cmp    $0xa8b6f1c0,%eax
    b7c0:	75 38                	jne    b7fa <main+0x13a>
    b7c2:	8b 84 24 98 00 00 00 	mov    0x98(%rsp),%eax
    b7c9:	3d 31 c3 99 e2       	cmp    $0xe299c331,%eax
    b7ce:	75 2a                	jne    b7fa <main+0x13a>
    b7d0:	8b 84 24 9c 00 00 00 	mov    0x9c(%rsp),%eax
    b7d7:	3d 69 77 26 61       	cmp    $0x61267769,%eax
    b7dc:	75 1c                	jne    b7fa <main+0x13a>
    b7de:	31 c0                	xor    %eax,%eax
    b7e0:	b8 01 00 00 00       	mov    $0x1,%eax
    b7e5:	0f a2                	cpuid  
    b7e7:	c1 eb 18             	shr    $0x18,%ebx
    b7ea:	31 c0                	xor    %eax,%eax
    b7ec:	01 d8                	add    %ebx,%eax
    b7ee:	c1 e0 02             	shl    $0x2,%eax
    b7f1:	66 ba f8 03          	mov    $0x3f8,%dx
    b7f5:	ee                   	out    %al,(%dx)
    b7f6:	31 db                	xor    %ebx,%ebx
    b7f8:	eb 1b                	jmp    b815 <main+0x155>
    b7fa:	31 c0                	xor    %eax,%eax
    b7fc:	b8 01 00 00 00       	mov    $0x1,%eax
    b801:	0f a2                	cpuid  
    b803:	c1 eb 18             	shr    $0x18,%ebx
    b806:	31 c0                	xor    %eax,%eax
    b808:	01 d8                	add    %ebx,%eax
    b80a:	c1 e0 02             	shl    $0x2,%eax
    b80d:	66 ba f8 03          	mov    $0x3f8,%dx
    b811:	83 c0 01             	add    $0x1,%eax
    b814:	ee                   	out    %al,(%dx)
    b815:	ff c3                	inc    %ebx
    b817:	81 fb 40 42 0f 00    	cmp    $0xf4240,%ebx
    b81d:	0f 8e 03 ff ff ff    	jle    b726 <main+0x66>
    b823:	31 db                	xor    %ebx,%ebx
    b825:	c6 84 24 a0 00 00 00 	movb   $0x61,0xa0(%rsp)
    b82c:	61 
    b82d:	41 ff cc             	dec    %r12d
    b830:	c7 84 24 80 00 00 00 	movl   $0x67452301,0x80(%rsp)
    b837:	01 23 45 67 
    b83b:	c7 84 24 84 00 00 00 	movl   $0xefcdab89,0x84(%rsp)
    b842:	89 ab cd ef 
    b846:	c7 84 24 88 00 00 00 	movl   $0x98badcfe,0x88(%rsp)
    b84d:	fe dc ba 98 
    b851:	c7 84 24 8c 00 00 00 	movl   $0x10325476,0x8c(%rsp)
    b858:	76 54 32 10 
    b85c:	0f b6 84 24 a0 00 00 	movzbl 0xa0(%rsp),%eax
    b863:	00 
    b864:	88 04 24             	mov    %al,(%rsp)
    b867:	c6 44 24 01 80       	movb   $0x80,0x1(%rsp)
    b86c:	48 8d 54 24 02       	lea    0x2(%rsp),%rdx
    b871:	b8 35 00 00 00       	mov    $0x35,%eax
    b876:	c6 02 00             	movb   $0x0,(%rdx)
    b879:	48 ff c2             	inc    %rdx
    b87c:	48 ff c8             	dec    %rax
    b87f:	48 83 f8 ff          	cmp    $0xffffffffffffffff,%rax
    b883:	75 f1                	jne    b876 <main+0x1b6>
    b885:	c7 44 24 38 08 00 00 	movl   $0x8,0x38(%rsp)
    b88c:	00 
    b88d:	48 8d bc 24 80 00 00 	lea    0x80(%rsp),%rdi
    b894:	00 
    b895:	48 8d 34 24          	lea    (%rsp),%rsi
    b899:	c7 44 24 3c 00 00 00 	movl   $0x0,0x3c(%rsp)
    b8a0:	00 
    b8a1:	e8 ba 00 00 00       	callq  b960 <md5_compress>
    b8a6:	8b 84 24 80 00 00 00 	mov    0x80(%rsp),%eax
    b8ad:	3d 0c c1 75 b9       	cmp    $0xb975c10c,%eax
    b8b2:	75 46                	jne    b8fa <main+0x23a>
    b8b4:	8b 84 24 84 00 00 00 	mov    0x84(%rsp),%eax
    b8bb:	3d c0 f1 b6 a8       	cmp    $0xa8b6f1c0,%eax
    b8c0:	75 38                	jne    b8fa <main+0x23a>
    b8c2:	8b 84 24 88 00 00 00 	mov    0x88(%rsp),%eax
    b8c9:	3d 31 c3 99 e2       	cmp    $0xe299c331,%eax
    b8ce:	75 2a                	jne    b8fa <main+0x23a>
    b8d0:	8b 84 24 8c 00 00 00 	mov    0x8c(%rsp),%eax
    b8d7:	3d 69 77 26 61       	cmp    $0x61267769,%eax
    b8dc:	75 1c                	jne    b8fa <main+0x23a>
    b8de:	31 c0                	xor    %eax,%eax
    b8e0:	b8 01 00 00 00       	mov    $0x1,%eax
    b8e5:	0f a2                	cpuid  
    b8e7:	c1 eb 18             	shr    $0x18,%ebx
    b8ea:	31 c0                	xor    %eax,%eax
    b8ec:	01 d8                	add    %ebx,%eax
    b8ee:	c1 e0 02             	shl    $0x2,%eax
    b8f1:	66 ba f8 03          	mov    $0x3f8,%dx
    b8f5:	ee                   	out    %al,(%dx)
    b8f6:	31 db                	xor    %ebx,%ebx
    b8f8:	eb 1b                	jmp    b915 <main+0x255>
    b8fa:	31 c0                	xor    %eax,%eax
    b8fc:	b8 01 00 00 00       	mov    $0x1,%eax
    b901:	0f a2                	cpuid  
    b903:	c1 eb 18             	shr    $0x18,%ebx
    b906:	31 c0                	xor    %eax,%eax
    b908:	01 d8                	add    %ebx,%eax
    b90a:	c1 e0 02             	shl    $0x2,%eax
    b90d:	66 ba f8 03          	mov    $0x3f8,%dx
    b911:	83 c0 01             	add    $0x1,%eax
    b914:	ee                   	out    %al,(%dx)
    b915:	ff c3                	inc    %ebx
    b917:	81 fb 40 42 0f 00    	cmp    $0xf4240,%ebx
    b91d:	0f 8e 02 ff ff ff    	jle    b825 <main+0x165>
    b923:	45 85 e4             	test   %r12d,%r12d
    b926:	75 15                	jne    b93d <main+0x27d>
    b928:	41 ff c5             	inc    %r13d
    b92b:	41 81 fd a0 0f 00 00 	cmp    $0xfa0,%r13d
    b932:	0f 8e ec fd ff ff    	jle    b724 <main+0x64>
    b938:	e9 ca fd ff ff       	jmpq   b707 <main+0x47>
    b93d:	31 c0                	xor    %eax,%eax
    b93f:	b8 01 00 00 00       	mov    $0x1,%eax
    b944:	0f a2                	cpuid  
    b946:	c1 eb 18             	shr    $0x18,%ebx
    b949:	31 c0                	xor    %eax,%eax
    b94b:	01 d8                	add    %ebx,%eax
    b94d:	c1 e0 02             	shl    $0x2,%eax
    b950:	66 ba f8 03          	mov    $0x3f8,%dx
    b954:	83 c0 01             	add    $0x1,%eax
    b957:	ee                   	out    %al,(%dx)
    b958:	eb fe                	jmp    b958 <main+0x298>
    b95a:	66 66 90             	xchg   %ax,%ax
    b95d:	66 66 90             	xchg   %ax,%ax

000000000000b960 <md5_compress>:
    b960:	41 57                	push   %r15
    b962:	41 56                	push   %r14
    b964:	41 55                	push   %r13
    b966:	41 54                	push   %r12
    b968:	55                   	push   %rbp
    b969:	53                   	push   %rbx
    b96a:	48 81 ec 98 00 00 00 	sub    $0x98,%rsp
    b971:	8b 07                	mov    (%rdi),%eax
    b973:	8b 5f 04             	mov    0x4(%rdi),%ebx
    b976:	44 8b 7f 08          	mov    0x8(%rdi),%r15d
    b97a:	8b 4f 0c             	mov    0xc(%rdi),%ecx
    b97d:	44 8b 06             	mov    (%rsi),%r8d
    b980:	44 8b 5e 04          	mov    0x4(%rsi),%r11d
    b984:	48 89 7c 24 48       	mov    %rdi,0x48(%rsp)
    b989:	8b 7e 08             	mov    0x8(%rsi),%edi
    b98c:	89 04 24             	mov    %eax,(%rsp)
    b98f:	44 89 fa             	mov    %r15d,%edx
    b992:	89 5c 24 50          	mov    %ebx,0x50(%rsp)
    b996:	44 89 7c 24 58       	mov    %r15d,0x58(%rsp)
    b99b:	89 4c 24 10          	mov    %ecx,0x10(%rsp)
    b99f:	44 89 5c 24 60       	mov    %r11d,0x60(%rsp)
    b9a4:	31 ca                	xor    %ecx,%edx
    b9a6:	89 7c 24 08          	mov    %edi,0x8(%rsp)
    b9aa:	46 8d 14 00          	lea    (%rax,%r8,1),%r10d
    b9ae:	21 da                	and    %ebx,%edx
    b9b0:	31 ca                	xor    %ecx,%edx
    b9b2:	45 8d ac 12 78 a4 6a 	lea    0xffffffffd76aa478(%r10,%rdx,1),%r13d
    b9b9:	d7 
    b9ba:	41 c1 c5 07          	rol    $0x7,%r13d
    b9be:	41 01 dd             	add    %ebx,%r13d
    b9c1:	41 89 d9             	mov    %ebx,%r9d
    b9c4:	45 31 f9             	xor    %r15d,%r9d
    b9c7:	45 21 e9             	and    %r13d,%r9d
    b9ca:	45 31 f9             	xor    %r15d,%r9d
    b9cd:	45 01 d9             	add    %r11d,%r9d
    b9d0:	41 8d ac 09 56 b7 c7 	lea    0xffffffffe8c7b756(%r9,%rcx,1),%ebp
    b9d7:	e8 
    b9d8:	44 8b 4e 0c          	mov    0xc(%rsi),%r9d
    b9dc:	44 89 4c 24 68       	mov    %r9d,0x68(%rsp)
    b9e1:	c1 c5 0c             	rol    $0xc,%ebp
    b9e4:	41 8d 44 2d 00       	lea    0x0(%r13,%rbp,1),%eax
    b9e9:	41 8d ac 2d 2a c6 87 	lea    0x4787c62a(%r13,%rbp,1),%ebp
    b9f0:	47 
    b9f1:	45 8d 14 3f          	lea    (%r15,%rdi,1),%r10d
    b9f5:	44 89 ea             	mov    %r13d,%edx
    b9f8:	31 da                	xor    %ebx,%edx
    b9fa:	21 c2                	and    %eax,%edx
    b9fc:	31 da                	xor    %ebx,%edx
    b9fe:	45 8d 94 12 db 70 20 	lea    0x242070db(%r10,%rdx,1),%r10d
    ba05:	24 
    ba06:	8b 56 10             	mov    0x10(%rsi),%edx
    ba09:	89 54 24 28          	mov    %edx,0x28(%rsp)
    ba0d:	41 c1 c2 11          	rol    $0x11,%r10d
    ba11:	41 01 c2             	add    %eax,%r10d
    ba14:	44 01 cb             	add    %r9d,%ebx
    ba17:	45 89 ec             	mov    %r13d,%r12d
    ba1a:	41 31 c4             	xor    %eax,%r12d
    ba1d:	45 21 d4             	and    %r10d,%r12d
    ba20:	45 31 ec             	xor    %r13d,%r12d
    ba23:	46 8d 8c 23 ee ce bd 	lea    0xffffffffc1bdceee(%rbx,%r12,1),%r9d
    ba2a:	c1 
    ba2b:	41 c1 c1 16          	rol    $0x16,%r9d
    ba2f:	45 01 d1             	add    %r10d,%r9d
    ba32:	41 8d 4c 15 00       	lea    0x0(%r13,%rdx,1),%ecx
    ba37:	45 89 d6             	mov    %r10d,%r14d
    ba3a:	41 31 c6             	xor    %eax,%r14d
    ba3d:	45 21 ce             	and    %r9d,%r14d
    ba40:	44 31 f0             	xor    %r14d,%eax
    ba43:	8d 9c 01 af 0f 7c f5 	lea    0xfffffffff57c0faf(%rcx,%rax,1),%ebx
    ba4a:	8b 46 14             	mov    0x14(%rsi),%eax
    ba4d:	89 44 24 70          	mov    %eax,0x70(%rsp)
    ba51:	c1 c3 07             	rol    $0x7,%ebx
    ba54:	44 01 cb             	add    %r9d,%ebx
    ba57:	44 89 cf             	mov    %r9d,%edi
    ba5a:	44 31 d7             	xor    %r10d,%edi
    ba5d:	21 df                	and    %ebx,%edi
    ba5f:	44 31 d7             	xor    %r10d,%edi
    ba62:	01 c7                	add    %eax,%edi
    ba64:	01 ef                	add    %ebp,%edi
    ba66:	8b 6e 18             	mov    0x18(%rsi),%ebp
    ba69:	89 6c 24 18          	mov    %ebp,0x18(%rsp)
    ba6d:	c1 c7 0c             	rol    $0xc,%edi
    ba70:	8d 0c 3b             	lea    (%rbx,%rdi,1),%ecx
    ba73:	41 01 ea             	add    %ebp,%r10d
    ba76:	41 89 dd             	mov    %ebx,%r13d
    ba79:	45 31 cd             	xor    %r9d,%r13d
    ba7c:	41 21 cd             	and    %ecx,%r13d
    ba7f:	45 31 cd             	xor    %r9d,%r13d
    ba82:	47 8d 94 2a 13 46 30 	lea    0xffffffffa8304613(%r10,%r13,1),%r10d
    ba89:	a8 
    ba8a:	44 8b 6e 1c          	mov    0x1c(%rsi),%r13d
    ba8e:	41 c1 c2 11          	rol    $0x11,%r10d
    ba92:	44 89 6c 24 78       	mov    %r13d,0x78(%rsp)
    ba97:	41 01 ca             	add    %ecx,%r10d
    ba9a:	45 01 e9             	add    %r13d,%r9d
    ba9d:	44 8b 6e 24          	mov    0x24(%rsi),%r13d
    baa1:	44 89 6c 24 38       	mov    %r13d,0x38(%rsp)
    baa6:	41 89 df             	mov    %ebx,%r15d
    baa9:	41 31 cf             	xor    %ecx,%r15d
    baac:	45 21 d7             	and    %r10d,%r15d
    baaf:	41 31 df             	xor    %ebx,%r15d
    bab2:	47 8d b4 39 01 95 46 	lea    0xfffffffffd469501(%r9,%r15,1),%r14d
    bab9:	fd 
    baba:	44 8b 4e 20          	mov    0x20(%rsi),%r9d
    babe:	44 89 4c 24 30       	mov    %r9d,0x30(%rsp)
    bac3:	41 c1 c6 16          	rol    $0x16,%r14d
    bac7:	45 01 d6             	add    %r10d,%r14d
    baca:	41 01 d9             	add    %ebx,%r9d
    bacd:	45 89 d4             	mov    %r10d,%r12d
    bad0:	41 31 cc             	xor    %ecx,%r12d
    bad3:	45 21 f4             	and    %r14d,%r12d
    bad6:	44 31 e1             	xor    %r12d,%ecx
    bad9:	41 8d 8c 09 d8 98 80 	lea    0x698098d8(%r9,%rcx,1),%ecx
    bae0:	69 
    bae1:	44 8b 4e 28          	mov    0x28(%rsi),%r9d
    bae5:	c1 c1 07             	rol    $0x7,%ecx
    bae8:	44 89 4c 24 20       	mov    %r9d,0x20(%rsp)
    baed:	44 01 f1             	add    %r14d,%ecx
    baf0:	45 89 f7             	mov    %r14d,%r15d
    baf3:	45 31 d7             	xor    %r10d,%r15d
    baf6:	41 21 cf             	and    %ecx,%r15d
    baf9:	45 31 d7             	xor    %r10d,%r15d
    bafc:	45 01 ef             	add    %r13d,%r15d
    baff:	8d 9c 3b af f7 44 8b 	lea    0xffffffff8b44f7af(%rbx,%rdi,1),%ebx
    bb06:	41 01 df             	add    %ebx,%r15d
    bb09:	8b 5e 2c             	mov    0x2c(%rsi),%ebx
    bb0c:	41 c1 c7 0c          	rol    $0xc,%r15d
    bb10:	42 8d 3c 39          	lea    (%rcx,%r15,1),%edi
    bb14:	45 01 ca             	add    %r9d,%r10d
    bb17:	41 89 cd             	mov    %ecx,%r13d
    bb1a:	45 31 f5             	xor    %r14d,%r13d
    bb1d:	41 21 fd             	and    %edi,%r13d
    bb20:	45 31 f5             	xor    %r14d,%r13d
    bb23:	47 8d a4 2a b1 5b ff 	lea    0xffffffffffff5bb1(%r10,%r13,1),%r12d
    bb2a:	ff 
    bb2b:	41 c1 c4 11          	rol    $0x11,%r12d
    bb2f:	41 01 fc             	add    %edi,%r12d
    bb32:	41 01 de             	add    %ebx,%r14d
    bb35:	41 89 ca             	mov    %ecx,%r10d
    bb38:	41 31 fa             	xor    %edi,%r10d
    bb3b:	45 21 e2             	and    %r12d,%r10d
    bb3e:	41 31 ca             	xor    %ecx,%r10d
    bb41:	47 8d ac 16 be d7 5c 	lea    0xffffffff895cd7be(%r14,%r10,1),%r13d
    bb48:	89 
    bb49:	44 8b 76 30          	mov    0x30(%rsi),%r14d
    bb4d:	44 89 b4 24 80 00 00 	mov    %r14d,0x80(%rsp)
    bb54:	00 
    bb55:	41 c1 c5 16          	rol    $0x16,%r13d
    bb59:	45 01 e5             	add    %r12d,%r13d
    bb5c:	41 01 ce             	add    %ecx,%r14d
    bb5f:	45 89 e2             	mov    %r12d,%r10d
    bb62:	41 31 fa             	xor    %edi,%r10d
    bb65:	45 21 ea             	and    %r13d,%r10d
    bb68:	44 31 d7             	xor    %r10d,%edi
    bb6b:	42 8d 8c 39 93 71 98 	lea    0xfffffffffd987193(%rcx,%r15,1),%ecx
    bb72:	fd 
    bb73:	45 8d 94 3e 22 11 90 	lea    0x6b901122(%r14,%rdi,1),%r10d
    bb7a:	6b 
    bb7b:	44 8b 76 34          	mov    0x34(%rsi),%r14d
    bb7f:	44 89 74 24 40       	mov    %r14d,0x40(%rsp)
    bb84:	41 c1 c2 07          	rol    $0x7,%r10d
    bb88:	45 01 ea             	add    %r13d,%r10d
    bb8b:	44 89 ef             	mov    %r13d,%edi
    bb8e:	44 31 e7             	xor    %r12d,%edi
    bb91:	44 21 d7             	and    %r10d,%edi
    bb94:	44 31 e7             	xor    %r12d,%edi
    bb97:	44 01 f7             	add    %r14d,%edi
    bb9a:	01 cf                	add    %ecx,%edi
    bb9c:	8b 4e 38             	mov    0x38(%rsi),%ecx
    bb9f:	c1 c7 0c             	rol    $0xc,%edi
    bba2:	45 8d 34 3a          	lea    (%r10,%rdi,1),%r14d
    bba6:	41 01 cc             	add    %ecx,%r12d
    bba9:	45 89 d7             	mov    %r10d,%r15d
    bbac:	45 31 ef             	xor    %r13d,%r15d
    bbaf:	45 21 f7             	and    %r14d,%r15d
    bbb2:	45 31 ef             	xor    %r13d,%r15d
    bbb5:	47 8d bc 3c 8e 43 79 	lea    0xffffffffa679438e(%r12,%r15,1),%r15d
    bbbc:	a6 
    bbbd:	44 8b 66 3c          	mov    0x3c(%rsi),%r12d
    bbc1:	44 89 a4 24 88 00 00 	mov    %r12d,0x88(%rsp)
    bbc8:	00 
    bbc9:	41 c1 c7 11          	rol    $0x11,%r15d
    bbcd:	45 01 f7             	add    %r14d,%r15d
    bbd0:	45 01 e5             	add    %r12d,%r13d
    bbd3:	44 89 d6             	mov    %r10d,%esi
    bbd6:	44 31 f6             	xor    %r14d,%esi
    bbd9:	44 21 fe             	and    %r15d,%esi
    bbdc:	44 31 d6             	xor    %r10d,%esi
    bbdf:	41 8d b4 35 21 08 b4 	lea    0x49b40821(%r13,%rsi,1),%esi
    bbe6:	49 
    bbe7:	c1 c6 16             	rol    $0x16,%esi
    bbea:	44 01 fe             	add    %r15d,%esi
    bbed:	47 8d 2c 1a          	lea    (%r10,%r11,1),%r13d
    bbf1:	41 89 f3             	mov    %esi,%r11d
    bbf4:	45 31 fb             	xor    %r15d,%r11d
    bbf7:	45 21 de             	and    %r11d,%r14d
    bbfa:	45 31 fe             	xor    %r15d,%r14d
    bbfd:	47 8d b4 35 62 25 1e 	lea    0xfffffffff61e2562(%r13,%r14,1),%r14d
    bc04:	f6 
    bc05:	41 c1 c6 05          	rol    $0x5,%r14d
    bc09:	41 01 f6             	add    %esi,%r14d
    bc0c:	45 89 f3             	mov    %r14d,%r11d
    bc0f:	41 31 f3             	xor    %esi,%r11d
    bc12:	45 21 fb             	and    %r15d,%r11d
    bc15:	41 31 f3             	xor    %esi,%r11d
    bc18:	41 01 eb             	add    %ebp,%r11d
    bc1b:	41 8d bc 3a 40 b3 40 	lea    0xffffffffc040b340(%r10,%rdi,1),%edi
    bc22:	c0 
    bc23:	41 01 fb             	add    %edi,%r11d
    bc26:	41 c1 c3 09          	rol    $0x9,%r11d
    bc2a:	43 8d 2c 1e          	lea    (%r14,%r11,1),%ebp
    bc2e:	41 01 df             	add    %ebx,%r15d
    bc31:	45 89 f2             	mov    %r14d,%r10d
    bc34:	47 8d 9c 1e 53 14 44 	lea    0x2441453(%r14,%r11,1),%r11d
    bc3b:	02 
    bc3c:	41 31 ea             	xor    %ebp,%r10d
    bc3f:	41 21 f2             	and    %esi,%r10d
    bc42:	45 31 f2             	xor    %r14d,%r10d
    bc45:	44 01 c6             	add    %r8d,%esi
    bc48:	43 8d bc 17 51 5a 5e 	lea    0x265e5a51(%r15,%r10,1),%edi
    bc4f:	26 
    bc50:	c1 c7 0e             	rol    $0xe,%edi
    bc53:	01 ef                	add    %ebp,%edi
    bc55:	41 89 ff             	mov    %edi,%r15d
    bc58:	41 31 ef             	xor    %ebp,%r15d
    bc5b:	45 21 f7             	and    %r14d,%r15d
    bc5e:	41 31 ef             	xor    %ebp,%r15d
    bc61:	46 8d ac 3e aa c7 b6 	lea    0xffffffffe9b6c7aa(%rsi,%r15,1),%r13d
    bc68:	e9 
    bc69:	41 c1 c5 14          	rol    $0x14,%r13d
    bc6d:	41 01 fd             	add    %edi,%r13d
    bc70:	41 8d 34 06          	lea    (%r14,%rax,1),%esi
    bc74:	45 89 ea             	mov    %r13d,%r10d
    bc77:	41 31 fa             	xor    %edi,%r10d
    bc7a:	44 21 d5             	and    %r10d,%ebp
    bc7d:	31 fd                	xor    %edi,%ebp
    bc7f:	8d b4 2e 5d 10 2f d6 	lea    0xffffffffd62f105d(%rsi,%rbp,1),%esi
    bc86:	c1 c6 05             	rol    $0x5,%esi
    bc89:	44 01 ee             	add    %r13d,%esi
    bc8c:	89 f5                	mov    %esi,%ebp
    bc8e:	44 31 ed             	xor    %r13d,%ebp
    bc91:	21 fd                	and    %edi,%ebp
    bc93:	44 31 ed             	xor    %r13d,%ebp
    bc96:	44 01 cd             	add    %r9d,%ebp
    bc99:	44 01 dd             	add    %r11d,%ebp
    bc9c:	c1 c5 09             	rol    $0x9,%ebp
    bc9f:	44 8d 14 2e          	lea    (%rsi,%rbp,1),%r10d
    bca3:	44 01 e7             	add    %r12d,%edi
    bca6:	41 89 f4             	mov    %esi,%r12d
    bca9:	45 31 d4             	xor    %r10d,%r12d
    bcac:	45 21 ec             	and    %r13d,%r12d
    bcaf:	41 31 f4             	xor    %esi,%r12d
    bcb2:	46 8d b4 27 81 e6 a1 	lea    0xffffffffd8a1e681(%rdi,%r12,1),%r14d
    bcb9:	d8 
    bcba:	41 c1 c6 0e          	rol    $0xe,%r14d
    bcbe:	45 01 d6             	add    %r10d,%r14d
    bcc1:	41 01 d5             	add    %edx,%r13d
    bcc4:	44 89 f7             	mov    %r14d,%edi
    bcc7:	44 31 d7             	xor    %r10d,%edi
    bcca:	21 f7                	and    %esi,%edi
    bccc:	44 31 d7             	xor    %r10d,%edi
    bccf:	45 8d a4 3d c8 fb d3 	lea    0xffffffffe7d3fbc8(%r13,%rdi,1),%r12d
    bcd6:	e7 
    bcd7:	41 c1 c4 14          	rol    $0x14,%r12d
    bcdb:	45 01 f4             	add    %r14d,%r12d
    bcde:	44 8b 6c 24 38       	mov    0x38(%rsp),%r13d
    bce3:	46 8d 3c 2e          	lea    (%rsi,%r13,1),%r15d
    bce7:	44 89 e7             	mov    %r12d,%edi
    bcea:	44 31 f7             	xor    %r14d,%edi
    bced:	41 21 fa             	and    %edi,%r10d
    bcf0:	45 31 f2             	xor    %r14d,%r10d
    bcf3:	43 8d bc 17 e6 cd e1 	lea    0x21e1cde6(%r15,%r10,1),%edi
    bcfa:	21 
    bcfb:	c1 c7 05             	rol    $0x5,%edi
    bcfe:	44 01 e7             	add    %r12d,%edi
    bd01:	41 89 ff             	mov    %edi,%r15d
    bd04:	45 31 e7             	xor    %r12d,%r15d
    bd07:	45 21 f7             	and    %r14d,%r15d
    bd0a:	44 03 74 24 68       	add    0x68(%rsp),%r14d
    bd0f:	45 31 e7             	xor    %r12d,%r15d
    bd12:	41 01 cf             	add    %ecx,%r15d
    bd15:	8d ac 2e d6 07 37 c3 	lea    0xffffffffc33707d6(%rsi,%rbp,1),%ebp
    bd1c:	41 01 ef             	add    %ebp,%r15d
    bd1f:	8b 6c 24 30          	mov    0x30(%rsp),%ebp
    bd23:	41 c1 c7 09          	rol    $0x9,%r15d
    bd27:	42 8d 34 3f          	lea    (%rdi,%r15,1),%esi
    bd2b:	41 89 fa             	mov    %edi,%r10d
    bd2e:	41 31 f2             	xor    %esi,%r10d
    bd31:	45 21 e2             	and    %r12d,%r10d
    bd34:	41 31 fa             	xor    %edi,%r10d
    bd37:	47 8d 9c 16 87 0d d5 	lea    0xfffffffff4d50d87(%r14,%r10,1),%r11d
    bd3e:	f4 
    bd3f:	41 c1 c3 0e          	rol    $0xe,%r11d
    bd43:	41 01 f3             	add    %esi,%r11d
    bd46:	41 01 ec             	add    %ebp,%r12d
    bd49:	45 89 de             	mov    %r11d,%r14d
    bd4c:	41 31 f6             	xor    %esi,%r14d
    bd4f:	41 21 fe             	and    %edi,%r14d
    bd52:	41 31 f6             	xor    %esi,%r14d
    bd55:	47 8d 94 34 ed 14 5a 	lea    0x455a14ed(%r12,%r14,1),%r10d
    bd5c:	45 
    bd5d:	41 c1 c2 14          	rol    $0x14,%r10d
    bd61:	45 01 da             	add    %r11d,%r10d
    bd64:	44 8b 64 24 40       	mov    0x40(%rsp),%r12d
    bd69:	46 8d 34 27          	lea    (%rdi,%r12,1),%r14d
    bd6d:	45 89 d5             	mov    %r10d,%r13d
    bd70:	45 31 dd             	xor    %r11d,%r13d
    bd73:	44 21 ee             	and    %r13d,%esi
    bd76:	44 31 de             	xor    %r11d,%esi
    bd79:	45 8d ac 36 05 e9 e3 	lea    0xffffffffa9e3e905(%r14,%rsi,1),%r13d
    bd80:	a9 
    bd81:	41 c1 c5 05          	rol    $0x5,%r13d
    bd85:	45 01 d5             	add    %r10d,%r13d
    bd88:	44 89 ee             	mov    %r13d,%esi
    bd8b:	44 31 d6             	xor    %r10d,%esi
    bd8e:	44 21 de             	and    %r11d,%esi
    bd91:	44 31 d6             	xor    %r10d,%esi
    bd94:	03 74 24 08          	add    0x8(%rsp),%esi
    bd98:	42 8d bc 3f f8 a3 ef 	lea    0xfffffffffcefa3f8(%rdi,%r15,1),%edi
    bd9f:	fc 
    bda0:	01 fe                	add    %edi,%esi
    bda2:	8b 7c 24 78          	mov    0x78(%rsp),%edi
    bda6:	c1 c6 09             	rol    $0x9,%esi
    bda9:	45 8d 7c 35 00       	lea    0x0(%r13,%rsi,1),%r15d
    bdae:	41 01 fb             	add    %edi,%r11d
    bdb1:	45 89 ee             	mov    %r13d,%r14d
    bdb4:	45 31 fe             	xor    %r15d,%r14d
    bdb7:	45 21 d6             	and    %r10d,%r14d
    bdba:	44 03 94 24 80 00 00 	add    0x80(%rsp),%r10d
    bdc1:	00 
    bdc2:	45 31 ee             	xor    %r13d,%r14d
    bdc5:	44 01 e8             	add    %r13d,%eax
    bdc8:	47 8d b4 33 d9 02 6f 	lea    0x676f02d9(%r11,%r14,1),%r14d
    bdcf:	67 
    bdd0:	41 c1 c6 0e          	rol    $0xe,%r14d
    bdd4:	45 01 fe             	add    %r15d,%r14d
    bdd7:	45 89 f3             	mov    %r14d,%r11d
    bdda:	45 31 fb             	xor    %r15d,%r11d
    bddd:	45 21 eb             	and    %r13d,%r11d
    bde0:	45 31 fb             	xor    %r15d,%r11d
    bde3:	47 8d 94 1a 8a 4c 2a 	lea    0xffffffff8d2a4c8a(%r10,%r11,1),%r10d
    bdea:	8d 
    bdeb:	41 c1 c2 14          	rol    $0x14,%r10d
    bdef:	45 01 f2             	add    %r14d,%r10d
    bdf2:	45 89 d3             	mov    %r10d,%r11d
    bdf5:	45 31 f3             	xor    %r14d,%r11d
    bdf8:	45 31 fb             	xor    %r15d,%r11d
    bdfb:	46 8d bc 18 42 39 fa 	lea    0xfffffffffffa3942(%rax,%r11,1),%r15d
    be02:	ff 
    be03:	41 c1 c7 04          	rol    $0x4,%r15d
    be07:	45 01 d7             	add    %r10d,%r15d
    be0a:	45 89 fb             	mov    %r15d,%r11d
    be0d:	45 31 d3             	xor    %r10d,%r11d
    be10:	45 31 f3             	xor    %r14d,%r11d
    be13:	41 01 eb             	add    %ebp,%r11d
    be16:	41 8d 84 35 81 f6 71 	lea    0xffffffff8771f681(%r13,%rsi,1),%eax
    be1d:	87 
    be1e:	41 01 c3             	add    %eax,%r11d
    be21:	41 c1 c3 0b          	rol    $0xb,%r11d
    be25:	43 8d 2c 1f          	lea    (%r15,%r11,1),%ebp
    be29:	8b 44 24 60          	mov    0x60(%rsp),%eax
    be2d:	41 01 de             	add    %ebx,%r14d
    be30:	45 89 fd             	mov    %r15d,%r13d
    be33:	41 31 ed             	xor    %ebp,%r13d
    be36:	45 31 d5             	xor    %r10d,%r13d
    be39:	41 01 ca             	add    %ecx,%r10d
    be3c:	47 8d b4 2e 22 61 9d 	lea    0x6d9d6122(%r14,%r13,1),%r14d
    be43:	6d 
    be44:	41 c1 c6 10          	rol    $0x10,%r14d
    be48:	41 01 ee             	add    %ebp,%r14d
    be4b:	44 89 f6             	mov    %r14d,%esi
    be4e:	31 ee                	xor    %ebp,%esi
    be50:	44 31 fe             	xor    %r15d,%esi
    be53:	41 8d b4 32 0c 38 e5 	lea    0xfffffffffde5380c(%r10,%rsi,1),%esi
    be5a:	fd 
    be5b:	c1 c6 17             	rol    $0x17,%esi
    be5e:	44 01 f6             	add    %r14d,%esi
    be61:	45 8d 14 07          	lea    (%r15,%rax,1),%r10d
    be65:	41 89 f5             	mov    %esi,%r13d
    be68:	45 31 f5             	xor    %r14d,%r13d
    be6b:	41 31 ed             	xor    %ebp,%r13d
    be6e:	43 8d ac 2a 44 ea be 	lea    0xffffffffa4beea44(%r10,%r13,1),%ebp
    be75:	a4 
    be76:	c1 c5 04             	rol    $0x4,%ebp
    be79:	01 f5                	add    %esi,%ebp
    be7b:	41 89 ea             	mov    %ebp,%r10d
    be7e:	41 31 f2             	xor    %esi,%r10d
    be81:	45 31 f2             	xor    %r14d,%r10d
    be84:	41 01 d2             	add    %edx,%r10d
    be87:	43 8d 94 1f a9 cf de 	lea    0x4bdecfa9(%r15,%r11,1),%edx
    be8e:	4b 
    be8f:	41 01 d2             	add    %edx,%r10d
    be92:	41 c1 c2 0b          	rol    $0xb,%r10d
    be96:	42 8d 54 15 00       	lea    0x0(%rbp,%r10,1),%edx
    be9b:	41 01 fe             	add    %edi,%r14d
    be9e:	41 89 ef             	mov    %ebp,%r15d
    bea1:	41 31 d7             	xor    %edx,%r15d
    bea4:	41 31 f7             	xor    %esi,%r15d
    bea7:	47 8d b4 3e 60 4b bb 	lea    0xfffffffff6bb4b60(%r14,%r15,1),%r14d
    beae:	f6 
    beaf:	41 c1 c6 10          	rol    $0x10,%r14d
    beb3:	44 8b 7c 24 38       	mov    0x38(%rsp),%r15d
    beb8:	41 01 d6             	add    %edx,%r14d
    bebb:	44 01 ce             	add    %r9d,%esi
    bebe:	45 89 f1             	mov    %r14d,%r9d
    bec1:	41 31 d1             	xor    %edx,%r9d
    bec4:	41 31 e9             	xor    %ebp,%r9d
    bec7:	46 8d 9c 0e 70 bc bf 	lea    0xffffffffbebfbc70(%rsi,%r9,1),%r11d
    bece:	be 
    becf:	41 c1 c3 17          	rol    $0x17,%r11d
    bed3:	45 01 f3             	add    %r14d,%r11d
    bed6:	46 8d 4c 25 00       	lea    0x0(%rbp,%r12,1),%r9d
    bedb:	45 89 dd             	mov    %r11d,%r13d
    bede:	45 31 f5             	xor    %r14d,%r13d
    bee1:	41 31 d5             	xor    %edx,%r13d
    bee4:	43 8d 94 29 c6 7e 9b 	lea    0x289b7ec6(%r9,%r13,1),%edx
    beeb:	28 
    beec:	c1 c2 04             	rol    $0x4,%edx
    beef:	44 01 da             	add    %r11d,%edx
    bef2:	41 89 d1             	mov    %edx,%r9d
    bef5:	45 31 d9             	xor    %r11d,%r9d
    bef8:	45 31 f1             	xor    %r14d,%r9d
    befb:	45 01 c1             	add    %r8d,%r9d
    befe:	42 8d ac 15 fa 27 a1 	lea    0xffffffffeaa127fa(%rbp,%r10,1),%ebp
    bf05:	ea 
    bf06:	41 01 e9             	add    %ebp,%r9d
    bf09:	41 c1 c1 0b          	rol    $0xb,%r9d
    bf0d:	46 8d 2c 0a          	lea    (%rdx,%r9,1),%r13d
    bf11:	8b 6c 24 68          	mov    0x68(%rsp),%ebp
    bf15:	41 01 ee             	add    %ebp,%r14d
    bf18:	41 89 d4             	mov    %edx,%r12d
    bf1b:	45 31 ec             	xor    %r13d,%r12d
    bf1e:	45 31 dc             	xor    %r11d,%r12d
    bf21:	47 8d 94 26 85 30 ef 	lea    0xffffffffd4ef3085(%r14,%r12,1),%r10d
    bf28:	d4 
    bf29:	44 03 5c 24 18       	add    0x18(%rsp),%r11d
    bf2e:	41 c1 c2 10          	rol    $0x10,%r10d
    bf32:	45 01 ea             	add    %r13d,%r10d
    bf35:	44 89 d6             	mov    %r10d,%esi
    bf38:	44 31 ee             	xor    %r13d,%esi
    bf3b:	31 d6                	xor    %edx,%esi
    bf3d:	45 8d a4 33 05 1d 88 	lea    0x4881d05(%r11,%rsi,1),%r12d
    bf44:	04 
    bf45:	41 c1 c4 17          	rol    $0x17,%r12d
    bf49:	45 01 d4             	add    %r10d,%r12d
    bf4c:	46 8d 1c 3a          	lea    (%rdx,%r15,1),%r11d
    bf50:	45 89 e6             	mov    %r12d,%r14d
    bf53:	45 31 d6             	xor    %r10d,%r14d
    bf56:	45 31 ee             	xor    %r13d,%r14d
    bf59:	44 8b ac 24 80 00 00 	mov    0x80(%rsp),%r13d
    bf60:	00 
    bf61:	47 8d bc 33 39 d0 d4 	lea    0xffffffffd9d4d039(%r11,%r14,1),%r15d
    bf68:	d9 
    bf69:	41 c1 c7 04          	rol    $0x4,%r15d
    bf6d:	45 01 e7             	add    %r12d,%r15d
    bf70:	44 89 fe             	mov    %r15d,%esi
    bf73:	44 31 e6             	xor    %r12d,%esi
    bf76:	44 31 d6             	xor    %r10d,%esi
    bf79:	44 01 ee             	add    %r13d,%esi
    bf7c:	42 8d 94 0a e5 99 db 	lea    0xffffffffe6db99e5(%rdx,%r9,1),%edx
    bf83:	e6 
    bf84:	01 d6                	add    %edx,%esi
    bf86:	8b 94 24 88 00 00 00 	mov    0x88(%rsp),%edx
    bf8d:	c1 c6 0b             	rol    $0xb,%esi
    bf90:	45 8d 1c 37          	lea    (%r15,%rsi,1),%r11d
    bf94:	41 01 d2             	add    %edx,%r10d
    bf97:	45 89 f9             	mov    %r15d,%r9d
    bf9a:	45 31 d9             	xor    %r11d,%r9d
    bf9d:	45 31 e1             	xor    %r12d,%r9d
    bfa0:	44 03 64 24 08       	add    0x8(%rsp),%r12d
    bfa5:	45 01 f8             	add    %r15d,%r8d
    bfa8:	47 8d 94 0a f8 7c a2 	lea    0x1fa27cf8(%r10,%r9,1),%r10d
    bfaf:	1f 
    bfb0:	41 c1 c2 10          	rol    $0x10,%r10d
    bfb4:	45 01 da             	add    %r11d,%r10d
    bfb7:	45 89 d6             	mov    %r10d,%r14d
    bfba:	45 31 de             	xor    %r11d,%r14d
    bfbd:	45 31 fe             	xor    %r15d,%r14d
    bfc0:	47 8d 8c 34 65 56 ac 	lea    0xffffffffc4ac5665(%r12,%r14,1),%r9d
    bfc7:	c4 
    bfc8:	45 8d a4 37 97 ff 2a 	lea    0x432aff97(%r15,%rsi,1),%r12d
    bfcf:	43 
    bfd0:	41 c1 c1 17          	rol    $0x17,%r9d
    bfd4:	45 01 d1             	add    %r10d,%r9d
    bfd7:	41 f7 d3             	not    %r11d
    bfda:	45 09 cb             	or     %r9d,%r11d
    bfdd:	45 31 d3             	xor    %r10d,%r11d
    bfe0:	47 8d 84 18 44 22 29 	lea    0xfffffffff4292244(%r8,%r11,1),%r8d
    bfe7:	f4 
    bfe8:	41 c1 c0 06          	rol    $0x6,%r8d
    bfec:	45 01 c8             	add    %r9d,%r8d
    bfef:	45 89 d3             	mov    %r10d,%r11d
    bff2:	41 f7 d3             	not    %r11d
    bff5:	45 09 c3             	or     %r8d,%r11d
    bff8:	45 31 cb             	xor    %r9d,%r11d
    bffb:	44 01 df             	add    %r11d,%edi
    bffe:	44 01 e7             	add    %r12d,%edi
    c001:	c1 c7 0a             	rol    $0xa,%edi
    c004:	45 8d 3c 38          	lea    (%r8,%rdi,1),%r15d
    c008:	41 01 ca             	add    %ecx,%r10d
    c00b:	44 89 c9             	mov    %r9d,%ecx
    c00e:	44 03 4c 24 70       	add    0x70(%rsp),%r9d
    c013:	f7 d1                	not    %ecx
    c015:	44 09 f9             	or     %r15d,%ecx
    c018:	44 31 c1             	xor    %r8d,%ecx
    c01b:	45 8d 94 0a a7 23 94 	lea    0xffffffffab9423a7(%r10,%rcx,1),%r10d
    c022:	ab 
    c023:	41 c1 c2 0f          	rol    $0xf,%r10d
    c027:	45 01 fa             	add    %r15d,%r10d
    c02a:	44 89 c6             	mov    %r8d,%esi
    c02d:	f7 d6                	not    %esi
    c02f:	44 09 d6             	or     %r10d,%esi
    c032:	44 31 fe             	xor    %r15d,%esi
    c035:	45 8d 8c 31 39 a0 93 	lea    0xfffffffffc93a039(%r9,%rsi,1),%r9d
    c03c:	fc 
    c03d:	41 c1 c1 15          	rol    $0x15,%r9d
    c041:	45 01 d1             	add    %r10d,%r9d
    c044:	8b 74 24 50          	mov    0x50(%rsp),%esi
    c048:	45 01 c5             	add    %r8d,%r13d
    c04b:	41 f7 d7             	not    %r15d
    c04e:	45 09 cf             	or     %r9d,%r15d
    c051:	45 31 d7             	xor    %r10d,%r15d
    c054:	45 8d 9c 38 92 cc 0c 	lea    0xffffffff8f0ccc92(%r8,%rdi,1),%r11d
    c05b:	8f 
    c05c:	8b 7c 24 58          	mov    0x58(%rsp),%edi
    c060:	4c 8b 44 24 48       	mov    0x48(%rsp),%r8
    c065:	43 8d 8c 3d c3 59 5b 	lea    0x655b59c3(%r13,%r15,1),%ecx
    c06c:	65 
    c06d:	c1 c1 06             	rol    $0x6,%ecx
    c070:	44 01 c9             	add    %r9d,%ecx
    c073:	45 89 d5             	mov    %r10d,%r13d
    c076:	41 f7 d5             	not    %r13d
    c079:	41 09 cd             	or     %ecx,%r13d
    c07c:	45 31 cd             	xor    %r9d,%r13d
    c07f:	44 01 ed             	add    %r13d,%ebp
    c082:	44 03 54 24 20       	add    0x20(%rsp),%r10d
    c087:	44 01 dd             	add    %r11d,%ebp
    c08a:	c1 c5 0a             	rol    $0xa,%ebp
    c08d:	44 8d 2c 29          	lea    (%rcx,%rbp,1),%r13d
    c091:	45 89 ce             	mov    %r9d,%r14d
    c094:	41 f7 d6             	not    %r14d
    c097:	45 09 ee             	or     %r13d,%r14d
    c09a:	41 31 ce             	xor    %ecx,%r14d
    c09d:	47 8d a4 32 7d f4 ef 	lea    0xffffffffffeff47d(%r10,%r14,1),%r12d
    c0a4:	ff 
    c0a5:	41 c1 c4 0f          	rol    $0xf,%r12d
    c0a9:	45 01 ec             	add    %r13d,%r12d
    c0ac:	41 01 c1             	add    %eax,%r9d
    c0af:	8b 44 24 30          	mov    0x30(%rsp),%eax
    c0b3:	41 89 cf             	mov    %ecx,%r15d
    c0b6:	41 f7 d7             	not    %r15d
    c0b9:	45 09 e7             	or     %r12d,%r15d
    c0bc:	45 31 ef             	xor    %r13d,%r15d
    c0bf:	47 8d 9c 39 d1 5d 84 	lea    0xffffffff85845dd1(%r9,%r15,1),%r11d
    c0c6:	85 
    c0c7:	41 c1 c3 15          	rol    $0x15,%r11d
    c0cb:	45 01 e3             	add    %r12d,%r11d
    c0ce:	01 c8                	add    %ecx,%eax
    c0d0:	41 f7 d5             	not    %r13d
    c0d3:	45 09 dd             	or     %r11d,%r13d
    c0d6:	45 31 e5             	xor    %r12d,%r13d
    c0d9:	46 8d 94 28 4f 7e a8 	lea    0x6fa87e4f(%rax,%r13,1),%r10d
    c0e0:	6f 
    c0e1:	41 c1 c2 06          	rol    $0x6,%r10d
    c0e5:	45 01 da             	add    %r11d,%r10d
    c0e8:	45 89 e1             	mov    %r12d,%r9d
    c0eb:	41 f7 d1             	not    %r9d
    c0ee:	44 03 64 24 18       	add    0x18(%rsp),%r12d
    c0f3:	45 09 d1             	or     %r10d,%r9d
    c0f6:	45 31 d9             	xor    %r11d,%r9d
    c0f9:	44 01 ca             	add    %r9d,%edx
    c0fc:	8d ac 29 e0 e6 2c fe 	lea    0xfffffffffe2ce6e0(%rcx,%rbp,1),%ebp
    c103:	01 ea                	add    %ebp,%edx
    c105:	c1 c2 0a             	rol    $0xa,%edx
    c108:	45 8d 2c 12          	lea    (%r10,%rdx,1),%r13d
    c10c:	44 89 d9             	mov    %r11d,%ecx
    c10f:	f7 d1                	not    %ecx
    c111:	44 09 e9             	or     %r13d,%ecx
    c114:	44 03 5c 24 40       	add    0x40(%rsp),%r11d
    c119:	44 31 d1             	xor    %r10d,%ecx
    c11c:	45 8d 8c 0c 14 43 01 	lea    0xffffffffa3014314(%r12,%rcx,1),%r9d
    c123:	a3 
    c124:	41 c1 c1 0f          	rol    $0xf,%r9d
    c128:	45 01 e9             	add    %r13d,%r9d
    c12b:	44 89 d0             	mov    %r10d,%eax
    c12e:	f7 d0                	not    %eax
    c130:	44 09 c8             	or     %r9d,%eax
    c133:	44 31 e8             	xor    %r13d,%eax
    c136:	41 f7 d5             	not    %r13d
    c139:	45 89 cc             	mov    %r9d,%r12d
    c13c:	41 8d 84 03 a1 11 08 	lea    0x4e0811a1(%r11,%rax,1),%eax
    c143:	4e 
    c144:	44 8b 5c 24 28       	mov    0x28(%rsp),%r11d
    c149:	c1 c0 15             	rol    $0x15,%eax
    c14c:	44 01 c8             	add    %r9d,%eax
    c14f:	45 01 d3             	add    %r10d,%r11d
    c152:	41 09 c5             	or     %eax,%r13d
    c155:	45 31 cd             	xor    %r9d,%r13d
    c158:	44 03 4c 24 08       	add    0x8(%rsp),%r9d
    c15d:	43 8d 8c 2b 82 7e 53 	lea    0xfffffffff7537e82(%r11,%r13,1),%ecx
    c164:	f7 
    c165:	c1 c1 06             	rol    $0x6,%ecx
    c168:	01 c1                	add    %eax,%ecx
    c16a:	41 f7 d4             	not    %r12d
    c16d:	41 09 cc             	or     %ecx,%r12d
    c170:	41 31 c4             	xor    %eax,%r12d
    c173:	44 01 e3             	add    %r12d,%ebx
    c176:	41 8d 94 12 35 f2 3a 	lea    0xffffffffbd3af235(%r10,%rdx,1),%edx
    c17d:	bd 
    c17e:	01 d3                	add    %edx,%ebx
    c180:	c1 c3 0a             	rol    $0xa,%ebx
    c183:	01 cb                	add    %ecx,%ebx
    c185:	41 89 c2             	mov    %eax,%r10d
    c188:	41 f7 d2             	not    %r10d
    c18b:	41 09 da             	or     %ebx,%r10d
    c18e:	03 44 24 38          	add    0x38(%rsp),%eax
    c192:	41 31 ca             	xor    %ecx,%r10d
    c195:	43 8d ac 11 bb d2 d7 	lea    0x2ad7d2bb(%r9,%r10,1),%ebp
    c19c:	2a 
    c19d:	c1 c5 0f             	rol    $0xf,%ebp
    c1a0:	01 dd                	add    %ebx,%ebp
    c1a2:	41 89 c9             	mov    %ecx,%r9d
    c1a5:	41 f7 d1             	not    %r9d
    c1a8:	41 09 e9             	or     %ebp,%r9d
    c1ab:	41 31 d9             	xor    %ebx,%r9d
    c1ae:	46 8d 9c 08 91 d3 86 	lea    0xffffffffeb86d391(%rax,%r9,1),%r11d
    c1b5:	eb 
    c1b6:	41 c1 c3 15          	rol    $0x15,%r11d
    c1ba:	03 5c 24 10          	add    0x10(%rsp),%ebx
    c1be:	8b 04 24             	mov    (%rsp),%eax
    c1c1:	41 01 eb             	add    %ebp,%r11d
    c1c4:	01 c8                	add    %ecx,%eax
    c1c6:	41 89 00             	mov    %eax,(%r8)
    c1c9:	44 01 de             	add    %r11d,%esi
    c1cc:	41 89 70 04          	mov    %esi,0x4(%r8)
    c1d0:	01 ef                	add    %ebp,%edi
    c1d2:	41 89 78 08          	mov    %edi,0x8(%r8)
    c1d6:	41 89 58 0c          	mov    %ebx,0xc(%r8)
    c1da:	48 81 c4 98 00 00 00 	add    $0x98,%rsp
    c1e1:	5b                   	pop    %rbx
    c1e2:	5d                   	pop    %rbp
    c1e3:	41 5c                	pop    %r12
    c1e5:	41 5d                	pop    %r13
    c1e7:	41 5e                	pop    %r14
    c1e9:	41 5f                	pop    %r15
    c1eb:	c3                   	retq   
    c1ec:	66 66 66 90          	xchg   %ax,%ax

000000000000c1f0 <main_test>:
    c1f0:	56                   	push   %rsi
    c1f1:	31 db                	xor    %ebx,%ebx
    c1f3:	eb 05                	jmp    c1fa <main_test+0xa>
    c1f5:	e8 d6 01 00 00       	callq  c3d0 <correct>
    c1fa:	31 ed                	xor    %ebp,%ebp
    c1fc:	45 31 e4             	xor    %r12d,%r12d
    c1ff:	e8 7c 00 00 00       	callq  c280 <self_check>
    c204:	85 c0                	test   %eax,%eax
    c206:	75 07                	jne    c20f <main_test+0x1f>
    c208:	e8 e3 01 00 00       	callq  c3f0 <sdc>
    c20d:	eb 0a                	jmp    c219 <main_test+0x29>
    c20f:	83 f8 01             	cmp    $0x1,%eax
    c212:	75 05                	jne    c219 <main_test+0x29>
    c214:	e8 b7 01 00 00       	callq  c3d0 <correct>
    c219:	41 ff c4             	inc    %r12d
    c21c:	41 81 fc 40 42 0f 00 	cmp    $0xf4240,%r12d
    c223:	7e da                	jle    c1ff <main_test+0xf>
    c225:	45 31 e4             	xor    %r12d,%r12d
    c228:	ff cb                	dec    %ebx
    c22a:	e8 51 00 00 00       	callq  c280 <self_check>
    c22f:	85 c0                	test   %eax,%eax
    c231:	75 07                	jne    c23a <main_test+0x4a>
    c233:	e8 b8 01 00 00       	callq  c3f0 <sdc>
    c238:	eb 0a                	jmp    c244 <main_test+0x54>
    c23a:	83 f8 01             	cmp    $0x1,%eax
    c23d:	75 05                	jne    c244 <main_test+0x54>
    c23f:	e8 8c 01 00 00       	callq  c3d0 <correct>
    c244:	41 ff c4             	inc    %r12d
    c247:	41 81 fc 40 42 0f 00 	cmp    $0xf4240,%r12d
    c24e:	7e d8                	jle    c228 <main_test+0x38>
    c250:	90                   	nop    
    c251:	90                   	nop    
    c252:	85 db                	test   %ebx,%ebx
    c254:	75 0c                	jne    c262 <main_test+0x72>
    c256:	ff c5                	inc    %ebp
    c258:	81 fd a0 0f 00 00    	cmp    $0xfa0,%ebp
    c25e:	7e 9c                	jle    c1fc <main_test+0xc>
    c260:	eb 93                	jmp    c1f5 <main_test+0x5>
    c262:	90                   	nop    
    c263:	90                   	nop    
    c264:	48 8d bf 00 00 00 00 	lea    0x0(%rdi),%rdi
    c26b:	e8 80 01 00 00       	callq  c3f0 <sdc>
    c270:	eb fe                	jmp    c270 <main_test+0x80>
    c272:	66 66 66 90          	xchg   %ax,%ax
    c276:	66 66 66 90          	xchg   %ax,%ax
    c27a:	66 66 90             	xchg   %ax,%ax
    c27d:	66 66 90             	xchg   %ax,%ax

000000000000c280 <self_check>:
    c280:	48 83 ec 18          	sub    $0x18,%rsp
    c284:	c6 44 24 10 61       	movb   $0x61,0x10(%rsp)
    c289:	be 01 00 00 00       	mov    $0x1,%esi
    c28e:	48 8d 7c 24 10       	lea    0x10(%rsp),%rdi
    c293:	48 8d 14 24          	lea    (%rsp),%rdx
    c297:	e8 44 00 00 00       	callq  c2e0 <md5_hash>
    c29c:	8b 04 24             	mov    (%rsp),%eax
    c29f:	3d 0c c1 75 b9       	cmp    $0xb975c10c,%eax
    c2a4:	75 2b                	jne    c2d1 <self_check+0x51>
    c2a6:	8b 44 24 04          	mov    0x4(%rsp),%eax
    c2aa:	3d c0 f1 b6 a8       	cmp    $0xa8b6f1c0,%eax
    c2af:	75 20                	jne    c2d1 <self_check+0x51>
    c2b1:	8b 44 24 08          	mov    0x8(%rsp),%eax
    c2b5:	3d 31 c3 99 e2       	cmp    $0xe299c331,%eax
    c2ba:	75 15                	jne    c2d1 <self_check+0x51>
    c2bc:	8b 44 24 0c          	mov    0xc(%rsp),%eax
    c2c0:	3d 69 77 26 61       	cmp    $0x61267769,%eax
    c2c5:	75 0a                	jne    c2d1 <self_check+0x51>
    c2c7:	b8 01 00 00 00       	mov    $0x1,%eax
    c2cc:	48 83 c4 18          	add    $0x18,%rsp
    c2d0:	c3                   	retq   
    c2d1:	31 c0                	xor    %eax,%eax
    c2d3:	48 83 c4 18          	add    $0x18,%rsp
    c2d7:	c3                   	retq   
    c2d8:	66 66 66 90          	xchg   %ax,%ax
    c2dc:	66 66 66 90          	xchg   %ax,%ax

000000000000c2e0 <md5_hash>:
    c2e0:	41 57                	push   %r15
    c2e2:	48 83 ec 40          	sub    $0x40,%rsp
    c2e6:	49 89 d7             	mov    %rdx,%r15
    c2e9:	41 c7 07 01 23 45 67 	movl   $0x67452301,(%r15)
    c2f0:	41 c7 47 04 89 ab cd 	movl   $0xefcdab89,0x4(%r15)
    c2f7:	ef 
    c2f8:	41 c7 47 08 fe dc ba 	movl   $0x98badcfe,0x8(%r15)
    c2ff:	98 
    c300:	41 c7 47 0c 76 54 32 	movl   $0x10325476,0xc(%r15)
    c307:	10 
    c308:	0f b6 07             	movzbl (%rdi),%eax
    c30b:	88 04 24             	mov    %al,(%rsp)
    c30e:	c6 44 24 01 80       	movb   $0x80,0x1(%rsp)
    c313:	48 8d 7c 24 02       	lea    0x2(%rsp),%rdi
    c318:	31 f6                	xor    %esi,%esi
    c31a:	ba 36 00 00 00       	mov    $0x36,%edx
    c31f:	e8 2c 00 00 00       	callq  c350 <memset_nik>
    c324:	c7 44 24 38 08 00 00 	movl   $0x8,0x38(%rsp)
    c32b:	00 
    c32c:	48 8d 34 24          	lea    (%rsp),%rsi
    c330:	4c 89 ff             	mov    %r15,%rdi
    c333:	c7 44 24 3c 00 00 00 	movl   $0x0,0x3c(%rsp)
    c33a:	00 
    c33b:	e8 20 f6 ff ff       	callq  b960 <md5_compress>
    c340:	48 83 c4 40          	add    $0x40,%rsp
    c344:	41 5f                	pop    %r15
    c346:	c3                   	retq   
    c347:	66 66 90             	xchg   %ax,%ax
    c34a:	66 66 90             	xchg   %ax,%ax
    c34d:	66 66 90             	xchg   %ax,%ax

000000000000c350 <memset_nik>:
    c350:	48 85 d2             	test   %rdx,%rdx
    c353:	74 69                	je     c3be <memset_nik+0x6e>
    c355:	49 89 f8             	mov    %rdi,%r8
    c358:	49 83 e0 0f          	and    $0xf,%r8
    c35c:	4c 89 c1             	mov    %r8,%rcx
    c35f:	48 f7 d9             	neg    %rcx
    c362:	48 83 c1 10          	add    $0x10,%rcx
    c366:	49 83 f8 00          	cmp    $0x0,%r8
    c36a:	4c 0f 45 c1          	cmovne %rcx,%r8
    c36e:	49 8d 70 10          	lea    0x10(%r8),%rsi
    c372:	48 39 f2             	cmp    %rsi,%rdx
    c375:	7c 4b                	jl     c3c2 <memset_nik+0x72>
    c377:	48 89 d6             	mov    %rdx,%rsi
    c37a:	4c 29 c6             	sub    %r8,%rsi
    c37d:	48 83 e6 0f          	and    $0xf,%rsi
    c381:	48 f7 de             	neg    %rsi
    c384:	48 01 d6             	add    %rdx,%rsi
    c387:	31 c9                	xor    %ecx,%ecx
    c389:	4d 85 c0             	test   %r8,%r8
    c38c:	76 0c                	jbe    c39a <memset_nik+0x4a>
    c38e:	c6 04 39 00          	movb   $0x0,(%rcx,%rdi,1)
    c392:	48 ff c1             	inc    %rcx
    c395:	4c 39 c1             	cmp    %r8,%rcx
    c398:	72 f4                	jb     c38e <memset_nik+0x3e>
    c39a:	66 0f ef c0          	pxor   %xmm0,%xmm0
    c39e:	66 41 0f 7f 04 38    	movdqa %xmm0,(%r8,%rdi,1)
    c3a4:	49 83 c0 10          	add    $0x10,%r8
    c3a8:	49 39 f0             	cmp    %rsi,%r8
    c3ab:	72 f1                	jb     c39e <memset_nik+0x4e>
    c3ad:	48 39 d6             	cmp    %rdx,%rsi
    c3b0:	73 0c                	jae    c3be <memset_nik+0x6e>
    c3b2:	c6 04 3e 00          	movb   $0x0,(%rsi,%rdi,1)
    c3b6:	48 ff c6             	inc    %rsi
    c3b9:	48 39 d6             	cmp    %rdx,%rsi
    c3bc:	72 f4                	jb     c3b2 <memset_nik+0x62>
    c3be:	48 89 f8             	mov    %rdi,%rax
    c3c1:	c3                   	retq   
    c3c2:	31 f6                	xor    %esi,%esi
    c3c4:	eb e7                	jmp    c3ad <memset_nik+0x5d>
    c3c6:	66 66 66 90          	xchg   %ax,%ax
    c3ca:	66 66 90             	xchg   %ax,%ax
    c3cd:	66 66 90             	xchg   %ax,%ax

000000000000c3d0 <correct>:
    c3d0:	31 c0                	xor    %eax,%eax
    c3d2:	b8 01 00 00 00       	mov    $0x1,%eax
    c3d7:	0f a2                	cpuid  
    c3d9:	c1 eb 18             	shr    $0x18,%ebx
    c3dc:	31 c0                	xor    %eax,%eax
    c3de:	01 d8                	add    %ebx,%eax
    c3e0:	c1 e0 02             	shl    $0x2,%eax
    c3e3:	66 ba f8 03          	mov    $0x3f8,%dx
    c3e7:	ee                   	out    %al,(%dx)
    c3e8:	31 db                	xor    %ebx,%ebx
    c3ea:	c3                   	retq   
    c3eb:	66 66 90             	xchg   %ax,%ax
    c3ee:	66 90                	xchg   %ax,%ax

000000000000c3f0 <sdc>:
    c3f0:	31 c0                	xor    %eax,%eax
    c3f2:	b8 01 00 00 00       	mov    $0x1,%eax
    c3f7:	0f a2                	cpuid  
    c3f9:	c1 eb 18             	shr    $0x18,%ebx
    c3fc:	31 c0                	xor    %eax,%eax
    c3fe:	01 d8                	add    %ebx,%eax
    c400:	c1 e0 02             	shl    $0x2,%eax
    c403:	66 ba f8 03          	mov    $0x3f8,%dx
    c407:	83 c0 01             	add    $0x1,%eax
    c40a:	ee                   	out    %al,(%dx)
    c40b:	c3                   	retq   
    c40c:	66 66 66 90          	xchg   %ax,%ax

000000000000c410 <start_delay>:
    c410:	31 c0                	xor    %eax,%eax
    c412:	b8 01 00 00 00       	mov    $0x1,%eax
    c417:	0f a2                	cpuid  
    c419:	c1 eb 12             	shr    $0x12,%ebx
    c41c:	31 c9                	xor    %ecx,%ecx
    c41e:	01 d9                	add    %ebx,%ecx
    c420:	48 c1 e1 14          	shl    $0x14,%rcx
    c424:	e2 fe                	loop   c424 <start_delay+0x14>
    c426:	c3                   	retq   
    c427:	66 66 90             	xchg   %ax,%ax
    c42a:	66 66 90             	xchg   %ax,%ax
    c42d:	66 66 90             	xchg   %ax,%ax

000000000000c430 <__intel_proc_init_N.A>:
    c430:	48 81 ec 08 02 00 00 	sub    $0x208,%rsp
    c437:	bf 01 00 00 00       	mov    $0x1,%edi
    c43c:	33 f6                	xor    %esi,%esi
    c43e:	33 d2                	xor    %edx,%edx
    c440:	33 c0                	xor    %eax,%eax
    c442:	e8 29 15 00 00       	callq  d970 <irc__print>
    c447:	bf 01 00 00 00       	mov    $0x1,%edi
    c44c:	be 17 00 00 00       	mov    $0x17,%esi
    c451:	33 d2                	xor    %edx,%edx
    c453:	33 c0                	xor    %eax,%eax
    c455:	e8 16 15 00 00       	callq  d970 <irc__print>
    c45a:	bf 2d 00 00 00       	mov    $0x2d,%edi
    c45f:	33 f6                	xor    %esi,%esi
    c461:	33 c0                	xor    %eax,%eax
    c463:	e8 58 17 00 00       	callq  dbc0 <irc__get_msg>
    c468:	48 8d 3c 24          	lea    (%rsp),%rdi
    c46c:	48 89 c6             	mov    %rax,%rsi
    c46f:	ba 00 02 00 00       	mov    $0x200,%edx
    c474:	e8 ff f0 ff ff       	callq  b578 <getenv@plt+0x8>
    c479:	48 8d 0c 24          	lea    (%rsp),%rcx
    c47d:	bf 01 00 00 00       	mov    $0x1,%edi
    c482:	be 18 00 00 00       	mov    $0x18,%esi
    c487:	89 fa                	mov    %edi,%edx
    c489:	33 c0                	xor    %eax,%eax
    c48b:	e8 e0 14 00 00       	callq  d970 <irc__print>
    c490:	bf 01 00 00 00       	mov    $0x1,%edi
    c495:	33 f6                	xor    %esi,%esi
    c497:	33 d2                	xor    %edx,%edx
    c499:	33 c0                	xor    %eax,%eax
    c49b:	e8 d0 14 00 00       	callq  d970 <irc__print>
    c4a0:	bf 01 00 00 00       	mov    $0x1,%edi
    c4a5:	e8 3e f1 ff ff       	callq  b5e8 <memset@plt+0x8>
    c4aa:	90                   	nop    
    c4ab:	48 8d 74 26 00       	lea    0x0(%rsi),%rsi

000000000000c4b0 <__intel_proc_init_N.J>:
    c4b0:	48 81 ec 08 02 00 00 	sub    $0x208,%rsp
    c4b7:	48 8d 3c 24          	lea    (%rsp),%rdi
    c4bb:	33 f6                	xor    %esi,%esi
    c4bd:	ba 00 02 00 00       	mov    $0x200,%edx
    c4c2:	e8 11 f1 ff ff       	callq  b5d8 <strchr@plt+0x8>
    c4c7:	0f ae 04 24          	fxsave (%rsp)
    c4cb:	8b 54 24 1c          	mov    0x1c(%rsp),%edx
    c4cf:	0f ae 9c 24 00 02 00 	stmxcsr 0x200(%rsp)
    c4d6:	00 
    c4d7:	8b 84 24 00 02 00 00 	mov    0x200(%rsp),%eax
    c4de:	83 e2 40             	and    $0x40,%edx
    c4e1:	0d 00 80 00 00       	or     $0x8000,%eax
    c4e6:	89 84 24 00 02 00 00 	mov    %eax,0x200(%rsp)
    c4ed:	0f ae 94 24 00 02 00 	ldmxcsr 0x200(%rsp)
    c4f4:	00 
    c4f5:	85 d2                	test   %edx,%edx
    c4f7:	74 21                	je     c51a <__intel_proc_init_N.J+0x6a>
    c4f9:	0f ae 9c 24 00 02 00 	stmxcsr 0x200(%rsp)
    c500:	00 
    c501:	8b 84 24 00 02 00 00 	mov    0x200(%rsp),%eax
    c508:	83 c8 40             	or     $0x40,%eax
    c50b:	89 84 24 00 02 00 00 	mov    %eax,0x200(%rsp)
    c512:	0f ae 94 24 00 02 00 	ldmxcsr 0x200(%rsp)
    c519:	00 
    c51a:	48 81 c4 08 02 00 00 	add    $0x208,%rsp
    c521:	c3                   	retq   
    c522:	48 8d b6 00 00 00 00 	lea    0x0(%rsi),%rsi
    c529:	48 8d bf 00 00 00 00 	lea    0x0(%rdi),%rdi

000000000000c530 <__intel_proc_init_N.K>:
    c530:	0f ae 5c 24 f8       	stmxcsr 0xfffffffffffffff8(%rsp)
    c535:	8b 44 24 f8          	mov    0xfffffffffffffff8(%rsp),%eax
    c539:	0d 00 80 00 00       	or     $0x8000,%eax
    c53e:	89 44 24 f8          	mov    %eax,0xfffffffffffffff8(%rsp)
    c542:	0f ae 54 24 f8       	ldmxcsr 0xfffffffffffffff8(%rsp)
    c547:	0f ae 5c 24 f8       	stmxcsr 0xfffffffffffffff8(%rsp)
    c54c:	8b 44 24 f8          	mov    0xfffffffffffffff8(%rsp),%eax
    c550:	83 c8 40             	or     $0x40,%eax
    c553:	89 44 24 f8          	mov    %eax,0xfffffffffffffff8(%rsp)
    c557:	0f ae 54 24 f8       	ldmxcsr 0xfffffffffffffff8(%rsp)
    c55c:	c3                   	retq   
    c55d:	48 89 f6             	mov    %rsi,%rsi

000000000000c560 <__intel_proc_init_N.L>:
    c560:	0f ae 5c 24 f8       	stmxcsr 0xfffffffffffffff8(%rsp)
    c565:	8b 44 24 f8          	mov    0xfffffffffffffff8(%rsp),%eax
    c569:	0d 00 80 00 00       	or     $0x8000,%eax
    c56e:	89 44 24 f8          	mov    %eax,0xfffffffffffffff8(%rsp)
    c572:	0f ae 54 24 f8       	ldmxcsr 0xfffffffffffffff8(%rsp)
    c577:	0f ae 5c 24 f8       	stmxcsr 0xfffffffffffffff8(%rsp)
    c57c:	8b 44 24 f8          	mov    0xfffffffffffffff8(%rsp),%eax
    c580:	83 c8 40             	or     $0x40,%eax
    c583:	89 44 24 f8          	mov    %eax,0xfffffffffffffff8(%rsp)
    c587:	0f ae 54 24 f8       	ldmxcsr 0xfffffffffffffff8(%rsp)
    c58c:	c3                   	retq   
    c58d:	48 89 f6             	mov    %rsi,%rsi

000000000000c590 <__intel_proc_init_N>:
    c590:	48 8b 05 11 3a 10 00 	mov    1063441(%rip),%rax        # 10ffa8 <_IO_stdin_used+0x101fa8>
    c597:	8b 00                	mov    (%rax),%eax
    c599:	a9 00 f8 ff ff       	test   $0xfffff800,%eax
    c59e:	0f 85 bc ff ff ff    	jne    c560 <__intel_proc_init_N.L>
    c5a4:	a9 00 04 00 00       	test   $0x400,%eax
    c5a9:	0f 85 81 ff ff ff    	jne    c530 <__intel_proc_init_N.K>
    c5af:	a9 00 fe ff ff       	test   $0xfffffe00,%eax
    c5b4:	0f 85 f6 fe ff ff    	jne    c4b0 <__intel_proc_init_N.J>
    c5ba:	a9 ff ff ff ff       	test   $0xffffffff,%eax
    c5bf:	0f 85 6b fe ff ff    	jne    c430 <__intel_proc_init_N.A>
    c5c5:	48 83 ec 08          	sub    $0x8,%rsp
    c5c9:	e8 e2 17 00 00       	callq  ddb0 <__intel_cpu_indicator_init>
    c5ce:	48 83 c4 08          	add    $0x8,%rsp
    c5d2:	eb bc                	jmp    c590 <__intel_proc_init_N>
    c5d4:	90                   	nop    
    c5d5:	48 8d 74 26 00       	lea    0x0(%rsi),%rsi
    c5da:	90                   	nop    
    c5db:	48 8d 7c 27 00       	lea    0x0(%rdi),%rdi

000000000000c5e0 <__intel_new_proc_init_N.A>:
    c5e0:	48 81 ec 08 02 00 00 	sub    $0x208,%rsp
    c5e7:	bf 01 00 00 00       	mov    $0x1,%edi
    c5ec:	33 f6                	xor    %esi,%esi
    c5ee:	33 d2                	xor    %edx,%edx
    c5f0:	33 c0                	xor    %eax,%eax
    c5f2:	e8 79 13 00 00       	callq  d970 <irc__print>
    c5f7:	bf 01 00 00 00       	mov    $0x1,%edi
    c5fc:	be 17 00 00 00       	mov    $0x17,%esi
    c601:	33 d2                	xor    %edx,%edx
    c603:	33 c0                	xor    %eax,%eax
    c605:	e8 66 13 00 00       	callq  d970 <irc__print>
    c60a:	bf 2d 00 00 00       	mov    $0x2d,%edi
    c60f:	33 f6                	xor    %esi,%esi
    c611:	33 c0                	xor    %eax,%eax
    c613:	e8 a8 15 00 00       	callq  dbc0 <irc__get_msg>
    c618:	48 8d 3c 24          	lea    (%rsp),%rdi
    c61c:	48 89 c6             	mov    %rax,%rsi
    c61f:	ba 00 02 00 00       	mov    $0x200,%edx
    c624:	e8 4f ef ff ff       	callq  b578 <getenv@plt+0x8>
    c629:	48 8d 0c 24          	lea    (%rsp),%rcx
    c62d:	bf 01 00 00 00       	mov    $0x1,%edi
    c632:	be 18 00 00 00       	mov    $0x18,%esi
    c637:	89 fa                	mov    %edi,%edx
    c639:	33 c0                	xor    %eax,%eax
    c63b:	e8 30 13 00 00       	callq  d970 <irc__print>
    c640:	bf 01 00 00 00       	mov    $0x1,%edi
    c645:	33 f6                	xor    %esi,%esi
    c647:	33 d2                	xor    %edx,%edx
    c649:	33 c0                	xor    %eax,%eax
    c64b:	e8 20 13 00 00       	callq  d970 <irc__print>
    c650:	bf 01 00 00 00       	mov    $0x1,%edi
    c655:	e8 8e ef ff ff       	callq  b5e8 <memset@plt+0x8>
    c65a:	90                   	nop    
    c65b:	48 8d 74 26 00       	lea    0x0(%rsi),%rsi

000000000000c660 <__intel_new_proc_init_N.J>:
    c660:	41 57                	push   %r15
    c662:	41 56                	push   %r14
    c664:	55                   	push   %rbp
    c665:	48 81 ec 10 02 00 00 	sub    $0x210,%rsp
    c66c:	41 89 ff             	mov    %edi,%r15d
    c66f:	44 89 fd             	mov    %r15d,%ebp
    c672:	83 e5 02             	and    $0x2,%ebp
    c675:	45 89 fe             	mov    %r15d,%r14d
    c678:	41 83 e6 04          	and    $0x4,%r14d
    c67c:	85 ed                	test   %ebp,%ebp
    c67e:	75 05                	jne    c685 <__intel_new_proc_init_N.J+0x25>
    c680:	45 85 f6             	test   %r14d,%r14d
    c683:	74 2c                	je     c6b1 <__intel_new_proc_init_N.J+0x51>
    c685:	48 8d 3c 24          	lea    (%rsp),%rdi
    c689:	33 f6                	xor    %esi,%esi
    c68b:	ba 00 02 00 00       	mov    $0x200,%edx
    c690:	e8 43 ef ff ff       	callq  b5d8 <strchr@plt+0x8>
    c695:	0f ae 04 24          	fxsave (%rsp)
    c699:	8b 54 24 1c          	mov    0x1c(%rsp),%edx
    c69d:	33 c9                	xor    %ecx,%ecx
    c69f:	89 d0                	mov    %edx,%eax
    c6a1:	83 e0 40             	and    $0x40,%eax
    c6a4:	0f 44 e9             	cmove  %ecx,%ebp
    c6a7:	81 e2 00 00 02 00    	and    $0x20000,%edx
    c6ad:	44 0f 44 f1          	cmove  %ecx,%r14d
    c6b1:	41 f7 c7 01 00 00 00 	test   $0x1,%r15d
    c6b8:	75 5a                	jne    c714 <__intel_new_proc_init_N.J+0xb4>
    c6ba:	85 ed                	test   %ebp,%ebp
    c6bc:	74 21                	je     c6df <__intel_new_proc_init_N.J+0x7f>
    c6be:	0f ae 9c 24 00 02 00 	stmxcsr 0x200(%rsp)
    c6c5:	00 
    c6c6:	8b 84 24 00 02 00 00 	mov    0x200(%rsp),%eax
    c6cd:	83 c8 40             	or     $0x40,%eax
    c6d0:	89 84 24 00 02 00 00 	mov    %eax,0x200(%rsp)
    c6d7:	0f ae 94 24 00 02 00 	ldmxcsr 0x200(%rsp)
    c6de:	00 
    c6df:	45 85 f6             	test   %r14d,%r14d
    c6e2:	74 23                	je     c707 <__intel_new_proc_init_N.J+0xa7>
    c6e4:	0f ae 9c 24 00 02 00 	stmxcsr 0x200(%rsp)
    c6eb:	00 
    c6ec:	8b 84 24 00 02 00 00 	mov    0x200(%rsp),%eax
    c6f3:	0d 00 00 02 00       	or     $0x20000,%eax
    c6f8:	89 84 24 00 02 00 00 	mov    %eax,0x200(%rsp)
    c6ff:	0f ae 94 24 00 02 00 	ldmxcsr 0x200(%rsp)
    c706:	00 
    c707:	48 81 c4 10 02 00 00 	add    $0x210,%rsp
    c70e:	5d                   	pop    %rbp
    c70f:	41 5e                	pop    %r14
    c711:	41 5f                	pop    %r15
    c713:	c3                   	retq   
    c714:	0f ae 9c 24 00 02 00 	stmxcsr 0x200(%rsp)
    c71b:	00 
    c71c:	8b 84 24 00 02 00 00 	mov    0x200(%rsp),%eax
    c723:	0d 00 80 00 00       	or     $0x8000,%eax
    c728:	89 84 24 00 02 00 00 	mov    %eax,0x200(%rsp)
    c72f:	0f ae 94 24 00 02 00 	ldmxcsr 0x200(%rsp)
    c736:	00 
    c737:	eb 81                	jmp    c6ba <__intel_new_proc_init_N.J+0x5a>
    c739:	48 8d b6 00 00 00 00 	lea    0x0(%rsi),%rsi

000000000000c740 <__intel_new_proc_init_N.K>:
    c740:	41 57                	push   %r15
    c742:	41 56                	push   %r14
    c744:	55                   	push   %rbp
    c745:	48 81 ec 10 02 00 00 	sub    $0x210,%rsp
    c74c:	41 89 ff             	mov    %edi,%r15d
    c74f:	44 89 fd             	mov    %r15d,%ebp
    c752:	83 e5 02             	and    $0x2,%ebp
    c755:	45 89 fe             	mov    %r15d,%r14d
    c758:	41 83 e6 04          	and    $0x4,%r14d
    c75c:	74 2c                	je     c78a <__intel_new_proc_init_N.K+0x4a>
    c75e:	48 8d 3c 24          	lea    (%rsp),%rdi
    c762:	33 f6                	xor    %esi,%esi
    c764:	ba 00 02 00 00       	mov    $0x200,%edx
    c769:	e8 6a ee ff ff       	callq  b5d8 <strchr@plt+0x8>
    c76e:	0f ae 04 24          	fxsave (%rsp)
    c772:	8b 54 24 1c          	mov    0x1c(%rsp),%edx
    c776:	33 c9                	xor    %ecx,%ecx
    c778:	89 d0                	mov    %edx,%eax
    c77a:	83 e0 40             	and    $0x40,%eax
    c77d:	0f 44 e9             	cmove  %ecx,%ebp
    c780:	81 e2 00 00 02 00    	and    $0x20000,%edx
    c786:	44 0f 44 f1          	cmove  %ecx,%r14d
    c78a:	41 f7 c7 01 00 00 00 	test   $0x1,%r15d
    c791:	75 5a                	jne    c7ed <__intel_new_proc_init_N.K+0xad>
    c793:	85 ed                	test   %ebp,%ebp
    c795:	74 21                	je     c7b8 <__intel_new_proc_init_N.K+0x78>
    c797:	0f ae 9c 24 00 02 00 	stmxcsr 0x200(%rsp)
    c79e:	00 
    c79f:	8b 84 24 00 02 00 00 	mov    0x200(%rsp),%eax
    c7a6:	83 c8 40             	or     $0x40,%eax
    c7a9:	89 84 24 00 02 00 00 	mov    %eax,0x200(%rsp)
    c7b0:	0f ae 94 24 00 02 00 	ldmxcsr 0x200(%rsp)
    c7b7:	00 
    c7b8:	45 85 f6             	test   %r14d,%r14d
    c7bb:	74 23                	je     c7e0 <__intel_new_proc_init_N.K+0xa0>
    c7bd:	0f ae 9c 24 00 02 00 	stmxcsr 0x200(%rsp)
    c7c4:	00 
    c7c5:	8b 84 24 00 02 00 00 	mov    0x200(%rsp),%eax
    c7cc:	0d 00 00 02 00       	or     $0x20000,%eax
    c7d1:	89 84 24 00 02 00 00 	mov    %eax,0x200(%rsp)
    c7d8:	0f ae 94 24 00 02 00 	ldmxcsr 0x200(%rsp)
    c7df:	00 
    c7e0:	48 81 c4 10 02 00 00 	add    $0x210,%rsp
    c7e7:	5d                   	pop    %rbp
    c7e8:	41 5e                	pop    %r14
    c7ea:	41 5f                	pop    %r15
    c7ec:	c3                   	retq   
    c7ed:	0f ae 9c 24 00 02 00 	stmxcsr 0x200(%rsp)
    c7f4:	00 
    c7f5:	8b 84 24 00 02 00 00 	mov    0x200(%rsp),%eax
    c7fc:	0d 00 80 00 00       	or     $0x8000,%eax
    c801:	89 84 24 00 02 00 00 	mov    %eax,0x200(%rsp)
    c808:	0f ae 94 24 00 02 00 	ldmxcsr 0x200(%rsp)
    c80f:	00 
    c810:	eb 81                	jmp    c793 <__intel_new_proc_init_N.K+0x53>
    c812:	48 8d b6 00 00 00 00 	lea    0x0(%rsi),%rsi
    c819:	48 8d bf 00 00 00 00 	lea    0x0(%rdi),%rdi

000000000000c820 <__intel_new_proc_init_N.L>:
    c820:	41 57                	push   %r15
    c822:	41 56                	push   %r14
    c824:	55                   	push   %rbp
    c825:	48 81 ec 10 02 00 00 	sub    $0x210,%rsp
    c82c:	41 89 ff             	mov    %edi,%r15d
    c82f:	44 89 fd             	mov    %r15d,%ebp
    c832:	83 e5 02             	and    $0x2,%ebp
    c835:	45 89 fe             	mov    %r15d,%r14d
    c838:	41 83 e6 04          	and    $0x4,%r14d
    c83c:	74 2c                	je     c86a <__intel_new_proc_init_N.L+0x4a>
    c83e:	48 8d 3c 24          	lea    (%rsp),%rdi
    c842:	33 f6                	xor    %esi,%esi
    c844:	ba 00 02 00 00       	mov    $0x200,%edx
    c849:	e8 8a ed ff ff       	callq  b5d8 <strchr@plt+0x8>
    c84e:	0f ae 04 24          	fxsave (%rsp)
    c852:	8b 54 24 1c          	mov    0x1c(%rsp),%edx
    c856:	33 c9                	xor    %ecx,%ecx
    c858:	89 d0                	mov    %edx,%eax
    c85a:	83 e0 40             	and    $0x40,%eax
    c85d:	0f 44 e9             	cmove  %ecx,%ebp
    c860:	81 e2 00 00 02 00    	and    $0x20000,%edx
    c866:	44 0f 44 f1          	cmove  %ecx,%r14d
    c86a:	41 f7 c7 01 00 00 00 	test   $0x1,%r15d
    c871:	75 5a                	jne    c8cd <__intel_new_proc_init_N.L+0xad>
    c873:	85 ed                	test   %ebp,%ebp
    c875:	74 21                	je     c898 <__intel_new_proc_init_N.L+0x78>
    c877:	0f ae 9c 24 00 02 00 	stmxcsr 0x200(%rsp)
    c87e:	00 
    c87f:	8b 84 24 00 02 00 00 	mov    0x200(%rsp),%eax
    c886:	83 c8 40             	or     $0x40,%eax
    c889:	89 84 24 00 02 00 00 	mov    %eax,0x200(%rsp)
    c890:	0f ae 94 24 00 02 00 	ldmxcsr 0x200(%rsp)
    c897:	00 
    c898:	45 85 f6             	test   %r14d,%r14d
    c89b:	74 23                	je     c8c0 <__intel_new_proc_init_N.L+0xa0>
    c89d:	0f ae 9c 24 00 02 00 	stmxcsr 0x200(%rsp)
    c8a4:	00 
    c8a5:	8b 84 24 00 02 00 00 	mov    0x200(%rsp),%eax
    c8ac:	0d 00 00 02 00       	or     $0x20000,%eax
    c8b1:	89 84 24 00 02 00 00 	mov    %eax,0x200(%rsp)
    c8b8:	0f ae 94 24 00 02 00 	ldmxcsr 0x200(%rsp)
    c8bf:	00 
    c8c0:	48 81 c4 10 02 00 00 	add    $0x210,%rsp
    c8c7:	5d                   	pop    %rbp
    c8c8:	41 5e                	pop    %r14
    c8ca:	41 5f                	pop    %r15
    c8cc:	c3                   	retq   
    c8cd:	0f ae 9c 24 00 02 00 	stmxcsr 0x200(%rsp)
    c8d4:	00 
    c8d5:	8b 84 24 00 02 00 00 	mov    0x200(%rsp),%eax
    c8dc:	0d 00 80 00 00       	or     $0x8000,%eax
    c8e1:	89 84 24 00 02 00 00 	mov    %eax,0x200(%rsp)
    c8e8:	0f ae 94 24 00 02 00 	ldmxcsr 0x200(%rsp)
    c8ef:	00 
    c8f0:	eb 81                	jmp    c873 <__intel_new_proc_init_N.L+0x53>
    c8f2:	48 8d b6 00 00 00 00 	lea    0x0(%rsi),%rsi
    c8f9:	48 8d bf 00 00 00 00 	lea    0x0(%rdi),%rdi

000000000000c900 <__intel_new_proc_init_N>:
    c900:	48 8b 05 a1 36 10 00 	mov    1062561(%rip),%rax        # 10ffa8 <_IO_stdin_used+0x101fa8>
    c907:	8b 00                	mov    (%rax),%eax
    c909:	a9 00 f8 ff ff       	test   $0xfffff800,%eax
    c90e:	0f 85 0c ff ff ff    	jne    c820 <__intel_new_proc_init_N.L>
    c914:	a9 00 04 00 00       	test   $0x400,%eax
    c919:	0f 85 21 fe ff ff    	jne    c740 <__intel_new_proc_init_N.K>
    c91f:	a9 00 fe ff ff       	test   $0xfffffe00,%eax
    c924:	0f 85 36 fd ff ff    	jne    c660 <__intel_new_proc_init_N.J>
    c92a:	a9 ff ff ff ff       	test   $0xffffffff,%eax
    c92f:	0f 85 ab fc ff ff    	jne    c5e0 <__intel_new_proc_init_N.A>
    c935:	48 83 ec 08          	sub    $0x8,%rsp
    c939:	e8 72 14 00 00       	callq  ddb0 <__intel_cpu_indicator_init>
    c93e:	48 83 c4 08          	add    $0x8,%rsp
    c942:	eb bc                	jmp    c900 <__intel_new_proc_init_N>
    c944:	90                   	nop    
    c945:	48 8d 74 26 00       	lea    0x0(%rsi),%rsi
    c94a:	90                   	nop    
    c94b:	48 8d 7c 27 00       	lea    0x0(%rdi),%rdi

000000000000c950 <__intel_proc_init_B.A>:
    c950:	48 81 ec 08 02 00 00 	sub    $0x208,%rsp
    c957:	bf 01 00 00 00       	mov    $0x1,%edi
    c95c:	33 f6                	xor    %esi,%esi
    c95e:	33 d2                	xor    %edx,%edx
    c960:	33 c0                	xor    %eax,%eax
    c962:	e8 09 10 00 00       	callq  d970 <irc__print>
    c967:	bf 01 00 00 00       	mov    $0x1,%edi
    c96c:	be 17 00 00 00       	mov    $0x17,%esi
    c971:	33 d2                	xor    %edx,%edx
    c973:	33 c0                	xor    %eax,%eax
    c975:	e8 f6 0f 00 00       	callq  d970 <irc__print>
    c97a:	bf 2c 00 00 00       	mov    $0x2c,%edi
    c97f:	33 f6                	xor    %esi,%esi
    c981:	33 c0                	xor    %eax,%eax
    c983:	e8 38 12 00 00       	callq  dbc0 <irc__get_msg>
    c988:	48 8d 3c 24          	lea    (%rsp),%rdi
    c98c:	48 89 c6             	mov    %rax,%rsi
    c98f:	ba 00 02 00 00       	mov    $0x200,%edx
    c994:	e8 df eb ff ff       	callq  b578 <getenv@plt+0x8>
    c999:	48 8d 0c 24          	lea    (%rsp),%rcx
    c99d:	bf 01 00 00 00       	mov    $0x1,%edi
    c9a2:	be 18 00 00 00       	mov    $0x18,%esi
    c9a7:	89 fa                	mov    %edi,%edx
    c9a9:	33 c0                	xor    %eax,%eax
    c9ab:	e8 c0 0f 00 00       	callq  d970 <irc__print>
    c9b0:	bf 01 00 00 00       	mov    $0x1,%edi
    c9b5:	33 f6                	xor    %esi,%esi
    c9b7:	33 d2                	xor    %edx,%edx
    c9b9:	33 c0                	xor    %eax,%eax
    c9bb:	e8 b0 0f 00 00       	callq  d970 <irc__print>
    c9c0:	bf 01 00 00 00       	mov    $0x1,%edi
    c9c5:	e8 1e ec ff ff       	callq  b5e8 <memset@plt+0x8>
    c9ca:	90                   	nop    
    c9cb:	48 8d 74 26 00       	lea    0x0(%rsi),%rsi

000000000000c9d0 <__intel_proc_init_B.J>:
    c9d0:	48 81 ec 08 02 00 00 	sub    $0x208,%rsp
    c9d7:	48 8d 3c 24          	lea    (%rsp),%rdi
    c9db:	33 f6                	xor    %esi,%esi
    c9dd:	ba 00 02 00 00       	mov    $0x200,%edx
    c9e2:	e8 f1 eb ff ff       	callq  b5d8 <strchr@plt+0x8>
    c9e7:	0f ae 04 24          	fxsave (%rsp)
    c9eb:	8b 54 24 1c          	mov    0x1c(%rsp),%edx
    c9ef:	0f ae 9c 24 00 02 00 	stmxcsr 0x200(%rsp)
    c9f6:	00 
    c9f7:	8b 84 24 00 02 00 00 	mov    0x200(%rsp),%eax
    c9fe:	83 e2 40             	and    $0x40,%edx
    ca01:	0d 00 80 00 00       	or     $0x8000,%eax
    ca06:	89 84 24 00 02 00 00 	mov    %eax,0x200(%rsp)
    ca0d:	0f ae 94 24 00 02 00 	ldmxcsr 0x200(%rsp)
    ca14:	00 
    ca15:	85 d2                	test   %edx,%edx
    ca17:	74 21                	je     ca3a <__intel_proc_init_B.J+0x6a>
    ca19:	0f ae 9c 24 00 02 00 	stmxcsr 0x200(%rsp)
    ca20:	00 
    ca21:	8b 84 24 00 02 00 00 	mov    0x200(%rsp),%eax
    ca28:	83 c8 40             	or     $0x40,%eax
    ca2b:	89 84 24 00 02 00 00 	mov    %eax,0x200(%rsp)
    ca32:	0f ae 94 24 00 02 00 	ldmxcsr 0x200(%rsp)
    ca39:	00 
    ca3a:	48 81 c4 08 02 00 00 	add    $0x208,%rsp
    ca41:	c3                   	retq   
    ca42:	48 8d b6 00 00 00 00 	lea    0x0(%rsi),%rsi
    ca49:	48 8d bf 00 00 00 00 	lea    0x0(%rdi),%rdi

000000000000ca50 <__intel_proc_init_B.K>:
    ca50:	0f ae 5c 24 f8       	stmxcsr 0xfffffffffffffff8(%rsp)
    ca55:	8b 44 24 f8          	mov    0xfffffffffffffff8(%rsp),%eax
    ca59:	0d 00 80 00 00       	or     $0x8000,%eax
    ca5e:	89 44 24 f8          	mov    %eax,0xfffffffffffffff8(%rsp)
    ca62:	0f ae 54 24 f8       	ldmxcsr 0xfffffffffffffff8(%rsp)
    ca67:	0f ae 5c 24 f8       	stmxcsr 0xfffffffffffffff8(%rsp)
    ca6c:	8b 44 24 f8          	mov    0xfffffffffffffff8(%rsp),%eax
    ca70:	83 c8 40             	or     $0x40,%eax
    ca73:	89 44 24 f8          	mov    %eax,0xfffffffffffffff8(%rsp)
    ca77:	0f ae 54 24 f8       	ldmxcsr 0xfffffffffffffff8(%rsp)
    ca7c:	c3                   	retq   
    ca7d:	48 89 f6             	mov    %rsi,%rsi

000000000000ca80 <__intel_proc_init_B.L>:
    ca80:	0f ae 5c 24 f8       	stmxcsr 0xfffffffffffffff8(%rsp)
    ca85:	8b 44 24 f8          	mov    0xfffffffffffffff8(%rsp),%eax
    ca89:	0d 00 80 00 00       	or     $0x8000,%eax
    ca8e:	89 44 24 f8          	mov    %eax,0xfffffffffffffff8(%rsp)
    ca92:	0f ae 54 24 f8       	ldmxcsr 0xfffffffffffffff8(%rsp)
    ca97:	0f ae 5c 24 f8       	stmxcsr 0xfffffffffffffff8(%rsp)
    ca9c:	8b 44 24 f8          	mov    0xfffffffffffffff8(%rsp),%eax
    caa0:	83 c8 40             	or     $0x40,%eax
    caa3:	89 44 24 f8          	mov    %eax,0xfffffffffffffff8(%rsp)
    caa7:	0f ae 54 24 f8       	ldmxcsr 0xfffffffffffffff8(%rsp)
    caac:	c3                   	retq   
    caad:	48 89 f6             	mov    %rsi,%rsi

000000000000cab0 <__intel_proc_init_B>:
    cab0:	48 8b 05 f1 34 10 00 	mov    1062129(%rip),%rax        # 10ffa8 <_IO_stdin_used+0x101fa8>
    cab7:	8b 00                	mov    (%rax),%eax
    cab9:	a9 00 f8 ff ff       	test   $0xfffff800,%eax
    cabe:	0f 85 bc ff ff ff    	jne    ca80 <__intel_proc_init_B.L>
    cac4:	a9 00 04 00 00       	test   $0x400,%eax
    cac9:	0f 85 81 ff ff ff    	jne    ca50 <__intel_proc_init_B.K>
    cacf:	a9 00 fe ff ff       	test   $0xfffffe00,%eax
    cad4:	0f 85 f6 fe ff ff    	jne    c9d0 <__intel_proc_init_B.J>
    cada:	a9 ff ff ff ff       	test   $0xffffffff,%eax
    cadf:	0f 85 6b fe ff ff    	jne    c950 <__intel_proc_init_B.A>
    cae5:	48 83 ec 08          	sub    $0x8,%rsp
    cae9:	e8 c2 12 00 00       	callq  ddb0 <__intel_cpu_indicator_init>
    caee:	48 83 c4 08          	add    $0x8,%rsp
    caf2:	eb bc                	jmp    cab0 <__intel_proc_init_B>
    caf4:	90                   	nop    
    caf5:	48 8d 74 26 00       	lea    0x0(%rsi),%rsi
    cafa:	90                   	nop    
    cafb:	48 8d 7c 27 00       	lea    0x0(%rdi),%rdi

000000000000cb00 <__intel_new_proc_init_B.A>:
    cb00:	48 81 ec 08 02 00 00 	sub    $0x208,%rsp
    cb07:	bf 01 00 00 00       	mov    $0x1,%edi
    cb0c:	33 f6                	xor    %esi,%esi
    cb0e:	33 d2                	xor    %edx,%edx
    cb10:	33 c0                	xor    %eax,%eax
    cb12:	e8 59 0e 00 00       	callq  d970 <irc__print>
    cb17:	bf 01 00 00 00       	mov    $0x1,%edi
    cb1c:	be 17 00 00 00       	mov    $0x17,%esi
    cb21:	33 d2                	xor    %edx,%edx
    cb23:	33 c0                	xor    %eax,%eax
    cb25:	e8 46 0e 00 00       	callq  d970 <irc__print>
    cb2a:	bf 2c 00 00 00       	mov    $0x2c,%edi
    cb2f:	33 f6                	xor    %esi,%esi
    cb31:	33 c0                	xor    %eax,%eax
    cb33:	e8 88 10 00 00       	callq  dbc0 <irc__get_msg>
    cb38:	48 8d 3c 24          	lea    (%rsp),%rdi
    cb3c:	48 89 c6             	mov    %rax,%rsi
    cb3f:	ba 00 02 00 00       	mov    $0x200,%edx
    cb44:	e8 2f ea ff ff       	callq  b578 <getenv@plt+0x8>
    cb49:	48 8d 0c 24          	lea    (%rsp),%rcx
    cb4d:	bf 01 00 00 00       	mov    $0x1,%edi
    cb52:	be 18 00 00 00       	mov    $0x18,%esi
    cb57:	89 fa                	mov    %edi,%edx
    cb59:	33 c0                	xor    %eax,%eax
    cb5b:	e8 10 0e 00 00       	callq  d970 <irc__print>
    cb60:	bf 01 00 00 00       	mov    $0x1,%edi
    cb65:	33 f6                	xor    %esi,%esi
    cb67:	33 d2                	xor    %edx,%edx
    cb69:	33 c0                	xor    %eax,%eax
    cb6b:	e8 00 0e 00 00       	callq  d970 <irc__print>
    cb70:	bf 01 00 00 00       	mov    $0x1,%edi
    cb75:	e8 6e ea ff ff       	callq  b5e8 <memset@plt+0x8>
    cb7a:	90                   	nop    
    cb7b:	48 8d 74 26 00       	lea    0x0(%rsi),%rsi

000000000000cb80 <__intel_new_proc_init_B.J>:
    cb80:	41 57                	push   %r15
    cb82:	41 56                	push   %r14
    cb84:	55                   	push   %rbp
    cb85:	48 81 ec 10 02 00 00 	sub    $0x210,%rsp
    cb8c:	41 89 ff             	mov    %edi,%r15d
    cb8f:	44 89 fd             	mov    %r15d,%ebp
    cb92:	83 e5 02             	and    $0x2,%ebp
    cb95:	45 89 fe             	mov    %r15d,%r14d
    cb98:	41 83 e6 04          	and    $0x4,%r14d
    cb9c:	85 ed                	test   %ebp,%ebp
    cb9e:	75 05                	jne    cba5 <__intel_new_proc_init_B.J+0x25>
    cba0:	45 85 f6             	test   %r14d,%r14d
    cba3:	74 2c                	je     cbd1 <__intel_new_proc_init_B.J+0x51>
    cba5:	48 8d 3c 24          	lea    (%rsp),%rdi
    cba9:	33 f6                	xor    %esi,%esi
    cbab:	ba 00 02 00 00       	mov    $0x200,%edx
    cbb0:	e8 23 ea ff ff       	callq  b5d8 <strchr@plt+0x8>
    cbb5:	0f ae 04 24          	fxsave (%rsp)
    cbb9:	8b 54 24 1c          	mov    0x1c(%rsp),%edx
    cbbd:	33 c9                	xor    %ecx,%ecx
    cbbf:	89 d0                	mov    %edx,%eax
    cbc1:	83 e0 40             	and    $0x40,%eax
    cbc4:	0f 44 e9             	cmove  %ecx,%ebp
    cbc7:	81 e2 00 00 02 00    	and    $0x20000,%edx
    cbcd:	44 0f 44 f1          	cmove  %ecx,%r14d
    cbd1:	41 f7 c7 01 00 00 00 	test   $0x1,%r15d
    cbd8:	75 5a                	jne    cc34 <__intel_new_proc_init_B.J+0xb4>
    cbda:	85 ed                	test   %ebp,%ebp
    cbdc:	74 21                	je     cbff <__intel_new_proc_init_B.J+0x7f>
    cbde:	0f ae 9c 24 00 02 00 	stmxcsr 0x200(%rsp)
    cbe5:	00 
    cbe6:	8b 84 24 00 02 00 00 	mov    0x200(%rsp),%eax
    cbed:	83 c8 40             	or     $0x40,%eax
    cbf0:	89 84 24 00 02 00 00 	mov    %eax,0x200(%rsp)
    cbf7:	0f ae 94 24 00 02 00 	ldmxcsr 0x200(%rsp)
    cbfe:	00 
    cbff:	45 85 f6             	test   %r14d,%r14d
    cc02:	74 23                	je     cc27 <__intel_new_proc_init_B.J+0xa7>
    cc04:	0f ae 9c 24 00 02 00 	stmxcsr 0x200(%rsp)
    cc0b:	00 
    cc0c:	8b 84 24 00 02 00 00 	mov    0x200(%rsp),%eax
    cc13:	0d 00 00 02 00       	or     $0x20000,%eax
    cc18:	89 84 24 00 02 00 00 	mov    %eax,0x200(%rsp)
    cc1f:	0f ae 94 24 00 02 00 	ldmxcsr 0x200(%rsp)
    cc26:	00 
    cc27:	48 81 c4 10 02 00 00 	add    $0x210,%rsp
    cc2e:	5d                   	pop    %rbp
    cc2f:	41 5e                	pop    %r14
    cc31:	41 5f                	pop    %r15
    cc33:	c3                   	retq   
    cc34:	0f ae 9c 24 00 02 00 	stmxcsr 0x200(%rsp)
    cc3b:	00 
    cc3c:	8b 84 24 00 02 00 00 	mov    0x200(%rsp),%eax
    cc43:	0d 00 80 00 00       	or     $0x8000,%eax
    cc48:	89 84 24 00 02 00 00 	mov    %eax,0x200(%rsp)
    cc4f:	0f ae 94 24 00 02 00 	ldmxcsr 0x200(%rsp)
    cc56:	00 
    cc57:	eb 81                	jmp    cbda <__intel_new_proc_init_B.J+0x5a>
    cc59:	48 8d b6 00 00 00 00 	lea    0x0(%rsi),%rsi

000000000000cc60 <__intel_new_proc_init_B.K>:
    cc60:	41 57                	push   %r15
    cc62:	41 56                	push   %r14
    cc64:	55                   	push   %rbp
    cc65:	48 81 ec 10 02 00 00 	sub    $0x210,%rsp
    cc6c:	41 89 ff             	mov    %edi,%r15d
    cc6f:	44 89 fd             	mov    %r15d,%ebp
    cc72:	83 e5 02             	and    $0x2,%ebp
    cc75:	45 89 fe             	mov    %r15d,%r14d
    cc78:	41 83 e6 04          	and    $0x4,%r14d
    cc7c:	74 2c                	je     ccaa <__intel_new_proc_init_B.K+0x4a>
    cc7e:	48 8d 3c 24          	lea    (%rsp),%rdi
    cc82:	33 f6                	xor    %esi,%esi
    cc84:	ba 00 02 00 00       	mov    $0x200,%edx
    cc89:	e8 4a e9 ff ff       	callq  b5d8 <strchr@plt+0x8>
    cc8e:	0f ae 04 24          	fxsave (%rsp)
    cc92:	8b 54 24 1c          	mov    0x1c(%rsp),%edx
    cc96:	33 c9                	xor    %ecx,%ecx
    cc98:	89 d0                	mov    %edx,%eax
    cc9a:	83 e0 40             	and    $0x40,%eax
    cc9d:	0f 44 e9             	cmove  %ecx,%ebp
    cca0:	81 e2 00 00 02 00    	and    $0x20000,%edx
    cca6:	44 0f 44 f1          	cmove  %ecx,%r14d
    ccaa:	41 f7 c7 01 00 00 00 	test   $0x1,%r15d
    ccb1:	75 5a                	jne    cd0d <__intel_new_proc_init_B.K+0xad>
    ccb3:	85 ed                	test   %ebp,%ebp
    ccb5:	74 21                	je     ccd8 <__intel_new_proc_init_B.K+0x78>
    ccb7:	0f ae 9c 24 00 02 00 	stmxcsr 0x200(%rsp)
    ccbe:	00 
    ccbf:	8b 84 24 00 02 00 00 	mov    0x200(%rsp),%eax
    ccc6:	83 c8 40             	or     $0x40,%eax
    ccc9:	89 84 24 00 02 00 00 	mov    %eax,0x200(%rsp)
    ccd0:	0f ae 94 24 00 02 00 	ldmxcsr 0x200(%rsp)
    ccd7:	00 
    ccd8:	45 85 f6             	test   %r14d,%r14d
    ccdb:	74 23                	je     cd00 <__intel_new_proc_init_B.K+0xa0>
    ccdd:	0f ae 9c 24 00 02 00 	stmxcsr 0x200(%rsp)
    cce4:	00 
    cce5:	8b 84 24 00 02 00 00 	mov    0x200(%rsp),%eax
    ccec:	0d 00 00 02 00       	or     $0x20000,%eax
    ccf1:	89 84 24 00 02 00 00 	mov    %eax,0x200(%rsp)
    ccf8:	0f ae 94 24 00 02 00 	ldmxcsr 0x200(%rsp)
    ccff:	00 
    cd00:	48 81 c4 10 02 00 00 	add    $0x210,%rsp
    cd07:	5d                   	pop    %rbp
    cd08:	41 5e                	pop    %r14
    cd0a:	41 5f                	pop    %r15
    cd0c:	c3                   	retq   
    cd0d:	0f ae 9c 24 00 02 00 	stmxcsr 0x200(%rsp)
    cd14:	00 
    cd15:	8b 84 24 00 02 00 00 	mov    0x200(%rsp),%eax
    cd1c:	0d 00 80 00 00       	or     $0x8000,%eax
    cd21:	89 84 24 00 02 00 00 	mov    %eax,0x200(%rsp)
    cd28:	0f ae 94 24 00 02 00 	ldmxcsr 0x200(%rsp)
    cd2f:	00 
    cd30:	eb 81                	jmp    ccb3 <__intel_new_proc_init_B.K+0x53>
    cd32:	48 8d b6 00 00 00 00 	lea    0x0(%rsi),%rsi
    cd39:	48 8d bf 00 00 00 00 	lea    0x0(%rdi),%rdi

000000000000cd40 <__intel_new_proc_init_B.L>:
    cd40:	41 57                	push   %r15
    cd42:	41 56                	push   %r14
    cd44:	55                   	push   %rbp
    cd45:	48 81 ec 10 02 00 00 	sub    $0x210,%rsp
    cd4c:	41 89 ff             	mov    %edi,%r15d
    cd4f:	44 89 fd             	mov    %r15d,%ebp
    cd52:	83 e5 02             	and    $0x2,%ebp
    cd55:	45 89 fe             	mov    %r15d,%r14d
    cd58:	41 83 e6 04          	and    $0x4,%r14d
    cd5c:	74 2c                	je     cd8a <__intel_new_proc_init_B.L+0x4a>
    cd5e:	48 8d 3c 24          	lea    (%rsp),%rdi
    cd62:	33 f6                	xor    %esi,%esi
    cd64:	ba 00 02 00 00       	mov    $0x200,%edx
    cd69:	e8 6a e8 ff ff       	callq  b5d8 <strchr@plt+0x8>
    cd6e:	0f ae 04 24          	fxsave (%rsp)
    cd72:	8b 54 24 1c          	mov    0x1c(%rsp),%edx
    cd76:	33 c9                	xor    %ecx,%ecx
    cd78:	89 d0                	mov    %edx,%eax
    cd7a:	83 e0 40             	and    $0x40,%eax
    cd7d:	0f 44 e9             	cmove  %ecx,%ebp
    cd80:	81 e2 00 00 02 00    	and    $0x20000,%edx
    cd86:	44 0f 44 f1          	cmove  %ecx,%r14d
    cd8a:	41 f7 c7 01 00 00 00 	test   $0x1,%r15d
    cd91:	75 5a                	jne    cded <__intel_new_proc_init_B.L+0xad>
    cd93:	85 ed                	test   %ebp,%ebp
    cd95:	74 21                	je     cdb8 <__intel_new_proc_init_B.L+0x78>
    cd97:	0f ae 9c 24 00 02 00 	stmxcsr 0x200(%rsp)
    cd9e:	00 
    cd9f:	8b 84 24 00 02 00 00 	mov    0x200(%rsp),%eax
    cda6:	83 c8 40             	or     $0x40,%eax
    cda9:	89 84 24 00 02 00 00 	mov    %eax,0x200(%rsp)
    cdb0:	0f ae 94 24 00 02 00 	ldmxcsr 0x200(%rsp)
    cdb7:	00 
    cdb8:	45 85 f6             	test   %r14d,%r14d
    cdbb:	74 23                	je     cde0 <__intel_new_proc_init_B.L+0xa0>
    cdbd:	0f ae 9c 24 00 02 00 	stmxcsr 0x200(%rsp)
    cdc4:	00 
    cdc5:	8b 84 24 00 02 00 00 	mov    0x200(%rsp),%eax
    cdcc:	0d 00 00 02 00       	or     $0x20000,%eax
    cdd1:	89 84 24 00 02 00 00 	mov    %eax,0x200(%rsp)
    cdd8:	0f ae 94 24 00 02 00 	ldmxcsr 0x200(%rsp)
    cddf:	00 
    cde0:	48 81 c4 10 02 00 00 	add    $0x210,%rsp
    cde7:	5d                   	pop    %rbp
    cde8:	41 5e                	pop    %r14
    cdea:	41 5f                	pop    %r15
    cdec:	c3                   	retq   
    cded:	0f ae 9c 24 00 02 00 	stmxcsr 0x200(%rsp)
    cdf4:	00 
    cdf5:	8b 84 24 00 02 00 00 	mov    0x200(%rsp),%eax
    cdfc:	0d 00 80 00 00       	or     $0x8000,%eax
    ce01:	89 84 24 00 02 00 00 	mov    %eax,0x200(%rsp)
    ce08:	0f ae 94 24 00 02 00 	ldmxcsr 0x200(%rsp)
    ce0f:	00 
    ce10:	eb 81                	jmp    cd93 <__intel_new_proc_init_B.L+0x53>
    ce12:	48 8d b6 00 00 00 00 	lea    0x0(%rsi),%rsi
    ce19:	48 8d bf 00 00 00 00 	lea    0x0(%rdi),%rdi

000000000000ce20 <__intel_new_proc_init_B>:
    ce20:	48 8b 05 81 31 10 00 	mov    1061249(%rip),%rax        # 10ffa8 <_IO_stdin_used+0x101fa8>
    ce27:	8b 00                	mov    (%rax),%eax
    ce29:	a9 00 f8 ff ff       	test   $0xfffff800,%eax
    ce2e:	0f 85 0c ff ff ff    	jne    cd40 <__intel_new_proc_init_B.L>
    ce34:	a9 00 04 00 00       	test   $0x400,%eax
    ce39:	0f 85 21 fe ff ff    	jne    cc60 <__intel_new_proc_init_B.K>
    ce3f:	a9 00 fe ff ff       	test   $0xfffffe00,%eax
    ce44:	0f 85 36 fd ff ff    	jne    cb80 <__intel_new_proc_init_B.J>
    ce4a:	a9 ff ff ff ff       	test   $0xffffffff,%eax
    ce4f:	0f 85 ab fc ff ff    	jne    cb00 <__intel_new_proc_init_B.A>
    ce55:	48 83 ec 08          	sub    $0x8,%rsp
    ce59:	e8 52 0f 00 00       	callq  ddb0 <__intel_cpu_indicator_init>
    ce5e:	48 83 c4 08          	add    $0x8,%rsp
    ce62:	eb bc                	jmp    ce20 <__intel_new_proc_init_B>
    ce64:	90                   	nop    
    ce65:	48 8d 74 26 00       	lea    0x0(%rsi),%rsi
    ce6a:	90                   	nop    
    ce6b:	48 8d 7c 27 00       	lea    0x0(%rdi),%rdi

000000000000ce70 <__intel_proc_init_P.A>:
    ce70:	48 81 ec 08 02 00 00 	sub    $0x208,%rsp
    ce77:	bf 01 00 00 00       	mov    $0x1,%edi
    ce7c:	33 f6                	xor    %esi,%esi
    ce7e:	33 d2                	xor    %edx,%edx
    ce80:	33 c0                	xor    %eax,%eax
    ce82:	e8 e9 0a 00 00       	callq  d970 <irc__print>
    ce87:	bf 01 00 00 00       	mov    $0x1,%edi
    ce8c:	be 17 00 00 00       	mov    $0x17,%esi
    ce91:	33 d2                	xor    %edx,%edx
    ce93:	33 c0                	xor    %eax,%eax
    ce95:	e8 d6 0a 00 00       	callq  d970 <irc__print>
    ce9a:	bf 2b 00 00 00       	mov    $0x2b,%edi
    ce9f:	33 f6                	xor    %esi,%esi
    cea1:	33 c0                	xor    %eax,%eax
    cea3:	e8 18 0d 00 00       	callq  dbc0 <irc__get_msg>
    cea8:	48 8d 3c 24          	lea    (%rsp),%rdi
    ceac:	48 89 c6             	mov    %rax,%rsi
    ceaf:	ba 00 02 00 00       	mov    $0x200,%edx
    ceb4:	e8 bf e6 ff ff       	callq  b578 <getenv@plt+0x8>
    ceb9:	48 8d 0c 24          	lea    (%rsp),%rcx
    cebd:	bf 01 00 00 00       	mov    $0x1,%edi
    cec2:	be 18 00 00 00       	mov    $0x18,%esi
    cec7:	89 fa                	mov    %edi,%edx
    cec9:	33 c0                	xor    %eax,%eax
    cecb:	e8 a0 0a 00 00       	callq  d970 <irc__print>
    ced0:	bf 01 00 00 00       	mov    $0x1,%edi
    ced5:	33 f6                	xor    %esi,%esi
    ced7:	33 d2                	xor    %edx,%edx
    ced9:	33 c0                	xor    %eax,%eax
    cedb:	e8 90 0a 00 00       	callq  d970 <irc__print>
    cee0:	bf 01 00 00 00       	mov    $0x1,%edi
    cee5:	e8 fe e6 ff ff       	callq  b5e8 <memset@plt+0x8>
    ceea:	90                   	nop    
    ceeb:	48 8d 74 26 00       	lea    0x0(%rsi),%rsi

000000000000cef0 <__intel_proc_init_P.L>:
    cef0:	0f ae 5c 24 f8       	stmxcsr 0xfffffffffffffff8(%rsp)
    cef5:	8b 44 24 f8          	mov    0xfffffffffffffff8(%rsp),%eax
    cef9:	0d 00 80 00 00       	or     $0x8000,%eax
    cefe:	89 44 24 f8          	mov    %eax,0xfffffffffffffff8(%rsp)
    cf02:	0f ae 54 24 f8       	ldmxcsr 0xfffffffffffffff8(%rsp)
    cf07:	0f ae 5c 24 f8       	stmxcsr 0xfffffffffffffff8(%rsp)
    cf0c:	8b 44 24 f8          	mov    0xfffffffffffffff8(%rsp),%eax
    cf10:	83 c8 40             	or     $0x40,%eax
    cf13:	89 44 24 f8          	mov    %eax,0xfffffffffffffff8(%rsp)
    cf17:	0f ae 54 24 f8       	ldmxcsr 0xfffffffffffffff8(%rsp)
    cf1c:	c3                   	retq   
    cf1d:	48 89 f6             	mov    %rsi,%rsi

000000000000cf20 <__intel_proc_init_P>:
    cf20:	48 8b 05 81 30 10 00 	mov    1060993(%rip),%rax        # 10ffa8 <_IO_stdin_used+0x101fa8>
    cf27:	8b 00                	mov    (%rax),%eax
    cf29:	a9 00 f8 ff ff       	test   $0xfffff800,%eax
    cf2e:	0f 85 bc ff ff ff    	jne    cef0 <__intel_proc_init_P.L>
    cf34:	a9 ff ff ff ff       	test   $0xffffffff,%eax
    cf39:	0f 85 31 ff ff ff    	jne    ce70 <__intel_proc_init_P.A>
    cf3f:	48 83 ec 08          	sub    $0x8,%rsp
    cf43:	e8 68 0e 00 00       	callq  ddb0 <__intel_cpu_indicator_init>
    cf48:	48 83 c4 08          	add    $0x8,%rsp
    cf4c:	eb d2                	jmp    cf20 <__intel_proc_init_P>
    cf4e:	90                   	nop    
    cf4f:	90                   	nop    

000000000000cf50 <__intel_new_proc_init_P.A>:
    cf50:	48 81 ec 08 02 00 00 	sub    $0x208,%rsp
    cf57:	bf 01 00 00 00       	mov    $0x1,%edi
    cf5c:	33 f6                	xor    %esi,%esi
    cf5e:	33 d2                	xor    %edx,%edx
    cf60:	33 c0                	xor    %eax,%eax
    cf62:	e8 09 0a 00 00       	callq  d970 <irc__print>
    cf67:	bf 01 00 00 00       	mov    $0x1,%edi
    cf6c:	be 17 00 00 00       	mov    $0x17,%esi
    cf71:	33 d2                	xor    %edx,%edx
    cf73:	33 c0                	xor    %eax,%eax
    cf75:	e8 f6 09 00 00       	callq  d970 <irc__print>
    cf7a:	bf 2b 00 00 00       	mov    $0x2b,%edi
    cf7f:	33 f6                	xor    %esi,%esi
    cf81:	33 c0                	xor    %eax,%eax
    cf83:	e8 38 0c 00 00       	callq  dbc0 <irc__get_msg>
    cf88:	48 8d 3c 24          	lea    (%rsp),%rdi
    cf8c:	48 89 c6             	mov    %rax,%rsi
    cf8f:	ba 00 02 00 00       	mov    $0x200,%edx
    cf94:	e8 df e5 ff ff       	callq  b578 <getenv@plt+0x8>
    cf99:	48 8d 0c 24          	lea    (%rsp),%rcx
    cf9d:	bf 01 00 00 00       	mov    $0x1,%edi
    cfa2:	be 18 00 00 00       	mov    $0x18,%esi
    cfa7:	89 fa                	mov    %edi,%edx
    cfa9:	33 c0                	xor    %eax,%eax
    cfab:	e8 c0 09 00 00       	callq  d970 <irc__print>
    cfb0:	bf 01 00 00 00       	mov    $0x1,%edi
    cfb5:	33 f6                	xor    %esi,%esi
    cfb7:	33 d2                	xor    %edx,%edx
    cfb9:	33 c0                	xor    %eax,%eax
    cfbb:	e8 b0 09 00 00       	callq  d970 <irc__print>
    cfc0:	bf 01 00 00 00       	mov    $0x1,%edi
    cfc5:	e8 1e e6 ff ff       	callq  b5e8 <memset@plt+0x8>
    cfca:	90                   	nop    
    cfcb:	48 8d 74 26 00       	lea    0x0(%rsi),%rsi

000000000000cfd0 <__intel_new_proc_init_P.L>:
    cfd0:	41 57                	push   %r15
    cfd2:	41 56                	push   %r14
    cfd4:	55                   	push   %rbp
    cfd5:	48 81 ec 10 02 00 00 	sub    $0x210,%rsp
    cfdc:	41 89 ff             	mov    %edi,%r15d
    cfdf:	44 89 fd             	mov    %r15d,%ebp
    cfe2:	83 e5 02             	and    $0x2,%ebp
    cfe5:	45 89 fe             	mov    %r15d,%r14d
    cfe8:	41 83 e6 04          	and    $0x4,%r14d
    cfec:	74 2c                	je     d01a <__intel_new_proc_init_P.L+0x4a>
    cfee:	48 8d 3c 24          	lea    (%rsp),%rdi
    cff2:	33 f6                	xor    %esi,%esi
    cff4:	ba 00 02 00 00       	mov    $0x200,%edx
    cff9:	e8 da e5 ff ff       	callq  b5d8 <strchr@plt+0x8>
    cffe:	0f ae 04 24          	fxsave (%rsp)
    d002:	8b 54 24 1c          	mov    0x1c(%rsp),%edx
    d006:	33 c9                	xor    %ecx,%ecx
    d008:	89 d0                	mov    %edx,%eax
    d00a:	83 e0 40             	and    $0x40,%eax
    d00d:	0f 44 e9             	cmove  %ecx,%ebp
    d010:	81 e2 00 00 02 00    	and    $0x20000,%edx
    d016:	44 0f 44 f1          	cmove  %ecx,%r14d
    d01a:	41 f7 c7 01 00 00 00 	test   $0x1,%r15d
    d021:	75 5a                	jne    d07d <__intel_new_proc_init_P.L+0xad>
    d023:	85 ed                	test   %ebp,%ebp
    d025:	74 21                	je     d048 <__intel_new_proc_init_P.L+0x78>
    d027:	0f ae 9c 24 00 02 00 	stmxcsr 0x200(%rsp)
    d02e:	00 
    d02f:	8b 84 24 00 02 00 00 	mov    0x200(%rsp),%eax
    d036:	83 c8 40             	or     $0x40,%eax
    d039:	89 84 24 00 02 00 00 	mov    %eax,0x200(%rsp)
    d040:	0f ae 94 24 00 02 00 	ldmxcsr 0x200(%rsp)
    d047:	00 
    d048:	45 85 f6             	test   %r14d,%r14d
    d04b:	74 23                	je     d070 <__intel_new_proc_init_P.L+0xa0>
    d04d:	0f ae 9c 24 00 02 00 	stmxcsr 0x200(%rsp)
    d054:	00 
    d055:	8b 84 24 00 02 00 00 	mov    0x200(%rsp),%eax
    d05c:	0d 00 00 02 00       	or     $0x20000,%eax
    d061:	89 84 24 00 02 00 00 	mov    %eax,0x200(%rsp)
    d068:	0f ae 94 24 00 02 00 	ldmxcsr 0x200(%rsp)
    d06f:	00 
    d070:	48 81 c4 10 02 00 00 	add    $0x210,%rsp
    d077:	5d                   	pop    %rbp
    d078:	41 5e                	pop    %r14
    d07a:	41 5f                	pop    %r15
    d07c:	c3                   	retq   
    d07d:	0f ae 9c 24 00 02 00 	stmxcsr 0x200(%rsp)
    d084:	00 
    d085:	8b 84 24 00 02 00 00 	mov    0x200(%rsp),%eax
    d08c:	0d 00 80 00 00       	or     $0x8000,%eax
    d091:	89 84 24 00 02 00 00 	mov    %eax,0x200(%rsp)
    d098:	0f ae 94 24 00 02 00 	ldmxcsr 0x200(%rsp)
    d09f:	00 
    d0a0:	eb 81                	jmp    d023 <__intel_new_proc_init_P.L+0x53>
    d0a2:	48 8d b6 00 00 00 00 	lea    0x0(%rsi),%rsi
    d0a9:	48 8d bf 00 00 00 00 	lea    0x0(%rdi),%rdi

000000000000d0b0 <__intel_new_proc_init_P>:
    d0b0:	48 8b 05 f1 2e 10 00 	mov    1060593(%rip),%rax        # 10ffa8 <_IO_stdin_used+0x101fa8>
    d0b7:	8b 00                	mov    (%rax),%eax
    d0b9:	a9 00 f8 ff ff       	test   $0xfffff800,%eax
    d0be:	0f 85 0c ff ff ff    	jne    cfd0 <__intel_new_proc_init_P.L>
    d0c4:	a9 ff ff ff ff       	test   $0xffffffff,%eax
    d0c9:	0f 85 81 fe ff ff    	jne    cf50 <__intel_new_proc_init_P.A>
    d0cf:	48 83 ec 08          	sub    $0x8,%rsp
    d0d3:	e8 d8 0c 00 00       	callq  ddb0 <__intel_cpu_indicator_init>
    d0d8:	48 83 c4 08          	add    $0x8,%rsp
    d0dc:	eb d2                	jmp    d0b0 <__intel_new_proc_init_P>
    d0de:	90                   	nop    
    d0df:	90                   	nop    

000000000000d0e0 <__intel_proc_init_T.A>:
    d0e0:	48 81 ec 08 02 00 00 	sub    $0x208,%rsp
    d0e7:	bf 01 00 00 00       	mov    $0x1,%edi
    d0ec:	33 f6                	xor    %esi,%esi
    d0ee:	33 d2                	xor    %edx,%edx
    d0f0:	33 c0                	xor    %eax,%eax
    d0f2:	e8 79 08 00 00       	callq  d970 <irc__print>
    d0f7:	bf 01 00 00 00       	mov    $0x1,%edi
    d0fc:	be 17 00 00 00       	mov    $0x17,%esi
    d101:	33 d2                	xor    %edx,%edx
    d103:	33 c0                	xor    %eax,%eax
    d105:	e8 66 08 00 00       	callq  d970 <irc__print>
    d10a:	bf 2a 00 00 00       	mov    $0x2a,%edi
    d10f:	33 f6                	xor    %esi,%esi
    d111:	33 c0                	xor    %eax,%eax
    d113:	e8 a8 0a 00 00       	callq  dbc0 <irc__get_msg>
    d118:	48 8d 3c 24          	lea    (%rsp),%rdi
    d11c:	48 89 c6             	mov    %rax,%rsi
    d11f:	ba 00 02 00 00       	mov    $0x200,%edx
    d124:	e8 4f e4 ff ff       	callq  b578 <getenv@plt+0x8>
    d129:	48 8d 0c 24          	lea    (%rsp),%rcx
    d12d:	bf 01 00 00 00       	mov    $0x1,%edi
    d132:	be 18 00 00 00       	mov    $0x18,%esi
    d137:	89 fa                	mov    %edi,%edx
    d139:	33 c0                	xor    %eax,%eax
    d13b:	e8 30 08 00 00       	callq  d970 <irc__print>
    d140:	bf 01 00 00 00       	mov    $0x1,%edi
    d145:	33 f6                	xor    %esi,%esi
    d147:	33 d2                	xor    %edx,%edx
    d149:	33 c0                	xor    %eax,%eax
    d14b:	e8 20 08 00 00       	callq  d970 <irc__print>
    d150:	bf 01 00 00 00       	mov    $0x1,%edi
    d155:	e8 8e e4 ff ff       	callq  b5e8 <memset@plt+0x8>
    d15a:	90                   	nop    
    d15b:	48 8d 74 26 00       	lea    0x0(%rsi),%rsi

000000000000d160 <__intel_proc_init_T.M>:
    d160:	0f ae 5c 24 f8       	stmxcsr 0xfffffffffffffff8(%rsp)
    d165:	8b 44 24 f8          	mov    0xfffffffffffffff8(%rsp),%eax
    d169:	0d 00 80 00 00       	or     $0x8000,%eax
    d16e:	89 44 24 f8          	mov    %eax,0xfffffffffffffff8(%rsp)
    d172:	0f ae 54 24 f8       	ldmxcsr 0xfffffffffffffff8(%rsp)
    d177:	0f ae 5c 24 f8       	stmxcsr 0xfffffffffffffff8(%rsp)
    d17c:	8b 44 24 f8          	mov    0xfffffffffffffff8(%rsp),%eax
    d180:	83 c8 40             	or     $0x40,%eax
    d183:	89 44 24 f8          	mov    %eax,0xfffffffffffffff8(%rsp)
    d187:	0f ae 54 24 f8       	ldmxcsr 0xfffffffffffffff8(%rsp)
    d18c:	c3                   	retq   
    d18d:	48 89 f6             	mov    %rsi,%rsi

000000000000d190 <__intel_proc_init_T>:
    d190:	48 8b 05 11 2e 10 00 	mov    1060369(%rip),%rax        # 10ffa8 <_IO_stdin_used+0x101fa8>
    d197:	8b 00                	mov    (%rax),%eax
    d199:	a9 00 f0 ff ff       	test   $0xfffff000,%eax
    d19e:	0f 85 bc ff ff ff    	jne    d160 <__intel_proc_init_T.M>
    d1a4:	a9 ff ff ff ff       	test   $0xffffffff,%eax
    d1a9:	0f 85 31 ff ff ff    	jne    d0e0 <__intel_proc_init_T.A>
    d1af:	48 83 ec 08          	sub    $0x8,%rsp
    d1b3:	e8 f8 0b 00 00       	callq  ddb0 <__intel_cpu_indicator_init>
    d1b8:	48 83 c4 08          	add    $0x8,%rsp
    d1bc:	eb d2                	jmp    d190 <__intel_proc_init_T>
    d1be:	90                   	nop    
    d1bf:	90                   	nop    

000000000000d1c0 <__intel_new_proc_init_T.A>:
    d1c0:	48 81 ec 08 02 00 00 	sub    $0x208,%rsp
    d1c7:	bf 01 00 00 00       	mov    $0x1,%edi
    d1cc:	33 f6                	xor    %esi,%esi
    d1ce:	33 d2                	xor    %edx,%edx
    d1d0:	33 c0                	xor    %eax,%eax
    d1d2:	e8 99 07 00 00       	callq  d970 <irc__print>
    d1d7:	bf 01 00 00 00       	mov    $0x1,%edi
    d1dc:	be 17 00 00 00       	mov    $0x17,%esi
    d1e1:	33 d2                	xor    %edx,%edx
    d1e3:	33 c0                	xor    %eax,%eax
    d1e5:	e8 86 07 00 00       	callq  d970 <irc__print>
    d1ea:	bf 2a 00 00 00       	mov    $0x2a,%edi
    d1ef:	33 f6                	xor    %esi,%esi
    d1f1:	33 c0                	xor    %eax,%eax
    d1f3:	e8 c8 09 00 00       	callq  dbc0 <irc__get_msg>
    d1f8:	48 8d 3c 24          	lea    (%rsp),%rdi
    d1fc:	48 89 c6             	mov    %rax,%rsi
    d1ff:	ba 00 02 00 00       	mov    $0x200,%edx
    d204:	e8 6f e3 ff ff       	callq  b578 <getenv@plt+0x8>
    d209:	48 8d 0c 24          	lea    (%rsp),%rcx
    d20d:	bf 01 00 00 00       	mov    $0x1,%edi
    d212:	be 18 00 00 00       	mov    $0x18,%esi
    d217:	89 fa                	mov    %edi,%edx
    d219:	33 c0                	xor    %eax,%eax
    d21b:	e8 50 07 00 00       	callq  d970 <irc__print>
    d220:	bf 01 00 00 00       	mov    $0x1,%edi
    d225:	33 f6                	xor    %esi,%esi
    d227:	33 d2                	xor    %edx,%edx
    d229:	33 c0                	xor    %eax,%eax
    d22b:	e8 40 07 00 00       	callq  d970 <irc__print>
    d230:	bf 01 00 00 00       	mov    $0x1,%edi
    d235:	e8 ae e3 ff ff       	callq  b5e8 <memset@plt+0x8>
    d23a:	90                   	nop    
    d23b:	48 8d 74 26 00       	lea    0x0(%rsi),%rsi

000000000000d240 <__intel_new_proc_init_T.M>:
    d240:	41 57                	push   %r15
    d242:	41 56                	push   %r14
    d244:	55                   	push   %rbp
    d245:	48 81 ec 10 02 00 00 	sub    $0x210,%rsp
    d24c:	41 89 ff             	mov    %edi,%r15d
    d24f:	44 89 fd             	mov    %r15d,%ebp
    d252:	83 e5 02             	and    $0x2,%ebp
    d255:	45 89 fe             	mov    %r15d,%r14d
    d258:	41 83 e6 04          	and    $0x4,%r14d
    d25c:	74 2c                	je     d28a <__intel_new_proc_init_T.M+0x4a>
    d25e:	48 8d 3c 24          	lea    (%rsp),%rdi
    d262:	33 f6                	xor    %esi,%esi
    d264:	ba 00 02 00 00       	mov    $0x200,%edx
    d269:	e8 6a e3 ff ff       	callq  b5d8 <strchr@plt+0x8>
    d26e:	0f ae 04 24          	fxsave (%rsp)
    d272:	8b 54 24 1c          	mov    0x1c(%rsp),%edx
    d276:	33 c9                	xor    %ecx,%ecx
    d278:	89 d0                	mov    %edx,%eax
    d27a:	83 e0 40             	and    $0x40,%eax
    d27d:	0f 44 e9             	cmove  %ecx,%ebp
    d280:	81 e2 00 00 02 00    	and    $0x20000,%edx
    d286:	44 0f 44 f1          	cmove  %ecx,%r14d
    d28a:	41 f7 c7 01 00 00 00 	test   $0x1,%r15d
    d291:	75 5a                	jne    d2ed <__intel_new_proc_init_T.M+0xad>
    d293:	85 ed                	test   %ebp,%ebp
    d295:	74 21                	je     d2b8 <__intel_new_proc_init_T.M+0x78>
    d297:	0f ae 9c 24 00 02 00 	stmxcsr 0x200(%rsp)
    d29e:	00 
    d29f:	8b 84 24 00 02 00 00 	mov    0x200(%rsp),%eax
    d2a6:	83 c8 40             	or     $0x40,%eax
    d2a9:	89 84 24 00 02 00 00 	mov    %eax,0x200(%rsp)
    d2b0:	0f ae 94 24 00 02 00 	ldmxcsr 0x200(%rsp)
    d2b7:	00 
    d2b8:	45 85 f6             	test   %r14d,%r14d
    d2bb:	74 23                	je     d2e0 <__intel_new_proc_init_T.M+0xa0>
    d2bd:	0f ae 9c 24 00 02 00 	stmxcsr 0x200(%rsp)
    d2c4:	00 
    d2c5:	8b 84 24 00 02 00 00 	mov    0x200(%rsp),%eax
    d2cc:	0d 00 00 02 00       	or     $0x20000,%eax
    d2d1:	89 84 24 00 02 00 00 	mov    %eax,0x200(%rsp)
    d2d8:	0f ae 94 24 00 02 00 	ldmxcsr 0x200(%rsp)
    d2df:	00 
    d2e0:	48 81 c4 10 02 00 00 	add    $0x210,%rsp
    d2e7:	5d                   	pop    %rbp
    d2e8:	41 5e                	pop    %r14
    d2ea:	41 5f                	pop    %r15
    d2ec:	c3                   	retq   
    d2ed:	0f ae 9c 24 00 02 00 	stmxcsr 0x200(%rsp)
    d2f4:	00 
    d2f5:	8b 84 24 00 02 00 00 	mov    0x200(%rsp),%eax
    d2fc:	0d 00 80 00 00       	or     $0x8000,%eax
    d301:	89 84 24 00 02 00 00 	mov    %eax,0x200(%rsp)
    d308:	0f ae 94 24 00 02 00 	ldmxcsr 0x200(%rsp)
    d30f:	00 
    d310:	eb 81                	jmp    d293 <__intel_new_proc_init_T.M+0x53>
    d312:	48 8d b6 00 00 00 00 	lea    0x0(%rsi),%rsi
    d319:	48 8d bf 00 00 00 00 	lea    0x0(%rdi),%rdi

000000000000d320 <__intel_new_proc_init_T>:
    d320:	48 8b 05 81 2c 10 00 	mov    1059969(%rip),%rax        # 10ffa8 <_IO_stdin_used+0x101fa8>
    d327:	8b 00                	mov    (%rax),%eax
    d329:	a9 00 f0 ff ff       	test   $0xfffff000,%eax
    d32e:	0f 85 0c ff ff ff    	jne    d240 <__intel_new_proc_init_T.M>
    d334:	a9 ff ff ff ff       	test   $0xffffffff,%eax
    d339:	0f 85 81 fe ff ff    	jne    d1c0 <__intel_new_proc_init_T.A>
    d33f:	48 83 ec 08          	sub    $0x8,%rsp
    d343:	e8 68 0a 00 00       	callq  ddb0 <__intel_cpu_indicator_init>
    d348:	48 83 c4 08          	add    $0x8,%rsp
    d34c:	eb d2                	jmp    d320 <__intel_new_proc_init_T>
    d34e:	90                   	nop    
    d34f:	90                   	nop    

000000000000d350 <__intel_new_proc_init_S.A>:
    d350:	48 81 ec 08 02 00 00 	sub    $0x208,%rsp
    d357:	bf 01 00 00 00       	mov    $0x1,%edi
    d35c:	33 f6                	xor    %esi,%esi
    d35e:	33 d2                	xor    %edx,%edx
    d360:	33 c0                	xor    %eax,%eax
    d362:	e8 09 06 00 00       	callq  d970 <irc__print>
    d367:	bf 01 00 00 00       	mov    $0x1,%edi
    d36c:	be 17 00 00 00       	mov    $0x17,%esi
    d371:	33 d2                	xor    %edx,%edx
    d373:	33 c0                	xor    %eax,%eax
    d375:	e8 f6 05 00 00       	callq  d970 <irc__print>
    d37a:	bf 2e 00 00 00       	mov    $0x2e,%edi
    d37f:	33 f6                	xor    %esi,%esi
    d381:	33 c0                	xor    %eax,%eax
    d383:	e8 38 08 00 00       	callq  dbc0 <irc__get_msg>
    d388:	48 8d 3c 24          	lea    (%rsp),%rdi
    d38c:	48 89 c6             	mov    %rax,%rsi
    d38f:	ba 00 02 00 00       	mov    $0x200,%edx
    d394:	e8 df e1 ff ff       	callq  b578 <getenv@plt+0x8>
    d399:	48 8d 0c 24          	lea    (%rsp),%rcx
    d39d:	bf 01 00 00 00       	mov    $0x1,%edi
    d3a2:	be 18 00 00 00       	mov    $0x18,%esi
    d3a7:	89 fa                	mov    %edi,%edx
    d3a9:	33 c0                	xor    %eax,%eax
    d3ab:	e8 c0 05 00 00       	callq  d970 <irc__print>
    d3b0:	bf 01 00 00 00       	mov    $0x1,%edi
    d3b5:	33 f6                	xor    %esi,%esi
    d3b7:	33 d2                	xor    %edx,%edx
    d3b9:	33 c0                	xor    %eax,%eax
    d3bb:	e8 b0 05 00 00       	callq  d970 <irc__print>
    d3c0:	bf 01 00 00 00       	mov    $0x1,%edi
    d3c5:	e8 1e e2 ff ff       	callq  b5e8 <memset@plt+0x8>
    d3ca:	90                   	nop    
    d3cb:	48 8d 74 26 00       	lea    0x0(%rsi),%rsi

000000000000d3d0 <__intel_new_proc_init_S.N>:
    d3d0:	41 57                	push   %r15
    d3d2:	41 56                	push   %r14
    d3d4:	55                   	push   %rbp
    d3d5:	48 81 ec 10 02 00 00 	sub    $0x210,%rsp
    d3dc:	41 89 ff             	mov    %edi,%r15d
    d3df:	44 89 fd             	mov    %r15d,%ebp
    d3e2:	83 e5 02             	and    $0x2,%ebp
    d3e5:	45 89 fe             	mov    %r15d,%r14d
    d3e8:	41 83 e6 04          	and    $0x4,%r14d
    d3ec:	74 2c                	je     d41a <__intel_new_proc_init_S.N+0x4a>
    d3ee:	48 8d 3c 24          	lea    (%rsp),%rdi
    d3f2:	33 f6                	xor    %esi,%esi
    d3f4:	ba 00 02 00 00       	mov    $0x200,%edx
    d3f9:	e8 da e1 ff ff       	callq  b5d8 <strchr@plt+0x8>
    d3fe:	0f ae 04 24          	fxsave (%rsp)
    d402:	8b 54 24 1c          	mov    0x1c(%rsp),%edx
    d406:	33 c9                	xor    %ecx,%ecx
    d408:	89 d0                	mov    %edx,%eax
    d40a:	83 e0 40             	and    $0x40,%eax
    d40d:	0f 44 e9             	cmove  %ecx,%ebp
    d410:	81 e2 00 00 02 00    	and    $0x20000,%edx
    d416:	44 0f 44 f1          	cmove  %ecx,%r14d
    d41a:	41 f7 c7 01 00 00 00 	test   $0x1,%r15d
    d421:	75 5a                	jne    d47d <__intel_new_proc_init_S.N+0xad>
    d423:	85 ed                	test   %ebp,%ebp
    d425:	74 21                	je     d448 <__intel_new_proc_init_S.N+0x78>
    d427:	0f ae 9c 24 00 02 00 	stmxcsr 0x200(%rsp)
    d42e:	00 
    d42f:	8b 84 24 00 02 00 00 	mov    0x200(%rsp),%eax
    d436:	83 c8 40             	or     $0x40,%eax
    d439:	89 84 24 00 02 00 00 	mov    %eax,0x200(%rsp)
    d440:	0f ae 94 24 00 02 00 	ldmxcsr 0x200(%rsp)
    d447:	00 
    d448:	45 85 f6             	test   %r14d,%r14d
    d44b:	74 23                	je     d470 <__intel_new_proc_init_S.N+0xa0>
    d44d:	0f ae 9c 24 00 02 00 	stmxcsr 0x200(%rsp)
    d454:	00 
    d455:	8b 84 24 00 02 00 00 	mov    0x200(%rsp),%eax
    d45c:	0d 00 00 02 00       	or     $0x20000,%eax
    d461:	89 84 24 00 02 00 00 	mov    %eax,0x200(%rsp)
    d468:	0f ae 94 24 00 02 00 	ldmxcsr 0x200(%rsp)
    d46f:	00 
    d470:	48 81 c4 10 02 00 00 	add    $0x210,%rsp
    d477:	5d                   	pop    %rbp
    d478:	41 5e                	pop    %r14
    d47a:	41 5f                	pop    %r15
    d47c:	c3                   	retq   
    d47d:	0f ae 9c 24 00 02 00 	stmxcsr 0x200(%rsp)
    d484:	00 
    d485:	8b 84 24 00 02 00 00 	mov    0x200(%rsp),%eax
    d48c:	0d 00 80 00 00       	or     $0x8000,%eax
    d491:	89 84 24 00 02 00 00 	mov    %eax,0x200(%rsp)
    d498:	0f ae 94 24 00 02 00 	ldmxcsr 0x200(%rsp)
    d49f:	00 
    d4a0:	eb 81                	jmp    d423 <__intel_new_proc_init_S.N+0x53>
    d4a2:	48 8d b6 00 00 00 00 	lea    0x0(%rsi),%rsi
    d4a9:	48 8d bf 00 00 00 00 	lea    0x0(%rdi),%rdi

000000000000d4b0 <__intel_new_proc_init_S>:
    d4b0:	48 8b 05 f1 2a 10 00 	mov    1059569(%rip),%rax        # 10ffa8 <_IO_stdin_used+0x101fa8>
    d4b7:	8b 00                	mov    (%rax),%eax
    d4b9:	a9 00 a0 ff ff       	test   $0xffffa000,%eax
    d4be:	0f 85 0c ff ff ff    	jne    d3d0 <__intel_new_proc_init_S.N>
    d4c4:	a9 ff ff ff ff       	test   $0xffffffff,%eax
    d4c9:	0f 85 81 fe ff ff    	jne    d350 <__intel_new_proc_init_S.A>
    d4cf:	48 83 ec 08          	sub    $0x8,%rsp
    d4d3:	e8 d8 08 00 00       	callq  ddb0 <__intel_cpu_indicator_init>
    d4d8:	48 83 c4 08          	add    $0x8,%rsp
    d4dc:	eb d2                	jmp    d4b0 <__intel_new_proc_init_S>
    d4de:	90                   	nop    
    d4df:	90                   	nop    

000000000000d4e0 <__intel_new_proc_init_L.A>:
    d4e0:	48 81 ec 08 02 00 00 	sub    $0x208,%rsp
    d4e7:	bf 01 00 00 00       	mov    $0x1,%edi
    d4ec:	33 f6                	xor    %esi,%esi
    d4ee:	33 d2                	xor    %edx,%edx
    d4f0:	33 c0                	xor    %eax,%eax
    d4f2:	e8 79 04 00 00       	callq  d970 <irc__print>
    d4f7:	bf 01 00 00 00       	mov    $0x1,%edi
    d4fc:	be 17 00 00 00       	mov    $0x17,%esi
    d501:	33 d2                	xor    %edx,%edx
    d503:	33 c0                	xor    %eax,%eax
    d505:	e8 66 04 00 00       	callq  d970 <irc__print>
    d50a:	bf 30 00 00 00       	mov    $0x30,%edi
    d50f:	33 f6                	xor    %esi,%esi
    d511:	33 c0                	xor    %eax,%eax
    d513:	e8 a8 06 00 00       	callq  dbc0 <irc__get_msg>
    d518:	48 8d 3c 24          	lea    (%rsp),%rdi
    d51c:	48 89 c6             	mov    %rax,%rsi
    d51f:	ba 00 02 00 00       	mov    $0x200,%edx
    d524:	e8 4f e0 ff ff       	callq  b578 <getenv@plt+0x8>
    d529:	48 8d 0c 24          	lea    (%rsp),%rcx
    d52d:	bf 01 00 00 00       	mov    $0x1,%edi
    d532:	be 18 00 00 00       	mov    $0x18,%esi
    d537:	89 fa                	mov    %edi,%edx
    d539:	33 c0                	xor    %eax,%eax
    d53b:	e8 30 04 00 00       	callq  d970 <irc__print>
    d540:	bf 01 00 00 00       	mov    $0x1,%edi
    d545:	33 f6                	xor    %esi,%esi
    d547:	33 d2                	xor    %edx,%edx
    d549:	33 c0                	xor    %eax,%eax
    d54b:	e8 20 04 00 00       	callq  d970 <irc__print>
    d550:	bf 01 00 00 00       	mov    $0x1,%edi
    d555:	e8 8e e0 ff ff       	callq  b5e8 <memset@plt+0x8>
    d55a:	90                   	nop    
    d55b:	48 8d 74 26 00       	lea    0x0(%rsi),%rsi

000000000000d560 <__intel_new_proc_init_L.O>:
    d560:	41 57                	push   %r15
    d562:	41 56                	push   %r14
    d564:	55                   	push   %rbp
    d565:	48 81 ec 10 02 00 00 	sub    $0x210,%rsp
    d56c:	41 89 ff             	mov    %edi,%r15d
    d56f:	44 89 fd             	mov    %r15d,%ebp
    d572:	45 89 fe             	mov    %r15d,%r14d
    d575:	83 e5 02             	and    $0x2,%ebp
    d578:	41 83 e6 04          	and    $0x4,%r14d
    d57c:	74 2c                	je     d5aa <__intel_new_proc_init_L.O+0x4a>
    d57e:	33 f6                	xor    %esi,%esi
    d580:	ba 00 02 00 00       	mov    $0x200,%edx
    d585:	48 8d 3c 24          	lea    (%rsp),%rdi
    d589:	e8 4a e0 ff ff       	callq  b5d8 <strchr@plt+0x8>
    d58e:	0f ae 04 24          	fxsave (%rsp)
    d592:	8b 54 24 1c          	mov    0x1c(%rsp),%edx
    d596:	89 d0                	mov    %edx,%eax
    d598:	33 c9                	xor    %ecx,%ecx
    d59a:	83 e0 40             	and    $0x40,%eax
    d59d:	0f 44 e9             	cmove  %ecx,%ebp
    d5a0:	81 e2 00 00 02 00    	and    $0x20000,%edx
    d5a6:	44 0f 44 f1          	cmove  %ecx,%r14d
    d5aa:	41 f7 c7 01 00 00 00 	test   $0x1,%r15d
    d5b1:	75 5b                	jne    d60e <__intel_new_proc_init_L.O+0xae>
    d5b3:	85 ed                	test   %ebp,%ebp
    d5b5:	74 21                	je     d5d8 <__intel_new_proc_init_L.O+0x78>
    d5b7:	0f ae 9c 24 00 02 00 	stmxcsr 0x200(%rsp)
    d5be:	00 
    d5bf:	8b 84 24 00 02 00 00 	mov    0x200(%rsp),%eax
    d5c6:	83 c8 40             	or     $0x40,%eax
    d5c9:	89 84 24 00 02 00 00 	mov    %eax,0x200(%rsp)
    d5d0:	0f ae 94 24 00 02 00 	ldmxcsr 0x200(%rsp)
    d5d7:	00 
    d5d8:	45 85 f6             	test   %r14d,%r14d
    d5db:	74 23                	je     d600 <__intel_new_proc_init_L.O+0xa0>
    d5dd:	0f ae 9c 24 00 02 00 	stmxcsr 0x200(%rsp)
    d5e4:	00 
    d5e5:	8b 84 24 00 02 00 00 	mov    0x200(%rsp),%eax
    d5ec:	0d 00 00 02 00       	or     $0x20000,%eax
    d5f1:	89 84 24 00 02 00 00 	mov    %eax,0x200(%rsp)
    d5f8:	0f ae 94 24 00 02 00 	ldmxcsr 0x200(%rsp)
    d5ff:	00 
    d600:	48 8d a4 24 10 02 00 	lea    0x210(%rsp),%rsp
    d607:	00 
    d608:	5d                   	pop    %rbp
    d609:	41 5e                	pop    %r14
    d60b:	41 5f                	pop    %r15
    d60d:	c3                   	retq   
    d60e:	0f ae 9c 24 00 02 00 	stmxcsr 0x200(%rsp)
    d615:	00 
    d616:	8b 84 24 00 02 00 00 	mov    0x200(%rsp),%eax
    d61d:	0d 00 80 00 00       	or     $0x8000,%eax
    d622:	89 84 24 00 02 00 00 	mov    %eax,0x200(%rsp)
    d629:	0f ae 94 24 00 02 00 	ldmxcsr 0x200(%rsp)
    d630:	00 
    d631:	eb 80                	jmp    d5b3 <__intel_new_proc_init_L.O+0x53>
    d633:	90                   	nop    
    d634:	48 8d 74 26 00       	lea    0x0(%rsi),%rsi
    d639:	48 8d bf 00 00 00 00 	lea    0x0(%rdi),%rdi

000000000000d640 <__intel_new_proc_init_L>:
    d640:	48 8b 05 61 29 10 00 	mov    1059169(%rip),%rax        # 10ffa8 <_IO_stdin_used+0x101fa8>
    d647:	8b 00                	mov    (%rax),%eax
    d649:	a9 00 40 00 00       	test   $0x4000,%eax
    d64e:	0f 85 0c ff ff ff    	jne    d560 <__intel_new_proc_init_L.O>
    d654:	a9 ff ff ff ff       	test   $0xffffffff,%eax
    d659:	0f 85 81 fe ff ff    	jne    d4e0 <__intel_new_proc_init_L.A>
    d65f:	48 8d 64 24 f8       	lea    0xfffffffffffffff8(%rsp),%rsp
    d664:	e8 47 07 00 00       	callq  ddb0 <__intel_cpu_indicator_init>
    d669:	48 8d 64 24 08       	lea    0x8(%rsp),%rsp
    d66e:	eb d0                	jmp    d640 <__intel_new_proc_init_L>

000000000000d670 <__intel_new_proc_init_H.A>:
    d670:	48 81 ec 08 02 00 00 	sub    $0x208,%rsp
    d677:	bf 01 00 00 00       	mov    $0x1,%edi
    d67c:	33 f6                	xor    %esi,%esi
    d67e:	33 d2                	xor    %edx,%edx
    d680:	33 c0                	xor    %eax,%eax
    d682:	e8 e9 02 00 00       	callq  d970 <irc__print>
    d687:	bf 01 00 00 00       	mov    $0x1,%edi
    d68c:	be 17 00 00 00       	mov    $0x17,%esi
    d691:	33 d2                	xor    %edx,%edx
    d693:	33 c0                	xor    %eax,%eax
    d695:	e8 d6 02 00 00       	callq  d970 <irc__print>
    d69a:	bf 2f 00 00 00       	mov    $0x2f,%edi
    d69f:	33 f6                	xor    %esi,%esi
    d6a1:	33 c0                	xor    %eax,%eax
    d6a3:	e8 18 05 00 00       	callq  dbc0 <irc__get_msg>
    d6a8:	48 8d 3c 24          	lea    (%rsp),%rdi
    d6ac:	48 89 c6             	mov    %rax,%rsi
    d6af:	ba 00 02 00 00       	mov    $0x200,%edx
    d6b4:	e8 bf de ff ff       	callq  b578 <getenv@plt+0x8>
    d6b9:	48 8d 0c 24          	lea    (%rsp),%rcx
    d6bd:	bf 01 00 00 00       	mov    $0x1,%edi
    d6c2:	be 18 00 00 00       	mov    $0x18,%esi
    d6c7:	89 fa                	mov    %edi,%edx
    d6c9:	33 c0                	xor    %eax,%eax
    d6cb:	e8 a0 02 00 00       	callq  d970 <irc__print>
    d6d0:	bf 01 00 00 00       	mov    $0x1,%edi
    d6d5:	33 f6                	xor    %esi,%esi
    d6d7:	33 d2                	xor    %edx,%edx
    d6d9:	33 c0                	xor    %eax,%eax
    d6db:	e8 90 02 00 00       	callq  d970 <irc__print>
    d6e0:	bf 01 00 00 00       	mov    $0x1,%edi
    d6e5:	e8 fe de ff ff       	callq  b5e8 <memset@plt+0x8>
    d6ea:	90                   	nop    
    d6eb:	48 8d 74 26 00       	lea    0x0(%rsi),%rsi

000000000000d6f0 <__intel_new_proc_init_H.P>:
    d6f0:	89 f8                	mov    %edi,%eax
    d6f2:	83 e0 02             	and    $0x2,%eax
    d6f5:	89 fa                	mov    %edi,%edx
    d6f7:	83 e2 04             	and    $0x4,%edx
    d6fa:	f7 c7 01 00 00 00    	test   $0x1,%edi
    d700:	75 35                	jne    d737 <__intel_new_proc_init_H.P+0x47>
    d702:	85 c0                	test   %eax,%eax
    d704:	74 15                	je     d71b <__intel_new_proc_init_H.P+0x2b>
    d706:	0f ae 5c 24 f8       	stmxcsr 0xfffffffffffffff8(%rsp)
    d70b:	8b 44 24 f8          	mov    0xfffffffffffffff8(%rsp),%eax
    d70f:	83 c8 40             	or     $0x40,%eax
    d712:	89 44 24 f8          	mov    %eax,0xfffffffffffffff8(%rsp)
    d716:	0f ae 54 24 f8       	ldmxcsr 0xfffffffffffffff8(%rsp)
    d71b:	85 d2                	test   %edx,%edx
    d71d:	74 17                	je     d736 <__intel_new_proc_init_H.P+0x46>
    d71f:	0f ae 5c 24 f8       	stmxcsr 0xfffffffffffffff8(%rsp)
    d724:	8b 44 24 f8          	mov    0xfffffffffffffff8(%rsp),%eax
    d728:	0d 00 00 02 00       	or     $0x20000,%eax
    d72d:	89 44 24 f8          	mov    %eax,0xfffffffffffffff8(%rsp)
    d731:	0f ae 54 24 f8       	ldmxcsr 0xfffffffffffffff8(%rsp)
    d736:	c3                   	retq   
    d737:	0f ae 5c 24 f8       	stmxcsr 0xfffffffffffffff8(%rsp)
    d73c:	8b 4c 24 f8          	mov    0xfffffffffffffff8(%rsp),%ecx
    d740:	81 c9 00 80 00 00    	or     $0x8000,%ecx
    d746:	89 4c 24 f8          	mov    %ecx,0xfffffffffffffff8(%rsp)
    d74a:	0f ae 54 24 f8       	ldmxcsr 0xfffffffffffffff8(%rsp)
    d74f:	eb b1                	jmp    d702 <__intel_new_proc_init_H.P+0x12>
    d751:	48 8d b4 26 00 00 00 	lea    0x0(%rsi),%rsi
    d758:	00 
    d759:	48 8d bf 00 00 00 00 	lea    0x0(%rdi),%rdi

000000000000d760 <__intel_new_proc_init_H>:
    d760:	48 8b 05 41 28 10 00 	mov    1058881(%rip),%rax        # 10ffa8 <_IO_stdin_used+0x101fa8>
    d767:	8b 00                	mov    (%rax),%eax
    d769:	a9 00 80 ff ff       	test   $0xffff8000,%eax
    d76e:	0f 85 7c ff ff ff    	jne    d6f0 <__intel_new_proc_init_H.P>
    d774:	a9 ff ff ff ff       	test   $0xffffffff,%eax
    d779:	0f 85 f1 fe ff ff    	jne    d670 <__intel_new_proc_init_H.A>
    d77f:	48 83 ec 08          	sub    $0x8,%rsp
    d783:	e8 28 06 00 00       	callq  ddb0 <__intel_cpu_indicator_init>
    d788:	48 83 c4 08          	add    $0x8,%rsp
    d78c:	eb d2                	jmp    d760 <__intel_new_proc_init_H>
    d78e:	90                   	nop    
    d78f:	90                   	nop    

000000000000d790 <__intel_proc_init.A>:
    d790:	c3                   	retq   
    d791:	48 8d b4 26 00 00 00 	lea    0x0(%rsi),%rsi
    d798:	00 
    d799:	48 8d bf 00 00 00 00 	lea    0x0(%rdi),%rdi

000000000000d7a0 <__intel_proc_init.H>:
    d7a0:	48 81 ec 08 02 00 00 	sub    $0x208,%rsp
    d7a7:	48 8d 3c 24          	lea    (%rsp),%rdi
    d7ab:	33 f6                	xor    %esi,%esi
    d7ad:	ba 00 02 00 00       	mov    $0x200,%edx
    d7b2:	e8 21 de ff ff       	callq  b5d8 <strchr@plt+0x8>
    d7b7:	0f ae 04 24          	fxsave (%rsp)
    d7bb:	8b 54 24 1c          	mov    0x1c(%rsp),%edx
    d7bf:	0f ae 9c 24 00 02 00 	stmxcsr 0x200(%rsp)
    d7c6:	00 
    d7c7:	8b 84 24 00 02 00 00 	mov    0x200(%rsp),%eax
    d7ce:	83 e2 40             	and    $0x40,%edx
    d7d1:	0d 00 80 00 00       	or     $0x8000,%eax
    d7d6:	89 84 24 00 02 00 00 	mov    %eax,0x200(%rsp)
    d7dd:	0f ae 94 24 00 02 00 	ldmxcsr 0x200(%rsp)
    d7e4:	00 
    d7e5:	85 d2                	test   %edx,%edx
    d7e7:	74 21                	je     d80a <__intel_proc_init.H+0x6a>
    d7e9:	0f ae 9c 24 00 02 00 	stmxcsr 0x200(%rsp)
    d7f0:	00 
    d7f1:	8b 84 24 00 02 00 00 	mov    0x200(%rsp),%eax
    d7f8:	83 c8 40             	or     $0x40,%eax
    d7fb:	89 84 24 00 02 00 00 	mov    %eax,0x200(%rsp)
    d802:	0f ae 94 24 00 02 00 	ldmxcsr 0x200(%rsp)
    d809:	00 
    d80a:	48 81 c4 08 02 00 00 	add    $0x208,%rsp
    d811:	c3                   	retq   
    d812:	48 8d b6 00 00 00 00 	lea    0x0(%rsi),%rsi
    d819:	48 8d bf 00 00 00 00 	lea    0x0(%rdi),%rdi

000000000000d820 <__intel_proc_init>:
    d820:	48 8b 05 81 27 10 00 	mov    1058689(%rip),%rax        # 10ffa8 <_IO_stdin_used+0x101fa8>
    d827:	8b 00                	mov    (%rax),%eax
    d829:	a9 80 ff ff ff       	test   $0xffffff80,%eax
    d82e:	0f 85 6c ff ff ff    	jne    d7a0 <__intel_proc_init.H>
    d834:	a9 ff ff ff ff       	test   $0xffffffff,%eax
    d839:	0f 85 51 ff ff ff    	jne    d790 <__intel_proc_init.A>
    d83f:	48 83 ec 08          	sub    $0x8,%rsp
    d843:	e8 68 05 00 00       	callq  ddb0 <__intel_cpu_indicator_init>
    d848:	48 83 c4 08          	add    $0x8,%rsp
    d84c:	eb d2                	jmp    d820 <__intel_proc_init>
    d84e:	90                   	nop    
    d84f:	90                   	nop    

000000000000d850 <__intel_new_proc_init.A>:
    d850:	c3                   	retq   
    d851:	48 8d b4 26 00 00 00 	lea    0x0(%rsi),%rsi
    d858:	00 
    d859:	48 8d bf 00 00 00 00 	lea    0x0(%rdi),%rdi

000000000000d860 <__intel_new_proc_init.H>:
    d860:	41 57                	push   %r15
    d862:	41 56                	push   %r14
    d864:	55                   	push   %rbp
    d865:	48 81 ec 10 02 00 00 	sub    $0x210,%rsp
    d86c:	41 89 ff             	mov    %edi,%r15d
    d86f:	44 89 fd             	mov    %r15d,%ebp
    d872:	83 e5 02             	and    $0x2,%ebp
    d875:	45 89 fe             	mov    %r15d,%r14d
    d878:	41 83 e6 04          	and    $0x4,%r14d
    d87c:	85 ed                	test   %ebp,%ebp
    d87e:	75 05                	jne    d885 <__intel_new_proc_init.H+0x25>
    d880:	45 85 f6             	test   %r14d,%r14d
    d883:	74 2c                	je     d8b1 <__intel_new_proc_init.H+0x51>
    d885:	48 8d 3c 24          	lea    (%rsp),%rdi
    d889:	33 f6                	xor    %esi,%esi
    d88b:	ba 00 02 00 00       	mov    $0x200,%edx
    d890:	e8 43 dd ff ff       	callq  b5d8 <strchr@plt+0x8>
    d895:	0f ae 04 24          	fxsave (%rsp)
    d899:	8b 54 24 1c          	mov    0x1c(%rsp),%edx
    d89d:	33 c9                	xor    %ecx,%ecx
    d89f:	89 d0                	mov    %edx,%eax
    d8a1:	83 e0 40             	and    $0x40,%eax
    d8a4:	0f 44 e9             	cmove  %ecx,%ebp
    d8a7:	81 e2 00 00 02 00    	and    $0x20000,%edx
    d8ad:	44 0f 44 f1          	cmove  %ecx,%r14d
    d8b1:	41 f7 c7 01 00 00 00 	test   $0x1,%r15d
    d8b8:	75 5a                	jne    d914 <__intel_new_proc_init.H+0xb4>
    d8ba:	85 ed                	test   %ebp,%ebp
    d8bc:	74 21                	je     d8df <__intel_new_proc_init.H+0x7f>
    d8be:	0f ae 9c 24 00 02 00 	stmxcsr 0x200(%rsp)
    d8c5:	00 
    d8c6:	8b 84 24 00 02 00 00 	mov    0x200(%rsp),%eax
    d8cd:	83 c8 40             	or     $0x40,%eax
    d8d0:	89 84 24 00 02 00 00 	mov    %eax,0x200(%rsp)
    d8d7:	0f ae 94 24 00 02 00 	ldmxcsr 0x200(%rsp)
    d8de:	00 
    d8df:	45 85 f6             	test   %r14d,%r14d
    d8e2:	74 23                	je     d907 <__intel_new_proc_init.H+0xa7>
    d8e4:	0f ae 9c 24 00 02 00 	stmxcsr 0x200(%rsp)
    d8eb:	00 
    d8ec:	8b 84 24 00 02 00 00 	mov    0x200(%rsp),%eax
    d8f3:	0d 00 00 02 00       	or     $0x20000,%eax
    d8f8:	89 84 24 00 02 00 00 	mov    %eax,0x200(%rsp)
    d8ff:	0f ae 94 24 00 02 00 	ldmxcsr 0x200(%rsp)
    d906:	00 
    d907:	48 81 c4 10 02 00 00 	add    $0x210,%rsp
    d90e:	5d                   	pop    %rbp
    d90f:	41 5e                	pop    %r14
    d911:	41 5f                	pop    %r15
    d913:	c3                   	retq   
    d914:	0f ae 9c 24 00 02 00 	stmxcsr 0x200(%rsp)
    d91b:	00 
    d91c:	8b 84 24 00 02 00 00 	mov    0x200(%rsp),%eax
    d923:	0d 00 80 00 00       	or     $0x8000,%eax
    d928:	89 84 24 00 02 00 00 	mov    %eax,0x200(%rsp)
    d92f:	0f ae 94 24 00 02 00 	ldmxcsr 0x200(%rsp)
    d936:	00 
    d937:	eb 81                	jmp    d8ba <__intel_new_proc_init.H+0x5a>
    d939:	48 8d b6 00 00 00 00 	lea    0x0(%rsi),%rsi

000000000000d940 <__intel_new_proc_init>:
    d940:	48 8b 05 61 26 10 00 	mov    1058401(%rip),%rax        # 10ffa8 <_IO_stdin_used+0x101fa8>
    d947:	8b 00                	mov    (%rax),%eax
    d949:	a9 80 ff ff ff       	test   $0xffffff80,%eax
    d94e:	0f 85 0c ff ff ff    	jne    d860 <__intel_new_proc_init.H>
    d954:	a9 ff ff ff ff       	test   $0xffffffff,%eax
    d959:	0f 85 f1 fe ff ff    	jne    d850 <__intel_new_proc_init.A>
    d95f:	48 83 ec 08          	sub    $0x8,%rsp
    d963:	e8 48 04 00 00       	callq  ddb0 <__intel_cpu_indicator_init>
    d968:	48 83 c4 08          	add    $0x8,%rsp
    d96c:	eb d2                	jmp    d940 <__intel_new_proc_init>
    d96e:	90                   	nop    
    d96f:	90                   	nop    

000000000000d970 <irc__print>:
    d970:	41 57                	push   %r15
    d972:	55                   	push   %rbp
    d973:	53                   	push   %rbx
    d974:	48 81 ec 00 01 00 00 	sub    $0x100,%rsp
    d97b:	48 89 4c 24 48       	mov    %rcx,0x48(%rsp)
    d980:	4c 89 44 24 50       	mov    %r8,0x50(%rsp)
    d985:	4c 89 4c 24 58       	mov    %r9,0x58(%rsp)
    d98a:	44 0f b6 d8          	movzbl %al,%r11d
    d98e:	4a 8d 04 9d 00 00 00 	lea    0x0(,%r11,4),%rax
    d995:	00 
    d996:	4c 8d 1d 2e 00 00 00 	lea    46(%rip),%r11        # d9cb <irc__print+0x5b>
    d99d:	4c 2b d8             	sub    %rax,%r11
    d9a0:	48 8d 84 24 df 00 00 	lea    0xdf(%rsp),%rax
    d9a7:	00 
    d9a8:	41 ff e3             	jmpq   *%r11
    d9ab:	0f 29 78 f1          	movaps %xmm7,0xfffffffffffffff1(%rax)
    d9af:	0f 29 70 e1          	movaps %xmm6,0xffffffffffffffe1(%rax)
    d9b3:	0f 29 68 d1          	movaps %xmm5,0xffffffffffffffd1(%rax)
    d9b7:	0f 29 60 c1          	movaps %xmm4,0xffffffffffffffc1(%rax)
    d9bb:	0f 29 58 b1          	movaps %xmm3,0xffffffffffffffb1(%rax)
    d9bf:	0f 29 50 a1          	movaps %xmm2,0xffffffffffffffa1(%rax)
    d9c3:	0f 29 48 91          	movaps %xmm1,0xffffffffffffff91(%rax)
    d9c7:	0f 29 40 81          	movaps %xmm0,0xffffffffffffff81(%rax)
    d9cb:	41 89 d7             	mov    %edx,%r15d
    d9ce:	89 f5                	mov    %esi,%ebp
    d9d0:	89 fb                	mov    %edi,%ebx
    d9d2:	85 ed                	test   %ebp,%ebp
    d9d4:	75 23                	jne    d9f9 <irc__print+0x89>
    d9d6:	83 fb 01             	cmp    $0x1,%ebx
    d9d9:	0f 84 b4 01 00 00    	je     db93 <irc__print+0x223>
    d9df:	48 8d 3d 1e 06 00 00 	lea    1566(%rip),%rdi        # e004 <_IO_stdin_used+0x4>
    d9e6:	33 c0                	xor    %eax,%eax
    d9e8:	e8 bb db ff ff       	callq  b5a8 <fprintf@plt+0x8>
    d9ed:	48 81 c4 00 01 00 00 	add    $0x100,%rsp
    d9f4:	5b                   	pop    %rbx
    d9f5:	5d                   	pop    %rbp
    d9f6:	41 5f                	pop    %r15
    d9f8:	c3                   	retq   
    d9f9:	8b 05 61 26 10 00    	mov    1058401(%rip),%eax        # 110060 <_IO_stdin_used+0x102060>
    d9ff:	85 c0                	test   %eax,%eax
    da01:	74 35                	je     da38 <irc__print+0xc8>
    da03:	c7 05 53 26 10 00 00 	movl   $0x0,1058387(%rip)        # 110060 <_IO_stdin_used+0x102060>
    da0a:	00 00 00 
    da0d:	48 8d 3d f4 05 00 00 	lea    1524(%rip),%rdi        # e008 <_IO_stdin_used+0x8>
    da14:	33 f6                	xor    %esi,%esi
    da16:	e8 9d db ff ff       	callq  b5b8 <printf@plt+0x8>
    da1b:	48 89 05 be 2d 10 00 	mov    %rax,1060286(%rip)        # 1107e0 <__bss_start+0x1e0>
    da22:	48 83 f8 ff          	cmp    $0xffffffffffffffff,%rax
    da26:	0f 84 d2 00 00 00    	je     dafe <irc__print+0x18e>
    da2c:	c7 05 3a 26 10 00 00 	movl   $0x0,1058362(%rip)        # 110070 <_IO_stdin_used+0x102070>
    da33:	00 00 00 
    da36:	eb 1e                	jmp    da56 <irc__print+0xe6>
    da38:	8b 05 32 26 10 00    	mov    1058354(%rip),%eax        # 110070 <_IO_stdin_used+0x102070>
    da3e:	85 c0                	test   %eax,%eax
    da40:	74 14                	je     da56 <irc__print+0xe6>
    da42:	48 63 c5             	movslq %ebp,%rax
    da45:	48 c1 e0 04          	shl    $0x4,%rax
    da49:	48 8d 15 58 26 10 00 	lea    1058392(%rip),%rdx        # 1100a8 <_IO_stdin_used+0x1020a8>
    da50:	48 8b 04 10          	mov    (%rax,%rdx,1),%rax
    da54:	eb 25                	jmp    da7b <irc__print+0x10b>
    da56:	48 8b 3d 83 2d 10 00 	mov    1060227(%rip),%rdi        # 1107e0 <__bss_start+0x1e0>
    da5d:	48 63 c5             	movslq %ebp,%rax
    da60:	48 c1 e0 04          	shl    $0x4,%rax
    da64:	4c 8d 05 3d 26 10 00 	lea    1058365(%rip),%r8        # 1100a8 <_IO_stdin_used+0x1020a8>
    da6b:	4a 8b 0c 00          	mov    (%rax,%r8,1),%rcx
    da6f:	be 01 00 00 00       	mov    $0x1,%esi
    da74:	89 ea                	mov    %ebp,%edx
    da76:	e8 cd da ff ff       	callq  b548 <__libc_start_main@plt+0x8>
    da7b:	45 85 ff             	test   %r15d,%r15d
    da7e:	7e 51                	jle    dad1 <irc__print+0x161>
    da80:	c7 84 24 e0 00 00 00 	movl   $0x18,0xe0(%rsp)
    da87:	18 00 00 00 
    da8b:	48 8d 94 24 20 01 00 	lea    0x120(%rsp),%rdx
    da92:	00 
    da93:	48 8d 4c 24 30       	lea    0x30(%rsp),%rcx
    da98:	c7 84 24 e4 00 00 00 	movl   $0x30,0xe4(%rsp)
    da9f:	30 00 00 00 
    daa3:	48 89 94 24 e8 00 00 	mov    %rdx,0xe8(%rsp)
    daaa:	00 
    daab:	48 89 8c 24 f0 00 00 	mov    %rcx,0xf0(%rsp)
    dab2:	00 
    dab3:	48 8d 94 24 e0 00 00 	lea    0xe0(%rsp),%rdx
    daba:	00 
    dabb:	48 8d 3d 1e 29 10 00 	lea    1059102(%rip),%rdi        # 1103e0 <__xxref+0x120>
    dac2:	48 89 c6             	mov    %rax,%rsi
    dac5:	e8 8e da ff ff       	callq  b558 <catgets@plt+0x8>
    daca:	48 8d 05 0f 29 10 00 	lea    1059087(%rip),%rax        # 1103e0 <__xxref+0x120>
    dad1:	83 fb 01             	cmp    $0x1,%ebx
    dad4:	0f 84 a5 00 00 00    	je     db7f <irc__print+0x20f>
    dada:	48 89 c7             	mov    %rax,%rdi
    dadd:	33 c0                	xor    %eax,%eax
    dadf:	e8 c4 da ff ff       	callq  b5a8 <fprintf@plt+0x8>
    dae4:	48 8d 3d 19 05 00 00 	lea    1305(%rip),%rdi        # e004 <_IO_stdin_used+0x4>
    daeb:	33 c0                	xor    %eax,%eax
    daed:	e8 b6 da ff ff       	callq  b5a8 <fprintf@plt+0x8>
    daf2:	48 81 c4 00 01 00 00 	add    $0x100,%rsp
    daf9:	5b                   	pop    %rbx
    dafa:	5d                   	pop    %rbp
    dafb:	41 5f                	pop    %r15
    dafd:	c3                   	retq   
    dafe:	48 8d 3d 0f 05 00 00 	lea    1295(%rip),%rdi        # e014 <_IO_stdin_used+0x14>
    db05:	e8 5e da ff ff       	callq  b568 <vsprintf@plt+0x8>
    db0a:	48 8d 3c 24          	lea    (%rsp),%rdi
    db0e:	48 8d 35 03 05 00 00 	lea    1283(%rip),%rsi        # e018 <_IO_stdin_used+0x18>
    db15:	48 83 f8 00          	cmp    $0x0,%rax
    db19:	48 0f 45 f0          	cmovne %rax,%rsi
    db1d:	ba 28 00 00 00       	mov    $0x28,%edx
    db22:	e8 51 da ff ff       	callq  b578 <getenv@plt+0x8>
    db27:	48 8d 3c 24          	lea    (%rsp),%rdi
    db2b:	be 2e 00 00 00       	mov    $0x2e,%esi
    db30:	e8 93 da ff ff       	callq  b5c8 <catopen@plt+0x8>
    db35:	48 85 c0             	test   %rax,%rax
    db38:	74 2f                	je     db69 <irc__print+0x1f9>
    db3a:	c6 00 00             	movb   $0x0,(%rax)
    db3d:	48 8d 34 24          	lea    (%rsp),%rsi
    db41:	48 8d 3d cc 04 00 00 	lea    1228(%rip),%rdi        # e014 <_IO_stdin_used+0x14>
    db48:	ba 01 00 00 00       	mov    $0x1,%edx
    db4d:	e8 36 da ff ff       	callq  b588 <strncpy@plt+0x8>
    db52:	48 8d 3d af 04 00 00 	lea    1199(%rip),%rdi        # e008 <_IO_stdin_used+0x8>
    db59:	33 f6                	xor    %esi,%esi
    db5b:	e8 58 da ff ff       	callq  b5b8 <printf@plt+0x8>
    db60:	48 89 05 79 2c 10 00 	mov    %rax,1059961(%rip)        # 1107e0 <__bss_start+0x1e0>
    db67:	eb 07                	jmp    db70 <irc__print+0x200>
    db69:	48 8b 05 70 2c 10 00 	mov    1059952(%rip),%rax        # 1107e0 <__bss_start+0x1e0>
    db70:	48 83 f8 ff          	cmp    $0xffffffffffffffff,%rax
    db74:	0f 85 b2 fe ff ff    	jne    da2c <irc__print+0xbc>
    db7a:	e9 b9 fe ff ff       	jmpq   da38 <irc__print+0xc8>
    db7f:	48 8b 15 2a 24 10 00 	mov    1057834(%rip),%rdx        # 10ffb0 <_IO_stdin_used+0x101fb0>
    db86:	48 8b 3a             	mov    (%rdx),%rdi
    db89:	48 89 c6             	mov    %rax,%rsi
    db8c:	33 c0                	xor    %eax,%eax
    db8e:	e8 05 da ff ff       	callq  b598 <setenv@plt+0x8>
    db93:	48 8b 15 16 24 10 00 	mov    1057814(%rip),%rdx        # 10ffb0 <_IO_stdin_used+0x101fb0>
    db9a:	48 8b 3a             	mov    (%rdx),%rdi
    db9d:	48 8d 35 60 04 00 00 	lea    1120(%rip),%rsi        # e004 <_IO_stdin_used+0x4>
    dba4:	33 c0                	xor    %eax,%eax
    dba6:	e8 ed d9 ff ff       	callq  b598 <setenv@plt+0x8>
    dbab:	48 81 c4 00 01 00 00 	add    $0x100,%rsp
    dbb2:	5b                   	pop    %rbx
    dbb3:	5d                   	pop    %rbp
    dbb4:	41 5f                	pop    %r15
    dbb6:	c3                   	retq   
    dbb7:	90                   	nop    
    dbb8:	90                   	nop    
    dbb9:	48 8d bf 00 00 00 00 	lea    0x0(%rdi),%rdi

000000000000dbc0 <irc__get_msg>:
    dbc0:	41 56                	push   %r14
    dbc2:	41 55                	push   %r13
    dbc4:	48 81 ec f8 00 00 00 	sub    $0xf8,%rsp
    dbcb:	48 89 54 24 40       	mov    %rdx,0x40(%rsp)
    dbd0:	48 89 4c 24 48       	mov    %rcx,0x48(%rsp)
    dbd5:	4c 89 44 24 50       	mov    %r8,0x50(%rsp)
    dbda:	4c 89 4c 24 58       	mov    %r9,0x58(%rsp)
    dbdf:	44 0f b6 d8          	movzbl %al,%r11d
    dbe3:	4a 8d 04 9d 00 00 00 	lea    0x0(,%r11,4),%rax
    dbea:	00 
    dbeb:	4c 8d 1d 2e 00 00 00 	lea    46(%rip),%r11        # dc20 <irc__get_msg+0x60>
    dbf2:	4c 2b d8             	sub    %rax,%r11
    dbf5:	48 8d 84 24 df 00 00 	lea    0xdf(%rsp),%rax
    dbfc:	00 
    dbfd:	41 ff e3             	jmpq   *%r11
    dc00:	0f 29 78 f1          	movaps %xmm7,0xfffffffffffffff1(%rax)
    dc04:	0f 29 70 e1          	movaps %xmm6,0xffffffffffffffe1(%rax)
    dc08:	0f 29 68 d1          	movaps %xmm5,0xffffffffffffffd1(%rax)
    dc0c:	0f 29 60 c1          	movaps %xmm4,0xffffffffffffffc1(%rax)
    dc10:	0f 29 58 b1          	movaps %xmm3,0xffffffffffffffb1(%rax)
    dc14:	0f 29 50 a1          	movaps %xmm2,0xffffffffffffffa1(%rax)
    dc18:	0f 29 48 91          	movaps %xmm1,0xffffffffffffff91(%rax)
    dc1c:	0f 29 40 81          	movaps %xmm0,0xffffffffffffff81(%rax)
    dc20:	41 89 f6             	mov    %esi,%r14d
    dc23:	41 89 fd             	mov    %edi,%r13d
    dc26:	45 85 ed             	test   %r13d,%r13d
    dc29:	0f 84 85 00 00 00    	je     dcb4 <irc__get_msg+0xf4>
    dc2f:	8b 05 2b 24 10 00    	mov    1057835(%rip),%eax        # 110060 <_IO_stdin_used+0x102060>
    dc35:	85 c0                	test   %eax,%eax
    dc37:	74 35                	je     dc6e <irc__get_msg+0xae>
    dc39:	c7 05 1d 24 10 00 00 	movl   $0x0,1057821(%rip)        # 110060 <_IO_stdin_used+0x102060>
    dc40:	00 00 00 
    dc43:	48 8d 3d be 03 00 00 	lea    958(%rip),%rdi        # e008 <_IO_stdin_used+0x8>
    dc4a:	33 f6                	xor    %esi,%esi
    dc4c:	e8 67 d9 ff ff       	callq  b5b8 <printf@plt+0x8>
    dc51:	48 89 05 88 2b 10 00 	mov    %rax,1059720(%rip)        # 1107e0 <__bss_start+0x1e0>
    dc58:	48 83 f8 ff          	cmp    $0xffffffffffffffff,%rax
    dc5c:	0f 84 c7 00 00 00    	je     dd29 <irc__get_msg+0x169>
    dc62:	c7 05 04 24 10 00 00 	movl   $0x0,1057796(%rip)        # 110070 <_IO_stdin_used+0x102070>
    dc69:	00 00 00 
    dc6c:	eb 1e                	jmp    dc8c <irc__get_msg+0xcc>
    dc6e:	8b 05 fc 23 10 00    	mov    1057788(%rip),%eax        # 110070 <_IO_stdin_used+0x102070>
    dc74:	85 c0                	test   %eax,%eax
    dc76:	74 14                	je     dc8c <irc__get_msg+0xcc>
    dc78:	49 63 c5             	movslq %r13d,%rax
    dc7b:	48 c1 e0 04          	shl    $0x4,%rax
    dc7f:	48 8d 15 22 24 10 00 	lea    1057826(%rip),%rdx        # 1100a8 <_IO_stdin_used+0x1020a8>
    dc86:	48 8b 04 10          	mov    (%rax,%rdx,1),%rax
    dc8a:	eb 2f                	jmp    dcbb <irc__get_msg+0xfb>
    dc8c:	48 8b 3d 4d 2b 10 00 	mov    1059661(%rip),%rdi        # 1107e0 <__bss_start+0x1e0>
    dc93:	49 63 c5             	movslq %r13d,%rax
    dc96:	48 c1 e0 04          	shl    $0x4,%rax
    dc9a:	4c 8d 05 07 24 10 00 	lea    1057799(%rip),%r8        # 1100a8 <_IO_stdin_used+0x1020a8>
    dca1:	4a 8b 0c 00          	mov    (%rax,%r8,1),%rcx
    dca5:	be 01 00 00 00       	mov    $0x1,%esi
    dcaa:	44 89 ea             	mov    %r13d,%edx
    dcad:	e8 96 d8 ff ff       	callq  b548 <__libc_start_main@plt+0x8>
    dcb2:	eb 07                	jmp    dcbb <irc__get_msg+0xfb>
    dcb4:	48 8d 05 5d 03 00 00 	lea    861(%rip),%rax        # e018 <_IO_stdin_used+0x18>
    dcbb:	45 85 f6             	test   %r14d,%r14d
    dcbe:	7e 5d                	jle    dd1d <irc__get_msg+0x15d>
    dcc0:	c7 84 24 e0 00 00 00 	movl   $0x10,0xe0(%rsp)
    dcc7:	10 00 00 00 
    dccb:	48 8d 94 24 10 01 00 	lea    0x110(%rsp),%rdx
    dcd2:	00 
    dcd3:	48 8d 4c 24 30       	lea    0x30(%rsp),%rcx
    dcd8:	c7 84 24 e4 00 00 00 	movl   $0x30,0xe4(%rsp)
    dcdf:	30 00 00 00 
    dce3:	48 89 94 24 e8 00 00 	mov    %rdx,0xe8(%rsp)
    dcea:	00 
    dceb:	48 89 8c 24 f0 00 00 	mov    %rcx,0xf0(%rsp)
    dcf2:	00 
    dcf3:	48 8d 94 24 e0 00 00 	lea    0xe0(%rsp),%rdx
    dcfa:	00 
    dcfb:	48 8d 3d de 28 10 00 	lea    1059038(%rip),%rdi        # 1105e0 <__xxref+0x320>
    dd02:	48 89 c6             	mov    %rax,%rsi
    dd05:	e8 4e d8 ff ff       	callq  b558 <catgets@plt+0x8>
    dd0a:	48 8d 05 cf 28 10 00 	lea    1059023(%rip),%rax        # 1105e0 <__xxref+0x320>
    dd11:	48 81 c4 f8 00 00 00 	add    $0xf8,%rsp
    dd18:	41 5d                	pop    %r13
    dd1a:	41 5e                	pop    %r14
    dd1c:	c3                   	retq   
    dd1d:	48 81 c4 f8 00 00 00 	add    $0xf8,%rsp
    dd24:	41 5d                	pop    %r13
    dd26:	41 5e                	pop    %r14
    dd28:	c3                   	retq   
    dd29:	48 8d 3d e4 02 00 00 	lea    740(%rip),%rdi        # e014 <_IO_stdin_used+0x14>
    dd30:	e8 33 d8 ff ff       	callq  b568 <vsprintf@plt+0x8>
    dd35:	48 8d 3c 24          	lea    (%rsp),%rdi
    dd39:	48 8d 35 d8 02 00 00 	lea    728(%rip),%rsi        # e018 <_IO_stdin_used+0x18>
    dd40:	48 83 f8 00          	cmp    $0x0,%rax
    dd44:	48 0f 45 f0          	cmovne %rax,%rsi
    dd48:	ba 28 00 00 00       	mov    $0x28,%edx
    dd4d:	e8 26 d8 ff ff       	callq  b578 <getenv@plt+0x8>
    dd52:	48 8d 3c 24          	lea    (%rsp),%rdi
    dd56:	be 2e 00 00 00       	mov    $0x2e,%esi
    dd5b:	e8 68 d8 ff ff       	callq  b5c8 <catopen@plt+0x8>
    dd60:	48 85 c0             	test   %rax,%rax
    dd63:	74 2f                	je     dd94 <irc__get_msg+0x1d4>
    dd65:	c6 00 00             	movb   $0x0,(%rax)
    dd68:	48 8d 34 24          	lea    (%rsp),%rsi
    dd6c:	48 8d 3d a1 02 00 00 	lea    673(%rip),%rdi        # e014 <_IO_stdin_used+0x14>
    dd73:	ba 01 00 00 00       	mov    $0x1,%edx
    dd78:	e8 0b d8 ff ff       	callq  b588 <strncpy@plt+0x8>
    dd7d:	48 8d 3d 84 02 00 00 	lea    644(%rip),%rdi        # e008 <_IO_stdin_used+0x8>
    dd84:	33 f6                	xor    %esi,%esi
    dd86:	e8 2d d8 ff ff       	callq  b5b8 <printf@plt+0x8>
    dd8b:	48 89 05 4e 2a 10 00 	mov    %rax,1059406(%rip)        # 1107e0 <__bss_start+0x1e0>
    dd92:	eb 07                	jmp    dd9b <irc__get_msg+0x1db>
    dd94:	48 8b 05 45 2a 10 00 	mov    1059397(%rip),%rax        # 1107e0 <__bss_start+0x1e0>
    dd9b:	48 83 f8 ff          	cmp    $0xffffffffffffffff,%rax
    dd9f:	0f 85 bd fe ff ff    	jne    dc62 <irc__get_msg+0xa2>
    dda5:	e9 c4 fe ff ff       	jmpq   dc6e <irc__get_msg+0xae>
    ddaa:	90                   	nop    
    ddab:	48 8d 74 26 00       	lea    0x0(%rsi),%rsi

000000000000ddb0 <__intel_cpu_indicator_init>:
    ddb0:	50                   	push   %rax
    ddb1:	52                   	push   %rdx
    ddb2:	51                   	push   %rcx
    ddb3:	53                   	push   %rbx
    ddb4:	57                   	push   %rdi
    ddb5:	56                   	push   %rsi
    ddb6:	55                   	push   %rbp
    ddb7:	41 54                	push   %r12
    ddb9:	41 55                	push   %r13
    ddbb:	41 56                	push   %r14
    ddbd:	41 57                	push   %r15
    ddbf:	48 89 e5             	mov    %rsp,%rbp
    ddc2:	48 83 ec 50          	sub    $0x50,%rsp
    ddc6:	9c                   	pushfq 
    ddc7:	58                   	pop    %rax
    ddc8:	48 89 c1             	mov    %rax,%rcx
    ddcb:	48 35 00 00 20 00    	xor    $0x200000,%rax
    ddd1:	50                   	push   %rax
    ddd2:	9d                   	popfq  
    ddd3:	9c                   	pushfq 
    ddd4:	58                   	pop    %rax
    ddd5:	48 3b c1             	cmp    %rcx,%rax
    ddd8:	74 2a                	je     de04 <__intel_cpu_indicator_init+0x54>
    ddda:	51                   	push   %rcx
    dddb:	9d                   	popfq  
    dddc:	48 33 c0             	xor    %rax,%rax
    dddf:	0f a2                	cpuid  
    dde1:	89 45 f8             	mov    %eax,0xfffffffffffffff8(%rbp)
    dde4:	89 5d fc             	mov    %ebx,0xfffffffffffffffc(%rbp)
    dde7:	89 4d ec             	mov    %ecx,0xffffffffffffffec(%rbp)
    ddea:	89 55 f4             	mov    %edx,0xfffffffffffffff4(%rbp)
    dded:	48 c7 c0 01 00 00 00 	mov    $0x1,%rax
    ddf4:	0f a2                	cpuid  
    ddf6:	89 45 f0             	mov    %eax,0xfffffffffffffff0(%rbp)
    ddf9:	89 5d e0             	mov    %ebx,0xffffffffffffffe0(%rbp)
    ddfc:	89 4d e8             	mov    %ecx,0xffffffffffffffe8(%rbp)
    ddff:	89 55 e4             	mov    %edx,0xffffffffffffffe4(%rbp)
    de02:	eb 1b                	jmp    de1f <__intel_cpu_indicator_init+0x6f>
    de04:	48 33 c0             	xor    %rax,%rax
    de07:	89 45 f8             	mov    %eax,0xfffffffffffffff8(%rbp)
    de0a:	89 45 fc             	mov    %eax,0xfffffffffffffffc(%rbp)
    de0d:	89 45 ec             	mov    %eax,0xffffffffffffffec(%rbp)
    de10:	89 45 f4             	mov    %eax,0xfffffffffffffff4(%rbp)
    de13:	89 45 f0             	mov    %eax,0xfffffffffffffff0(%rbp)
    de16:	89 45 e0             	mov    %eax,0xffffffffffffffe0(%rbp)
    de19:	89 45 e8             	mov    %eax,0xffffffffffffffe8(%rbp)
    de1c:	89 45 e4             	mov    %eax,0xffffffffffffffe4(%rbp)
    de1f:	8b 45 fc             	mov    0xfffffffffffffffc(%rbp),%eax
    de22:	bb 01 00 00 00       	mov    $0x1,%ebx
    de27:	3d 47 65 6e 75       	cmp    $0x756e6547,%eax
    de2c:	75 1b                	jne    de49 <__intel_cpu_indicator_init+0x99>
    de2e:	8b 45 f4             	mov    0xfffffffffffffff4(%rbp),%eax
    de31:	3d 69 6e 65 49       	cmp    $0x49656e69,%eax
    de36:	75 11                	jne    de49 <__intel_cpu_indicator_init+0x99>
    de38:	8b 45 ec             	mov    0xffffffffffffffec(%rbp),%eax
    de3b:	3d 6e 74 65 6c       	cmp    $0x6c65746e,%eax
    de40:	75 07                	jne    de49 <__intel_cpu_indicator_init+0x99>
    de42:	ba 01 00 00 00       	mov    $0x1,%edx
    de47:	eb 02                	jmp    de4b <__intel_cpu_indicator_init+0x9b>
    de49:	33 d2                	xor    %edx,%edx
    de4b:	8b 45 f8             	mov    0xfffffffffffffff8(%rbp),%eax
    de4e:	85 c0                	test   %eax,%eax
    de50:	0f 84 8e 00 00 00    	je     dee4 <__intel_cpu_indicator_init+0x134>
    de56:	85 d2                	test   %edx,%edx
    de58:	0f 84 86 00 00 00    	je     dee4 <__intel_cpu_indicator_init+0x134>
    de5e:	0f b6 45 f1          	movzbl 0xfffffffffffffff1(%rbp),%eax
    de62:	83 e0 0f             	and    $0xf,%eax
    de65:	83 f8 0f             	cmp    $0xf,%eax
    de68:	75 15                	jne    de7f <__intel_cpu_indicator_init+0xcf>
    de6a:	8b 45 e8             	mov    0xffffffffffffffe8(%rbp),%eax
    de6d:	ba 00 08 00 00       	mov    $0x800,%edx
    de72:	bb 01 00 00 00       	mov    $0x1,%ebx
    de77:	83 e0 01             	and    $0x1,%eax
    de7a:	0f 45 da             	cmovne %edx,%ebx
    de7d:	eb 65                	jmp    dee4 <__intel_cpu_indicator_init+0x134>
    de7f:	83 f8 06             	cmp    $0x6,%eax
    de82:	75 60                	jne    dee4 <__intel_cpu_indicator_init+0x134>
    de84:	8b 55 e8             	mov    0xffffffffffffffe8(%rbp),%edx
    de87:	b9 00 00 01 00       	mov    $0x10000,%ecx
    de8c:	bb 00 08 00 00       	mov    $0x800,%ebx
    de91:	f6 c2 01             	test   $0x1,%dl
    de94:	75 05                	jne    de9b <__intel_cpu_indicator_init+0xeb>
    de96:	bb 01 00 00 00       	mov    $0x1,%ebx
    de9b:	f7 c2 00 02 00 00    	test   $0x200,%edx
    dea1:	89 d0                	mov    %edx,%eax
    dea3:	74 05                	je     deaa <__intel_cpu_indicator_init+0xfa>
    dea5:	bb 00 10 00 00       	mov    $0x1000,%ebx
    deaa:	f7 c2 00 00 40 00    	test   $0x400000,%edx
    deb0:	74 05                	je     deb7 <__intel_cpu_indicator_init+0x107>
    deb2:	bb 00 40 00 00       	mov    $0x4000,%ebx
    deb7:	f7 c2 00 00 08 00    	test   $0x80000,%edx
    debd:	74 05                	je     dec4 <__intel_cpu_indicator_init+0x114>
    debf:	bb 00 20 00 00       	mov    $0x2000,%ebx
    dec4:	25 00 00 90 00       	and    $0x900000,%eax
    dec9:	3d 00 00 90 00       	cmp    $0x900000,%eax
    dece:	75 05                	jne    ded5 <__intel_cpu_indicator_init+0x125>
    ded0:	bb 00 80 00 00       	mov    $0x8000,%ebx
    ded5:	81 e2 02 00 00 02    	and    $0x2000002,%edx
    dedb:	81 fa 02 00 00 02    	cmp    $0x2000002,%edx
    dee1:	0f 44 d9             	cmove  %ecx,%ebx
    dee4:	48 8b 05 bd 20 10 00 	mov    1056957(%rip),%rax        # 10ffa8 <_IO_stdin_used+0x101fa8>
    deeb:	89 18                	mov    %ebx,(%rax)
    deed:	48 83 c4 50          	add    $0x50,%rsp
    def1:	41 5f                	pop    %r15
    def3:	41 5e                	pop    %r14
    def5:	41 5d                	pop    %r13
    def7:	41 5c                	pop    %r12
    def9:	5d                   	pop    %rbp
    defa:	5e                   	pop    %rsi
    defb:	5f                   	pop    %rdi
    defc:	5b                   	pop    %rbx
    defd:	59                   	pop    %rcx
    defe:	5a                   	pop    %rdx
    deff:	58                   	pop    %rax
    df00:	c3                   	retq   
    df01:	48 8d b4 26 00 00 00 	lea    0x0(%rsi),%rsi
    df08:	00 
    df09:	48 8d bf 00 00 00 00 	lea    0x0(%rdi),%rdi

000000000000df10 <__libc_csu_fini>:
    df10:	f3 c3                	repz retq 
    df12:	66 66 66 90          	xchg   %ax,%ax
    df16:	66 66 66 90          	xchg   %ax,%ax
    df1a:	66 66 90             	xchg   %ax,%ax
    df1d:	66 66 90             	xchg   %ax,%ax

000000000000df20 <__libc_csu_init>:
    df20:	4c 89 64 24 e0       	mov    %r12,0xffffffffffffffe0(%rsp)
    df25:	4c 89 6c 24 e8       	mov    %r13,0xffffffffffffffe8(%rsp)
    df2a:	4c 8d 25 8f 1e 10 00 	lea    1056399(%rip),%r12        # 10fdc0 <_IO_stdin_used+0x101dc0>
    df31:	4c 89 74 24 f0       	mov    %r14,0xfffffffffffffff0(%rsp)
    df36:	4c 89 7c 24 f8       	mov    %r15,0xfffffffffffffff8(%rsp)
    df3b:	49 89 f6             	mov    %rsi,%r14
    df3e:	48 89 5c 24 d0       	mov    %rbx,0xffffffffffffffd0(%rsp)
    df43:	48 89 6c 24 d8       	mov    %rbp,0xffffffffffffffd8(%rsp)
    df48:	48 83 ec 38          	sub    $0x38,%rsp
    df4c:	41 89 ff             	mov    %edi,%r15d
    df4f:	49 89 d5             	mov    %rdx,%r13
    df52:	e8 b9 d5 ff ff       	callq  b510 <_init-0x8>
    df57:	48 8d 05 62 1e 10 00 	lea    1056354(%rip),%rax        # 10fdc0 <_IO_stdin_used+0x101dc0>
    df5e:	49 29 c4             	sub    %rax,%r12
    df61:	49 c1 fc 03          	sar    $0x3,%r12
    df65:	4d 85 e4             	test   %r12,%r12
    df68:	74 1e                	je     df88 <__libc_csu_init+0x68>
    df6a:	31 ed                	xor    %ebp,%ebp
    df6c:	48 89 c3             	mov    %rax,%rbx
    df6f:	90                   	nop    
    df70:	48 83 c5 01          	add    $0x1,%rbp
    df74:	4c 89 ea             	mov    %r13,%rdx
    df77:	4c 89 f6             	mov    %r14,%rsi
    df7a:	44 89 ff             	mov    %r15d,%edi
    df7d:	ff 13                	callq  *(%rbx)
    df7f:	48 83 c3 08          	add    $0x8,%rbx
    df83:	49 39 ec             	cmp    %rbp,%r12
    df86:	75 e8                	jne    df70 <__libc_csu_init+0x50>
    df88:	48 8b 5c 24 08       	mov    0x8(%rsp),%rbx
    df8d:	48 8b 6c 24 10       	mov    0x10(%rsp),%rbp
    df92:	4c 8b 64 24 18       	mov    0x18(%rsp),%r12
    df97:	4c 8b 6c 24 20       	mov    0x20(%rsp),%r13
    df9c:	4c 8b 74 24 28       	mov    0x28(%rsp),%r14
    dfa1:	4c 8b 7c 24 30       	mov    0x30(%rsp),%r15
    dfa6:	48 83 c4 38          	add    $0x38,%rsp
    dfaa:	c3                   	retq   
    dfab:	90                   	nop    
    dfac:	90                   	nop    
    dfad:	90                   	nop    
    dfae:	90                   	nop    
    dfaf:	90                   	nop    
    dfb0:	55                   	push   %rbp
    dfb1:	48 89 e5             	mov    %rsp,%rbp
    dfb4:	53                   	push   %rbx
    dfb5:	48 83 ec 08          	sub    $0x8,%rsp
    dfb9:	48 8b 05 00 1e 10 00 	mov    1056256(%rip),%rax        # 10fdc0 <_IO_stdin_used+0x101dc0>
    dfc0:	48 83 f8 ff          	cmp    $0xffffffffffffffff,%rax
    dfc4:	74 1a                	je     dfe0 <__libc_csu_init+0xc0>
    dfc6:	48 8d 1d f3 1d 10 00 	lea    1056243(%rip),%rbx        # 10fdc0 <_IO_stdin_used+0x101dc0>
    dfcd:	66 66 90             	xchg   %ax,%ax
    dfd0:	ff d0                	callq  *%rax
    dfd2:	48 8b 43 f8          	mov    0xfffffffffffffff8(%rbx),%rax
    dfd6:	48 83 eb 08          	sub    $0x8,%rbx
    dfda:	48 83 f8 ff          	cmp    $0xffffffffffffffff,%rax
    dfde:	75 f0                	jne    dfd0 <__libc_csu_init+0xb0>
    dfe0:	48 83 c4 08          	add    $0x8,%rsp
    dfe4:	5b                   	pop    %rbx
    dfe5:	c9                   	leaveq 
    dfe6:	c3                   	retq   
    dfe7:	90                   	nop    
Disassembly of section .fini:

000000000000dfe8 <_fini>:
    dfe8:	55                   	push   %rbp
    dfe9:	48 83 ec 08          	sub    $0x8,%rsp
    dfed:	e8 06 00 00 00       	callq  dff8 <_fini+0x10>
    dff2:	48 83 c4 08          	add    $0x8,%rsp
    dff6:	5d                   	pop    %rbp
    dff7:	c3                   	retq   
    dff8:	e8 53 d6 ff ff       	callq  b650 <_start+0x50>
    dffd:	c3                   	retq   
Disassembly of section .rodata:

000000000000e000 <_IO_stdin_used>:
    e000:	01 00                	add    %eax,(%rax)
    e002:	02 00                	add    (%rax),%al
    e004:	0a 00                	or     (%rax),%al
    e006:	00 00                	add    %al,(%rax)
    e008:	69 72 63 5f 6d 73 67 	imul   $0x67736d5f,0x63(%rdx),%esi
    e00f:	2e 63 61 74          	movslq %cs:0x74(%rcx),%esp
    e013:	00 4c 41 4e          	add    %cl,0x4e(%rcx,%rax,2)
    e017:	47 00 00             	rex.RXB add    %r8b,(%r8)
    e01a:	00 00                	add    %al,(%rax)
    e01c:	46                   	rex.RX
    e01d:	4f 52                	rex.WRXB push   %r10
    e01f:	4d                   	rex.WRB
    e020:	41                   	rex.B
    e021:	4c 00 00             	rex.WR add    %r8b,(%rax)
    e024:	52                   	push   %rdx
    e025:	45 54                	rex.RB push   %r12
    e027:	55                   	push   %rbp
    e028:	52                   	push   %rdx
    e029:	4e 00 00             	rex.WRX add    %r8b,(%rax)
    e02c:	47                   	rex.RXB
    e02d:	4c                   	rex.WR
    e02e:	4f                   	rex.WRXB
    e02f:	42                   	rex.X
    e030:	41                   	rex.B
    e031:	4c 00 00             	rex.WR add    %r8b,(%rax)
    e034:	09 49 33             	or     %ecx,0x33(%rcx)
    e037:	32 20                	xor    (%rax),%ah
    e039:	25 6c 78 20 21       	and    $0x2120786c,%eax
    e03e:	3d 20 25 6c 78       	cmp    $0x786c2520,%eax
    e043:	00 09                	add    %cl,(%rcx)
    e045:	53                   	push   %rbx
    e046:	49 33 32             	xor    (%r10),%rsi
    e049:	20 25 6c 64 20 21    	and    %ah,555770988(%rip)        # 212144bb <message_catalog.0+0x20bfe49b>
    e04f:	3d 20 25 6c 64       	cmp    $0x646c2520,%eax
    e054:	00 00                	add    %al,(%rax)
    e056:	00 00                	add    %al,(%rax)
    e058:	09 46 33             	or     %eax,0x33(%rsi)
    e05b:	32 20                	xor    (%rax),%ah
    e05d:	25 66 20 21 3d       	and    $0x3d212066,%eax
    e062:	20 25 66 00 00 00    	and    %ah,102(%rip)        # e0ce <_IO_stdin_used+0xce>
    e068:	09 49 36             	or     %ecx,0x36(%rcx)
    e06b:	34 20                	xor    $0x20,%al
    e06d:	25 6c 78 3a 25       	and    $0x253a786c,%eax
    e072:	6c                   	insb   (%dx),%es:(%rdi)
    e073:	78 20                	js     e095 <_IO_stdin_used+0x95>
    e075:	21 3d 20 25 6c 78    	and    %edi,2020353312(%rip)        # 786d059b <message_catalog.0+0x780ba57b>
    e07b:	3a 25 6c 78 00 09    	cmp    151025772(%rip),%ah        # 90158ed <message_catalog.0+0x89ff8cd>
    e081:	53                   	push   %rbx
    e082:	49                   	rex.WB
    e083:	36                   	ss
    e084:	34 20                	xor    $0x20,%al
    e086:	25 6c 64 3a 25       	and    $0x253a646c,%eax
    e08b:	6c                   	insb   (%dx),%es:(%rdi)
    e08c:	64 20 21             	and    %ah,%fs:(%rcx)
    e08f:	3d 20 25 6c 64       	cmp    $0x646c2520,%eax
    e094:	3a 25 6c 64 00 00    	cmp    25708(%rip),%ah        # 14506 <_IO_stdin_used+0x6506>
    e09a:	00 00                	add    %al,(%rax)
    e09c:	09 46 36             	or     %eax,0x36(%rsi)
    e09f:	34 20                	xor    $0x20,%al
    e0a1:	25 66 20 21 3d       	and    $0x3d212066,%eax
    e0a6:	20 25 66 00 00 00    	and    %ah,102(%rip)        # e112 <_IO_stdin_used+0x112>
    e0ac:	42 61                	rex.X (bad)  
    e0ae:	64 20 73 65          	and    %dh,%fs:0x65(%rbx)
    e0b2:	63 6f 6e             	movslq 0x6e(%rdi),%ebp
    e0b5:	64 20 61 72          	and    %ah,%fs:0x72(%rcx)
    e0b9:	67 75 6d             	addr32 jne e129 <_IO_stdin_used+0x129>
    e0bc:	65 6e                	outsb  %gs:(%rsi),(%dx)
    e0be:	74 00                	je     e0c0 <_IO_stdin_used+0xc0>
    e0c0:	73 65                	jae    e127 <_IO_stdin_used+0x127>
    e0c2:	67 6d                	addr32 insl (%dx),%es:(%edi)
    e0c4:	65 6e                	outsb  %gs:(%rsi),(%dx)
    e0c6:	74 5f                	je     e127 <_IO_stdin_used+0x127>
    e0c8:	73 69                	jae    e133 <_IO_stdin_used+0x133>
    e0ca:	7a 65                	jp     e131 <_IO_stdin_used+0x131>
    e0cc:	20 3d 20 30 78 25    	and    %bh,628633632(%rip)        # 257910f2 <message_catalog.0+0x2517b0d2>
    e0d2:	78 20                	js     e0f4 <_IO_stdin_used+0xf4>
    e0d4:	3d 20 25 64 00       	cmp    $0x642520,%eax
    e0d9:	00 00                	add    %al,(%rax)
    e0db:	00 49 6e             	add    %cl,0x6e(%rcx)
    e0de:	70 75                	jo     e155 <_IO_stdin_used+0x155>
    e0e0:	74 20                	je     e102 <_IO_stdin_used+0x102>
    e0e2:	66 69 6c 65 3a 20 25 	imul   $0x2520,0x3a(%rbp,2),%bp
    e0e9:	73 20                	jae    e10b <_IO_stdin_used+0x10b>
    e0eb:	63 6f 72             	movslq 0x72(%rdi),%ebp
    e0ee:	72 75                	jb     e165 <_IO_stdin_used+0x165>
    e0f0:	70 74                	jo     e166 <_IO_stdin_used+0x166>
    e0f2:	65 64 00 00          	add    %al,%fs:%gs:(%rax)
    e0f6:	00 00                	add    %al,(%rax)
    e0f8:	72 6f                	jb     e169 <_IO_stdin_used+0x169>
    e0fa:	75 74                	jne    e170 <_IO_stdin_used+0x170>
    e0fc:	69 6e 65 5f 6e 61 6d 	imul   $0x6d616e5f,0x65(%rsi),%ebp
    e103:	65 20 3d 20 27 25 73 	and    %bh,%gs:1931814688(%rip)        # 7326082a <message_catalog.0+0x72c4a80a>
    e10a:	27                   	(bad)  
    e10b:	00 66 69             	add    %ah,0x69(%rsi)
    e10e:	6c                   	insb   (%dx),%es:(%rdi)
    e10f:	65                   	gs
    e110:	5f                   	pop    %rdi
    e111:	6e                   	outsb  %ds:(%rsi),(%dx)
    e112:	61                   	(bad)  
    e113:	6d                   	insl   (%dx),%es:(%rdi)
    e114:	65 20 20             	and    %ah,%gs:(%rax)
    e117:	20 20                	and    %ah,(%rax)
    e119:	3d 20 27 25 73       	cmp    $0x73252720,%eax
    e11e:	27                   	(bad)  
    e11f:	00 70 72             	add    %dh,0x72(%rax)
    e122:	6f                   	outsl  %ds:(%rsi),(%dx)
    e123:	66 5f                	pop    %di
    e125:	64 69 72 20 20 20 20 	imul   $0x20202020,%fs:0x20(%rdx),%esi
    e12c:	20 
    e12d:	3d 20 27 25 73       	cmp    $0x73252720,%eax
    e132:	27                   	(bad)  
    e133:	00 4e 54             	add    %cl,0x54(%rsi)
    e136:	44                   	rex.R
    e137:	4c                   	rex.WR
    e138:	4c 20 6d 6f          	rex.WR and    %r13b,0x6f(%rbp)
    e13c:	64                   	fs
    e13d:	75 6c                	jne    e1ab <_IO_stdin_used+0x1ab>
    e13f:	65 20 6e 6f          	and    %ch,%gs:0x6f(%rsi)
    e143:	74 20                	je     e165 <_IO_stdin_used+0x165>
    e145:	66 6f                	outsw  %ds:(%rsi),(%dx)
    e147:	75 6e                	jne    e1b7 <_IO_stdin_used+0x1b7>
    e149:	64 00 00             	add    %al,%fs:(%rax)
    e14c:	53                   	push   %rbx
    e14d:	69 67 6e 61 6c 20 25 	imul   $0x25206c61,0x6e(%rdi),%esp
    e154:	73 20                	jae    e176 <_IO_stdin_used+0x176>
    e156:	69 73 20 72 61 69 73 	imul   $0x73696172,0x20(%rbx),%esi
    e15d:	65 64 00 53 69       	add    %dl,%fs:%gs:0x69(%rbx)
    e162:	67 6e                	addr32 outsb %ds:(%esi),(%dx)
    e164:	61                   	(bad)  
    e165:	6c                   	insb   (%dx),%es:(%rdi)
    e166:	20 25 73 20 69 73    	and    %ah,1936269427(%rip)        # 736a01df <message_catalog.0+0x7308a1bf>
    e16c:	20 72 61             	and    %dh,0x61(%rdx)
    e16f:	69 73 65 64 20 61 74 	imul   $0x74612064,0x65(%rbx),%esi
    e176:	20 30                	and    %dh,(%rax)
    e178:	78 25                	js     e19f <_IO_stdin_used+0x19f>
    e17a:	70 00                	jo     e17c <_IO_stdin_used+0x17c>
    e17c:	53                   	push   %rbx
    e17d:	49                   	rex.WB
    e17e:	47 53                	rex.RXB push   %r11
    e180:	45                   	rex.RB
    e181:	47 56                	rex.RXB push   %r14
    e183:	00 53 49             	add    %dl,0x49(%rbx)
    e186:	47                   	rex.RXB
    e187:	49                   	rex.WB
    e188:	4c                   	rex.WR
    e189:	4c 00 00             	rex.WR add    %r8b,(%rax)
    e18c:	53                   	push   %rbx
    e18d:	49                   	rex.WB
    e18e:	47                   	rex.RXB
    e18f:	42 55                	rex.X push   %rbp
    e191:	53                   	push   %rbx
    e192:	00 00                	add    %al,(%rax)
    e194:	53                   	push   %rbx
    e195:	49                   	rex.WB
    e196:	47                   	rex.RXB
    e197:	46 50                	rex.RX push   %rax
    e199:	45 00 00             	add    %r8b,(%r8)
    e19c:	75 6e                	jne    e20c <_IO_stdin_used+0x20c>
    e19e:	6b 6e 6f 77          	imul   $0x77,0x6f(%rsi),%ebp
    e1a2:	6e                   	outsb  %ds:(%rsi),(%dx)
    e1a3:	00 4e 6f             	add    %cl,0x6f(%rsi)
    e1a6:	20 65 72             	and    %ah,0x72(%rbp)
    e1a9:	72 6f                	jb     e21a <_IO_stdin_used+0x21a>
    e1ab:	72 00                	jb     e1ad <_IO_stdin_used+0x1ad>
    e1ad:	00 00                	add    %al,(%rax)
    e1af:	00 00                	add    %al,(%rax)
    e1b1:	00 00                	add    %al,(%rax)
    e1b3:	00 00                	add    %al,(%rax)
    e1b5:	00 00                	add    %al,(%rax)
    e1b7:	00 00                	add    %al,(%rax)
    e1b9:	00 00                	add    %al,(%rax)
    e1bb:	00 00                	add    %al,(%rax)
    e1bd:	00 00                	add    %al,(%rax)
    e1bf:	00 46 61             	add    %al,0x61(%rsi)
    e1c2:	74 61                	je     e225 <_IO_stdin_used+0x225>
    e1c4:	6c                   	insb   (%dx),%es:(%rdi)
    e1c5:	20 45 72             	and    %al,0x72(%rbp)
    e1c8:	72 6f                	jb     e239 <_IO_stdin_used+0x239>
    e1ca:	72 3a                	jb     e206 <_IO_stdin_used+0x206>
    e1cc:	20 54 68 69          	and    %dl,0x69(%rax,%rbp,2)
    e1d0:	73 20                	jae    e1f2 <_IO_stdin_used+0x1f2>
    e1d2:	70 72                	jo     e246 <_IO_stdin_used+0x246>
    e1d4:	6f                   	outsl  %ds:(%rsi),(%dx)
    e1d5:	67 72 61             	addr32 jb e239 <_IO_stdin_used+0x239>
    e1d8:	6d                   	insl   (%dx),%es:(%rdi)
    e1d9:	20 77 61             	and    %dh,0x61(%rdi)
    e1dc:	73 20                	jae    e1fe <_IO_stdin_used+0x1fe>
    e1de:	6e                   	outsb  %ds:(%rsi),(%dx)
    e1df:	6f                   	outsl  %ds:(%rsi),(%dx)
    e1e0:	74 20                	je     e202 <_IO_stdin_used+0x202>
    e1e2:	62                   	(bad)  
    e1e3:	75 69                	jne    e24e <_IO_stdin_used+0x24e>
    e1e5:	6c                   	insb   (%dx),%es:(%rdi)
    e1e6:	74 20                	je     e208 <_IO_stdin_used+0x208>
    e1e8:	74 6f                	je     e259 <_IO_stdin_used+0x259>
    e1ea:	20 72 75             	and    %dh,0x75(%rdx)
    e1ed:	6e                   	outsb  %ds:(%rsi),(%dx)
    e1ee:	20 6f 6e             	and    %ch,0x6e(%rdi)
    e1f1:	20 74 68 65          	and    %dh,0x65(%rax,%rbp,2)
    e1f5:	20 70 72             	and    %dh,0x72(%rax)
    e1f8:	6f                   	outsl  %ds:(%rsi),(%dx)
    e1f9:	63 65 73             	movslq 0x73(%rbp),%esp
    e1fc:	73 6f                	jae    e26d <_IO_stdin_used+0x26d>
    e1fe:	72 20                	jb     e220 <_IO_stdin_used+0x220>
    e200:	69 6e 20 79 6f 75 72 	imul   $0x72756f79,0x20(%rsi),%ebp
    e207:	20 73 79             	and    %dh,0x79(%rbx)
    e20a:	73 74                	jae    e280 <_IO_stdin_used+0x280>
    e20c:	65                   	gs
    e20d:	6d                   	insl   (%dx),%es:(%rdi)
    e20e:	2e 00 00             	add    %al,%cs:(%rax)
    e211:	00 00                	add    %al,(%rax)
    e213:	00 00                	add    %al,(%rax)
    e215:	00 00                	add    %al,(%rax)
    e217:	00 00                	add    %al,(%rax)
    e219:	00 00                	add    %al,(%rax)
    e21b:	00 00                	add    %al,(%rax)
    e21d:	00 00                	add    %al,(%rax)
    e21f:	00 52 75             	add    %dl,0x75(%rdx)
    e222:	6e                   	outsb  %ds:(%rsi),(%dx)
    e223:	2d 54 69 6d 65       	sub    $0x656d6954,%eax
    e228:	20 43 68             	and    %al,0x68(%rbx)
    e22b:	65 63 6b 20          	movslq %gs:0x20(%rbx),%ebp
    e22f:	46 61                	rex.RX (bad)  
    e231:	69 6c 75 72 65 3a 20 	imul   $0x54203a65,0x72(%rbp,%rsi,2),%ebp
    e238:	54 
    e239:	68 65 20 76 61       	pushq  $0x61762065
    e23e:	72 69                	jb     e2a9 <_IO_stdin_used+0x2a9>
    e240:	61                   	(bad)  
    e241:	62                   	(bad)  
    e242:	6c                   	insb   (%dx),%es:(%rdi)
    e243:	65 20 27             	and    %ah,%gs:(%rdi)
    e246:	25 73 27 20 69       	and    $0x69202773,%eax
    e24b:	73 20                	jae    e26d <_IO_stdin_used+0x26d>
    e24d:	62                   	(bad)  
    e24e:	65 69 6e 67 20 75 73 	imul   $0x65737520,%gs:0x67(%rsi),%ebp
    e255:	65 
    e256:	64 20 77 69          	and    %dh,%fs:0x69(%rdi)
    e25a:	74 68                	je     e2c4 <_IO_stdin_used+0x2c4>
    e25c:	6f                   	outsl  %ds:(%rsi),(%dx)
    e25d:	75 74                	jne    e2d3 <_IO_stdin_used+0x2d3>
    e25f:	20 62 65             	and    %ah,0x65(%rdx)
    e262:	69 6e 67 20 69 6e 69 	imul   $0x696e6920,0x67(%rsi),%ebp
    e269:	74 69                	je     e2d4 <_IO_stdin_used+0x2d4>
    e26b:	61                   	(bad)  
    e26c:	6c                   	insb   (%dx),%es:(%rdi)
    e26d:	69 7a 65 64 00 00 00 	imul   $0x64,0x65(%rdx),%edi
    e274:	00 00                	add    %al,(%rax)
    e276:	00 00                	add    %al,(%rax)
    e278:	00 00                	add    %al,(%rax)
    e27a:	00 00                	add    %al,(%rax)
    e27c:	00 00                	add    %al,(%rax)
    e27e:	00 00                	add    %al,(%rax)
    e280:	20 57 69             	and    %dl,0x69(%rdi)
    e283:	6e                   	outsb  %ds:(%rsi),(%dx)
    e284:	64 6f                	outsl  %fs:(%rsi),(%dx)
    e286:	77 73                	ja     e2fb <_IO_stdin_used+0x2fb>
    e288:	20 58 50             	and    %bl,0x50(%rax)
    e28b:	20 36                	and    %dh,(%rsi)
    e28d:	34 2d                	xor    $0x2d,%al
    e28f:	62                   	(bad)  
    e290:	69 74 20 45 64 69 74 	imul   $0x69746964,0x45(%rax),%esi
    e297:	69 
    e298:	6f                   	outsl  %ds:(%rsi),(%dx)
    e299:	6e                   	outsb  %ds:(%rsi),(%dx)
    e29a:	20 56 65             	and    %dl,0x65(%rsi)
    e29d:	72 73                	jb     e312 <_IO_stdin_used+0x312>
    e29f:	69 6f 6e 20 32 30 30 	imul   $0x30303220,0x6e(%rdi),%ebp
    e2a6:	33 20                	xor    (%rax),%esp
    e2a8:	6f                   	outsl  %ds:(%rsi),(%dx)
    e2a9:	72 20                	jb     e2cb <_IO_stdin_used+0x2cb>
    e2ab:	6e                   	outsb  %ds:(%rsi),(%dx)
    e2ac:	65                   	gs
    e2ad:	77 65                	ja     e314 <_IO_stdin_used+0x314>
    e2af:	72 20                	jb     e2d1 <_IO_stdin_used+0x2d1>
    e2b1:	73 68                	jae    e31b <_IO_stdin_used+0x31b>
    e2b3:	6f                   	outsl  %ds:(%rsi),(%dx)
    e2b4:	75 6c                	jne    e322 <_IO_stdin_used+0x322>
    e2b6:	64 20 62 65          	and    %ah,%fs:0x65(%rdx)
    e2ba:	20 75 73             	and    %dh,0x73(%rbp)
    e2bd:	65 64 2e 00 00       	add    %al,%cs:%fs:%gs:(%rax)
    e2c2:	00 00                	add    %al,(%rax)
    e2c4:	00 00                	add    %al,(%rax)
    e2c6:	00 00                	add    %al,(%rax)
    e2c8:	00 00                	add    %al,(%rax)
    e2ca:	00 00                	add    %al,(%rax)
    e2cc:	00 00                	add    %al,(%rax)
    e2ce:	00 00                	add    %al,(%rax)
    e2d0:	00 00                	add    %al,(%rax)
    e2d2:	00 00                	add    %al,(%rax)
    e2d4:	00 00                	add    %al,(%rax)
    e2d6:	00 00                	add    %al,(%rax)
    e2d8:	00 00                	add    %al,(%rax)
    e2da:	00 00                	add    %al,(%rax)
    e2dc:	00 00                	add    %al,(%rax)
    e2de:	00 00                	add    %al,(%rax)
    e2e0:	49 6e                	rex.WB outsb  %ds:(%rsi),(%dx)
    e2e2:	74 65                	je     e349 <_IO_stdin_used+0x349>
    e2e4:	6c                   	insb   (%dx),%es:(%rdi)
    e2e5:	28 52 29             	sub    %dl,0x29(%rdx)
    e2e8:	20 43 6f             	and    %al,0x6f(%rbx)
    e2eb:	72 65                	jb     e352 <_IO_stdin_used+0x352>
    e2ed:	28 54 4d 29          	sub    %dl,0x29(%rbp,%rcx,2)
    e2f1:	20 44 75 6f          	and    %al,0x6f(%rbp,%rsi,2)
    e2f5:	20 70 72             	and    %dh,0x72(%rax)
    e2f8:	6f                   	outsl  %ds:(%rsi),(%dx)
    e2f9:	63 65 73             	movslq 0x73(%rbp),%esp
    e2fc:	73 6f                	jae    e36d <_IO_stdin_used+0x36d>
    e2fe:	72 73                	jb     e373 <_IO_stdin_used+0x373>
    e300:	20 61 6e             	and    %ah,0x6e(%rcx)
    e303:	64 20 63 6f          	and    %ah,%fs:0x6f(%rbx)
    e307:	6d                   	insl   (%dx),%es:(%rdi)
    e308:	70 61                	jo     e36b <_IO_stdin_used+0x36b>
    e30a:	74 69                	je     e375 <_IO_stdin_used+0x375>
    e30c:	62                   	(bad)  
    e30d:	6c                   	insb   (%dx),%es:(%rdi)
    e30e:	65 20 49 6e          	and    %cl,%gs:0x6e(%rcx)
    e312:	74 65                	je     e379 <_IO_stdin_used+0x379>
    e314:	6c                   	insb   (%dx),%es:(%rdi)
    e315:	20 70 72             	and    %dh,0x72(%rax)
    e318:	6f                   	outsl  %ds:(%rsi),(%dx)
    e319:	63 65 73             	movslq 0x73(%rbp),%esp
    e31c:	73 6f                	jae    e38d <_IO_stdin_used+0x38d>
    e31e:	72 73                	jb     e393 <_IO_stdin_used+0x393>
    e320:	20 77 69             	and    %dh,0x69(%rdi)
    e323:	74 68                	je     e38d <_IO_stdin_used+0x38d>
    e325:	20 73 75             	and    %dh,0x75(%rbx)
    e328:	70 70                	jo     e39a <_IO_stdin_used+0x39a>
    e32a:	6c                   	insb   (%dx),%es:(%rdi)
    e32b:	65                   	gs
    e32c:	6d                   	insl   (%dx),%es:(%rdi)
    e32d:	65 6e                	outsb  %gs:(%rsi),(%dx)
    e32f:	74 61                	je     e392 <_IO_stdin_used+0x392>
    e331:	6c                   	insb   (%dx),%es:(%rdi)
    e332:	20 53 74             	and    %dl,0x74(%rbx)
    e335:	72 65                	jb     e39c <_IO_stdin_used+0x39c>
    e337:	61                   	(bad)  
    e338:	6d                   	insl   (%dx),%es:(%rdi)
    e339:	69 6e 67 20 53 49 4d 	imul   $0x4d495320,0x67(%rsi),%ebp
    e340:	44 20 45 78          	and    %r8b,0x78(%rbp)
    e344:	74 65                	je     e3ab <_IO_stdin_used+0x3ab>
    e346:	6e                   	outsb  %ds:(%rsi),(%dx)
    e347:	73 69                	jae    e3b2 <_IO_stdin_used+0x3b2>
    e349:	6f                   	outsl  %ds:(%rsi),(%dx)
    e34a:	6e                   	outsb  %ds:(%rsi),(%dx)
    e34b:	73 20                	jae    e36d <_IO_stdin_used+0x36d>
    e34d:	33 20                	xor    (%rax),%esp
    e34f:	28 53 53             	sub    %dl,0x53(%rbx)
    e352:	53                   	push   %rbx
    e353:	45 33 29             	xor    (%r9),%r13d
    e356:	20 69 6e             	and    %ch,0x6e(%rcx)
    e359:	73 74                	jae    e3cf <_IO_stdin_used+0x3cf>
    e35b:	72 75                	jb     e3d2 <_IO_stdin_used+0x3d2>
    e35d:	63 74 69 6f          	movslq 0x6f(%rcx,%rbp,2),%esi
    e361:	6e                   	outsb  %ds:(%rsi),(%dx)
    e362:	20 73 75             	and    %dh,0x75(%rbx)
    e365:	70 70                	jo     e3d7 <_IO_stdin_used+0x3d7>
    e367:	6f                   	outsl  %ds:(%rsi),(%dx)
    e368:	72 74                	jb     e3de <_IO_stdin_used+0x3de>
    e36a:	00 00                	add    %al,(%rax)
    e36c:	00 00                	add    %al,(%rax)
    e36e:	00 00                	add    %al,(%rax)
    e370:	00 00                	add    %al,(%rax)
    e372:	00 00                	add    %al,(%rax)
    e374:	00 00                	add    %al,(%rax)
    e376:	00 00                	add    %al,(%rax)
    e378:	00 00                	add    %al,(%rax)
    e37a:	00 00                	add    %al,(%rax)
    e37c:	00 00                	add    %al,(%rax)
    e37e:	00 00                	add    %al,(%rax)
    e380:	49 6e                	rex.WB outsb  %ds:(%rsi),(%dx)
    e382:	74 65                	je     e3e9 <_IO_stdin_used+0x3e9>
    e384:	6c                   	insb   (%dx),%es:(%rdi)
    e385:	28 52 29             	sub    %dl,0x29(%rdx)
    e388:	20 50 65             	and    %dl,0x65(%rax)
    e38b:	6e                   	outsb  %ds:(%rsi),(%dx)
    e38c:	74 69                	je     e3f7 <_IO_stdin_used+0x3f7>
    e38e:	75 6d                	jne    e3fd <_IO_stdin_used+0x3fd>
    e390:	28 52 29             	sub    %dl,0x29(%rdx)
    e393:	20 34 20             	and    %dh,(%rax)
    e396:	61                   	(bad)  
    e397:	6e                   	outsb  %ds:(%rsi),(%dx)
    e398:	64 20 63 6f          	and    %ah,%fs:0x6f(%rbx)
    e39c:	6d                   	insl   (%dx),%es:(%rdi)
    e39d:	70 61                	jo     e400 <_IO_stdin_used+0x400>
    e39f:	74 69                	je     e40a <_IO_stdin_used+0x40a>
    e3a1:	62                   	(bad)  
    e3a2:	6c                   	insb   (%dx),%es:(%rdi)
    e3a3:	65 20 49 6e          	and    %cl,%gs:0x6e(%rcx)
    e3a7:	74 65                	je     e40e <_IO_stdin_used+0x40e>
    e3a9:	6c                   	insb   (%dx),%es:(%rdi)
    e3aa:	20 70 72             	and    %dh,0x72(%rax)
    e3ad:	6f                   	outsl  %ds:(%rsi),(%dx)
    e3ae:	63 65 73             	movslq 0x73(%rbp),%esp
    e3b1:	73 6f                	jae    e422 <_IO_stdin_used+0x422>
    e3b3:	72 73                	jb     e428 <_IO_stdin_used+0x428>
    e3b5:	20 77 69             	and    %dh,0x69(%rdi)
    e3b8:	74 68                	je     e422 <_IO_stdin_used+0x422>
    e3ba:	20 53 74             	and    %dl,0x74(%rbx)
    e3bd:	72 65                	jb     e424 <_IO_stdin_used+0x424>
    e3bf:	61                   	(bad)  
    e3c0:	6d                   	insl   (%dx),%es:(%rdi)
    e3c1:	69 6e 67 20 53 49 4d 	imul   $0x4d495320,0x67(%rsi),%ebp
    e3c8:	44 20 45 78          	and    %r8b,0x78(%rbp)
    e3cc:	74 65                	je     e433 <_IO_stdin_used+0x433>
    e3ce:	6e                   	outsb  %ds:(%rsi),(%dx)
    e3cf:	73 69                	jae    e43a <_IO_stdin_used+0x43a>
    e3d1:	6f                   	outsl  %ds:(%rsi),(%dx)
    e3d2:	6e                   	outsb  %ds:(%rsi),(%dx)
    e3d3:	73 20                	jae    e3f5 <_IO_stdin_used+0x3f5>
    e3d5:	33 20                	xor    (%rax),%esp
    e3d7:	28 53 53             	sub    %dl,0x53(%rbx)
    e3da:	45 33 29             	xor    (%r9),%r13d
    e3dd:	20 69 6e             	and    %ch,0x6e(%rcx)
    e3e0:	73 74                	jae    e456 <_IO_stdin_used+0x456>
    e3e2:	72 75                	jb     e459 <_IO_stdin_used+0x459>
    e3e4:	63 74 69 6f          	movslq 0x6f(%rcx,%rbp,2),%esi
    e3e8:	6e                   	outsb  %ds:(%rsi),(%dx)
    e3e9:	20 73 75             	and    %dh,0x75(%rbx)
    e3ec:	70 70                	jo     e45e <_IO_stdin_used+0x45e>
    e3ee:	6f                   	outsl  %ds:(%rsi),(%dx)
    e3ef:	72 74                	jb     e465 <_IO_stdin_used+0x465>
    e3f1:	00 00                	add    %al,(%rax)
    e3f3:	00 00                	add    %al,(%rax)
    e3f5:	00 00                	add    %al,(%rax)
    e3f7:	00 00                	add    %al,(%rax)
    e3f9:	00 00                	add    %al,(%rax)
    e3fb:	00 00                	add    %al,(%rax)
    e3fd:	00 00                	add    %al,(%rax)
    e3ff:	00 49 6e             	add    %cl,0x6e(%rcx)
    e402:	74 65                	je     e469 <_IO_stdin_used+0x469>
    e404:	6c                   	insb   (%dx),%es:(%rdi)
    e405:	28 52 29             	sub    %dl,0x29(%rdx)
    e408:	20 50 65             	and    %dl,0x65(%rax)
    e40b:	6e                   	outsb  %ds:(%rsi),(%dx)
    e40c:	74 69                	je     e477 <_IO_stdin_used+0x477>
    e40e:	75 6d                	jne    e47d <_IO_stdin_used+0x47d>
    e410:	28 52 29             	sub    %dl,0x29(%rdx)
    e413:	20 34 20             	and    %dh,(%rax)
    e416:	61                   	(bad)  
    e417:	6e                   	outsb  %ds:(%rsi),(%dx)
    e418:	64 20 63 6f          	and    %ah,%fs:0x6f(%rbx)
    e41c:	6d                   	insl   (%dx),%es:(%rdi)
    e41d:	70 61                	jo     e480 <_IO_stdin_used+0x480>
    e41f:	74 69                	je     e48a <_IO_stdin_used+0x48a>
    e421:	62                   	(bad)  
    e422:	6c                   	insb   (%dx),%es:(%rdi)
    e423:	65 20 49 6e          	and    %cl,%gs:0x6e(%rcx)
    e427:	74 65                	je     e48e <_IO_stdin_used+0x48e>
    e429:	6c                   	insb   (%dx),%es:(%rdi)
    e42a:	20 70 72             	and    %dh,0x72(%rax)
    e42d:	6f                   	outsl  %ds:(%rsi),(%dx)
    e42e:	63 65 73             	movslq 0x73(%rbp),%esp
    e431:	73 6f                	jae    e4a2 <_IO_stdin_used+0x4a2>
    e433:	72 73                	jb     e4a8 <_IO_stdin_used+0x4a8>
    e435:	2e 20 45 6e          	and    %al,%cs:0x6e(%rbp)
    e439:	61                   	(bad)  
    e43a:	62                   	(bad)  
    e43b:	6c                   	insb   (%dx),%es:(%rdi)
    e43c:	65                   	gs
    e43d:	73 20                	jae    e45f <_IO_stdin_used+0x45f>
    e43f:	6e                   	outsb  %ds:(%rsi),(%dx)
    e440:	65                   	gs
    e441:	77 20                	ja     e463 <_IO_stdin_used+0x463>
    e443:	6f                   	outsl  %ds:(%rsi),(%dx)
    e444:	70 74                	jo     e4ba <_IO_stdin_used+0x4ba>
    e446:	69 6d 69 7a 61 74 69 	imul   $0x6974617a,0x69(%rbp),%ebp
    e44d:	6f                   	outsl  %ds:(%rsi),(%dx)
    e44e:	6e                   	outsb  %ds:(%rsi),(%dx)
    e44f:	73 20                	jae    e471 <_IO_stdin_used+0x471>
    e451:	69 6e 20 61 64 64 69 	imul   $0x69646461,0x20(%rsi),%ebp
    e458:	74 69                	je     e4c3 <_IO_stdin_used+0x4c3>
    e45a:	6f                   	outsl  %ds:(%rsi),(%dx)
    e45b:	6e                   	outsb  %ds:(%rsi),(%dx)
    e45c:	20 74 6f 20          	and    %dh,0x20(%rdi,%rbp,2)
    e460:	49 6e                	rex.WB outsb  %ds:(%rsi),(%dx)
    e462:	74 65                	je     e4c9 <_IO_stdin_used+0x4c9>
    e464:	6c                   	insb   (%dx),%es:(%rdi)
    e465:	20 70 72             	and    %dh,0x72(%rax)
    e468:	6f                   	outsl  %ds:(%rsi),(%dx)
    e469:	63 65 73             	movslq 0x73(%rbp),%esp
    e46c:	73 6f                	jae    e4dd <_IO_stdin_used+0x4dd>
    e46e:	72 2d                	jb     e49d <_IO_stdin_used+0x49d>
    e470:	73 70                	jae    e4e2 <_IO_stdin_used+0x4e2>
    e472:	65 63 69 66          	movslq %gs:0x66(%rcx),%ebp
    e476:	69 63 20 6f 70 74 69 	imul   $0x6974706f,0x20(%rbx),%esp
    e47d:	6d                   	insl   (%dx),%es:(%rdi)
    e47e:	69 7a 61 74 69 6f 6e 	imul   $0x6e6f6974,0x61(%rdx),%edi
    e485:	73 00                	jae    e487 <_IO_stdin_used+0x487>
    e487:	00 00                	add    %al,(%rax)
    e489:	00 00                	add    %al,(%rax)
    e48b:	00 00                	add    %al,(%rax)
    e48d:	00 00                	add    %al,(%rax)
    e48f:	00 00                	add    %al,(%rax)
    e491:	00 00                	add    %al,(%rax)
    e493:	00 00                	add    %al,(%rax)
    e495:	00 00                	add    %al,(%rax)
    e497:	00 00                	add    %al,(%rax)
    e499:	00 00                	add    %al,(%rax)
    e49b:	00 00                	add    %al,(%rax)
    e49d:	00 00                	add    %al,(%rax)
    e49f:	00 49 6e             	add    %cl,0x6e(%rcx)
    e4a2:	74 65                	je     e509 <_IO_stdin_used+0x509>
    e4a4:	6c                   	insb   (%dx),%es:(%rdi)
    e4a5:	28 52 29             	sub    %dl,0x29(%rdx)
    e4a8:	20 70 72             	and    %dh,0x72(%rax)
    e4ab:	6f                   	outsl  %ds:(%rsi),(%dx)
    e4ac:	63 65 73             	movslq 0x73(%rbp),%esp
    e4af:	73 6f                	jae    e520 <_IO_stdin_used+0x520>
    e4b1:	72 73                	jb     e526 <_IO_stdin_used+0x526>
    e4b3:	20 77 69             	and    %dh,0x69(%rdi)
    e4b6:	74 68                	je     e520 <_IO_stdin_used+0x520>
    e4b8:	20 53 53             	and    %dl,0x53(%rbx)
    e4bb:	45 34 2e             	rex.RB xor    $0x2e,%al
    e4be:	32 20                	xor    (%rax),%ah
    e4c0:	61                   	(bad)  
    e4c1:	6e                   	outsb  %ds:(%rsi),(%dx)
    e4c2:	64 20 50 4f          	and    %dl,%fs:0x4f(%rax)
    e4c6:	50                   	push   %rax
    e4c7:	43                   	rex.XB
    e4c8:	4e 54                	rex.WRX push   %rsp
    e4ca:	20 69 6e             	and    %ch,0x6e(%rcx)
    e4cd:	73 74                	jae    e543 <_IO_stdin_used+0x543>
    e4cf:	72 75                	jb     e546 <_IO_stdin_used+0x546>
    e4d1:	63 74 69 6f          	movslq 0x6f(%rcx,%rbp,2),%esi
    e4d5:	6e                   	outsb  %ds:(%rsi),(%dx)
    e4d6:	73 20                	jae    e4f8 <_IO_stdin_used+0x4f8>
    e4d8:	73 75                	jae    e54f <_IO_stdin_used+0x54f>
    e4da:	70 70                	jo     e54c <_IO_stdin_used+0x54c>
    e4dc:	6f                   	outsl  %ds:(%rsi),(%dx)
    e4dd:	72 74                	jb     e553 <_IO_stdin_used+0x553>
    e4df:	00 43 6f             	add    %al,0x6f(%rbx)
    e4e2:	6e                   	outsb  %ds:(%rsi),(%dx)
    e4e3:	73 74                	jae    e559 <_IO_stdin_used+0x559>
    e4e5:	61                   	(bad)  
    e4e6:	6e                   	outsb  %ds:(%rsi),(%dx)
    e4e7:	74 20                	je     e509 <_IO_stdin_used+0x509>
    e4e9:	70 72                	jo     e55d <_IO_stdin_used+0x55d>
    e4eb:	6f                   	outsl  %ds:(%rsi),(%dx)
    e4ec:	70 61                	jo     e54f <_IO_stdin_used+0x54f>
    e4ee:	67 61                	addr32 (bad) 
    e4f0:	74 69                	je     e55b <_IO_stdin_used+0x55b>
    e4f2:	6f                   	outsl  %ds:(%rsi),(%dx)
    e4f3:	6e                   	outsb  %ds:(%rsi),(%dx)
    e4f4:	20 65 72             	and    %ah,0x72(%rbp)
    e4f7:	72 6f                	jb     e568 <_IO_stdin_used+0x568>
    e4f9:	72 20                	jb     e51b <_IO_stdin_used+0x51b>
    e4fb:	28 25 73 20 73 75    	sub    %ah,1970479219(%rip)        # 75740574 <message_catalog.0+0x7512a554>
    e501:	62                   	(bad)  
    e502:	73 74                	jae    e578 <_IO_stdin_used+0x578>
    e504:	69 74 75 74 69 6f 6e 	imul   $0x296e6f69,0x74(%rbp,%rsi,2),%esi
    e50b:	29 
    e50c:	3a 00                	cmp    (%rax),%al
    e50e:	00 00                	add    %al,(%rax)
    e510:	46 61                	rex.RX (bad)  
    e512:	74 61                	je     e575 <_IO_stdin_used+0x575>
    e514:	6c                   	insb   (%dx),%es:(%rdi)
    e515:	20 45 72             	and    %al,0x72(%rbp)
    e518:	72 6f                	jb     e589 <_IO_stdin_used+0x589>
    e51a:	72 3a                	jb     e556 <_IO_stdin_used+0x556>
    e51c:	20 43 61             	and    %al,0x61(%rbx)
    e51f:	6e                   	outsb  %ds:(%rsi),(%dx)
    e520:	20 6e 6f             	and    %ch,0x6f(%rsi)
    e523:	74 20                	je     e545 <_IO_stdin_used+0x545>
    e525:	69 6e 69 74 69 61 74 	imul   $0x74616974,0x69(%rsi),%ebp
    e52c:	65 20 74 68 65       	and    %dh,%gs:0x65(%rax,%rbp,2)
    e531:	20 48 65             	and    %cl,0x65(%rax)
    e534:	61                   	(bad)  
    e535:	70 00                	jo     e537 <_IO_stdin_used+0x537>
    e537:	00 55 73             	add    %dl,0x73(%rbp)
    e53a:	61                   	(bad)  
    e53b:	67 65 3a 20          	addr32 cmp %gs:(%eax),%ah
    e53f:	25 73 20 69 6e       	and    $0x6e692073,%eax
    e544:	70 75                	jo     e5bb <_IO_stdin_used+0x5bb>
    e546:	74 5f                	je     e5a7 <_IO_stdin_used+0x5a7>
    e548:	66 69 6c 65 20 6f 75 	imul   $0x756f,0x20(%rbp,2),%bp
    e54f:	74 70                	je     e5c1 <_IO_stdin_used+0x5c1>
    e551:	75 74                	jne    e5c7 <_IO_stdin_used+0x5c7>
    e553:	5f                   	pop    %rdi
    e554:	66 69 6c 65 00 00 00 	imul   $0x0,0x0(%rbp,2),%bp
    e55b:	00 55 73             	add    %dl,0x73(%rbp)
    e55e:	61                   	(bad)  
    e55f:	67 65 3a 20          	addr32 cmp %gs:(%eax),%ah
    e563:	25 73 20 73 65       	and    $0x65732073,%eax
    e568:	67 6d                	addr32 insl (%dx),%es:(%edi)
    e56a:	65 6e                	outsb  %gs:(%rsi),(%dx)
    e56c:	74 5f                	je     e5cd <_IO_stdin_used+0x5cd>
    e56e:	73 69                	jae    e5d9 <_IO_stdin_used+0x5d9>
    e570:	7a 65                	jp     e5d7 <_IO_stdin_used+0x5d7>
    e572:	20 69 6e             	and    %ch,0x6e(%rcx)
    e575:	70 75                	jo     e5ec <_IO_stdin_used+0x5ec>
    e577:	74 5f                	je     e5d8 <_IO_stdin_used+0x5d8>
    e579:	66 69 6c 65 20 5b 2d 	imul   $0x2d5b,0x20(%rbp,2),%bp
    e580:	74 72                	je     e5f4 <_IO_stdin_used+0x5f4>
    e582:	61                   	(bad)  
    e583:	63 65 5d             	movslq 0x5d(%rbp),%esp
    e586:	00 00                	add    %al,(%rax)
    e588:	43 6f                	rex.XB outsl  %ds:(%rsi),(%dx)
    e58a:	6e                   	outsb  %ds:(%rsi),(%dx)
    e58b:	76 65                	jbe    e5f2 <_IO_stdin_used+0x5f2>
    e58d:	72 73                	jb     e602 <_IO_stdin_used+0x602>
    e58f:	69 6f 6e 20 66 72 6f 	imul   $0x6f726620,0x6e(%rdi),%ebp
    e596:	6d                   	insl   (%dx),%es:(%rdi)
    e597:	20 74 65 78          	and    %dh,0x78(%rbp,2)
    e59b:	74 20                	je     e5bd <_IO_stdin_used+0x5bd>
    e59d:	66 69 6c 65 20 25 73 	imul   $0x7325,0x20(%rbp,2),%bp
    e5a4:	20 74 6f 20          	and    %dh,0x20(%rdi,%rbp,2)
    e5a8:	62                   	(bad)  
    e5a9:	69 6e 61 72 79 20 25 	imul   $0x25207972,0x61(%rsi),%ebp
    e5b0:	73 20                	jae    e5d2 <_IO_stdin_used+0x5d2>
    e5b2:	63 6f 6d             	movslq 0x6d(%rdi),%ebp
    e5b5:	70 6c                	jo     e623 <_IO_stdin_used+0x623>
    e5b7:	65                   	gs
    e5b8:	74 65                	je     e61f <_IO_stdin_used+0x61f>
    e5ba:	64 00 43 61          	add    %al,%fs:0x61(%rbx)
    e5be:	6e                   	outsb  %ds:(%rsi),(%dx)
    e5bf:	6e                   	outsb  %ds:(%rsi),(%dx)
    e5c0:	6f                   	outsl  %ds:(%rsi),(%dx)
    e5c1:	74 20                	je     e5e3 <_IO_stdin_used+0x5e3>
    e5c3:	61                   	(bad)  
    e5c4:	6c                   	insb   (%dx),%es:(%rdi)
    e5c5:	6c                   	insb   (%dx),%es:(%rdi)
    e5c6:	6f                   	outsl  %ds:(%rsi),(%dx)
    e5c7:	63 61 74             	movslq 0x74(%rcx),%esp
    e5ca:	65 20 6d 65          	and    %ch,%gs:0x65(%rbp)
    e5ce:	6d                   	insl   (%dx),%es:(%rdi)
    e5cf:	6f                   	outsl  %ds:(%rsi),(%dx)
    e5d0:	72 79                	jb     e64b <_IO_stdin_used+0x64b>
    e5d2:	20 74 6f 20          	and    %dh,0x20(%rdi,%rbp,2)
    e5d6:	68 6f 6c 64 20       	pushq  $0x20646c6f
    e5db:	73 65                	jae    e642 <_IO_stdin_used+0x642>
    e5dd:	67 6d                	addr32 insl (%dx),%es:(%edi)
    e5df:	65 6e                	outsb  %gs:(%rsi),(%dx)
    e5e1:	74 20                	je     e603 <_IO_stdin_used+0x603>
    e5e3:	28 73 69             	sub    %dh,0x69(%rbx)
    e5e6:	7a 65                	jp     e64d <_IO_stdin_used+0x64d>
    e5e8:	20 3d 20 30 78 25    	and    %bh,628633632(%rip)        # 2579160e <message_catalog.0+0x2517b5ee>
    e5ee:	78 29                	js     e619 <_IO_stdin_used+0x619>
    e5f0:	00 00                	add    %al,(%rax)
    e5f2:	00 00                	add    %al,(%rax)
    e5f4:	44 79 6e             	rex.R jns    e665 <_IO_stdin_used+0x665>
    e5f7:	61                   	(bad)  
    e5f8:	6d                   	insl   (%dx),%es:(%rdi)
    e5f9:	69 63 20 70 72 6f 66 	imul   $0x666f7270,0x20(%rbx),%esp
    e600:	69 6c 65 20 63 72 65 	imul   $0x61657263,0x20(%rbp,2),%ebp
    e607:	61 
    e608:	74 65                	je     e66f <_IO_stdin_used+0x66f>
    e60a:	64 20 66 72          	and    %ah,%fs:0x72(%rsi)
    e60e:	6f                   	outsl  %ds:(%rsi),(%dx)
    e60f:	6d                   	insl   (%dx),%es:(%rdi)
    e610:	20 66 69             	and    %ah,0x69(%rsi)
    e613:	6c                   	insb   (%dx),%es:(%rdi)
    e614:	65 20 25 73 20 63 6f 	and    %ah,%gs:1868767347(%rip)        # 6f64068e <message_catalog.0+0x6f02a66e>
    e61b:	6d                   	insl   (%dx),%es:(%rdi)
    e61c:	70 6c                	jo     e68a <_IO_stdin_used+0x68a>
    e61e:	65                   	gs
    e61f:	74 65                	je     e686 <_IO_stdin_used+0x686>
    e621:	64 00 00             	add    %al,%fs:(%rax)
    e624:	54                   	push   %rsp
    e625:	68 65 20 61 6c       	pushq  $0x6c612065
    e62a:	6c                   	insb   (%dx),%es:(%rdi)
    e62b:	6f                   	outsl  %ds:(%rsi),(%dx)
    e62c:	77 65                	ja     e693 <_IO_stdin_used+0x693>
    e62e:	64 20 70 72          	and    %dh,%fs:0x72(%rax)
    e632:	6f                   	outsl  %ds:(%rsi),(%dx)
    e633:	63 65 73             	movslq 0x73(%rbp),%esp
    e636:	73 6f                	jae    e6a7 <_IO_stdin_used+0x6a7>
    e638:	72 73                	jb     e6ad <_IO_stdin_used+0x6ad>
    e63a:	20 61 72             	and    %ah,0x72(%rcx)
    e63d:	65 3a 20             	cmp    %gs:(%rax),%ah
    e640:	25 73 2e 00 45       	and    $0x45002e73,%eax
    e645:	72 72                	jb     e6b9 <_IO_stdin_used+0x6b9>
    e647:	6f                   	outsl  %ds:(%rsi),(%dx)
    e648:	72 3a                	jb     e684 <_IO_stdin_used+0x684>
    e64a:	20 20                	and    %ah,(%rax)
    e64c:	42 75 66             	rex.X jne    e6b5 <_IO_stdin_used+0x6b5>
    e64f:	66                   	data16
    e650:	65                   	gs
    e651:	72 20                	jb     e673 <_IO_stdin_used+0x673>
    e653:	6f                   	outsl  %ds:(%rsi),(%dx)
    e654:	76 65                	jbe    e6bb <_IO_stdin_used+0x6bb>
    e656:	72 72                	jb     e6ca <_IO_stdin_used+0x6ca>
    e658:	75 6e                	jne    e6c8 <_IO_stdin_used+0x6c8>
    e65a:	20 6f 63             	and    %ch,0x63(%rdi)
    e65d:	63 75 72             	movslq 0x72(%rbp),%esi
    e660:	72 65                	jb     e6c7 <_IO_stdin_used+0x6c7>
    e662:	64                   	fs
    e663:	2c 20                	sub    $0x20,%al
    e665:	66 6f                	outsw  %ds:(%rsi),(%dx)
    e667:	72 63                	jb     e6cc <_IO_stdin_used+0x6cc>
    e669:	65 64 20 65 78       	and    %ah,%fs:%gs:0x78(%rbp)
    e66e:	69 74 00 00 00 00 49 	imul   $0x6e490000,0x0(%rax,%rax,1),%esi
    e675:	6e 
    e676:	69 74 69 61 6c 69 7a 	imul   $0x617a696c,0x61(%rcx,%rbp,2),%esi
    e67d:	61 
    e67e:	74 69                	je     e6e9 <_IO_stdin_used+0x6e9>
    e680:	6f                   	outsl  %ds:(%rsi),(%dx)
    e681:	6e                   	outsb  %ds:(%rsi),(%dx)
    e682:	20 6f 66             	and    %ch,0x66(%rdi)
    e685:	20 73 79             	and    %dh,0x79(%rbx)
    e688:	6d                   	insl   (%dx),%es:(%rdi)
    e689:	62                   	(bad)  
    e68a:	6f                   	outsl  %ds:(%rsi),(%dx)
    e68b:	6c                   	insb   (%dx),%es:(%rdi)
    e68c:	20 68 61             	and    %ch,0x61(%rax)
    e68f:	6e                   	outsb  %ds:(%rsi),(%dx)
    e690:	64                   	fs
    e691:	6c                   	insb   (%dx),%es:(%rdi)
    e692:	65                   	gs
    e693:	72 20                	jb     e6b5 <_IO_stdin_used+0x6b5>
    e695:	66                   	data16
    e696:	61                   	(bad)  
    e697:	69 6c 65 64 2e 20 45 	imul   $0x7245202e,0x64(%rbp,2),%ebp
    e69e:	72 
    e69f:	72 6f                	jb     e710 <_IO_stdin_used+0x710>
    e6a1:	72 20                	jb     e6c3 <_IO_stdin_used+0x6c3>
    e6a3:	63 6f 64             	movslq 0x64(%rdi),%ebp
    e6a6:	65 20 25 64 00 00 52 	and    %ah,%gs:1375731812(%rip)        # 5200e711 <message_catalog.0+0x519f86f1>
    e6ad:	74 6c                	je     e71b <_IO_stdin_used+0x71b>
    e6af:	43 61                	rex.XB (bad)  
    e6b1:	70 74                	jo     e727 <_IO_stdin_used+0x727>
    e6b3:	75 72                	jne    e727 <_IO_stdin_used+0x727>
    e6b5:	65 43 6f             	rex.XB outsl  %gs:(%rsi),(%dx)
    e6b8:	6e                   	outsb  %ds:(%rsi),(%dx)
    e6b9:	74 65                	je     e720 <_IO_stdin_used+0x720>
    e6bb:	78 74                	js     e731 <_IO_stdin_used+0x731>
    e6bd:	20 66 75             	and    %ah,0x75(%rsi)
    e6c0:	6e                   	outsb  %ds:(%rsi),(%dx)
    e6c1:	63 74 69 6f          	movslq 0x6f(%rcx,%rbp,2),%esi
    e6c5:	6e                   	outsb  %ds:(%rsi),(%dx)
    e6c6:	20 6e 6f             	and    %ch,0x6f(%rsi)
    e6c9:	74 20                	je     e6eb <_IO_stdin_used+0x6eb>
    e6cb:	66 6f                	outsw  %ds:(%rsi),(%dx)
    e6cd:	75 6e                	jne    e73d <_IO_stdin_used+0x73d>
    e6cf:	64 20 69 6e          	and    %ch,%fs:0x6e(%rcx)
    e6d3:	20 6e 74             	and    %ch,0x74(%rsi)
    e6d6:	64                   	fs
    e6d7:	6c                   	insb   (%dx),%es:(%rdi)
    e6d8:	6c                   	insb   (%dx),%es:(%rdi)
    e6d9:	2e                   	cs
    e6da:	64                   	fs
    e6db:	6c                   	insb   (%dx),%es:(%rdi)
    e6dc:	6c                   	insb   (%dx),%es:(%rdi)
    e6dd:	00 00                	add    %al,(%rax)
    e6df:	00 53 74             	add    %dl,0x74(%rbx)
    e6e2:	61                   	(bad)  
    e6e3:	63 6b 57             	movslq 0x57(%rbx),%ebp
    e6e6:	61                   	(bad)  
    e6e7:	6c                   	insb   (%dx),%es:(%rdi)
    e6e8:	6b 20 69             	imul   $0x69,(%rax),%esp
    e6eb:	73 20                	jae    e70d <_IO_stdin_used+0x70d>
    e6ed:	74 65                	je     e754 <_IO_stdin_used+0x754>
    e6ef:	72 6d                	jb     e75e <_IO_stdin_used+0x75e>
    e6f1:	69 6e 61 74 65 64 20 	imul   $0x20646574,0x61(%rsi),%ebp
    e6f8:	61                   	(bad)  
    e6f9:	62                   	(bad)  
    e6fa:	6e                   	outsb  %ds:(%rsi),(%dx)
    e6fb:	6f                   	outsl  %ds:(%rsi),(%dx)
    e6fc:	72 6d                	jb     e76b <_IO_stdin_used+0x76b>
    e6fe:	61                   	(bad)  
    e6ff:	6c                   	insb   (%dx),%es:(%rdi)
    e700:	6c                   	insb   (%dx),%es:(%rdi)
    e701:	79 2e                	jns    e731 <_IO_stdin_used+0x731>
    e703:	20 45 72             	and    %al,0x72(%rbp)
    e706:	72 6f                	jb     e777 <_IO_stdin_used+0x777>
    e708:	72 20                	jb     e72a <_IO_stdin_used+0x72a>
    e70a:	63 6f 64             	movslq 0x64(%rdi),%ebp
    e70d:	65 20 25 64 00 00 00 	and    %ah,%gs:100(%rip)        # e778 <_IO_stdin_used+0x778>
    e714:	45 78 63             	rex.RB js     e77a <_IO_stdin_used+0x77a>
    e717:	65                   	gs
    e718:	70 74                	jo     e78e <_IO_stdin_used+0x78e>
    e71a:	69 6f 6e 20 69 73 20 	imul   $0x20736920,0x6e(%rdi),%ebp
    e721:	72 61                	jb     e784 <_IO_stdin_used+0x784>
    e723:	69 73 65 64 20 64 75 	imul   $0x75642064,0x65(%rbx),%esi
    e72a:	72 69                	jb     e795 <_IO_stdin_used+0x795>
    e72c:	6e                   	outsb  %ds:(%rsi),(%dx)
    e72d:	67 20 73 74          	addr32 and %dh,0x74(%ebx)
    e731:	61                   	(bad)  
    e732:	63 6b 20             	movslq 0x20(%rbx),%ebp
    e735:	77 61                	ja     e798 <_IO_stdin_used+0x798>
    e737:	6c                   	insb   (%dx),%es:(%rdi)
    e738:	6b 69 6e 67          	imul   $0x67,0x6e(%rcx),%ebp
    e73c:	00 00                	add    %al,(%rax)
    e73e:	00 00                	add    %al,(%rax)
    e740:	59                   	pop    %rcx
    e741:	6f                   	outsl  %ds:(%rsi),(%dx)
    e742:	75 20                	jne    e764 <_IO_stdin_used+0x764>
    e744:	6d                   	insl   (%dx),%es:(%rdi)
    e745:	75 73                	jne    e7ba <_IO_stdin_used+0x7ba>
    e747:	74 20                	je     e769 <_IO_stdin_used+0x769>
    e749:	6c                   	insb   (%dx),%es:(%rdi)
    e74a:	69 6e 6b 20 77 69 74 	imul   $0x74697720,0x6b(%rsi),%ebp
    e751:	68 20 6c 69 62       	pushq  $0x62696c20
    e756:	75 6e                	jne    e7c6 <_IO_stdin_used+0x7c6>
    e758:	77 69                	ja     e7c3 <_IO_stdin_used+0x7c3>
    e75a:	6e                   	outsb  %ds:(%rsi),(%dx)
    e75b:	64 20 74 6f 20       	and    %dh,%fs:0x20(%rdi,%rbp,2)
    e760:	75 73                	jne    e7d5 <_IO_stdin_used+0x7d5>
    e762:	65 20 74 72 61       	and    %dh,%gs:0x61(%rdx,%rsi,2)
    e767:	63 65 62             	movslq 0x62(%rbp),%esp
    e76a:	61                   	(bad)  
    e76b:	63 6b 20             	movslq 0x20(%rbx),%ebp
    e76e:	66                   	data16
    e76f:	75 6e                	jne    e7df <_IO_stdin_used+0x7df>
    e771:	63 74 69 6f          	movslq 0x6f(%rcx,%rbp,2),%esi
    e775:	6e                   	outsb  %ds:(%rsi),(%dx)
    e776:	61                   	(bad)  
    e777:	6c                   	insb   (%dx),%es:(%rdi)
    e778:	69 74 79 00 49 6e 74 	imul   $0x65746e49,0x0(%rcx,%rdi,2),%esi
    e77f:	65 
    e780:	6c                   	insb   (%dx),%es:(%rdi)
    e781:	28 52 29             	sub    %dl,0x29(%rdx)
    e784:	20 50 65             	and    %dl,0x65(%rax)
    e787:	6e                   	outsb  %ds:(%rsi),(%dx)
    e788:	74 69                	je     e7f3 <_IO_stdin_used+0x7f3>
    e78a:	75 6d                	jne    e7f9 <_IO_stdin_used+0x7f9>
    e78c:	28 52 29             	sub    %dl,0x29(%rdx)
    e78f:	20 4d 20             	and    %cl,0x20(%rbp)
    e792:	61                   	(bad)  
    e793:	6e                   	outsb  %ds:(%rsi),(%dx)
    e794:	64 20 63 6f          	and    %ah,%fs:0x6f(%rbx)
    e798:	6d                   	insl   (%dx),%es:(%rdi)
    e799:	70 61                	jo     e7fc <_IO_stdin_used+0x7fc>
    e79b:	74 69                	je     e806 <_IO_stdin_used+0x806>
    e79d:	62                   	(bad)  
    e79e:	6c                   	insb   (%dx),%es:(%rdi)
    e79f:	65 20 49 6e          	and    %cl,%gs:0x6e(%rcx)
    e7a3:	74 65                	je     e80a <_IO_stdin_used+0x80a>
    e7a5:	6c                   	insb   (%dx),%es:(%rdi)
    e7a6:	20 70 72             	and    %dh,0x72(%rax)
    e7a9:	6f                   	outsl  %ds:(%rsi),(%dx)
    e7aa:	63 65 73             	movslq 0x73(%rbp),%esp
    e7ad:	73 6f                	jae    e81e <_IO_stdin_used+0x81e>
    e7af:	72 73                	jb     e824 <_IO_stdin_used+0x824>
    e7b1:	00 00                	add    %al,(%rax)
    e7b3:	00 49 6e             	add    %cl,0x6e(%rcx)
    e7b6:	74 65                	je     e81d <_IO_stdin_used+0x81d>
    e7b8:	6c                   	insb   (%dx),%es:(%rdi)
    e7b9:	28 52 29             	sub    %dl,0x29(%rdx)
    e7bc:	20 70 72             	and    %dh,0x72(%rax)
    e7bf:	6f                   	outsl  %ds:(%rsi),(%dx)
    e7c0:	63 65 73             	movslq 0x73(%rbp),%esp
    e7c3:	73 6f                	jae    e834 <_IO_stdin_used+0x834>
    e7c5:	72 73                	jb     e83a <_IO_stdin_used+0x83a>
    e7c7:	20 77 69             	and    %dh,0x69(%rdi)
    e7ca:	74 68                	je     e834 <_IO_stdin_used+0x834>
    e7cc:	20 53 77             	and    %dl,0x77(%rbx)
    e7cf:	69 6e 67 20 4e 65 77 	imul   $0x77654e20,0x67(%rsi),%ebp
    e7d6:	20 49 6e             	and    %cl,0x6e(%rcx)
    e7d9:	73 74                	jae    e84f <_IO_stdin_used+0x84f>
    e7db:	72 75                	jb     e852 <_IO_stdin_used+0x852>
    e7dd:	63 74 69 6f          	movslq 0x6f(%rcx,%rbp,2),%esi
    e7e1:	6e                   	outsb  %ds:(%rsi),(%dx)
    e7e2:	73 20                	jae    e804 <_IO_stdin_used+0x804>
    e7e4:	73 75                	jae    e85b <_IO_stdin_used+0x85b>
    e7e6:	70 70                	jo     e858 <_IO_stdin_used+0x858>
    e7e8:	6f                   	outsl  %ds:(%rsi),(%dx)
    e7e9:	72 74                	jb     e85f <_IO_stdin_used+0x85f>
    e7eb:	00 49 6e             	add    %cl,0x6e(%rcx)
    e7ee:	74 65                	je     e855 <_IO_stdin_used+0x855>
    e7f0:	6c                   	insb   (%dx),%es:(%rdi)
    e7f1:	28 52 29             	sub    %dl,0x29(%rdx)
    e7f4:	20 70 72             	and    %dh,0x72(%rax)
    e7f7:	6f                   	outsl  %ds:(%rsi),(%dx)
    e7f8:	63 65 73             	movslq 0x73(%rbp),%esp
    e7fb:	73 6f                	jae    e86c <_IO_stdin_used+0x86c>
    e7fd:	72 73                	jb     e872 <_IO_stdin_used+0x872>
    e7ff:	20 77 69             	and    %dh,0x69(%rdi)
    e802:	74 68                	je     e86c <_IO_stdin_used+0x86c>
    e804:	20 4d 4f             	and    %cl,0x4f(%rbp)
    e807:	56                   	push   %rsi
    e808:	42                   	rex.X
    e809:	45 20 69 6e          	and    %r13b,0x6e(%r9)
    e80d:	73 74                	jae    e883 <_IO_stdin_used+0x883>
    e80f:	72 75                	jb     e886 <_IO_stdin_used+0x886>
    e811:	63 74 69 6f          	movslq 0x6f(%rcx,%rbp,2),%esi
    e815:	6e                   	outsb  %ds:(%rsi),(%dx)
    e816:	73 20                	jae    e838 <_IO_stdin_used+0x838>
    e818:	73 75                	jae    e88f <_IO_stdin_used+0x88f>
    e81a:	70 70                	jo     e88c <_IO_stdin_used+0x88c>
    e81c:	6f                   	outsl  %ds:(%rsi),(%dx)
    e81d:	72 74                	jb     e893 <_IO_stdin_used+0x893>
    e81f:	00                   	.byte 0x0
Disassembly of section .eh_frame_hdr:

000000000000e820 <.eh_frame_hdr>:
    e820:	01 1b                	add    %ebx,(%rbx)
    e822:	03 3b                	add    (%rbx),%edi
    e824:	94                   	xchg   %eax,%esp
    e825:	01 00                	add    %eax,(%rax)
    e827:	00 31                	add    %dh,(%rcx)
    e829:	00 00                	add    %al,(%rax)
    e82b:	00 a0 ce ff ff e8    	add    %ah,0xffffffffe8ffffce(%rax)
    e831:	01 00                	add    %eax,(%rax)
    e833:	00 40 d1             	add    %al,0xffffffffffffffd1(%rax)
    e836:	ff                   	(bad)  
    e837:	ff 18                	lcallq *(%rax)
    e839:	02 00                	add    (%rax),%al
    e83b:	00 d0                	add    %dl,%al
    e83d:	d9 ff                	fcos   
    e83f:	ff 08                	decl   (%rax)
    e841:	03 00                	add    (%rax),%eax
    e843:	00 60 da             	add    %ah,0xffffffffffffffda(%rax)
    e846:	ff                   	(bad)  
    e847:	ff 30                	pushq  (%rax)
    e849:	03 00                	add    (%rax),%eax
    e84b:	00 c0                	add    %al,%al
    e84d:	da ff                	(bad)  
    e84f:	ff                   	(bad)  
    e850:	78 03                	js     e855 <_IO_stdin_used+0x855>
    e852:	00 00                	add    %al,(%rax)
    e854:	30 db                	xor    %bl,%bl
    e856:	ff                   	(bad)  
    e857:	ff d0                	callq  *%rax
    e859:	03 00                	add    (%rax),%eax
    e85b:	00 b0 db ff ff e8    	add    %dh,0xffffffffe8ffffdb(%rax)
    e861:	03 00                	add    (%rax),%eax
    e863:	00 d0                	add    %dl,%al
    e865:	db ff                	(bad)  
    e867:	ff 00                	incl   (%rax)
    e869:	04 00                	add    $0x0,%al
    e86b:	00 f0                	add    %dh,%al
    e86d:	db ff                	(bad)  
    e86f:	ff 18                	lcallq *(%rax)
    e871:	04 00                	add    $0x0,%al
    e873:	00 10                	add    %dl,(%rax)
    e875:	dc ff                	fdiv   %st,%st(7)
    e877:	ff 48 04             	decl   0x4(%rax)
    e87a:	00 00                	add    %al,(%rax)
    e87c:	90                   	nop    
    e87d:	dc ff                	fdiv   %st,%st(7)
    e87f:	ff 70 04             	pushq  0x4(%rax)
    e882:	00 00                	add    %al,(%rax)
    e884:	10 dd                	adc    %bl,%ch
    e886:	ff                   	(bad)  
    e887:	ff a0 04 00 00 40    	jmpq   *0x40000004(%rax)
    e88d:	dd ff                	(bad)  
    e88f:	ff c0                	inc    %eax
    e891:	04 00                	add    $0x0,%al
    e893:	00 c0                	add    %al,%al
    e895:	dd ff                	(bad)  
    e897:	ff e0                	jmpq   *%rax
    e899:	04 00                	add    $0x0,%al
    e89b:	00 40 de             	add    %al,0xffffffffffffffde(%rax)
    e89e:	ff                   	(bad)  
    e89f:	ff 08                	decl   (%rax)
    e8a1:	05 00 00 20 df       	add    $0xdf200000,%eax
    e8a6:	ff                   	(bad)  
    e8a7:	ff 90 05 00 00 00    	callq  *0x5(%rax)
    e8ad:	e0 ff                	loopne e8ae <_IO_stdin_used+0x8ae>
    e8af:	ff 18                	lcallq *(%rax)
    e8b1:	06                   	(bad)  
    e8b2:	00 00                	add    %al,(%rax)
    e8b4:	30 e1                	xor    %ah,%cl
    e8b6:	ff                   	(bad)  
    e8b7:	ff a0 06 00 00 b0    	jmpq   *0xffffffffb0000006(%rax)
    e8bd:	e1 ff                	loope  e8be <_IO_stdin_used+0x8be>
    e8bf:	ff c8                	dec    %eax
    e8c1:	06                   	(bad)  
    e8c2:	00 00                	add    %al,(%rax)
    e8c4:	30 e2                	xor    %ah,%dl
    e8c6:	ff                   	(bad)  
    e8c7:	ff                   	(bad)  
    e8c8:	f8                   	clc    
    e8c9:	06                   	(bad)  
    e8ca:	00 00                	add    %al,(%rax)
    e8cc:	60                   	(bad)  
    e8cd:	e2 ff                	loop   e8ce <_IO_stdin_used+0x8ce>
    e8cf:	ff 18                	lcallq *(%rax)
    e8d1:	07                   	(bad)  
    e8d2:	00 00                	add    %al,(%rax)
    e8d4:	e0 e2                	loopne e8b8 <_IO_stdin_used+0x8b8>
    e8d6:	ff                   	(bad)  
    e8d7:	ff                   	(bad)  
    e8d8:	38 07                	cmp    %al,(%rdi)
    e8da:	00 00                	add    %al,(%rax)
    e8dc:	60                   	(bad)  
    e8dd:	e3 ff                	jrcxz  e8de <_IO_stdin_used+0x8de>
    e8df:	ff 60 07             	jmpq   *0x7(%rax)
    e8e2:	00 00                	add    %al,(%rax)
    e8e4:	40 e4 ff             	in     $0xff,%al
    e8e7:	ff e8                	ljmpq  *<internal disassembler error>
    e8e9:	07                   	(bad)  
    e8ea:	00 00                	add    %al,(%rax)
    e8ec:	20 e5                	and    %ah,%ch
    e8ee:	ff                   	(bad)  
    e8ef:	ff 70 08             	pushq  0x8(%rax)
    e8f2:	00 00                	add    %al,(%rax)
    e8f4:	50                   	push   %rax
    e8f5:	e6 ff                	out    %al,$0xff
    e8f7:	ff                   	(bad)  
    e8f8:	f8                   	clc    
    e8f9:	08 00                	or     %al,(%rax)
    e8fb:	00 d0                	add    %dl,%al
    e8fd:	e6 ff                	out    %al,$0xff
    e8ff:	ff 20                	jmpq   *(%rax)
    e901:	09 00                	or     %eax,(%rax)
    e903:	00 30                	add    %dh,(%rax)
    e905:	e7 ff                	out    %eax,$0xff
    e907:	ff 40 09             	incl   0x9(%rax)
    e90a:	00 00                	add    %al,(%rax)
    e90c:	b0 e7                	mov    $0xe7,%al
    e90e:	ff                   	(bad)  
    e90f:	ff 68 09             	ljmpq  *0x9(%rax)
    e912:	00 00                	add    %al,(%rax)
    e914:	c0 e8 ff             	shr    $0xff,%al
    e917:	ff f0                	push   %rax
    e919:	09 00                	or     %eax,(%rax)
    e91b:	00 40 e9             	add    %al,0xffffffffffffffe9(%rax)
    e91e:	ff                   	(bad)  
    e91f:	ff 18                	lcallq *(%rax)
    e921:	0a 00                	or     (%rax),%al
    e923:	00 a0 e9 ff ff 38    	add    %ah,0x38ffffe9(%rax)
    e929:	0a 00                	or     (%rax),%al
    e92b:	00 20                	add    %ah,(%rax)
    e92d:	ea                   	(bad)  
    e92e:	ff                   	(bad)  
    e92f:	ff 60 0a             	jmpq   *0xa(%rax)
    e932:	00 00                	add    %al,(%rax)
    e934:	30 eb                	xor    %ch,%bl
    e936:	ff                   	(bad)  
    e937:	ff e8                	ljmpq  *<internal disassembler error>
    e939:	0a 00                	or     (%rax),%al
    e93b:	00 b0 eb ff ff 10    	add    %dh,0x10ffffeb(%rax)
    e941:	0b 00                	or     (%rax),%eax
    e943:	00 c0                	add    %al,%al
    e945:	ec                   	in     (%dx),%al
    e946:	ff                   	(bad)  
    e947:	ff 98 0b 00 00 40    	lcallq *0x4000000b(%rax)
    e94d:	ed                   	in     (%dx),%eax
    e94e:	ff                   	(bad)  
    e94f:	ff c0                	inc    %eax
    e951:	0b 00                	or     (%rax),%eax
    e953:	00 50 ee             	add    %dl,0xffffffffffffffee(%rax)
    e956:	ff                   	(bad)  
    e957:	ff 48 0c             	decl   0xc(%rax)
    e95a:	00 00                	add    %al,(%rax)
    e95c:	d0 ee                	shr    %dh
    e95e:	ff                   	(bad)  
    e95f:	ff 70 0c             	pushq  0xc(%rax)
    e962:	00 00                	add    %al,(%rax)
    e964:	70 ef                	jo     e955 <_IO_stdin_used+0x955>
    e966:	ff                   	(bad)  
    e967:	ff a0 0c 00 00 80    	jmpq   *0xffffffff8000000c(%rax)
    e96d:	ef                   	out    %eax,(%dx)
    e96e:	ff                   	(bad)  
    e96f:	ff                   	(bad)  
    e970:	b8 0c 00 00 30       	mov    $0x3000000c,%eax
    e975:	f0 ff                	lock (bad) 
    e977:	ff e8                	ljmpq  *<internal disassembler error>
    e979:	0c 00                	or     $0x0,%al
    e97b:	00 40 f0             	add    %al,0xfffffffffffffff0(%rax)
    e97e:	ff                   	(bad)  
    e97f:	ff 00                	incl   (%rax)
    e981:	0d 00 00 50 f1       	or     $0xf1500000,%eax
    e986:	ff                   	(bad)  
    e987:	ff 88 0d 00 00 a0    	decl   0xffffffffa000000d(%rax)
    e98d:	f3 ff                	repz (bad) 
    e98f:	ff 70 0e             	pushq  0xe(%rax)
    e992:	00 00                	add    %al,(%rax)
    e994:	90                   	nop    
    e995:	f5                   	cmc    
    e996:	ff                   	(bad)  
    e997:	ff 08                	decl   (%rax)
    e999:	0f 00 00             	sldt   (%rax)
    e99c:	f0 f6 ff             	lock idiv %bh
    e99f:	ff 28                	ljmpq  *(%rax)
    e9a1:	0f 00 00             	sldt   (%rax)
    e9a4:	00 f7                	add    %dh,%bh
    e9a6:	ff                   	(bad)  
    e9a7:	ff 40 0f             	incl   0xf(%rax)
    e9aa:	00 00                	add    %al,(%rax)
    e9ac:	c8 f7 ff ff          	enterq $0xfff7,$0xff
    e9b0:	b0 01                	mov    $0x1,%al
    e9b2:	00 00                	add    %al,(%rax)
Disassembly of section .eh_frame:

000000000000e9b8 <.eh_frame_seg-0x403c30>:
    e9b8:	14 00                	adc    $0x0,%al
    e9ba:	00 00                	add    %al,(%rax)
    e9bc:	00 00                	add    %al,(%rax)
    e9be:	00 00                	add    %al,(%rax)
    e9c0:	01 7a 52             	add    %edi,0x52(%rdx)
    e9c3:	00 01                	add    %al,(%rcx)
    e9c5:	78 10                	js     e9d7 <_IO_stdin_used+0x9d7>
    e9c7:	01 1b                	add    %ebx,(%rbx)
    e9c9:	0c 07                	or     $0x7,%al
    e9cb:	08 90 01 00 00 1c    	or     %dl,0x1c000001(%rax)
    e9d1:	00 00                	add    %al,(%rax)
    e9d3:	00 1c 00             	add    %bl,(%rax,%rax,1)
    e9d6:	00 00                	add    %al,(%rax)
    e9d8:	10 f6                	adc    %dh,%dh
    e9da:	ff                   	(bad)  
    e9db:	ff 10                	callq  *(%rax)
    e9dd:	00 00                	add    %al,(%rax)
    e9df:	00 00                	add    %al,(%rax)
    e9e1:	41 0e                	rex.B (bad)  
    e9e3:	10 86 02 44 0e 18    	adc    %al,0x180e4402(%rsi)
    e9e9:	49 0e                	rex.WB (bad)  
    e9eb:	10 00                	adc    %al,(%rax)
    e9ed:	00 00                	add    %al,(%rax)
    e9ef:	00 14 00             	add    %dl,(%rax,%rax,1)
    e9f2:	00 00                	add    %al,(%rax)
    e9f4:	00 00                	add    %al,(%rax)
    e9f6:	00 00                	add    %al,(%rax)
    e9f8:	01 00                	add    %eax,(%rax)
    e9fa:	01 78 10             	add    %edi,0x10(%rax)
    e9fd:	0c 07                	or     $0x7,%al
    e9ff:	08 90 01 00 00 00    	or     %dl,0x1(%rax)
    ea05:	00 00                	add    %al,(%rax)
    ea07:	00 2c 00             	add    %ch,(%rax,%rax,1)
    ea0a:	00 00                	add    %al,(%rax)
    ea0c:	1c 00                	sbb    $0x0,%al
    ea0e:	00 00                	add    %al,(%rax)
    ea10:	00 09                	add    %cl,(%rcx)
    ea12:	40 00 00             	add    %al,(%rax)
    ea15:	00 00                	add    %al,(%rax)
    ea17:	00 a0 02 00 00 00    	add    %ah,0x2(%rax)
    ea1d:	00 00                	add    %al,(%rax)
    ea1f:	00 04 01             	add    %al,(%rcx,%rax,1)
    ea22:	00 00                	add    %al,(%rax)
    ea24:	00 0c 07             	add    %cl,(%rdi,%rax,1)
    ea27:	10 04 03             	adc    %al,(%rbx,%rax,1)
    ea2a:	00 00                	add    %al,(%rax)
    ea2c:	00 0c 06             	add    %cl,(%rsi,%rax,1)
    ea2f:	10 86 02 00 00 00    	adc    %al,0x2(%rsi)
    ea35:	00 00                	add    %al,(%rax)
    ea37:	00 ec                	add    %ch,%ah
    ea39:	00 00                	add    %al,(%rax)
    ea3b:	00 4c 00 00          	add    %cl,0x0(%rax,%rax,1)
    ea3f:	00 a0 0b 40 00 00    	add    %ah,0x400b(%rax)
    ea45:	00 00                	add    %al,(%rax)
    ea47:	00 90 08 00 00 00    	add    %dl,0x8(%rax)
    ea4d:	00 00                	add    %al,(%rax)
    ea4f:	00 0c 07             	add    %cl,(%rdi,%rax,1)
    ea52:	c0 fe ff             	sar    $0xff,%dh
    ea55:	ff                   	(bad)  
    ea56:	ff                   	(bad)  
    ea57:	ff                   	(bad)  
    ea58:	ff                   	(bad)  
    ea59:	ff                   	(bad)  
    ea5a:	ff 01                	incl   (%rcx)
    ea5c:	04 02                	add    $0x2,%al
    ea5e:	00 00                	add    %al,(%rax)
    ea60:	00 8f 02 0c 07 c8    	add    %cl,0xffffffffc8070c02(%rdi)
    ea66:	fe                   	(bad)  
    ea67:	ff                   	(bad)  
    ea68:	ff                   	(bad)  
    ea69:	ff                   	(bad)  
    ea6a:	ff                   	(bad)  
    ea6b:	ff                   	(bad)  
    ea6c:	ff                   	(bad)  
    ea6d:	ff 01                	incl   (%rcx)
    ea6f:	04 02                	add    $0x2,%al
    ea71:	00 00                	add    %al,(%rax)
    ea73:	00 8e 03 0c 07 d0    	add    %cl,0xffffffffd0070c03(%rsi)
    ea79:	fe                   	(bad)  
    ea7a:	ff                   	(bad)  
    ea7b:	ff                   	(bad)  
    ea7c:	ff                   	(bad)  
    ea7d:	ff                   	(bad)  
    ea7e:	ff                   	(bad)  
    ea7f:	ff                   	(bad)  
    ea80:	ff 01                	incl   (%rcx)
    ea82:	04 02                	add    $0x2,%al
    ea84:	00 00                	add    %al,(%rax)
    ea86:	00 8d 04 0c 07 d8    	add    %cl,0xffffffffd8070c04(%rbp)
    ea8c:	fe                   	(bad)  
    ea8d:	ff                   	(bad)  
    ea8e:	ff                   	(bad)  
    ea8f:	ff                   	(bad)  
    ea90:	ff                   	(bad)  
    ea91:	ff                   	(bad)  
    ea92:	ff                   	(bad)  
    ea93:	ff 01                	incl   (%rcx)
    ea95:	04 02                	add    $0x2,%al
    ea97:	00 00                	add    %al,(%rax)
    ea99:	00 8c 05 0c 07 e0 fe 	add    %cl,0xfffffffffee0070c(%rbp,%rax,1)
    eaa0:	ff                   	(bad)  
    eaa1:	ff                   	(bad)  
    eaa2:	ff                   	(bad)  
    eaa3:	ff                   	(bad)  
    eaa4:	ff                   	(bad)  
    eaa5:	ff                   	(bad)  
    eaa6:	ff 01                	incl   (%rcx)
    eaa8:	04 01                	add    $0x1,%al
    eaaa:	00 00                	add    %al,(%rax)
    eaac:	00 86 06 0c 07 e8    	add    %al,0xffffffffe8070c06(%rsi)
    eab2:	fe                   	(bad)  
    eab3:	ff                   	(bad)  
    eab4:	ff                   	(bad)  
    eab5:	ff                   	(bad)  
    eab6:	ff                   	(bad)  
    eab7:	ff                   	(bad)  
    eab8:	ff                   	(bad)  
    eab9:	ff 01                	incl   (%rcx)
    eabb:	04 01                	add    $0x1,%al
    eabd:	00 00                	add    %al,(%rax)
    eabf:	00 83 07 0c 07 f0    	add    %al,0xfffffffff0070c07(%rbx)
    eac5:	fe                   	(bad)  
    eac6:	ff                   	(bad)  
    eac7:	ff                   	(bad)  
    eac8:	ff                   	(bad)  
    eac9:	ff                   	(bad)  
    eaca:	ff                   	(bad)  
    eacb:	ff                   	(bad)  
    eacc:	ff 01                	incl   (%rcx)
    eace:	04 07                	add    $0x7,%al
    ead0:	00 00                	add    %al,(%rax)
    ead2:	00 0c 07             	add    %cl,(%rdi,%rax,1)
    ead5:	d0 01                	rolb   (%rcx)
    ead7:	04 70                	add    $0x70,%al
    ead9:	08 00                	or     %al,(%rax)
    eadb:	00 0c 07             	add    %cl,(%rdi,%rax,1)
    eade:	38 09                	cmp    %cl,(%rcx)
    eae0:	03 03                	add    (%rbx),%eax
    eae2:	04 01                	add    $0x1,%al
    eae4:	00 00                	add    %al,(%rax)
    eae6:	00 0c 07             	add    %cl,(%rdi,%rax,1)
    eae9:	30 09                	xor    %cl,(%rcx)
    eaeb:	06                   	(bad)  
    eaec:	06                   	(bad)  
    eaed:	04 01                	add    $0x1,%al
    eaef:	00 00                	add    %al,(%rax)
    eaf1:	00 0c 07             	add    %cl,(%rdi,%rax,1)
    eaf4:	28 09                	sub    %cl,(%rcx)
    eaf6:	0c 0c                	or     $0xc,%al
    eaf8:	04 02                	add    $0x2,%al
    eafa:	00 00                	add    %al,(%rax)
    eafc:	00 0c 07             	add    %cl,(%rdi,%rax,1)
    eaff:	20 09                	and    %cl,(%rcx)
    eb01:	0d 0d 04 02 00       	or     $0x2040d,%eax
    eb06:	00 00                	add    %al,(%rax)
    eb08:	0c 07                	or     $0x7,%al
    eb0a:	18 09                	sbb    %cl,(%rcx)
    eb0c:	0e                   	(bad)  
    eb0d:	0e                   	(bad)  
    eb0e:	04 02                	add    $0x2,%al
    eb10:	00 00                	add    %al,(%rax)
    eb12:	00 0c 07             	add    %cl,(%rdi,%rax,1)
    eb15:	10 09                	adc    %cl,(%rcx)
    eb17:	0f                   	(bad)  
    eb18:	0f 04                	(bad)  
    eb1a:	02 00                	add    (%rax),%al
    eb1c:	00 00                	add    %al,(%rax)
    eb1e:	0c 07                	or     $0x7,%al
    eb20:	08 00                	or     %al,(%rax)
    eb22:	00 00                	add    %al,(%rax)
    eb24:	00 00                	add    %al,(%rax)
    eb26:	00 00                	add    %al,(%rax)
    eb28:	24 00                	and    $0x0,%al
    eb2a:	00 00                	add    %al,(%rax)
    eb2c:	3c 01                	cmp    $0x1,%al
    eb2e:	00 00                	add    %al,(%rax)
    eb30:	30 14 40             	xor    %dl,(%rax,%rax,2)
    eb33:	00 00                	add    %al,(%rax)
    eb35:	00 00                	add    %al,(%rax)
    eb37:	00 90 00 00 00 00    	add    %dl,0x0(%rax)
    eb3d:	00 00                	add    %al,(%rax)
    eb3f:	00 0c 07             	add    %cl,(%rdi,%rax,1)
    eb42:	00 04 01             	add    %al,(%rcx,%rax,1)
    eb45:	00 00                	add    %al,(%rax)
    eb47:	00 0c 07             	add    %cl,(%rdi,%rax,1)
    eb4a:	10 00                	adc    %al,(%rax)
    eb4c:	00 00                	add    %al,(%rax)
    eb4e:	00 00                	add    %al,(%rax)
    eb50:	44 00 00             	add    %r8b,(%rax)
    eb53:	00 64 01 00          	add    %ah,0x0(%rcx,%rax,1)
    eb57:	00 c0                	add    %al,%al
    eb59:	14 40                	adc    $0x40,%al
    eb5b:	00 00                	add    %al,(%rax)
    eb5d:	00 00                	add    %al,(%rax)
    eb5f:	00 60 00             	add    %ah,0x0(%rax)
    eb62:	00 00                	add    %al,(%rax)
    eb64:	00 00                	add    %al,(%rax)
    eb66:	00 00                	add    %al,(%rax)
    eb68:	0c 07                	or     $0x7,%al
    eb6a:	f0 ff                	lock (bad) 
    eb6c:	ff                   	(bad)  
    eb6d:	ff                   	(bad)  
    eb6e:	ff                   	(bad)  
    eb6f:	ff                   	(bad)  
    eb70:	ff                   	(bad)  
    eb71:	ff                   	(bad)  
    eb72:	ff 01                	incl   (%rcx)
    eb74:	04 04                	add    $0x4,%al
    eb76:	00 00                	add    %al,(%rax)
    eb78:	00 0c 07             	add    %cl,(%rdi,%rax,1)
    eb7b:	20 04 4c             	and    %al,(%rsp,%rcx,2)
    eb7e:	00 00                	add    %al,(%rax)
    eb80:	00 0c 07             	add    %cl,(%rdi,%rax,1)
    eb83:	08 04 01             	or     %al,(%rcx,%rax,1)
    eb86:	00 00                	add    %al,(%rax)
    eb88:	00 0c 07             	add    %cl,(%rdi,%rax,1)
    eb8b:	20 04 06             	and    %al,(%rsi,%rax,1)
    eb8e:	00 00                	add    %al,(%rax)
    eb90:	00 0c 07             	add    %cl,(%rdi,%rax,1)
    eb93:	08 00                	or     %al,(%rax)
    eb95:	00 00                	add    %al,(%rax)
    eb97:	00 54 00 00          	add    %dl,0x0(%rax,%rax,1)
    eb9b:	00 ac 01 00 00 20 15 	add    %ch,0x15200000(%rcx,%rax,1)
    eba2:	40 00 00             	add    %al,(%rax)
    eba5:	00 00                	add    %al,(%rax)
    eba7:	00 70 00             	add    %dh,0x0(%rax)
    ebaa:	00 00                	add    %al,(%rax)
    ebac:	00 00                	add    %al,(%rax)
    ebae:	00 00                	add    %al,(%rax)
    ebb0:	0c 07                	or     $0x7,%al
    ebb2:	c0 ff ff             	sar    $0xff,%bh
    ebb5:	ff                   	(bad)  
    ebb6:	ff                   	(bad)  
    ebb7:	ff                   	(bad)  
    ebb8:	ff                   	(bad)  
    ebb9:	ff                   	(bad)  
    ebba:	ff 01                	incl   (%rcx)
    ebbc:	04 02                	add    $0x2,%al
    ebbe:	00 00                	add    %al,(%rax)
    ebc0:	00 8f 02 0c 07 c8    	add    %cl,0xffffffffc8070c02(%rdi)
    ebc6:	ff                   	(bad)  
    ebc7:	ff                   	(bad)  
    ebc8:	ff                   	(bad)  
    ebc9:	ff                   	(bad)  
    ebca:	ff                   	(bad)  
    ebcb:	ff                   	(bad)  
    ebcc:	ff                   	(bad)  
    ebcd:	ff 01                	incl   (%rcx)
    ebcf:	04 04                	add    $0x4,%al
    ebd1:	00 00                	add    %al,(%rax)
    ebd3:	00 0c 07             	add    %cl,(%rdi,%rax,1)
    ebd6:	50                   	push   %rax
    ebd7:	04 5e                	add    $0x5e,%al
    ebd9:	00 00                	add    %al,(%rax)
    ebdb:	00 0c 07             	add    %cl,(%rdi,%rax,1)
    ebde:	10 09                	adc    %cl,(%rcx)
    ebe0:	0f                   	(bad)  
    ebe1:	0f 04                	(bad)  
    ebe3:	02 00                	add    (%rax),%al
    ebe5:	00 00                	add    %al,(%rax)
    ebe7:	0c 07                	or     $0x7,%al
    ebe9:	08 00                	or     %al,(%rax)
    ebeb:	00 00                	add    %al,(%rax)
    ebed:	00 00                	add    %al,(%rax)
    ebef:	00 14 00             	add    %dl,(%rax,%rax,1)
    ebf2:	00 00                	add    %al,(%rax)
    ebf4:	04 02                	add    $0x2,%al
    ebf6:	00 00                	add    %al,(%rax)
    ebf8:	90                   	nop    
    ebf9:	15 40 00 00 00       	adc    $0x40,%eax
    ebfe:	00 00                	add    %al,(%rax)
    ec00:	80 00 00             	addb   $0x0,(%rax)
    ec03:	00 00                	add    %al,(%rax)
    ec05:	00 00                	add    %al,(%rax)
    ec07:	00 14 00             	add    %dl,(%rax,%rax,1)
    ec0a:	00 00                	add    %al,(%rax)
    ec0c:	1c 02                	sbb    $0x2,%al
    ec0e:	00 00                	add    %al,(%rax)
    ec10:	10 16                	adc    %dl,(%rsi)
    ec12:	40 00 00             	add    %al,(%rax)
    ec15:	00 00                	add    %al,(%rax)
    ec17:	00 20                	add    %ah,(%rax)
    ec19:	00 00                	add    %al,(%rax)
    ec1b:	00 00                	add    %al,(%rax)
    ec1d:	00 00                	add    %al,(%rax)
    ec1f:	00 14 00             	add    %dl,(%rax,%rax,1)
    ec22:	00 00                	add    %al,(%rax)
    ec24:	34 02                	xor    $0x2,%al
    ec26:	00 00                	add    %al,(%rax)
    ec28:	30 16                	xor    %dl,(%rsi)
    ec2a:	40 00 00             	add    %al,(%rax)
    ec2d:	00 00                	add    %al,(%rax)
    ec2f:	00 20                	add    %ah,(%rax)
    ec31:	00 00                	add    %al,(%rax)
    ec33:	00 00                	add    %al,(%rax)
    ec35:	00 00                	add    %al,(%rax)
    ec37:	00 14 00             	add    %dl,(%rax,%rax,1)
    ec3a:	00 00                	add    %al,(%rax)
    ec3c:	4c 02 00             	rex.WR add    (%rax),%r8b
    ec3f:	00 50 16             	add    %dl,0x16(%rax)
    ec42:	40 00 00             	add    %al,(%rax)
    ec45:	00 00                	add    %al,(%rax)
    ec47:	00 20                	add    %ah,(%rax)
    ec49:	00 00                	add    %al,(%rax)
    ec4b:	00 00                	add    %al,(%rax)
    ec4d:	00 00                	add    %al,(%rax)
    ec4f:	00 14 00             	add    %dl,(%rax,%rax,1)
    ec52:	00 00                	add    %al,(%rax)
    ec54:	00 00                	add    %al,(%rax)
    ec56:	00 00                	add    %al,(%rax)
    ec58:	01 7a 52             	add    %edi,0x52(%rdx)
    ec5b:	00 01                	add    %al,(%rcx)
    ec5d:	78 10                	js     ec6f <_IO_stdin_used+0xc6f>
    ec5f:	01 1b                	add    %ebx,(%rbx)
    ec61:	0c 07                	or     $0x7,%al
    ec63:	08 90 01 00 00 24    	or     %dl,0x24000001(%rax)
    ec69:	00 00                	add    %al,(%rax)
    ec6b:	00 1c 00             	add    %bl,(%rax,%rax,1)
    ec6e:	00 00                	add    %al,(%rax)
    ec70:	c0 d7 ff             	rcl    $0xff,%bh
    ec73:	ff 80 00 00 00 00    	incl   0x0(%rax)
    ec79:	0c 07                	or     $0x7,%al
    ec7b:	80 fc ff             	cmp    $0xff,%ah
    ec7e:	ff 0f                	decl   (%rdi)
    ec80:	04 07                	add    $0x7,%al
    ec82:	00 00                	add    %al,(%rax)
    ec84:	00 0c 07             	add    %cl,(%rdi,%rax,1)
    ec87:	90                   	nop    
    ec88:	04 00                	add    $0x0,%al
    ec8a:	00 00                	add    %al,(%rax)
    ec8c:	00 00                	add    %al,(%rax)
    ec8e:	00 00                	add    %al,(%rax)
    ec90:	2c 00                	sub    $0x0,%al
    ec92:	00 00                	add    %al,(%rax)
    ec94:	44 00 00             	add    %r8b,(%rax)
    ec97:	00 18                	add    %bl,(%rax)
    ec99:	d8 ff                	fdivr  %st(7),%st
    ec9b:	ff 80 00 00 00 00    	incl   0x0(%rax)
    eca1:	0c 07                	or     $0x7,%al
    eca3:	80 fc ff             	cmp    $0xff,%ah
    eca6:	ff 0f                	decl   (%rdi)
    eca8:	04 07                	add    $0x7,%al
    ecaa:	00 00                	add    %al,(%rax)
    ecac:	00 0c 07             	add    %cl,(%rdi,%rax,1)
    ecaf:	90                   	nop    
    ecb0:	04 04                	add    $0x4,%al
    ecb2:	6a 00                	pushq  $0x0
    ecb4:	00 00                	add    %al,(%rax)
    ecb6:	0c 07                	or     $0x7,%al
    ecb8:	08 00                	or     %al,(%rax)
    ecba:	00 00                	add    %al,(%rax)
    ecbc:	00 00                	add    %al,(%rax)
    ecbe:	00 00                	add    %al,(%rax)
    ecc0:	1c 00                	sbb    $0x0,%al
    ecc2:	00 00                	add    %al,(%rax)
    ecc4:	74 00                	je     ecc6 <_IO_stdin_used+0xcc6>
    ecc6:	00 00                	add    %al,(%rax)
    ecc8:	68 d8 ff ff 30       	pushq  $0x30ffffd8
    eccd:	00 00                	add    %al,(%rax)
    eccf:	00 00                	add    %al,(%rax)
    ecd1:	0c 07                	or     $0x7,%al
    ecd3:	00 0c 07             	add    %cl,(%rdi,%rax,1)
    ecd6:	08 04 2c             	or     %al,(%rsp,%rbp,1)
    ecd9:	00 00                	add    %al,(%rax)
    ecdb:	00 0c 07             	add    %cl,(%rdi,%rax,1)
    ecde:	00 00                	add    %al,(%rax)
    ece0:	1c 00                	sbb    $0x0,%al
    ece2:	00 00                	add    %al,(%rax)
    ece4:	94                   	xchg   %eax,%esp
    ece5:	00 00                	add    %al,(%rax)
    ece7:	00 78 d8             	add    %bh,0xffffffffffffffd8(%rax)
    ecea:	ff                   	(bad)  
    eceb:	ff 30                	pushq  (%rax)
    eced:	00 00                	add    %al,(%rax)
    ecef:	00 00                	add    %al,(%rax)
    ecf1:	0c 07                	or     $0x7,%al
    ecf3:	00 0c 07             	add    %cl,(%rdi,%rax,1)
    ecf6:	08 04 2c             	or     %al,(%rsp,%rbp,1)
    ecf9:	00 00                	add    %al,(%rax)
    ecfb:	00 0c 07             	add    %cl,(%rdi,%rax,1)
    ecfe:	00 00                	add    %al,(%rax)
    ed00:	24 00                	and    $0x0,%al
    ed02:	00 00                	add    %al,(%rax)
    ed04:	b4 00                	mov    $0x0,%ah
    ed06:	00 00                	add    %al,(%rax)
    ed08:	d8 d8                	fcomp  %st(0)
    ed0a:	ff                   	(bad)  
    ed0b:	ff 80 00 00 00 00    	incl   0x0(%rax)
    ed11:	0c 07                	or     $0x7,%al
    ed13:	80 fc ff             	cmp    $0xff,%ah
    ed16:	ff 0f                	decl   (%rdi)
    ed18:	04 07                	add    $0x7,%al
    ed1a:	00 00                	add    %al,(%rax)
    ed1c:	00 0c 07             	add    %cl,(%rdi,%rax,1)
    ed1f:	90                   	nop    
    ed20:	04 00                	add    $0x0,%al
    ed22:	00 00                	add    %al,(%rax)
    ed24:	00 00                	add    %al,(%rax)
    ed26:	00 00                	add    %al,(%rax)
    ed28:	84 00                	test   %al,(%rax)
    ed2a:	00 00                	add    %al,(%rax)
    ed2c:	dc 00                	faddl  (%rax)
    ed2e:	00 00                	add    %al,(%rax)
    ed30:	30 d9                	xor    %bl,%cl
    ed32:	ff                   	(bad)  
    ed33:	ff e0                	jmpq   *%rax
    ed35:	00 00                	add    %al,(%rax)
    ed37:	00 00                	add    %al,(%rax)
    ed39:	0c 07                	or     $0x7,%al
    ed3b:	e0 fb                	loopne ed38 <_IO_stdin_used+0xd38>
    ed3d:	ff                   	(bad)  
    ed3e:	ff 0f                	decl   (%rdi)
    ed40:	04 02                	add    $0x2,%al
    ed42:	00 00                	add    %al,(%rax)
    ed44:	00 8f 02 0c 07 e8    	add    %cl,0xffffffffe8070c02(%rdi)
    ed4a:	fb                   	sti    
    ed4b:	ff                   	(bad)  
    ed4c:	ff 0f                	decl   (%rdi)
    ed4e:	04 02                	add    $0x2,%al
    ed50:	00 00                	add    %al,(%rax)
    ed52:	00 8e 03 0c 07 f0    	add    %cl,0xfffffffff0070c03(%rsi)
    ed58:	fb                   	sti    
    ed59:	ff                   	(bad)  
    ed5a:	ff 0f                	decl   (%rdi)
    ed5c:	04 01                	add    $0x1,%al
    ed5e:	00 00                	add    %al,(%rax)
    ed60:	00 86 04 0c 07 f8    	add    %al,0xfffffffff8070c04(%rsi)
    ed66:	fb                   	sti    
    ed67:	ff                   	(bad)  
    ed68:	ff 0f                	decl   (%rdi)
    ed6a:	04 07                	add    $0x7,%al
    ed6c:	00 00                	add    %al,(%rax)
    ed6e:	00 0c 07             	add    %cl,(%rdi,%rax,1)
    ed71:	b0 04                	mov    $0x4,%al
    ed73:	04 a2                	add    $0xa2,%al
    ed75:	00 00                	add    %al,(%rax)
    ed77:	00 0c 07             	add    %cl,(%rdi,%rax,1)
    ed7a:	20 09                	and    %cl,(%rcx)
    ed7c:	06                   	(bad)  
    ed7d:	06                   	(bad)  
    ed7e:	04 01                	add    $0x1,%al
    ed80:	00 00                	add    %al,(%rax)
    ed82:	00 0c 07             	add    %cl,(%rdi,%rax,1)
    ed85:	18 09                	sbb    %cl,(%rcx)
    ed87:	0e                   	(bad)  
    ed88:	0e                   	(bad)  
    ed89:	04 02                	add    $0x2,%al
    ed8b:	00 00                	add    %al,(%rax)
    ed8d:	00 0c 07             	add    %cl,(%rdi,%rax,1)
    ed90:	10 09                	adc    %cl,(%rcx)
    ed92:	0f                   	(bad)  
    ed93:	0f 04                	(bad)  
    ed95:	02 00                	add    (%rax),%al
    ed97:	00 00                	add    %al,(%rax)
    ed99:	0c 07                	or     $0x7,%al
    ed9b:	08 04 01             	or     %al,(%rcx,%rax,1)
    ed9e:	00 00                	add    %al,(%rax)
    eda0:	00 0c 07             	add    %cl,(%rdi,%rax,1)
    eda3:	b0 04                	mov    $0x4,%al
    eda5:	86 04 8e             	xchg   %al,(%rsi,%rcx,4)
    eda8:	03 8f 02 00 00 00    	add    0x2(%rdi),%ecx
    edae:	00 00                	add    %al,(%rax)
    edb0:	84 00                	test   %al,(%rax)
    edb2:	00 00                	add    %al,(%rax)
    edb4:	64 01 00             	add    %eax,%fs:(%rax)
    edb7:	00 88 d9 ff ff e0    	add    %cl,0xffffffffe0ffffd9(%rax)
    edbd:	00 00                	add    %al,(%rax)
    edbf:	00 00                	add    %al,(%rax)
    edc1:	0c 07                	or     $0x7,%al
    edc3:	e0 fb                	loopne edc0 <_IO_stdin_used+0xdc0>
    edc5:	ff                   	(bad)  
    edc6:	ff 0f                	decl   (%rdi)
    edc8:	04 02                	add    $0x2,%al
    edca:	00 00                	add    %al,(%rax)
    edcc:	00 8f 02 0c 07 e8    	add    %cl,0xffffffffe8070c02(%rdi)
    edd2:	fb                   	sti    
    edd3:	ff                   	(bad)  
    edd4:	ff 0f                	decl   (%rdi)
    edd6:	04 02                	add    $0x2,%al
    edd8:	00 00                	add    %al,(%rax)
    edda:	00 8e 03 0c 07 f0    	add    %cl,0xfffffffff0070c03(%rsi)
    ede0:	fb                   	sti    
    ede1:	ff                   	(bad)  
    ede2:	ff 0f                	decl   (%rdi)
    ede4:	04 01                	add    $0x1,%al
    ede6:	00 00                	add    %al,(%rax)
    ede8:	00 86 04 0c 07 f8    	add    %al,0xfffffffff8070c04(%rsi)
    edee:	fb                   	sti    
    edef:	ff                   	(bad)  
    edf0:	ff 0f                	decl   (%rdi)
    edf2:	04 07                	add    $0x7,%al
    edf4:	00 00                	add    %al,(%rax)
    edf6:	00 0c 07             	add    %cl,(%rdi,%rax,1)
    edf9:	b0 04                	mov    $0x4,%al
    edfb:	04 9b                	add    $0x9b,%al
    edfd:	00 00                	add    %al,(%rax)
    edff:	00 0c 07             	add    %cl,(%rdi,%rax,1)
    ee02:	20 09                	and    %cl,(%rcx)
    ee04:	06                   	(bad)  
    ee05:	06                   	(bad)  
    ee06:	04 01                	add    $0x1,%al
    ee08:	00 00                	add    %al,(%rax)
    ee0a:	00 0c 07             	add    %cl,(%rdi,%rax,1)
    ee0d:	18 09                	sbb    %cl,(%rcx)
    ee0f:	0e                   	(bad)  
    ee10:	0e                   	(bad)  
    ee11:	04 02                	add    $0x2,%al
    ee13:	00 00                	add    %al,(%rax)
    ee15:	00 0c 07             	add    %cl,(%rdi,%rax,1)
    ee18:	10 09                	adc    %cl,(%rcx)
    ee1a:	0f                   	(bad)  
    ee1b:	0f 04                	(bad)  
    ee1d:	02 00                	add    (%rax),%al
    ee1f:	00 00                	add    %al,(%rax)
    ee21:	0c 07                	or     $0x7,%al
    ee23:	08 04 01             	or     %al,(%rcx,%rax,1)
    ee26:	00 00                	add    %al,(%rax)
    ee28:	00 0c 07             	add    %cl,(%rdi,%rax,1)
    ee2b:	b0 04                	mov    $0x4,%al
    ee2d:	86 04 8e             	xchg   %al,(%rsi,%rcx,4)
    ee30:	03 8f 02 00 00 00    	add    0x2(%rdi),%ecx
    ee36:	00 00                	add    %al,(%rax)
    ee38:	84 00                	test   %al,(%rax)
    ee3a:	00 00                	add    %al,(%rax)
    ee3c:	ec                   	in     (%dx),%al
    ee3d:	01 00                	add    %eax,(%rax)
    ee3f:	00 e0                	add    %ah,%al
    ee41:	d9 ff                	fcos   
    ee43:	ff e0                	jmpq   *%rax
    ee45:	00 00                	add    %al,(%rax)
    ee47:	00 00                	add    %al,(%rax)
    ee49:	0c 07                	or     $0x7,%al
    ee4b:	e0 fb                	loopne ee48 <_IO_stdin_used+0xe48>
    ee4d:	ff                   	(bad)  
    ee4e:	ff 0f                	decl   (%rdi)
    ee50:	04 02                	add    $0x2,%al
    ee52:	00 00                	add    %al,(%rax)
    ee54:	00 8f 02 0c 07 e8    	add    %cl,0xffffffffe8070c02(%rdi)
    ee5a:	fb                   	sti    
    ee5b:	ff                   	(bad)  
    ee5c:	ff 0f                	decl   (%rdi)
    ee5e:	04 02                	add    $0x2,%al
    ee60:	00 00                	add    %al,(%rax)
    ee62:	00 8e 03 0c 07 f0    	add    %cl,0xfffffffff0070c03(%rsi)
    ee68:	fb                   	sti    
    ee69:	ff                   	(bad)  
    ee6a:	ff 0f                	decl   (%rdi)
    ee6c:	04 01                	add    $0x1,%al
    ee6e:	00 00                	add    %al,(%rax)
    ee70:	00 86 04 0c 07 f8    	add    %al,0xfffffffff8070c04(%rsi)
    ee76:	fb                   	sti    
    ee77:	ff                   	(bad)  
    ee78:	ff 0f                	decl   (%rdi)
    ee7a:	04 07                	add    $0x7,%al
    ee7c:	00 00                	add    %al,(%rax)
    ee7e:	00 0c 07             	add    %cl,(%rdi,%rax,1)
    ee81:	b0 04                	mov    $0x4,%al
    ee83:	04 9b                	add    $0x9b,%al
    ee85:	00 00                	add    %al,(%rax)
    ee87:	00 0c 07             	add    %cl,(%rdi,%rax,1)
    ee8a:	20 09                	and    %cl,(%rcx)
    ee8c:	06                   	(bad)  
    ee8d:	06                   	(bad)  
    ee8e:	04 01                	add    $0x1,%al
    ee90:	00 00                	add    %al,(%rax)
    ee92:	00 0c 07             	add    %cl,(%rdi,%rax,1)
    ee95:	18 09                	sbb    %cl,(%rcx)
    ee97:	0e                   	(bad)  
    ee98:	0e                   	(bad)  
    ee99:	04 02                	add    $0x2,%al
    ee9b:	00 00                	add    %al,(%rax)
    ee9d:	00 0c 07             	add    %cl,(%rdi,%rax,1)
    eea0:	10 09                	adc    %cl,(%rcx)
    eea2:	0f                   	(bad)  
    eea3:	0f 04                	(bad)  
    eea5:	02 00                	add    (%rax),%al
    eea7:	00 00                	add    %al,(%rax)
    eea9:	0c 07                	or     $0x7,%al
    eeab:	08 04 01             	or     %al,(%rcx,%rax,1)
    eeae:	00 00                	add    %al,(%rax)
    eeb0:	00 0c 07             	add    %cl,(%rdi,%rax,1)
    eeb3:	b0 04                	mov    $0x4,%al
    eeb5:	86 04 8e             	xchg   %al,(%rsi,%rcx,4)
    eeb8:	03 8f 02 00 00 00    	add    0x2(%rdi),%ecx
    eebe:	00 00                	add    %al,(%rax)
    eec0:	24 00                	and    $0x0,%al
    eec2:	00 00                	add    %al,(%rax)
    eec4:	74 02                	je     eec8 <_IO_stdin_used+0xec8>
    eec6:	00 00                	add    %al,(%rax)
    eec8:	88 da                	mov    %bl,%dl
    eeca:	ff                   	(bad)  
    eecb:	ff 80 00 00 00 00    	incl   0x0(%rax)
    eed1:	0c 07                	or     $0x7,%al
    eed3:	80 fc ff             	cmp    $0xff,%ah
    eed6:	ff 0f                	decl   (%rdi)
    eed8:	04 07                	add    $0x7,%al
    eeda:	00 00                	add    %al,(%rax)
    eedc:	00 0c 07             	add    %cl,(%rdi,%rax,1)
    eedf:	90                   	nop    
    eee0:	04 00                	add    $0x0,%al
    eee2:	00 00                	add    %al,(%rax)
    eee4:	00 00                	add    %al,(%rax)
    eee6:	00 00                	add    %al,(%rax)
    eee8:	2c 00                	sub    $0x0,%al
    eeea:	00 00                	add    %al,(%rax)
    eeec:	9c                   	pushfq 
    eeed:	02 00                	add    (%rax),%al
    eeef:	00 e0                	add    %ah,%al
    eef1:	da ff                	(bad)  
    eef3:	ff 80 00 00 00 00    	incl   0x0(%rax)
    eef9:	0c 07                	or     $0x7,%al
    eefb:	80 fc ff             	cmp    $0xff,%ah
    eefe:	ff 0f                	decl   (%rdi)
    ef00:	04 07                	add    $0x7,%al
    ef02:	00 00                	add    %al,(%rax)
    ef04:	00 0c 07             	add    %cl,(%rdi,%rax,1)
    ef07:	90                   	nop    
    ef08:	04 04                	add    $0x4,%al
    ef0a:	6a 00                	pushq  $0x0
    ef0c:	00 00                	add    %al,(%rax)
    ef0e:	0c 07                	or     $0x7,%al
    ef10:	08 00                	or     %al,(%rax)
    ef12:	00 00                	add    %al,(%rax)
    ef14:	00 00                	add    %al,(%rax)
    ef16:	00 00                	add    %al,(%rax)
    ef18:	1c 00                	sbb    $0x0,%al
    ef1a:	00 00                	add    %al,(%rax)
    ef1c:	cc                   	int3   
    ef1d:	02 00                	add    (%rax),%al
    ef1f:	00 30                	add    %dh,(%rax)
    ef21:	db ff                	(bad)  
    ef23:	ff 30                	pushq  (%rax)
    ef25:	00 00                	add    %al,(%rax)
    ef27:	00 00                	add    %al,(%rax)
    ef29:	0c 07                	or     $0x7,%al
    ef2b:	00 0c 07             	add    %cl,(%rdi,%rax,1)
    ef2e:	08 04 2c             	or     %al,(%rsp,%rbp,1)
    ef31:	00 00                	add    %al,(%rax)
    ef33:	00 0c 07             	add    %cl,(%rdi,%rax,1)
    ef36:	00 00                	add    %al,(%rax)
    ef38:	1c 00                	sbb    $0x0,%al
    ef3a:	00 00                	add    %al,(%rax)
    ef3c:	ec                   	in     (%dx),%al
    ef3d:	02 00                	add    (%rax),%al
    ef3f:	00 40 db             	add    %al,0xffffffffffffffdb(%rax)
    ef42:	ff                   	(bad)  
    ef43:	ff 30                	pushq  (%rax)
    ef45:	00 00                	add    %al,(%rax)
    ef47:	00 00                	add    %al,(%rax)
    ef49:	0c 07                	or     $0x7,%al
    ef4b:	00 0c 07             	add    %cl,(%rdi,%rax,1)
    ef4e:	08 04 2c             	or     %al,(%rsp,%rbp,1)
    ef51:	00 00                	add    %al,(%rax)
    ef53:	00 0c 07             	add    %cl,(%rdi,%rax,1)
    ef56:	00 00                	add    %al,(%rax)
    ef58:	24 00                	and    $0x0,%al
    ef5a:	00 00                	add    %al,(%rax)
    ef5c:	0c 03                	or     $0x3,%al
    ef5e:	00 00                	add    %al,(%rax)
    ef60:	a0 db ff ff 80 00 00 	mov    0x80ffffdb,%al
    ef67:	00 00 
    ef69:	0c 07                	or     $0x7,%al
    ef6b:	80 fc ff             	cmp    $0xff,%ah
    ef6e:	ff 0f                	decl   (%rdi)
    ef70:	04 07                	add    $0x7,%al
    ef72:	00 00                	add    %al,(%rax)
    ef74:	00 0c 07             	add    %cl,(%rdi,%rax,1)
    ef77:	90                   	nop    
    ef78:	04 00                	add    $0x0,%al
    ef7a:	00 00                	add    %al,(%rax)
    ef7c:	00 00                	add    %al,(%rax)
    ef7e:	00 00                	add    %al,(%rax)
    ef80:	84 00                	test   %al,(%rax)
    ef82:	00 00                	add    %al,(%rax)
    ef84:	34 03                	xor    $0x3,%al
    ef86:	00 00                	add    %al,(%rax)
    ef88:	f8                   	clc    
    ef89:	db ff                	(bad)  
    ef8b:	ff e0                	jmpq   *%rax
    ef8d:	00 00                	add    %al,(%rax)
    ef8f:	00 00                	add    %al,(%rax)
    ef91:	0c 07                	or     $0x7,%al
    ef93:	e0 fb                	loopne ef90 <_IO_stdin_used+0xf90>
    ef95:	ff                   	(bad)  
    ef96:	ff 0f                	decl   (%rdi)
    ef98:	04 02                	add    $0x2,%al
    ef9a:	00 00                	add    %al,(%rax)
    ef9c:	00 8f 02 0c 07 e8    	add    %cl,0xffffffffe8070c02(%rdi)
    efa2:	fb                   	sti    
    efa3:	ff                   	(bad)  
    efa4:	ff 0f                	decl   (%rdi)
    efa6:	04 02                	add    $0x2,%al
    efa8:	00 00                	add    %al,(%rax)
    efaa:	00 8e 03 0c 07 f0    	add    %cl,0xfffffffff0070c03(%rsi)
    efb0:	fb                   	sti    
    efb1:	ff                   	(bad)  
    efb2:	ff 0f                	decl   (%rdi)
    efb4:	04 01                	add    $0x1,%al
    efb6:	00 00                	add    %al,(%rax)
    efb8:	00 86 04 0c 07 f8    	add    %al,0xfffffffff8070c04(%rsi)
    efbe:	fb                   	sti    
    efbf:	ff                   	(bad)  
    efc0:	ff 0f                	decl   (%rdi)
    efc2:	04 07                	add    $0x7,%al
    efc4:	00 00                	add    %al,(%rax)
    efc6:	00 0c 07             	add    %cl,(%rdi,%rax,1)
    efc9:	b0 04                	mov    $0x4,%al
    efcb:	04 a2                	add    $0xa2,%al
    efcd:	00 00                	add    %al,(%rax)
    efcf:	00 0c 07             	add    %cl,(%rdi,%rax,1)
    efd2:	20 09                	and    %cl,(%rcx)
    efd4:	06                   	(bad)  
    efd5:	06                   	(bad)  
    efd6:	04 01                	add    $0x1,%al
    efd8:	00 00                	add    %al,(%rax)
    efda:	00 0c 07             	add    %cl,(%rdi,%rax,1)
    efdd:	18 09                	sbb    %cl,(%rcx)
    efdf:	0e                   	(bad)  
    efe0:	0e                   	(bad)  
    efe1:	04 02                	add    $0x2,%al
    efe3:	00 00                	add    %al,(%rax)
    efe5:	00 0c 07             	add    %cl,(%rdi,%rax,1)
    efe8:	10 09                	adc    %cl,(%rcx)
    efea:	0f                   	(bad)  
    efeb:	0f 04                	(bad)  
    efed:	02 00                	add    (%rax),%al
    efef:	00 00                	add    %al,(%rax)
    eff1:	0c 07                	or     $0x7,%al
    eff3:	08 04 01             	or     %al,(%rcx,%rax,1)
    eff6:	00 00                	add    %al,(%rax)
    eff8:	00 0c 07             	add    %cl,(%rdi,%rax,1)
    effb:	b0 04                	mov    $0x4,%al
    effd:	86 04 8e             	xchg   %al,(%rsi,%rcx,4)
    f000:	03 8f 02 00 00 00    	add    0x2(%rdi),%ecx
    f006:	00 00                	add    %al,(%rax)
    f008:	84 00                	test   %al,(%rax)
    f00a:	00 00                	add    %al,(%rax)
    f00c:	bc 03 00 00 50       	mov    $0x50000003,%esp
    f011:	dc ff                	fdiv   %st,%st(7)
    f013:	ff e0                	jmpq   *%rax
    f015:	00 00                	add    %al,(%rax)
    f017:	00 00                	add    %al,(%rax)
    f019:	0c 07                	or     $0x7,%al
    f01b:	e0 fb                	loopne f018 <_IO_stdin_used+0x1018>
    f01d:	ff                   	(bad)  
    f01e:	ff 0f                	decl   (%rdi)
    f020:	04 02                	add    $0x2,%al
    f022:	00 00                	add    %al,(%rax)
    f024:	00 8f 02 0c 07 e8    	add    %cl,0xffffffffe8070c02(%rdi)
    f02a:	fb                   	sti    
    f02b:	ff                   	(bad)  
    f02c:	ff 0f                	decl   (%rdi)
    f02e:	04 02                	add    $0x2,%al
    f030:	00 00                	add    %al,(%rax)
    f032:	00 8e 03 0c 07 f0    	add    %cl,0xfffffffff0070c03(%rsi)
    f038:	fb                   	sti    
    f039:	ff                   	(bad)  
    f03a:	ff 0f                	decl   (%rdi)
    f03c:	04 01                	add    $0x1,%al
    f03e:	00 00                	add    %al,(%rax)
    f040:	00 86 04 0c 07 f8    	add    %al,0xfffffffff8070c04(%rsi)
    f046:	fb                   	sti    
    f047:	ff                   	(bad)  
    f048:	ff 0f                	decl   (%rdi)
    f04a:	04 07                	add    $0x7,%al
    f04c:	00 00                	add    %al,(%rax)
    f04e:	00 0c 07             	add    %cl,(%rdi,%rax,1)
    f051:	b0 04                	mov    $0x4,%al
    f053:	04 9b                	add    $0x9b,%al
    f055:	00 00                	add    %al,(%rax)
    f057:	00 0c 07             	add    %cl,(%rdi,%rax,1)
    f05a:	20 09                	and    %cl,(%rcx)
    f05c:	06                   	(bad)  
    f05d:	06                   	(bad)  
    f05e:	04 01                	add    $0x1,%al
    f060:	00 00                	add    %al,(%rax)
    f062:	00 0c 07             	add    %cl,(%rdi,%rax,1)
    f065:	18 09                	sbb    %cl,(%rcx)
    f067:	0e                   	(bad)  
    f068:	0e                   	(bad)  
    f069:	04 02                	add    $0x2,%al
    f06b:	00 00                	add    %al,(%rax)
    f06d:	00 0c 07             	add    %cl,(%rdi,%rax,1)
    f070:	10 09                	adc    %cl,(%rcx)
    f072:	0f                   	(bad)  
    f073:	0f 04                	(bad)  
    f075:	02 00                	add    (%rax),%al
    f077:	00 00                	add    %al,(%rax)
    f079:	0c 07                	or     $0x7,%al
    f07b:	08 04 01             	or     %al,(%rcx,%rax,1)
    f07e:	00 00                	add    %al,(%rax)
    f080:	00 0c 07             	add    %cl,(%rdi,%rax,1)
    f083:	b0 04                	mov    $0x4,%al
    f085:	86 04 8e             	xchg   %al,(%rsi,%rcx,4)
    f088:	03 8f 02 00 00 00    	add    0x2(%rdi),%ecx
    f08e:	00 00                	add    %al,(%rax)
    f090:	84 00                	test   %al,(%rax)
    f092:	00 00                	add    %al,(%rax)
    f094:	44 04 00             	rex.R add    $0x0,%al
    f097:	00 a8 dc ff ff e0    	add    %ch,0xffffffffe0ffffdc(%rax)
    f09d:	00 00                	add    %al,(%rax)
    f09f:	00 00                	add    %al,(%rax)
    f0a1:	0c 07                	or     $0x7,%al
    f0a3:	e0 fb                	loopne f0a0 <_IO_stdin_used+0x10a0>
    f0a5:	ff                   	(bad)  
    f0a6:	ff 0f                	decl   (%rdi)
    f0a8:	04 02                	add    $0x2,%al
    f0aa:	00 00                	add    %al,(%rax)
    f0ac:	00 8f 02 0c 07 e8    	add    %cl,0xffffffffe8070c02(%rdi)
    f0b2:	fb                   	sti    
    f0b3:	ff                   	(bad)  
    f0b4:	ff 0f                	decl   (%rdi)
    f0b6:	04 02                	add    $0x2,%al
    f0b8:	00 00                	add    %al,(%rax)
    f0ba:	00 8e 03 0c 07 f0    	add    %cl,0xfffffffff0070c03(%rsi)
    f0c0:	fb                   	sti    
    f0c1:	ff                   	(bad)  
    f0c2:	ff 0f                	decl   (%rdi)
    f0c4:	04 01                	add    $0x1,%al
    f0c6:	00 00                	add    %al,(%rax)
    f0c8:	00 86 04 0c 07 f8    	add    %al,0xfffffffff8070c04(%rsi)
    f0ce:	fb                   	sti    
    f0cf:	ff                   	(bad)  
    f0d0:	ff 0f                	decl   (%rdi)
    f0d2:	04 07                	add    $0x7,%al
    f0d4:	00 00                	add    %al,(%rax)
    f0d6:	00 0c 07             	add    %cl,(%rdi,%rax,1)
    f0d9:	b0 04                	mov    $0x4,%al
    f0db:	04 9b                	add    $0x9b,%al
    f0dd:	00 00                	add    %al,(%rax)
    f0df:	00 0c 07             	add    %cl,(%rdi,%rax,1)
    f0e2:	20 09                	and    %cl,(%rcx)
    f0e4:	06                   	(bad)  
    f0e5:	06                   	(bad)  
    f0e6:	04 01                	add    $0x1,%al
    f0e8:	00 00                	add    %al,(%rax)
    f0ea:	00 0c 07             	add    %cl,(%rdi,%rax,1)
    f0ed:	18 09                	sbb    %cl,(%rcx)
    f0ef:	0e                   	(bad)  
    f0f0:	0e                   	(bad)  
    f0f1:	04 02                	add    $0x2,%al
    f0f3:	00 00                	add    %al,(%rax)
    f0f5:	00 0c 07             	add    %cl,(%rdi,%rax,1)
    f0f8:	10 09                	adc    %cl,(%rcx)
    f0fa:	0f                   	(bad)  
    f0fb:	0f 04                	(bad)  
    f0fd:	02 00                	add    (%rax),%al
    f0ff:	00 00                	add    %al,(%rax)
    f101:	0c 07                	or     $0x7,%al
    f103:	08 04 01             	or     %al,(%rcx,%rax,1)
    f106:	00 00                	add    %al,(%rax)
    f108:	00 0c 07             	add    %cl,(%rdi,%rax,1)
    f10b:	b0 04                	mov    $0x4,%al
    f10d:	86 04 8e             	xchg   %al,(%rsi,%rcx,4)
    f110:	03 8f 02 00 00 00    	add    0x2(%rdi),%ecx
    f116:	00 00                	add    %al,(%rax)
    f118:	24 00                	and    $0x0,%al
    f11a:	00 00                	add    %al,(%rax)
    f11c:	cc                   	int3   
    f11d:	04 00                	add    $0x0,%al
    f11f:	00 50 dd             	add    %dl,0xffffffffffffffdd(%rax)
    f122:	ff                   	(bad)  
    f123:	ff 80 00 00 00 00    	incl   0x0(%rax)
    f129:	0c 07                	or     $0x7,%al
    f12b:	80 fc ff             	cmp    $0xff,%ah
    f12e:	ff 0f                	decl   (%rdi)
    f130:	04 07                	add    $0x7,%al
    f132:	00 00                	add    %al,(%rax)
    f134:	00 0c 07             	add    %cl,(%rdi,%rax,1)
    f137:	90                   	nop    
    f138:	04 00                	add    $0x0,%al
    f13a:	00 00                	add    %al,(%rax)
    f13c:	00 00                	add    %al,(%rax)
    f13e:	00 00                	add    %al,(%rax)
    f140:	1c 00                	sbb    $0x0,%al
    f142:	00 00                	add    %al,(%rax)
    f144:	f4                   	hlt    
    f145:	04 00                	add    $0x0,%al
    f147:	00 a8 dd ff ff 30    	add    %ch,0x30ffffdd(%rax)
    f14d:	00 00                	add    %al,(%rax)
    f14f:	00 00                	add    %al,(%rax)
    f151:	0c 07                	or     $0x7,%al
    f153:	00 0c 07             	add    %cl,(%rdi,%rax,1)
    f156:	08 04 2c             	or     %al,(%rsp,%rbp,1)
    f159:	00 00                	add    %al,(%rax)
    f15b:	00 0c 07             	add    %cl,(%rdi,%rax,1)
    f15e:	00 00                	add    %al,(%rax)
    f160:	24 00                	and    $0x0,%al
    f162:	00 00                	add    %al,(%rax)
    f164:	14 05                	adc    $0x5,%al
    f166:	00 00                	add    %al,(%rax)
    f168:	e8 dd ff ff 80       	callq  ffffffff8100f14a <message_catalog.0+0xffffffff809f912a>
    f16d:	00 00                	add    %al,(%rax)
    f16f:	00 00                	add    %al,(%rax)
    f171:	0c 07                	or     $0x7,%al
    f173:	80 fc ff             	cmp    $0xff,%ah
    f176:	ff 0f                	decl   (%rdi)
    f178:	04 07                	add    $0x7,%al
    f17a:	00 00                	add    %al,(%rax)
    f17c:	00 0c 07             	add    %cl,(%rdi,%rax,1)
    f17f:	90                   	nop    
    f180:	04 00                	add    $0x0,%al
    f182:	00 00                	add    %al,(%rax)
    f184:	00 00                	add    %al,(%rax)
    f186:	00 00                	add    %al,(%rax)
    f188:	84 00                	test   %al,(%rax)
    f18a:	00 00                	add    %al,(%rax)
    f18c:	3c 05                	cmp    $0x5,%al
    f18e:	00 00                	add    %al,(%rax)
    f190:	40 de ff             	rex fdivp  %st,%st(7)
    f193:	ff e0                	jmpq   *%rax
    f195:	00 00                	add    %al,(%rax)
    f197:	00 00                	add    %al,(%rax)
    f199:	0c 07                	or     $0x7,%al
    f19b:	e0 fb                	loopne f198 <_IO_stdin_used+0x1198>
    f19d:	ff                   	(bad)  
    f19e:	ff 0f                	decl   (%rdi)
    f1a0:	04 02                	add    $0x2,%al
    f1a2:	00 00                	add    %al,(%rax)
    f1a4:	00 8f 02 0c 07 e8    	add    %cl,0xffffffffe8070c02(%rdi)
    f1aa:	fb                   	sti    
    f1ab:	ff                   	(bad)  
    f1ac:	ff 0f                	decl   (%rdi)
    f1ae:	04 02                	add    $0x2,%al
    f1b0:	00 00                	add    %al,(%rax)
    f1b2:	00 8e 03 0c 07 f0    	add    %cl,0xfffffffff0070c03(%rsi)
    f1b8:	fb                   	sti    
    f1b9:	ff                   	(bad)  
    f1ba:	ff 0f                	decl   (%rdi)
    f1bc:	04 01                	add    $0x1,%al
    f1be:	00 00                	add    %al,(%rax)
    f1c0:	00 86 04 0c 07 f8    	add    %al,0xfffffffff8070c04(%rsi)
    f1c6:	fb                   	sti    
    f1c7:	ff                   	(bad)  
    f1c8:	ff 0f                	decl   (%rdi)
    f1ca:	04 07                	add    $0x7,%al
    f1cc:	00 00                	add    %al,(%rax)
    f1ce:	00 0c 07             	add    %cl,(%rdi,%rax,1)
    f1d1:	b0 04                	mov    $0x4,%al
    f1d3:	04 9b                	add    $0x9b,%al
    f1d5:	00 00                	add    %al,(%rax)
    f1d7:	00 0c 07             	add    %cl,(%rdi,%rax,1)
    f1da:	20 09                	and    %cl,(%rcx)
    f1dc:	06                   	(bad)  
    f1dd:	06                   	(bad)  
    f1de:	04 01                	add    $0x1,%al
    f1e0:	00 00                	add    %al,(%rax)
    f1e2:	00 0c 07             	add    %cl,(%rdi,%rax,1)
    f1e5:	18 09                	sbb    %cl,(%rcx)
    f1e7:	0e                   	(bad)  
    f1e8:	0e                   	(bad)  
    f1e9:	04 02                	add    $0x2,%al
    f1eb:	00 00                	add    %al,(%rax)
    f1ed:	00 0c 07             	add    %cl,(%rdi,%rax,1)
    f1f0:	10 09                	adc    %cl,(%rcx)
    f1f2:	0f                   	(bad)  
    f1f3:	0f 04                	(bad)  
    f1f5:	02 00                	add    (%rax),%al
    f1f7:	00 00                	add    %al,(%rax)
    f1f9:	0c 07                	or     $0x7,%al
    f1fb:	08 04 01             	or     %al,(%rcx,%rax,1)
    f1fe:	00 00                	add    %al,(%rax)
    f200:	00 0c 07             	add    %cl,(%rdi,%rax,1)
    f203:	b0 04                	mov    $0x4,%al
    f205:	86 04 8e             	xchg   %al,(%rsi,%rcx,4)
    f208:	03 8f 02 00 00 00    	add    0x2(%rdi),%ecx
    f20e:	00 00                	add    %al,(%rax)
    f210:	24 00                	and    $0x0,%al
    f212:	00 00                	add    %al,(%rax)
    f214:	c4                   	(bad)  
    f215:	05 00 00 c8 de       	add    $0xdec80000,%eax
    f21a:	ff                   	(bad)  
    f21b:	ff 80 00 00 00 00    	incl   0x0(%rax)
    f221:	0c 07                	or     $0x7,%al
    f223:	80 fc ff             	cmp    $0xff,%ah
    f226:	ff 0f                	decl   (%rdi)
    f228:	04 07                	add    $0x7,%al
    f22a:	00 00                	add    %al,(%rax)
    f22c:	00 0c 07             	add    %cl,(%rdi,%rax,1)
    f22f:	90                   	nop    
    f230:	04 00                	add    $0x0,%al
    f232:	00 00                	add    %al,(%rax)
    f234:	00 00                	add    %al,(%rax)
    f236:	00 00                	add    %al,(%rax)
    f238:	1c 00                	sbb    $0x0,%al
    f23a:	00 00                	add    %al,(%rax)
    f23c:	ec                   	in     (%dx),%al
    f23d:	05 00 00 20 df       	add    $0xdf200000,%eax
    f242:	ff                   	(bad)  
    f243:	ff 30                	pushq  (%rax)
    f245:	00 00                	add    %al,(%rax)
    f247:	00 00                	add    %al,(%rax)
    f249:	0c 07                	or     $0x7,%al
    f24b:	00 0c 07             	add    %cl,(%rdi,%rax,1)
    f24e:	08 04 2c             	or     %al,(%rsp,%rbp,1)
    f251:	00 00                	add    %al,(%rax)
    f253:	00 0c 07             	add    %cl,(%rdi,%rax,1)
    f256:	00 00                	add    %al,(%rax)
    f258:	24 00                	and    $0x0,%al
    f25a:	00 00                	add    %al,(%rax)
    f25c:	0c 06                	or     $0x6,%al
    f25e:	00 00                	add    %al,(%rax)
    f260:	60                   	(bad)  
    f261:	df ff                	(bad)  
    f263:	ff 80 00 00 00 00    	incl   0x0(%rax)
    f269:	0c 07                	or     $0x7,%al
    f26b:	80 fc ff             	cmp    $0xff,%ah
    f26e:	ff 0f                	decl   (%rdi)
    f270:	04 07                	add    $0x7,%al
    f272:	00 00                	add    %al,(%rax)
    f274:	00 0c 07             	add    %cl,(%rdi,%rax,1)
    f277:	90                   	nop    
    f278:	04 00                	add    $0x0,%al
    f27a:	00 00                	add    %al,(%rax)
    f27c:	00 00                	add    %al,(%rax)
    f27e:	00 00                	add    %al,(%rax)
    f280:	84 00                	test   %al,(%rax)
    f282:	00 00                	add    %al,(%rax)
    f284:	34 06                	xor    $0x6,%al
    f286:	00 00                	add    %al,(%rax)
    f288:	b8 df ff ff e0       	mov    $0xe0ffffdf,%eax
    f28d:	00 00                	add    %al,(%rax)
    f28f:	00 00                	add    %al,(%rax)
    f291:	0c 07                	or     $0x7,%al
    f293:	e0 fb                	loopne f290 <_IO_stdin_used+0x1290>
    f295:	ff                   	(bad)  
    f296:	ff 0f                	decl   (%rdi)
    f298:	04 02                	add    $0x2,%al
    f29a:	00 00                	add    %al,(%rax)
    f29c:	00 8f 02 0c 07 e8    	add    %cl,0xffffffffe8070c02(%rdi)
    f2a2:	fb                   	sti    
    f2a3:	ff                   	(bad)  
    f2a4:	ff 0f                	decl   (%rdi)
    f2a6:	04 02                	add    $0x2,%al
    f2a8:	00 00                	add    %al,(%rax)
    f2aa:	00 8e 03 0c 07 f0    	add    %cl,0xfffffffff0070c03(%rsi)
    f2b0:	fb                   	sti    
    f2b1:	ff                   	(bad)  
    f2b2:	ff 0f                	decl   (%rdi)
    f2b4:	04 01                	add    $0x1,%al
    f2b6:	00 00                	add    %al,(%rax)
    f2b8:	00 86 04 0c 07 f8    	add    %al,0xfffffffff8070c04(%rsi)
    f2be:	fb                   	sti    
    f2bf:	ff                   	(bad)  
    f2c0:	ff 0f                	decl   (%rdi)
    f2c2:	04 07                	add    $0x7,%al
    f2c4:	00 00                	add    %al,(%rax)
    f2c6:	00 0c 07             	add    %cl,(%rdi,%rax,1)
    f2c9:	b0 04                	mov    $0x4,%al
    f2cb:	04 9b                	add    $0x9b,%al
    f2cd:	00 00                	add    %al,(%rax)
    f2cf:	00 0c 07             	add    %cl,(%rdi,%rax,1)
    f2d2:	20 09                	and    %cl,(%rcx)
    f2d4:	06                   	(bad)  
    f2d5:	06                   	(bad)  
    f2d6:	04 01                	add    $0x1,%al
    f2d8:	00 00                	add    %al,(%rax)
    f2da:	00 0c 07             	add    %cl,(%rdi,%rax,1)
    f2dd:	18 09                	sbb    %cl,(%rcx)
    f2df:	0e                   	(bad)  
    f2e0:	0e                   	(bad)  
    f2e1:	04 02                	add    $0x2,%al
    f2e3:	00 00                	add    %al,(%rax)
    f2e5:	00 0c 07             	add    %cl,(%rdi,%rax,1)
    f2e8:	10 09                	adc    %cl,(%rcx)
    f2ea:	0f                   	(bad)  
    f2eb:	0f 04                	(bad)  
    f2ed:	02 00                	add    (%rax),%al
    f2ef:	00 00                	add    %al,(%rax)
    f2f1:	0c 07                	or     $0x7,%al
    f2f3:	08 04 01             	or     %al,(%rcx,%rax,1)
    f2f6:	00 00                	add    %al,(%rax)
    f2f8:	00 0c 07             	add    %cl,(%rdi,%rax,1)
    f2fb:	b0 04                	mov    $0x4,%al
    f2fd:	86 04 8e             	xchg   %al,(%rsi,%rcx,4)
    f300:	03 8f 02 00 00 00    	add    0x2(%rdi),%ecx
    f306:	00 00                	add    %al,(%rax)
    f308:	24 00                	and    $0x0,%al
    f30a:	00 00                	add    %al,(%rax)
    f30c:	bc 06 00 00 40       	mov    $0x40000006,%esp
    f311:	e0 ff                	loopne f312 <_IO_stdin_used+0x1312>
    f313:	ff 80 00 00 00 00    	incl   0x0(%rax)
    f319:	0c 07                	or     $0x7,%al
    f31b:	80 fc ff             	cmp    $0xff,%ah
    f31e:	ff 0f                	decl   (%rdi)
    f320:	04 07                	add    $0x7,%al
    f322:	00 00                	add    %al,(%rax)
    f324:	00 0c 07             	add    %cl,(%rdi,%rax,1)
    f327:	90                   	nop    
    f328:	04 00                	add    $0x0,%al
    f32a:	00 00                	add    %al,(%rax)
    f32c:	00 00                	add    %al,(%rax)
    f32e:	00 00                	add    %al,(%rax)
    f330:	84 00                	test   %al,(%rax)
    f332:	00 00                	add    %al,(%rax)
    f334:	e4 06                	in     $0x6,%al
    f336:	00 00                	add    %al,(%rax)
    f338:	98                   	cwtl   
    f339:	e0 ff                	loopne f33a <_IO_stdin_used+0x133a>
    f33b:	ff e0                	jmpq   *%rax
    f33d:	00 00                	add    %al,(%rax)
    f33f:	00 00                	add    %al,(%rax)
    f341:	0c 07                	or     $0x7,%al
    f343:	e0 fb                	loopne f340 <_IO_stdin_used+0x1340>
    f345:	ff                   	(bad)  
    f346:	ff 0f                	decl   (%rdi)
    f348:	04 02                	add    $0x2,%al
    f34a:	00 00                	add    %al,(%rax)
    f34c:	00 8f 02 0c 07 e8    	add    %cl,0xffffffffe8070c02(%rdi)
    f352:	fb                   	sti    
    f353:	ff                   	(bad)  
    f354:	ff 0f                	decl   (%rdi)
    f356:	04 02                	add    $0x2,%al
    f358:	00 00                	add    %al,(%rax)
    f35a:	00 8e 03 0c 07 f0    	add    %cl,0xfffffffff0070c03(%rsi)
    f360:	fb                   	sti    
    f361:	ff                   	(bad)  
    f362:	ff 0f                	decl   (%rdi)
    f364:	04 01                	add    $0x1,%al
    f366:	00 00                	add    %al,(%rax)
    f368:	00 86 04 0c 07 f8    	add    %al,0xfffffffff8070c04(%rsi)
    f36e:	fb                   	sti    
    f36f:	ff                   	(bad)  
    f370:	ff 0f                	decl   (%rdi)
    f372:	04 07                	add    $0x7,%al
    f374:	00 00                	add    %al,(%rax)
    f376:	00 0c 07             	add    %cl,(%rdi,%rax,1)
    f379:	b0 04                	mov    $0x4,%al
    f37b:	04 9b                	add    $0x9b,%al
    f37d:	00 00                	add    %al,(%rax)
    f37f:	00 0c 07             	add    %cl,(%rdi,%rax,1)
    f382:	20 09                	and    %cl,(%rcx)
    f384:	06                   	(bad)  
    f385:	06                   	(bad)  
    f386:	04 01                	add    $0x1,%al
    f388:	00 00                	add    %al,(%rax)
    f38a:	00 0c 07             	add    %cl,(%rdi,%rax,1)
    f38d:	18 09                	sbb    %cl,(%rcx)
    f38f:	0e                   	(bad)  
    f390:	0e                   	(bad)  
    f391:	04 02                	add    $0x2,%al
    f393:	00 00                	add    %al,(%rax)
    f395:	00 0c 07             	add    %cl,(%rdi,%rax,1)
    f398:	10 09                	adc    %cl,(%rcx)
    f39a:	0f                   	(bad)  
    f39b:	0f 04                	(bad)  
    f39d:	02 00                	add    (%rax),%al
    f39f:	00 00                	add    %al,(%rax)
    f3a1:	0c 07                	or     $0x7,%al
    f3a3:	08 04 01             	or     %al,(%rcx,%rax,1)
    f3a6:	00 00                	add    %al,(%rax)
    f3a8:	00 0c 07             	add    %cl,(%rdi,%rax,1)
    f3ab:	b0 04                	mov    $0x4,%al
    f3ad:	86 04 8e             	xchg   %al,(%rsi,%rcx,4)
    f3b0:	03 8f 02 00 00 00    	add    0x2(%rdi),%ecx
    f3b6:	00 00                	add    %al,(%rax)
    f3b8:	24 00                	and    $0x0,%al
    f3ba:	00 00                	add    %al,(%rax)
    f3bc:	6c                   	insb   (%dx),%es:(%rdi)
    f3bd:	07                   	(bad)  
    f3be:	00 00                	add    %al,(%rax)
    f3c0:	20 e1                	and    %ah,%cl
    f3c2:	ff                   	(bad)  
    f3c3:	ff 80 00 00 00 00    	incl   0x0(%rax)
    f3c9:	0c 07                	or     $0x7,%al
    f3cb:	80 fc ff             	cmp    $0xff,%ah
    f3ce:	ff 0f                	decl   (%rdi)
    f3d0:	04 07                	add    $0x7,%al
    f3d2:	00 00                	add    %al,(%rax)
    f3d4:	00 0c 07             	add    %cl,(%rdi,%rax,1)
    f3d7:	90                   	nop    
    f3d8:	04 00                	add    $0x0,%al
    f3da:	00 00                	add    %al,(%rax)
    f3dc:	00 00                	add    %al,(%rax)
    f3de:	00 00                	add    %al,(%rax)
    f3e0:	84 00                	test   %al,(%rax)
    f3e2:	00 00                	add    %al,(%rax)
    f3e4:	94                   	xchg   %eax,%esp
    f3e5:	07                   	(bad)  
    f3e6:	00 00                	add    %al,(%rax)
    f3e8:	78 e1                	js     f3cb <_IO_stdin_used+0x13cb>
    f3ea:	ff                   	(bad)  
    f3eb:	ff e0                	jmpq   *%rax
    f3ed:	00 00                	add    %al,(%rax)
    f3ef:	00 00                	add    %al,(%rax)
    f3f1:	0c 07                	or     $0x7,%al
    f3f3:	e0 fb                	loopne f3f0 <_IO_stdin_used+0x13f0>
    f3f5:	ff                   	(bad)  
    f3f6:	ff 0f                	decl   (%rdi)
    f3f8:	04 02                	add    $0x2,%al
    f3fa:	00 00                	add    %al,(%rax)
    f3fc:	00 8f 02 0c 07 e8    	add    %cl,0xffffffffe8070c02(%rdi)
    f402:	fb                   	sti    
    f403:	ff                   	(bad)  
    f404:	ff 0f                	decl   (%rdi)
    f406:	04 02                	add    $0x2,%al
    f408:	00 00                	add    %al,(%rax)
    f40a:	00 8e 03 0c 07 f0    	add    %cl,0xfffffffff0070c03(%rsi)
    f410:	fb                   	sti    
    f411:	ff                   	(bad)  
    f412:	ff 0f                	decl   (%rdi)
    f414:	04 01                	add    $0x1,%al
    f416:	00 00                	add    %al,(%rax)
    f418:	00 86 04 0c 07 f8    	add    %al,0xfffffffff8070c04(%rsi)
    f41e:	fb                   	sti    
    f41f:	ff                   	(bad)  
    f420:	ff 0f                	decl   (%rdi)
    f422:	04 07                	add    $0x7,%al
    f424:	00 00                	add    %al,(%rax)
    f426:	00 0c 07             	add    %cl,(%rdi,%rax,1)
    f429:	b0 04                	mov    $0x4,%al
    f42b:	04 9c                	add    $0x9c,%al
    f42d:	00 00                	add    %al,(%rax)
    f42f:	00 0c 07             	add    %cl,(%rdi,%rax,1)
    f432:	20 09                	and    %cl,(%rcx)
    f434:	06                   	(bad)  
    f435:	06                   	(bad)  
    f436:	04 01                	add    $0x1,%al
    f438:	00 00                	add    %al,(%rax)
    f43a:	00 0c 07             	add    %cl,(%rdi,%rax,1)
    f43d:	18 09                	sbb    %cl,(%rcx)
    f43f:	0e                   	(bad)  
    f440:	0e                   	(bad)  
    f441:	04 02                	add    $0x2,%al
    f443:	00 00                	add    %al,(%rax)
    f445:	00 0c 07             	add    %cl,(%rdi,%rax,1)
    f448:	10 09                	adc    %cl,(%rcx)
    f44a:	0f                   	(bad)  
    f44b:	0f 04                	(bad)  
    f44d:	02 00                	add    (%rax),%al
    f44f:	00 00                	add    %al,(%rax)
    f451:	0c 07                	or     $0x7,%al
    f453:	08 04 01             	or     %al,(%rcx,%rax,1)
    f456:	00 00                	add    %al,(%rax)
    f458:	00 0c 07             	add    %cl,(%rdi,%rax,1)
    f45b:	b0 04                	mov    $0x4,%al
    f45d:	86 04 8e             	xchg   %al,(%rsi,%rcx,4)
    f460:	03 8f 02 00 00 00    	add    0x2(%rdi),%ecx
    f466:	00 00                	add    %al,(%rax)
    f468:	24 00                	and    $0x0,%al
    f46a:	00 00                	add    %al,(%rax)
    f46c:	1c 08                	sbb    $0x8,%al
    f46e:	00 00                	add    %al,(%rax)
    f470:	00 e2                	add    %ah,%dl
    f472:	ff                   	(bad)  
    f473:	ff 80 00 00 00 00    	incl   0x0(%rax)
    f479:	0c 07                	or     $0x7,%al
    f47b:	80 fc ff             	cmp    $0xff,%ah
    f47e:	ff 0f                	decl   (%rdi)
    f480:	04 07                	add    $0x7,%al
    f482:	00 00                	add    %al,(%rax)
    f484:	00 0c 07             	add    %cl,(%rdi,%rax,1)
    f487:	90                   	nop    
    f488:	04 00                	add    $0x0,%al
    f48a:	00 00                	add    %al,(%rax)
    f48c:	00 00                	add    %al,(%rax)
    f48e:	00 00                	add    %al,(%rax)
    f490:	2c 00                	sub    $0x0,%al
    f492:	00 00                	add    %al,(%rax)
    f494:	44 08 00             	or     %r8b,(%rax)
    f497:	00 58 e2             	add    %bl,0xffffffffffffffe2(%rax)
    f49a:	ff                   	(bad)  
    f49b:	ff 70 00             	pushq  0x0(%rax)
    f49e:	00 00                	add    %al,(%rax)
    f4a0:	00 0c 07             	add    %cl,(%rdi,%rax,1)
    f4a3:	00 04 00             	add    %al,(%rax,%rax,1)
    f4a6:	00 00                	add    %al,(%rax)
    f4a8:	00 0c 07             	add    %cl,(%rdi,%rax,1)
    f4ab:	08 04 46             	or     %al,(%rsi,%rax,2)
    f4ae:	00 00                	add    %al,(%rax)
    f4b0:	00 0c 07             	add    %cl,(%rdi,%rax,1)
    f4b3:	00 04 01             	add    %al,(%rcx,%rax,1)
    f4b6:	00 00                	add    %al,(%rax)
    f4b8:	00 0c 07             	add    %cl,(%rdi,%rax,1)
    f4bb:	08 00                	or     %al,(%rax)
    f4bd:	00 00                	add    %al,(%rax)
    f4bf:	00 14 00             	add    %dl,(%rax,%rax,1)
    f4c2:	00 00                	add    %al,(%rax)
    f4c4:	74 08                	je     f4ce <_IO_stdin_used+0x14ce>
    f4c6:	00 00                	add    %al,(%rax)
    f4c8:	c8 e2 ff ff          	enterq $0xffe2,$0xff
    f4cc:	10 00                	adc    %al,(%rax)
    f4ce:	00 00                	add    %al,(%rax)
    f4d0:	00 00                	add    %al,(%rax)
    f4d2:	00 00                	add    %al,(%rax)
    f4d4:	00 00                	add    %al,(%rax)
    f4d6:	00 00                	add    %al,(%rax)
    f4d8:	2c 00                	sub    $0x0,%al
    f4da:	00 00                	add    %al,(%rax)
    f4dc:	8c 08                	mov    %cs,(%rax)
    f4de:	00 00                	add    %al,(%rax)
    f4e0:	c0 e2 ff             	shl    $0xff,%dl
    f4e3:	ff 80 00 00 00 00    	incl   0x0(%rax)
    f4e9:	0c 07                	or     $0x7,%al
    f4eb:	80 fc ff             	cmp    $0xff,%ah
    f4ee:	ff 0f                	decl   (%rdi)
    f4f0:	04 07                	add    $0x7,%al
    f4f2:	00 00                	add    %al,(%rax)
    f4f4:	00 0c 07             	add    %cl,(%rdi,%rax,1)
    f4f7:	90                   	nop    
    f4f8:	04 04                	add    $0x4,%al
    f4fa:	6a 00                	pushq  $0x0
    f4fc:	00 00                	add    %al,(%rax)
    f4fe:	0c 07                	or     $0x7,%al
    f500:	08 00                	or     %al,(%rax)
    f502:	00 00                	add    %al,(%rax)
    f504:	00 00                	add    %al,(%rax)
    f506:	00 00                	add    %al,(%rax)
    f508:	14 00                	adc    $0x0,%al
    f50a:	00 00                	add    %al,(%rax)
    f50c:	bc 08 00 00 40       	mov    $0x40000008,%esp
    f511:	e3 ff                	jrcxz  f512 <_IO_stdin_used+0x1512>
    f513:	ff 10                	callq  *(%rax)
    f515:	00 00                	add    %al,(%rax)
    f517:	00 00                	add    %al,(%rax)
    f519:	00 00                	add    %al,(%rax)
    f51b:	00 00                	add    %al,(%rax)
    f51d:	00 00                	add    %al,(%rax)
    f51f:	00 84 00 00 00 d4 08 	add    %al,0x8d40000(%rax,%rax,1)
    f526:	00 00                	add    %al,(%rax)
    f528:	38 e3                	cmp    %ah,%bl
    f52a:	ff                   	(bad)  
    f52b:	ff e0                	jmpq   *%rax
    f52d:	00 00                	add    %al,(%rax)
    f52f:	00 00                	add    %al,(%rax)
    f531:	0c 07                	or     $0x7,%al
    f533:	e0 fb                	loopne f530 <_IO_stdin_used+0x1530>
    f535:	ff                   	(bad)  
    f536:	ff 0f                	decl   (%rdi)
    f538:	04 02                	add    $0x2,%al
    f53a:	00 00                	add    %al,(%rax)
    f53c:	00 8f 02 0c 07 e8    	add    %cl,0xffffffffe8070c02(%rdi)
    f542:	fb                   	sti    
    f543:	ff                   	(bad)  
    f544:	ff 0f                	decl   (%rdi)
    f546:	04 02                	add    $0x2,%al
    f548:	00 00                	add    %al,(%rax)
    f54a:	00 8e 03 0c 07 f0    	add    %cl,0xfffffffff0070c03(%rsi)
    f550:	fb                   	sti    
    f551:	ff                   	(bad)  
    f552:	ff 0f                	decl   (%rdi)
    f554:	04 01                	add    $0x1,%al
    f556:	00 00                	add    %al,(%rax)
    f558:	00 86 04 0c 07 f8    	add    %al,0xfffffffff8070c04(%rsi)
    f55e:	fb                   	sti    
    f55f:	ff                   	(bad)  
    f560:	ff 0f                	decl   (%rdi)
    f562:	04 07                	add    $0x7,%al
    f564:	00 00                	add    %al,(%rax)
    f566:	00 0c 07             	add    %cl,(%rdi,%rax,1)
    f569:	b0 04                	mov    $0x4,%al
    f56b:	04 a2                	add    $0xa2,%al
    f56d:	00 00                	add    %al,(%rax)
    f56f:	00 0c 07             	add    %cl,(%rdi,%rax,1)
    f572:	20 09                	and    %cl,(%rcx)
    f574:	06                   	(bad)  
    f575:	06                   	(bad)  
    f576:	04 01                	add    $0x1,%al
    f578:	00 00                	add    %al,(%rax)
    f57a:	00 0c 07             	add    %cl,(%rdi,%rax,1)
    f57d:	18 09                	sbb    %cl,(%rcx)
    f57f:	0e                   	(bad)  
    f580:	0e                   	(bad)  
    f581:	04 02                	add    $0x2,%al
    f583:	00 00                	add    %al,(%rax)
    f585:	00 0c 07             	add    %cl,(%rdi,%rax,1)
    f588:	10 09                	adc    %cl,(%rcx)
    f58a:	0f                   	(bad)  
    f58b:	0f 04                	(bad)  
    f58d:	02 00                	add    (%rax),%al
    f58f:	00 00                	add    %al,(%rax)
    f591:	0c 07                	or     $0x7,%al
    f593:	08 04 01             	or     %al,(%rcx,%rax,1)
    f596:	00 00                	add    %al,(%rax)
    f598:	00 0c 07             	add    %cl,(%rdi,%rax,1)
    f59b:	b0 04                	mov    $0x4,%al
    f59d:	86 04 8e             	xchg   %al,(%rsi,%rcx,4)
    f5a0:	03 8f 02 00 00 00    	add    0x2(%rdi),%ecx
    f5a6:	00 00                	add    %al,(%rax)
    f5a8:	e4 00                	in     $0x0,%al
    f5aa:	00 00                	add    %al,(%rax)
    f5ac:	5c                   	pop    %rsp
    f5ad:	09 00                	or     %eax,(%rax)
    f5af:	00 c0                	add    %al,%al
    f5b1:	e3 ff                	jrcxz  f5b2 <_IO_stdin_used+0x15b2>
    f5b3:	ff 50 02             	callq  *0x2(%rax)
    f5b6:	00 00                	add    %al,(%rax)
    f5b8:	00 0c 07             	add    %cl,(%rdi,%rax,1)
    f5bb:	f0 fd                	lock std 
    f5bd:	ff                   	(bad)  
    f5be:	ff 0f                	decl   (%rdi)
    f5c0:	04 02                	add    $0x2,%al
    f5c2:	00 00                	add    %al,(%rax)
    f5c4:	00 8f 02 0c 07 f8    	add    %cl,0xfffffffff8070c02(%rdi)
    f5ca:	fd                   	std    
    f5cb:	ff                   	(bad)  
    f5cc:	ff 0f                	decl   (%rdi)
    f5ce:	04 01                	add    $0x1,%al
    f5d0:	00 00                	add    %al,(%rax)
    f5d2:	00 86 03 0c 07 80    	add    %al,0xffffffff80070c03(%rsi)
    f5d8:	fe                   	(bad)  
    f5d9:	ff                   	(bad)  
    f5da:	ff 0f                	decl   (%rdi)
    f5dc:	04 01                	add    $0x1,%al
    f5de:	00 00                	add    %al,(%rax)
    f5e0:	00 83 04 0c 07 88    	add    %al,0xffffffff88070c04(%rbx)
    f5e6:	fe                   	(bad)  
    f5e7:	ff                   	(bad)  
    f5e8:	ff 0f                	decl   (%rdi)
    f5ea:	04 07                	add    $0x7,%al
    f5ec:	00 00                	add    %al,(%rax)
    f5ee:	00 0c 07             	add    %cl,(%rdi,%rax,1)
    f5f1:	a0 02 04 79 00 00 00 	mov    0x70c000000790402,%al
    f5f8:	0c 07 
    f5fa:	20 09                	and    %cl,(%rcx)
    f5fc:	03 03                	add    (%rbx),%eax
    f5fe:	04 01                	add    $0x1,%al
    f600:	00 00                	add    %al,(%rax)
    f602:	00 0c 07             	add    %cl,(%rdi,%rax,1)
    f605:	18 09                	sbb    %cl,(%rcx)
    f607:	06                   	(bad)  
    f608:	06                   	(bad)  
    f609:	04 01                	add    $0x1,%al
    f60b:	00 00                	add    %al,(%rax)
    f60d:	00 0c 07             	add    %cl,(%rdi,%rax,1)
    f610:	10 09                	adc    %cl,(%rcx)
    f612:	0f                   	(bad)  
    f613:	0f 04                	(bad)  
    f615:	02 00                	add    (%rax),%al
    f617:	00 00                	add    %al,(%rax)
    f619:	0c 07                	or     $0x7,%al
    f61b:	08 04 01             	or     %al,(%rcx,%rax,1)
    f61e:	00 00                	add    %al,(%rax)
    f620:	00 0c 07             	add    %cl,(%rdi,%rax,1)
    f623:	a0 02 83 04 86 03 8f 	mov    0x4028f0386048302,%al
    f62a:	02 04 
    f62c:	00 01                	add    %al,(%rcx)
    f62e:	00 00                	add    %al,(%rax)
    f630:	0c 07                	or     $0x7,%al
    f632:	20 09                	and    %cl,(%rcx)
    f634:	03 03                	add    (%rbx),%eax
    f636:	04 01                	add    $0x1,%al
    f638:	00 00                	add    %al,(%rax)
    f63a:	00 0c 07             	add    %cl,(%rdi,%rax,1)
    f63d:	18 09                	sbb    %cl,(%rcx)
    f63f:	06                   	(bad)  
    f640:	06                   	(bad)  
    f641:	04 01                	add    $0x1,%al
    f643:	00 00                	add    %al,(%rax)
    f645:	00 0c 07             	add    %cl,(%rdi,%rax,1)
    f648:	10 09                	adc    %cl,(%rcx)
    f64a:	0f                   	(bad)  
    f64b:	0f 04                	(bad)  
    f64d:	02 00                	add    (%rax),%al
    f64f:	00 00                	add    %al,(%rax)
    f651:	0c 07                	or     $0x7,%al
    f653:	08 04 01             	or     %al,(%rcx,%rax,1)
    f656:	00 00                	add    %al,(%rax)
    f658:	00 0c 07             	add    %cl,(%rdi,%rax,1)
    f65b:	a0 02 83 04 86 03 8f 	mov    0x4028f0386048302,%al
    f662:	02 04 
    f664:	b4 00                	mov    $0x0,%ah
    f666:	00 00                	add    %al,(%rax)
    f668:	0c 07                	or     $0x7,%al
    f66a:	20 09                	and    %cl,(%rcx)
    f66c:	03 03                	add    (%rbx),%eax
    f66e:	04 01                	add    $0x1,%al
    f670:	00 00                	add    %al,(%rax)
    f672:	00 0c 07             	add    %cl,(%rdi,%rax,1)
    f675:	18 09                	sbb    %cl,(%rcx)
    f677:	06                   	(bad)  
    f678:	06                   	(bad)  
    f679:	04 01                	add    $0x1,%al
    f67b:	00 00                	add    %al,(%rax)
    f67d:	00 0c 07             	add    %cl,(%rdi,%rax,1)
    f680:	10 09                	adc    %cl,(%rcx)
    f682:	0f                   	(bad)  
    f683:	0f 04                	(bad)  
    f685:	02 00                	add    (%rax),%al
    f687:	00 00                	add    %al,(%rax)
    f689:	0c 07                	or     $0x7,%al
    f68b:	08 00                	or     %al,(%rax)
    f68d:	00 00                	add    %al,(%rax)
    f68f:	00 94 00 00 00 44 0a 	add    %dl,0xa440000(%rax,%rax,1)
    f696:	00 00                	add    %al,(%rax)
    f698:	28 e5                	sub    %ah,%ch
    f69a:	ff                   	(bad)  
    f69b:	ff f0                	push   %rax
    f69d:	01 00                	add    %eax,(%rax)
    f69f:	00 00                	add    %al,(%rax)
    f6a1:	0c 07                	or     $0x7,%al
    f6a3:	80 fe ff             	cmp    $0xff,%dh
    f6a6:	ff 0f                	decl   (%rdi)
    f6a8:	04 02                	add    $0x2,%al
    f6aa:	00 00                	add    %al,(%rax)
    f6ac:	00 8e 02 0c 07 88    	add    %cl,0xffffffff88070c02(%rsi)
    f6b2:	fe                   	(bad)  
    f6b3:	ff                   	(bad)  
    f6b4:	ff 0f                	decl   (%rdi)
    f6b6:	04 02                	add    $0x2,%al
    f6b8:	00 00                	add    %al,(%rax)
    f6ba:	00 8d 03 0c 07 90    	add    %cl,0xffffffff90070c03(%rbp)
    f6c0:	fe                   	(bad)  
    f6c1:	ff                   	(bad)  
    f6c2:	ff 0f                	decl   (%rdi)
    f6c4:	04 07                	add    $0x7,%al
    f6c6:	00 00                	add    %al,(%rax)
    f6c8:	00 0c 07             	add    %cl,(%rdi,%rax,1)
    f6cb:	90                   	nop    
    f6cc:	02 04 4d 01 00 00 0c 	add    0xc000001(,%rcx,2),%al
    f6d3:	07                   	(bad)  
    f6d4:	18 09                	sbb    %cl,(%rcx)
    f6d6:	0d 0d 04 02 00       	or     $0x2040d,%eax
    f6db:	00 00                	add    %al,(%rax)
    f6dd:	0c 07                	or     $0x7,%al
    f6df:	10 09                	adc    %cl,(%rcx)
    f6e1:	0e                   	(bad)  
    f6e2:	0e                   	(bad)  
    f6e3:	04 02                	add    $0x2,%al
    f6e5:	00 00                	add    %al,(%rax)
    f6e7:	00 0c 07             	add    %cl,(%rdi,%rax,1)
    f6ea:	08 04 01             	or     %al,(%rcx,%rax,1)
    f6ed:	00 00                	add    %al,(%rax)
    f6ef:	00 0c 07             	add    %cl,(%rdi,%rax,1)
    f6f2:	90                   	nop    
    f6f3:	02 8d 03 8e 02 04    	add    0x4028e03(%rbp),%cl
    f6f9:	07                   	(bad)  
    f6fa:	00 00                	add    %al,(%rax)
    f6fc:	00 0c 07             	add    %cl,(%rdi,%rax,1)
    f6ff:	18 09                	sbb    %cl,(%rcx)
    f701:	0d 0d 04 02 00       	or     $0x2040d,%eax
    f706:	00 00                	add    %al,(%rax)
    f708:	0c 07                	or     $0x7,%al
    f70a:	10 09                	adc    %cl,(%rcx)
    f70c:	0e                   	(bad)  
    f70d:	0e                   	(bad)  
    f70e:	04 02                	add    $0x2,%al
    f710:	00 00                	add    %al,(%rax)
    f712:	00 0c 07             	add    %cl,(%rdi,%rax,1)
    f715:	08 04 01             	or     %al,(%rcx,%rax,1)
    f718:	00 00                	add    %al,(%rax)
    f71a:	00 0c 07             	add    %cl,(%rdi,%rax,1)
    f71d:	90                   	nop    
    f71e:	02 8d 03 8e 02 00    	add    0x28e03(%rbp),%cl
    f724:	00 00                	add    %al,(%rax)
    f726:	00 00                	add    %al,(%rax)
    f728:	1c 00                	sbb    $0x0,%al
    f72a:	00 00                	add    %al,(%rax)
    f72c:	dc 0a                	fmull  (%rdx)
    f72e:	00 00                	add    %al,(%rax)
    f730:	80 e6 ff             	and    $0xff,%dh
    f733:	ff 60 01             	jmpq   *0x1(%rax)
    f736:	00 00                	add    %al,(%rax)
    f738:	00 04 00             	add    %al,(%rax,%rax,1)
    f73b:	00 00                	add    %al,(%rax)
    f73d:	00 0c 06             	add    %cl,(%rsi,%rax,1)
    f740:	10 86 02 00 00 00    	adc    %al,0x2(%rsi)
    f746:	00 00                	add    %al,(%rax)
    f748:	14 00                	adc    $0x0,%al
    f74a:	00 00                	add    %al,(%rax)
    f74c:	fc                   	cld    
    f74d:	0a 00                	or     (%rax),%al
    f74f:	00 c0                	add    %al,%al
    f751:	e7 ff                	out    %eax,$0xff
    f753:	ff 02                	incl   (%rdx)
    f755:	00 00                	add    %al,(%rax)
    f757:	00 00                	add    %al,(%rax)
    f759:	00 00                	add    %al,(%rax)
    f75b:	00 00                	add    %al,(%rax)
    f75d:	00 00                	add    %al,(%rax)
    f75f:	00 24 00             	add    %ah,(%rax,%rax,1)
    f762:	00 00                	add    %al,(%rax)
    f764:	14 0b                	adc    $0xb,%al
    f766:	00 00                	add    %al,(%rax)
    f768:	b8 e7 ff ff 8b       	mov    $0x8bffffe7,%eax
    f76d:	00 00                	add    %al,(%rax)
    f76f:	00 00                	add    %al,(%rax)
    f771:	4a 8d 04 8c          	lea    (%rsp,%r9,4),%rax
    f775:	05 51 8f 02 8e       	add    $0x8e028f51,%eax
    f77a:	03 51 0e             	add    0xe(%rcx),%edx
    f77d:	40 86 06             	xchg   %al,(%rsi)
    f780:	83 07 00             	addl   $0x0,(%rdi)
    f783:	00 00                	add    %al,(%rax)
    f785:	00 00                	add    %al,(%rax)
    f787:	00 00                	add    %al,(%rax)
    f789:	00 00                	add    %al,(%rax)
    f78b:	00                   	.byte 0x0
Disassembly of section .ctors:

0000000000110000 <__CTOR_LIST__-0x505000>:
  110000:	ff                   	(bad)  
  110001:	ff                   	(bad)  
  110002:	ff                   	(bad)  
  110003:	ff                   	(bad)  
  110004:	ff                   	(bad)  
  110005:	ff                   	(bad)  
  110006:	ff                   	(bad)  
  110007:	ff 00                	incl   (%rax)
  110009:	00 00                	add    %al,(%rax)
  11000b:	00 00                	add    %al,(%rax)
  11000d:	00 00                	add    %al,(%rax)
  11000f:	00                   	.byte 0x0
Disassembly of section .dtors:

0000000000110010 <__DTOR_LIST__-0x505010>:
  110010:	ff                   	(bad)  
  110011:	ff                   	(bad)  
  110012:	ff                   	(bad)  
  110013:	ff                   	(bad)  
  110014:	ff                   	(bad)  
  110015:	ff                   	(bad)  
  110016:	ff                   	(bad)  
  110017:	ff 00                	incl   (%rax)
  110019:	00 00                	add    %al,(%rax)
  11001b:	00 00                	add    %al,(%rax)
  11001d:	00 00                	add    %al,(%rax)
  11001f:	00                   	.byte 0x0
Disassembly of section .jcr:

0000000000110020 <__JCR_END__-0x505020>:
  110020:	00 00                	add    %al,(%rax)
  110022:	00 00                	add    %al,(%rax)
  110024:	00 00                	add    %al,(%rax)
  110026:	00 00                	add    %al,(%rax)
Disassembly of section .dynamic:

0000000000110028 <_DYNAMIC-0x505028>:
  110028:	01 00                	add    %eax,(%rax)
  11002a:	00 00                	add    %al,(%rax)
  11002c:	00 00                	add    %al,(%rax)
  11002e:	00 00                	add    %al,(%rax)
  110030:	01 00                	add    %eax,(%rax)
  110032:	00 00                	add    %al,(%rax)
  110034:	00 00                	add    %al,(%rax)
  110036:	00 00                	add    %al,(%rax)
  110038:	01 00                	add    %eax,(%rax)
  11003a:	00 00                	add    %al,(%rax)
  11003c:	00 00                	add    %al,(%rax)
  11003e:	00 00                	add    %al,(%rax)
  110040:	2e 00 00             	add    %al,%cs:(%rax)
  110043:	00 00                	add    %al,(%rax)
  110045:	00 00                	add    %al,(%rax)
  110047:	00 01                	add    %al,(%rcx)
  110049:	00 00                	add    %al,(%rax)
  11004b:	00 00                	add    %al,(%rax)
  11004d:	00 00                	add    %al,(%rax)
  11004f:	00 3c 00             	add    %bh,(%rax,%rax,1)
  110052:	00 00                	add    %al,(%rax)
  110054:	00 00                	add    %al,(%rax)
  110056:	00 00                	add    %al,(%rax)
  110058:	01 00                	add    %eax,(%rax)
  11005a:	00 00                	add    %al,(%rax)
  11005c:	00 00                	add    %al,(%rax)
  11005e:	00 00                	add    %al,(%rax)
  110060:	a9 00 00 00 00       	test   $0x0,%eax
  110065:	00 00                	add    %al,(%rax)
  110067:	00 0c 00             	add    %cl,(%rax,%rax,1)
  11006a:	00 00                	add    %al,(%rax)
  11006c:	00 00                	add    %al,(%rax)
  11006e:	00 00                	add    %al,(%rax)
  110070:	50                   	push   %rax
  110071:	07                   	(bad)  
  110072:	40 00 00             	add    %al,(%rax)
  110075:	00 00                	add    %al,(%rax)
  110077:	00 0d 00 00 00 00    	add    %cl,0(%rip)        # 11007d <_IO_stdin_used+0x10207d>
  11007d:	00 00                	add    %al,(%rax)
  11007f:	00 28                	add    %ch,(%rax)
  110081:	32 40 00             	xor    0x0(%rax),%al
  110084:	00 00                	add    %al,(%rax)
  110086:	00 00                	add    %al,(%rax)
  110088:	04 00                	add    $0x0,%al
  11008a:	00 00                	add    %al,(%rax)
  11008c:	00 00                	add    %al,(%rax)
  11008e:	00 00                	add    %al,(%rax)
  110090:	90                   	nop    
  110091:	02 40 00             	add    0x0(%rax),%al
  110094:	00 00                	add    %al,(%rax)
  110096:	00 00                	add    %al,(%rax)
  110098:	05 00 00 00 00       	add    $0x0,%eax
  11009d:	00 00                	add    %al,(%rax)
  11009f:	00 b8 04 40 00 00    	add    %bh,0x4004(%rax)
  1100a5:	00 00                	add    %al,(%rax)
  1100a7:	00 06                	add    %al,(%rsi)
  1100a9:	00 00                	add    %al,(%rax)
  1100ab:	00 00                	add    %al,(%rax)
  1100ad:	00 00                	add    %al,(%rax)
  1100af:	00 20                	add    %ah,(%rax)
  1100b1:	03 40 00             	add    0x0(%rax),%eax
  1100b4:	00 00                	add    %al,(%rax)
  1100b6:	00 00                	add    %al,(%rax)
  1100b8:	0a 00                	or     (%rax),%al
  1100ba:	00 00                	add    %al,(%rax)
  1100bc:	00 00                	add    %al,(%rax)
  1100be:	00 00                	add    %al,(%rax)
  1100c0:	d6                   	(bad)  
  1100c1:	00 00                	add    %al,(%rax)
  1100c3:	00 00                	add    %al,(%rax)
  1100c5:	00 00                	add    %al,(%rax)
  1100c7:	00 0b                	add    %cl,(%rbx)
  1100c9:	00 00                	add    %al,(%rax)
  1100cb:	00 00                	add    %al,(%rax)
  1100cd:	00 00                	add    %al,(%rax)
  1100cf:	00 18                	add    %bl,(%rax)
  1100d1:	00 00                	add    %al,(%rax)
  1100d3:	00 00                	add    %al,(%rax)
  1100d5:	00 00                	add    %al,(%rax)
  1100d7:	00 15 00 00 00 00    	add    %dl,0(%rip)        # 1100dd <_IO_stdin_used+0x1020dd>
  1100dd:	00 00                	add    %al,(%rax)
  1100df:	00 00                	add    %al,(%rax)
  1100e1:	00 00                	add    %al,(%rax)
  1100e3:	00 00                	add    %al,(%rax)
  1100e5:	00 00                	add    %al,(%rax)
  1100e7:	00 03                	add    %al,(%rbx)
  1100e9:	00 00                	add    %al,(%rax)
  1100eb:	00 00                	add    %al,(%rax)
  1100ed:	00 00                	add    %al,(%rax)
  1100ef:	00 08                	add    %cl,(%rax)
  1100f1:	52                   	push   %rdx
  1100f2:	50                   	push   %rax
  1100f3:	00 00                	add    %al,(%rax)
  1100f5:	00 00                	add    %al,(%rax)
  1100f7:	00 02                	add    %al,(%rdx)
  1100f9:	00 00                	add    %al,(%rax)
  1100fb:	00 00                	add    %al,(%rax)
  1100fd:	00 00                	add    %al,(%rax)
  1100ff:	00 20                	add    %ah,(%rax)
  110101:	01 00                	add    %eax,(%rax)
  110103:	00 00                	add    %al,(%rax)
  110105:	00 00                	add    %al,(%rax)
  110107:	00 14 00             	add    %dl,(%rax,%rax,1)
  11010a:	00 00                	add    %al,(%rax)
  11010c:	00 00                	add    %al,(%rax)
  11010e:	00 00                	add    %al,(%rax)
  110110:	07                   	(bad)  
  110111:	00 00                	add    %al,(%rax)
  110113:	00 00                	add    %al,(%rax)
  110115:	00 00                	add    %al,(%rax)
  110117:	00 17                	add    %dl,(%rdi)
  110119:	00 00                	add    %al,(%rax)
  11011b:	00 00                	add    %al,(%rax)
  11011d:	00 00                	add    %al,(%rax)
  11011f:	00 30                	add    %dh,(%rax)
  110121:	06                   	(bad)  
  110122:	40 00 00             	add    %al,(%rax)
  110125:	00 00                	add    %al,(%rax)
  110127:	00 07                	add    %al,(%rdi)
  110129:	00 00                	add    %al,(%rax)
  11012b:	00 00                	add    %al,(%rax)
  11012d:	00 00                	add    %al,(%rax)
  11012f:	00 d0                	add    %dl,%al
  110131:	05 40 00 00 00       	add    $0x40,%eax
  110136:	00 00                	add    %al,(%rax)
  110138:	08 00                	or     %al,(%rax)
  11013a:	00 00                	add    %al,(%rax)
  11013c:	00 00                	add    %al,(%rax)
  11013e:	00 00                	add    %al,(%rax)
  110140:	60                   	(bad)  
  110141:	00 00                	add    %al,(%rax)
  110143:	00 00                	add    %al,(%rax)
  110145:	00 00                	add    %al,(%rax)
  110147:	00 09                	add    %cl,(%rcx)
  110149:	00 00                	add    %al,(%rax)
  11014b:	00 00                	add    %al,(%rax)
  11014d:	00 00                	add    %al,(%rax)
  11014f:	00 18                	add    %bl,(%rax)
  110151:	00 00                	add    %al,(%rax)
  110153:	00 00                	add    %al,(%rax)
  110155:	00 00                	add    %al,(%rax)
  110157:	00 fe                	add    %bh,%dh
  110159:	ff                   	(bad)  
  11015a:	ff 6f 00             	ljmpq  *0x0(%rdi)
  11015d:	00 00                	add    %al,(%rax)
  11015f:	00 b0 05 40 00 00    	add    %dh,0x4005(%rax)
  110165:	00 00                	add    %al,(%rax)
  110167:	00 ff                	add    %bh,%bh
  110169:	ff                   	(bad)  
  11016a:	ff 6f 00             	ljmpq  *0x0(%rdi)
  11016d:	00 00                	add    %al,(%rax)
  11016f:	00 01                	add    %al,(%rcx)
  110171:	00 00                	add    %al,(%rax)
  110173:	00 00                	add    %al,(%rax)
  110175:	00 00                	add    %al,(%rax)
  110177:	00 f0                	add    %dh,%al
  110179:	ff                   	(bad)  
  11017a:	ff 6f 00             	ljmpq  *0x0(%rdi)
  11017d:	00 00                	add    %al,(%rax)
  11017f:	00 8e 05 40 00 00    	add    %cl,0x4005(%rsi)
  110185:	00 00                	add    %al,(%rax)
  110187:	00 00                	add    %al,(%rax)
  110189:	00 00                	add    %al,(%rax)
  11018b:	00 00                	add    %al,(%rax)
  11018d:	00 00                	add    %al,(%rax)
  11018f:	00 00                	add    %al,(%rax)
  110191:	00 00                	add    %al,(%rax)
  110193:	00 00                	add    %al,(%rax)
  110195:	00 00                	add    %al,(%rax)
  110197:	00 00                	add    %al,(%rax)
  110199:	00 00                	add    %al,(%rax)
  11019b:	00 00                	add    %al,(%rax)
  11019d:	00 00                	add    %al,(%rax)
  11019f:	00 00                	add    %al,(%rax)
  1101a1:	00 00                	add    %al,(%rax)
  1101a3:	00 00                	add    %al,(%rax)
  1101a5:	00 00                	add    %al,(%rax)
  1101a7:	00 00                	add    %al,(%rax)
  1101a9:	00 00                	add    %al,(%rax)
  1101ab:	00 00                	add    %al,(%rax)
  1101ad:	00 00                	add    %al,(%rax)
  1101af:	00 00                	add    %al,(%rax)
  1101b1:	00 00                	add    %al,(%rax)
  1101b3:	00 00                	add    %al,(%rax)
  1101b5:	00 00                	add    %al,(%rax)
  1101b7:	00 00                	add    %al,(%rax)
  1101b9:	00 00                	add    %al,(%rax)
  1101bb:	00 00                	add    %al,(%rax)
  1101bd:	00 00                	add    %al,(%rax)
  1101bf:	00 00                	add    %al,(%rax)
  1101c1:	00 00                	add    %al,(%rax)
  1101c3:	00 00                	add    %al,(%rax)
  1101c5:	00 00                	add    %al,(%rax)
  1101c7:	00 00                	add    %al,(%rax)
  1101c9:	00 00                	add    %al,(%rax)
  1101cb:	00 00                	add    %al,(%rax)
  1101cd:	00 00                	add    %al,(%rax)
  1101cf:	00 00                	add    %al,(%rax)
  1101d1:	00 00                	add    %al,(%rax)
  1101d3:	00 00                	add    %al,(%rax)
  1101d5:	00 00                	add    %al,(%rax)
  1101d7:	00 00                	add    %al,(%rax)
  1101d9:	00 00                	add    %al,(%rax)
  1101db:	00 00                	add    %al,(%rax)
  1101dd:	00 00                	add    %al,(%rax)
  1101df:	00 00                	add    %al,(%rax)
  1101e1:	00 00                	add    %al,(%rax)
  1101e3:	00 00                	add    %al,(%rax)
  1101e5:	00 00                	add    %al,(%rax)
  1101e7:	00                   	.byte 0x0
Disassembly of section .got:

00000000001101e8 <.got>:
  1101e8:	00 00                	add    %al,(%rax)
  1101ea:	00 00                	add    %al,(%rax)
  1101ec:	00 00                	add    %al,(%rax)
  1101ee:	00 00                	add    %al,(%rax)
  1101f0:	00 00                	add    %al,(%rax)
  1101f2:	00 00                	add    %al,(%rax)
  1101f4:	00 00                	add    %al,(%rax)
  1101f6:	00 00                	add    %al,(%rax)
  1101f8:	00 00                	add    %al,(%rax)
  1101fa:	00 00                	add    %al,(%rax)
  1101fc:	00 00                	add    %al,(%rax)
  1101fe:	00 00                	add    %al,(%rax)
  110200:	00 00                	add    %al,(%rax)
  110202:	00 00                	add    %al,(%rax)
  110204:	00 00                	add    %al,(%rax)
  110206:	00 00                	add    %al,(%rax)
Disassembly of section .got.plt:

0000000000110208 <_GLOBAL_OFFSET_TABLE_-0x505208>:
  110208:	28 50 50             	sub    %dl,0x50(%rax)
  11020b:	00 00                	add    %al,(%rax)
  11020d:	00 00                	add    %al,(%rax)
  11020f:	00 00                	add    %al,(%rax)
  110211:	00 00                	add    %al,(%rax)
  110213:	00 00                	add    %al,(%rax)
  110215:	00 00                	add    %al,(%rax)
  110217:	00 00                	add    %al,(%rax)
  110219:	00 00                	add    %al,(%rax)
  11021b:	00 00                	add    %al,(%rax)
  11021d:	00 00                	add    %al,(%rax)
  11021f:	00 7e 07             	add    %bh,0x7(%rsi)
  110222:	40 00 00             	add    %al,(%rax)
  110225:	00 00                	add    %al,(%rax)
  110227:	00 8e 07 40 00 00    	add    %cl,0x4007(%rsi)
  11022d:	00 00                	add    %al,(%rax)
  11022f:	00 9e 07 40 00 00    	add    %bl,0x4007(%rsi)
  110235:	00 00                	add    %al,(%rax)
  110237:	00 ae 07 40 00 00    	add    %ch,0x4007(%rsi)
  11023d:	00 00                	add    %al,(%rax)
  11023f:	00 be 07 40 00 00    	add    %bh,0x4007(%rsi)
  110245:	00 00                	add    %al,(%rax)
  110247:	00 ce                	add    %cl,%dh
  110249:	07                   	(bad)  
  11024a:	40 00 00             	add    %al,(%rax)
  11024d:	00 00                	add    %al,(%rax)
  11024f:	00 de                	add    %bl,%dh
  110251:	07                   	(bad)  
  110252:	40 00 00             	add    %al,(%rax)
  110255:	00 00                	add    %al,(%rax)
  110257:	00 ee                	add    %ch,%dh
  110259:	07                   	(bad)  
  11025a:	40 00 00             	add    %al,(%rax)
  11025d:	00 00                	add    %al,(%rax)
  11025f:	00 fe                	add    %bh,%dh
  110261:	07                   	(bad)  
  110262:	40 00 00             	add    %al,(%rax)
  110265:	00 00                	add    %al,(%rax)
  110267:	00 0e                	add    %cl,(%rsi)
  110269:	08 40 00             	or     %al,0x0(%rax)
  11026c:	00 00                	add    %al,(%rax)
  11026e:	00 00                	add    %al,(%rax)
  110270:	1e                   	(bad)  
  110271:	08 40 00             	or     %al,0x0(%rax)
  110274:	00 00                	add    %al,(%rax)
  110276:	00 00                	add    %al,(%rax)
  110278:	2e 08 40 00          	or     %al,%cs:0x0(%rax)
  11027c:	00 00                	add    %al,(%rax)
  11027e:	00 00                	add    %al,(%rax)
Disassembly of section .data:

0000000000110280 <__data_start>:
  110280:	00 00                	add    %al,(%rax)
  110282:	00 00                	add    %al,(%rax)
  110284:	00 00                	add    %al,(%rax)
  110286:	00 00                	add    %al,(%rax)

0000000000110288 <__dso_handle>:
  110288:	00 00                	add    %al,(%rax)
  11028a:	00 00                	add    %al,(%rax)
  11028c:	00 00                	add    %al,(%rax)
  11028e:	00 00                	add    %al,(%rax)
  110290:	18 50 50             	sbb    %dl,0x50(%rax)
  110293:	00 00                	add    %al,(%rax)
  110295:	00 00                	add    %al,(%rax)
  110297:	00 00                	add    %al,(%rax)
  110299:	00 00                	add    %al,(%rax)
  11029b:	00 00                	add    %al,(%rax)
  11029d:	00 00                	add    %al,(%rax)
  11029f:	00 01                	add    %al,(%rcx)
  1102a1:	00 00                	add    %al,(%rax)
  1102a3:	00 00                	add    %al,(%rax)
  1102a5:	00 00                	add    %al,(%rax)
  1102a7:	00 00                	add    %al,(%rax)
  1102a9:	00 00                	add    %al,(%rax)
  1102ab:	00 00                	add    %al,(%rax)
  1102ad:	00 00                	add    %al,(%rax)
  1102af:	00 01                	add    %al,(%rcx)
  1102b1:	00 00                	add    %al,(%rax)
  1102b3:	00 00                	add    %al,(%rax)
  1102b5:	00 00                	add    %al,(%rax)
  1102b7:	00 00                	add    %al,(%rax)
  1102b9:	00 00                	add    %al,(%rax)
  1102bb:	00 00                	add    %al,(%rax)
  1102bd:	00 00                	add    %al,(%rax)
  1102bf:	00 80 2b 40 00 00    	add    %al,0x402b(%rax)

00000000001102c0 <__xxref>:
  1102c0:	80 2b 40             	subb   $0x40,(%rbx)
  1102c3:	00 00                	add    %al,(%rax)
  1102c5:	00 00                	add    %al,(%rax)
  1102c7:	00                   	.byte 0x0
Disassembly of section .data1:

00000000001102e0 <irc_msgtab.0-0x5052e0>:
  1102e0:	00 00                	add    %al,(%rax)
  1102e2:	00 00                	add    %al,(%rax)
  1102e4:	01 00                	add    %eax,(%rax)
  1102e6:	00 00                	add    %al,(%rax)
  1102e8:	44 32 40 00          	xor    0x0(%rax),%r8b
  1102ec:	00 00                	add    %al,(%rax)
  1102ee:	00 00                	add    %al,(%rax)
  1102f0:	01 00                	add    %eax,(%rax)
  1102f2:	00 00                	add    %al,(%rax)
  1102f4:	04 00                	add    $0x0,%al
  1102f6:	00 00                	add    %al,(%rax)
  1102f8:	20 37                	and    %dh,(%rdi)
  1102fa:	40 00 00             	add    %al,(%rax)
  1102fd:	00 00                	add    %al,(%rax)
  1102ff:	00 02                	add    %al,(%rdx)
  110301:	00 00                	add    %al,(%rax)
  110303:	00 01                	add    %al,(%rcx)
  110305:	00 00                	add    %al,(%rax)
  110307:	00 5c 32 40          	add    %bl,0x40(%rdx,%rsi,1)
  11030b:	00 00                	add    %al,(%rax)
  11030d:	00 00                	add    %al,(%rax)
  11030f:	00 03                	add    %al,(%rbx)
  110311:	00 00                	add    %al,(%rax)
  110313:	00 01                	add    %al,(%rcx)
  110315:	00 00                	add    %al,(%rax)
  110317:	00 64 32 40          	add    %ah,0x40(%rdx,%rsi,1)
  11031b:	00 00                	add    %al,(%rax)
  11031d:	00 00                	add    %al,(%rax)
  11031f:	00 04 00             	add    %al,(%rax,%rax,1)
  110322:	00 00                	add    %al,(%rax)
  110324:	01 00                	add    %eax,(%rax)
  110326:	00 00                	add    %al,(%rax)
  110328:	6c                   	insb   (%dx),%es:(%rdi)
  110329:	32 40 00             	xor    0x0(%rax),%al
  11032c:	00 00                	add    %al,(%rax)
  11032e:	00 00                	add    %al,(%rax)
  110330:	05 00 00 00 01       	add    $0x1000000,%eax
  110335:	00 00                	add    %al,(%rax)
  110337:	00 74 32 40          	add    %dh,0x40(%rdx,%rsi,1)
  11033b:	00 00                	add    %al,(%rax)
  11033d:	00 00                	add    %al,(%rax)
  11033f:	00 06                	add    %al,(%rsi)
  110341:	00 00                	add    %al,(%rax)
  110343:	00 01                	add    %al,(%rcx)
  110345:	00 00                	add    %al,(%rax)
  110347:	00 84 32 40 00 00 00 	add    %al,0x40(%rdx,%rsi,1)
  11034e:	00 00                	add    %al,(%rax)
  110350:	07                   	(bad)  
  110351:	00 00                	add    %al,(%rax)
  110353:	00 01                	add    %al,(%rcx)
  110355:	00 00                	add    %al,(%rax)
  110357:	00 98 32 40 00 00    	add    %bl,0x4032(%rax)
  11035d:	00 00                	add    %al,(%rax)
  11035f:	00 08                	add    %cl,(%rax)
  110361:	00 00                	add    %al,(%rax)
  110363:	00 01                	add    %al,(%rcx)
  110365:	00 00                	add    %al,(%rax)
  110367:	00 a8 32 40 00 00    	add    %ch,0x4032(%rax)
  11036d:	00 00                	add    %al,(%rax)
  11036f:	00 09                	add    %cl,(%rcx)
  110371:	00 00                	add    %al,(%rax)
  110373:	00 01                	add    %al,(%rcx)
  110375:	00 00                	add    %al,(%rax)
  110377:	00 c0                	add    %al,%al
  110379:	32 40 00             	xor    0x0(%rax),%al
  11037c:	00 00                	add    %al,(%rax)
  11037e:	00 00                	add    %al,(%rax)
  110380:	0a 00                	or     (%rax),%al
  110382:	00 00                	add    %al,(%rax)
  110384:	01 00                	add    %eax,(%rax)
  110386:	00 00                	add    %al,(%rax)
  110388:	dc 32                	fdivl  (%rdx)
  11038a:	40 00 00             	add    %al,(%rax)
  11038d:	00 00                	add    %al,(%rax)
  11038f:	00 0b                	add    %cl,(%rbx)
  110391:	00 00                	add    %al,(%rax)
  110393:	00 04 00             	add    %al,(%rax,%rax,1)
  110396:	00 00                	add    %al,(%rax)
  110398:	ec                   	in     (%dx),%al
  110399:	32 40 00             	xor    0x0(%rax),%al
  11039c:	00 00                	add    %al,(%rax)
  11039e:	00 00                	add    %al,(%rax)
  1103a0:	0c 00                	or     $0x0,%al
  1103a2:	00 00                	add    %al,(%rax)
  1103a4:	04 00                	add    $0x0,%al
  1103a6:	00 00                	add    %al,(%rax)
  1103a8:	50                   	push   %rax
  1103a9:	37                   	(bad)  
  1103aa:	40 00 00             	add    %al,(%rax)
  1103ad:	00 00                	add    %al,(%rax)
  1103af:	00 0d 00 00 00 04    	add    %cl,67108864(%rip)        # 41103b5 <message_catalog.0+0x3afa395>
  1103b5:	00 00                	add    %al,(%rax)
  1103b7:	00 78 37             	add    %bh,0x37(%rax)
  1103ba:	40 00 00             	add    %al,(%rax)
  1103bd:	00 00                	add    %al,(%rax)
  1103bf:	00 0e                	add    %cl,(%rsi)
  1103c1:	00 00                	add    %al,(%rax)
  1103c3:	00 04 00             	add    %al,(%rax,%rax,1)
  1103c6:	00 00                	add    %al,(%rax)
  1103c8:	9c                   	pushfq 
  1103c9:	37                   	(bad)  
  1103ca:	40 00 00             	add    %al,(%rax)
  1103cd:	00 00                	add    %al,(%rax)
  1103cf:	00 0f                	add    %cl,(%rdi)
  1103d1:	00 00                	add    %al,(%rax)
  1103d3:	00 04 00             	add    %al,(%rax,%rax,1)
  1103d6:	00 00                	add    %al,(%rax)
  1103d8:	c8 37 40 00          	enterq $0x4037,$0x0
  1103dc:	00 00                	add    %al,(%rax)
  1103de:	00 00                	add    %al,(%rax)
  1103e0:	10 00                	adc    %al,(%rax)
  1103e2:	00 00                	add    %al,(%rax)
  1103e4:	04 00                	add    $0x0,%al
  1103e6:	00 00                	add    %al,(%rax)
  1103e8:	00 33                	add    %dh,(%rbx)
  1103ea:	40 00 00             	add    %al,(%rax)
  1103ed:	00 00                	add    %al,(%rax)
  1103ef:	00 11                	add    %dl,(%rcx)
  1103f1:	00 00                	add    %al,(%rax)
  1103f3:	00 04 00             	add    %al,(%rax,%rax,1)
  1103f6:	00 00                	add    %al,(%rax)
  1103f8:	fc                   	cld    
  1103f9:	37                   	(bad)  
  1103fa:	40 00 00             	add    %al,(%rax)
  1103fd:	00 00                	add    %al,(%rax)
  1103ff:	00 12                	add    %dl,(%rdx)
  110401:	00 00                	add    %al,(%rax)
  110403:	00 04 00             	add    %al,(%rax,%rax,1)
  110406:	00 00                	add    %al,(%rax)
  110408:	1c 33                	sbb    $0x33,%al
  11040a:	40 00 00             	add    %al,(%rax)
  11040d:	00 00                	add    %al,(%rax)
  11040f:	00 13                	add    %dl,(%rbx)
  110411:	00 00                	add    %al,(%rax)
  110413:	00 04 00             	add    %al,(%rax,%rax,1)
  110416:	00 00                	add    %al,(%rax)
  110418:	38 33                	cmp    %dh,(%rbx)
  11041a:	40 00 00             	add    %al,(%rax)
  11041d:	00 00                	add    %al,(%rax)
  11041f:	00 14 00             	add    %dl,(%rax,%rax,1)
  110422:	00 00                	add    %al,(%rax)
  110424:	04 00                	add    $0x0,%al
  110426:	00 00                	add    %al,(%rax)
  110428:	4c 33 40 00          	xor    0x0(%rax),%r8
  11042c:	00 00                	add    %al,(%rax)
  11042e:	00 00                	add    %al,(%rax)
  110430:	15 00 00 00 04       	adc    $0x4000000,%eax
  110435:	00 00                	add    %al,(%rax)
  110437:	00 60 33             	add    %ah,0x33(%rax)
  11043a:	40 00 00             	add    %al,(%rax)
  11043d:	00 00                	add    %al,(%rax)
  11043f:	00 16                	add    %dl,(%rsi)
  110441:	00 00                	add    %al,(%rax)
  110443:	00 04 00             	add    %al,(%rax,%rax,1)
  110446:	00 00                	add    %al,(%rax)
  110448:	34 38                	xor    $0x38,%al
  11044a:	40 00 00             	add    %al,(%rax)
  11044d:	00 00                	add    %al,(%rax)
  11044f:	00 17                	add    %dl,(%rdi)
  110451:	00 00                	add    %al,(%rax)
  110453:	00 04 00             	add    %al,(%rax,%rax,1)
  110456:	00 00                	add    %al,(%rax)
  110458:	00 34 40             	add    %dh,(%rax,%rax,2)
  11045b:	00 00                	add    %al,(%rax)
  11045d:	00 00                	add    %al,(%rax)
  11045f:	00 18                	add    %bl,(%rax)
  110461:	00 00                	add    %al,(%rax)
  110463:	00 04 00             	add    %al,(%rax,%rax,1)
  110466:	00 00                	add    %al,(%rax)
  110468:	64 38 40 00          	cmp    %al,%fs:0x0(%rax)
  11046c:	00 00                	add    %al,(%rax)
  11046e:	00 00                	add    %al,(%rax)
  110470:	19 00                	sbb    %eax,(%rax)
  110472:	00 00                	add    %al,(%rax)
  110474:	04 00                	add    $0x0,%al
  110476:	00 00                	add    %al,(%rax)
  110478:	60                   	(bad)  
  110479:	34 40                	xor    $0x40,%al
  11047b:	00 00                	add    %al,(%rax)
  11047d:	00 00                	add    %al,(%rax)
  11047f:	00 1a                	add    %bl,(%rdx)
  110481:	00 00                	add    %al,(%rax)
  110483:	00 04 00             	add    %al,(%rax,%rax,1)
  110486:	00 00                	add    %al,(%rax)
  110488:	84 38                	test   %bh,(%rax)
  11048a:	40 00 00             	add    %al,(%rax)
  11048d:	00 00                	add    %al,(%rax)
  11048f:	00 1b                	add    %bl,(%rbx)
  110491:	00 00                	add    %al,(%rax)
  110493:	00 04 00             	add    %al,(%rax,%rax,1)
  110496:	00 00                	add    %al,(%rax)
  110498:	b4 38                	mov    $0x38,%ah
  11049a:	40 00 00             	add    %al,(%rax)
  11049d:	00 00                	add    %al,(%rax)
  11049f:	00 1c 00             	add    %bl,(%rax,%rax,1)
  1104a2:	00 00                	add    %al,(%rax)
  1104a4:	04 00                	add    $0x0,%al
  1104a6:	00 00                	add    %al,(%rax)
  1104a8:	74 33                	je     1104dd <__xxref+0x21d>
  1104aa:	40 00 00             	add    %al,(%rax)
  1104ad:	00 00                	add    %al,(%rax)
  1104af:	00 1d 00 00 00 04    	add    %bl,67108864(%rip)        # 41104b5 <message_catalog.0+0x3afa495>
  1104b5:	00 00                	add    %al,(%rax)
  1104b7:	00 ec                	add    %ch,%ah
  1104b9:	38 40 00             	cmp    %al,0x0(%rax)
  1104bc:	00 00                	add    %al,(%rax)
  1104be:	00 00                	add    %al,(%rax)
  1104c0:	1e                   	(bad)  
  1104c1:	00 00                	add    %al,(%rax)
  1104c3:	00 04 00             	add    %al,(%rax,%rax,1)
  1104c6:	00 00                	add    %al,(%rax)
  1104c8:	c0                   	(bad)  
  1104c9:	34 40                	xor    $0x40,%al
  1104cb:	00 00                	add    %al,(%rax)
  1104cd:	00 00                	add    %al,(%rax)
  1104cf:	00 1f                	add    %bl,(%rdi)
  1104d1:	00 00                	add    %al,(%rax)
  1104d3:	00 04 00             	add    %al,(%rax,%rax,1)
  1104d6:	00 00                	add    %al,(%rax)
  1104d8:	20 39                	and    %bh,(%rcx)
  1104da:	40 00 00             	add    %al,(%rax)
  1104dd:	00 00                	add    %al,(%rax)
  1104df:	00 20                	add    %ah,(%rax)
  1104e1:	00 00                	add    %al,(%rax)
  1104e3:	00 04 00             	add    %al,(%rax,%rax,1)
  1104e6:	00 00                	add    %al,(%rax)
  1104e8:	54                   	push   %rsp
  1104e9:	39 40 00             	cmp    %eax,0x0(%rax)
  1104ec:	00 00                	add    %al,(%rax)
  1104ee:	00 00                	add    %al,(%rax)
  1104f0:	21 00                	and    %eax,(%rax)
  1104f2:	00 00                	add    %al,(%rax)
  1104f4:	04 00                	add    $0x0,%al
  1104f6:	00 00                	add    %al,(%rax)
  1104f8:	8c 33                	mov    %?,(%rbx)
  1104fa:	40 00 00             	add    %al,(%rax)
  1104fd:	00 00                	add    %al,(%rax)
  1104ff:	00 22                	add    %ah,(%rdx)
  110501:	00 00                	add    %al,(%rax)
  110503:	00 04 00             	add    %al,(%rax,%rax,1)
  110506:	00 00                	add    %al,(%rax)
  110508:	a0 33 40 00 00 00 00 	mov    0x2300000000004033,%al
  11050f:	00 23 
  110511:	00 00                	add    %al,(%rax)
  110513:	00 01                	add    %al,(%rcx)
  110515:	00 00                	add    %al,(%rax)
  110517:	00 bc 33 40 00 00 00 	add    %bh,0x40(%rbx,%rsi,1)
  11051e:	00 00                	add    %al,(%rax)
  110520:	24 00                	and    $0x0,%al
  110522:	00 00                	add    %al,(%rax)
  110524:	01 00                	add    %eax,(%rax)
  110526:	00 00                	add    %al,(%rax)
  110528:	c4                   	(bad)  
  110529:	33 40 00             	xor    0x0(%rax),%eax
  11052c:	00 00                	add    %al,(%rax)
  11052e:	00 00                	add    %al,(%rax)
  110530:	25 00 00 00 01       	and    $0x1000000,%eax
  110535:	00 00                	add    %al,(%rax)
  110537:	00 cc                	add    %cl,%ah
  110539:	33 40 00             	xor    0x0(%rax),%eax
  11053c:	00 00                	add    %al,(%rax)
  11053e:	00 00                	add    %al,(%rax)
  110540:	26 00 00             	add    %al,%es:(%rax)
  110543:	00 01                	add    %al,(%rcx)
  110545:	00 00                	add    %al,(%rax)
  110547:	00 d4                	add    %dl,%ah
  110549:	33 40 00             	xor    0x0(%rax),%eax
  11054c:	00 00                	add    %al,(%rax)
  11054e:	00 00                	add    %al,(%rax)
  110550:	27                   	(bad)  
  110551:	00 00                	add    %al,(%rax)
  110553:	00 01                	add    %al,(%rcx)
  110555:	00 00                	add    %al,(%rax)
  110557:	00 dc                	add    %bl,%ah
  110559:	33 40 00             	xor    0x0(%rax),%eax
  11055c:	00 00                	add    %al,(%rax)
  11055e:	00 00                	add    %al,(%rax)
  110560:	28 00                	sub    %al,(%rax)
  110562:	00 00                	add    %al,(%rax)
  110564:	01 00                	add    %eax,(%rax)
  110566:	00 00                	add    %al,(%rax)
  110568:	e4 33                	in     $0x33,%al
  11056a:	40 00 00             	add    %al,(%rax)
  11056d:	00 00                	add    %al,(%rax)
  11056f:	00 29                	add    %ch,(%rcx)
  110571:	00 00                	add    %al,(%rax)
  110573:	00 01                	add    %al,(%rcx)
  110575:	00 00                	add    %al,(%rax)
  110577:	00 80 39 40 00 00    	add    %al,0x4039(%rax)
  11057d:	00 00                	add    %al,(%rax)
  11057f:	00 2a                	add    %ch,(%rdx)
  110581:	00 00                	add    %al,(%rax)
  110583:	00 04 00             	add    %al,(%rax,%rax,1)
  110586:	00 00                	add    %al,(%rax)
  110588:	20 35 40 00 00 00    	and    %dh,64(%rip)        # 1105ce <__xxref+0x30e>
  11058e:	00 00                	add    %al,(%rax)
  110590:	2b 00                	sub    (%rax),%eax
  110592:	00 00                	add    %al,(%rax)
  110594:	04 00                	add    $0x0,%al
  110596:	00 00                	add    %al,(%rax)
  110598:	c0                   	(bad)  
  110599:	35 40 00 00 00       	xor    $0x40,%eax
  11059e:	00 00                	add    %al,(%rax)
  1105a0:	2c 00                	sub    $0x0,%al
  1105a2:	00 00                	add    %al,(%rax)
  1105a4:	04 00                	add    $0x0,%al
  1105a6:	00 00                	add    %al,(%rax)
  1105a8:	bc 39 40 00 00       	mov    $0x4039,%esp
  1105ad:	00 00                	add    %al,(%rax)
  1105af:	00 2d 00 00 00 04    	add    %ch,67108864(%rip)        # 41105b5 <message_catalog.0+0x3afa595>
  1105b5:	00 00                	add    %al,(%rax)
  1105b7:	00 40 36             	add    %al,0x36(%rax)
  1105ba:	40 00 00             	add    %al,(%rax)
  1105bd:	00 00                	add    %al,(%rax)
  1105bf:	00 2e                	add    %ch,(%rsi)
  1105c1:	00 00                	add    %al,(%rax)
  1105c3:	00 04 00             	add    %al,(%rax,%rax,1)
  1105c6:	00 00                	add    %al,(%rax)
  1105c8:	f4                   	hlt    
  1105c9:	39 40 00             	cmp    %eax,0x0(%rax)
  1105cc:	00 00                	add    %al,(%rax)
  1105ce:	00 00                	add    %al,(%rax)
  1105d0:	2f                   	(bad)  
  1105d1:	00 00                	add    %al,(%rax)
  1105d3:	00 04 00             	add    %al,(%rax,%rax,1)
  1105d6:	00 00                	add    %al,(%rax)
  1105d8:	e0 36                	loopne 110610 <__bss_start+0x10>
  1105da:	40 00 00             	add    %al,(%rax)
  1105dd:	00 00                	add    %al,(%rax)
  1105df:	00 30                	add    %dh,(%rax)
  1105e1:	00 00                	add    %al,(%rax)
  1105e3:	00 04 00             	add    %al,(%rax,%rax,1)
  1105e6:	00 00                	add    %al,(%rax)
  1105e8:	2c 3a                	sub    $0x3a,%al
  1105ea:	40 00 00             	add    %al,(%rax)
  1105ed:	00 00                	add    %al,(%rax)
  1105ef:	00 00                	add    %al,(%rax)
  1105f1:	00 00                	add    %al,(%rax)
  1105f3:	00 00                	add    %al,(%rax)
  1105f5:	00 00                	add    %al,(%rax)
  1105f7:	00 00                	add    %al,(%rax)
  1105f9:	00 00                	add    %al,(%rax)
  1105fb:	00 00                	add    %al,(%rax)
  1105fd:	00 00                	add    %al,(%rax)
  1105ff:	00                   	.byte 0x0
Disassembly of section .bss:

0000000000110600 <__intel_cpu_indicator-0x440>:
  110600:	00 00                	add    %al,(%rax)
  110602:	00 00                	add    %al,(%rax)
  110604:	00 00                	add    %al,(%rax)
  110606:	00 00                	add    %al,(%rax)
  110608:	00 00                	add    %al,(%rax)
  11060a:	00 00                	add    %al,(%rax)
  11060c:	00 00                	add    %al,(%rax)
  11060e:	00 00                	add    %al,(%rax)
  110610:	00 00                	add    %al,(%rax)
  110612:	00 00                	add    %al,(%rax)
  110614:	00 00                	add    %al,(%rax)
  110616:	00 00                	add    %al,(%rax)
  110618:	00 00                	add    %al,(%rax)
  11061a:	00 00                	add    %al,(%rax)
  11061c:	00 00                	add    %al,(%rax)
  11061e:	00 00                	add    %al,(%rax)
  110620:	00 00                	add    %al,(%rax)
  110622:	00 00                	add    %al,(%rax)
  110624:	00 00                	add    %al,(%rax)
  110626:	00 00                	add    %al,(%rax)
  110628:	00 00                	add    %al,(%rax)
  11062a:	00 00                	add    %al,(%rax)
  11062c:	00 00                	add    %al,(%rax)
  11062e:	00 00                	add    %al,(%rax)
  110630:	00 00                	add    %al,(%rax)
  110632:	00 00                	add    %al,(%rax)
  110634:	00 00                	add    %al,(%rax)
  110636:	00 00                	add    %al,(%rax)
  110638:	00 00                	add    %al,(%rax)
  11063a:	00 00                	add    %al,(%rax)
  11063c:	00 00                	add    %al,(%rax)
  11063e:	00 00                	add    %al,(%rax)
  110640:	00 00                	add    %al,(%rax)
  110642:	00 00                	add    %al,(%rax)
  110644:	00 00                	add    %al,(%rax)
  110646:	00 00                	add    %al,(%rax)
  110648:	00 00                	add    %al,(%rax)
  11064a:	00 00                	add    %al,(%rax)
  11064c:	00 00                	add    %al,(%rax)
  11064e:	00 00                	add    %al,(%rax)
  110650:	00 00                	add    %al,(%rax)
  110652:	00 00                	add    %al,(%rax)
  110654:	00 00                	add    %al,(%rax)
  110656:	00 00                	add    %al,(%rax)
  110658:	00 00                	add    %al,(%rax)
  11065a:	00 00                	add    %al,(%rax)
  11065c:	00 00                	add    %al,(%rax)
  11065e:	00 00                	add    %al,(%rax)
  110660:	00 00                	add    %al,(%rax)
  110662:	00 00                	add    %al,(%rax)
  110664:	00 00                	add    %al,(%rax)
  110666:	00 00                	add    %al,(%rax)
  110668:	00 00                	add    %al,(%rax)
  11066a:	00 00                	add    %al,(%rax)
  11066c:	00 00                	add    %al,(%rax)
  11066e:	00 00                	add    %al,(%rax)
  110670:	00 00                	add    %al,(%rax)
  110672:	00 00                	add    %al,(%rax)
  110674:	00 00                	add    %al,(%rax)
  110676:	00 00                	add    %al,(%rax)
  110678:	00 00                	add    %al,(%rax)
  11067a:	00 00                	add    %al,(%rax)
  11067c:	00 00                	add    %al,(%rax)
  11067e:	00 00                	add    %al,(%rax)
  110680:	00 00                	add    %al,(%rax)
  110682:	00 00                	add    %al,(%rax)
  110684:	00 00                	add    %al,(%rax)
  110686:	00 00                	add    %al,(%rax)
  110688:	00 00                	add    %al,(%rax)
  11068a:	00 00                	add    %al,(%rax)
  11068c:	00 00                	add    %al,(%rax)
  11068e:	00 00                	add    %al,(%rax)
  110690:	00 00                	add    %al,(%rax)
  110692:	00 00                	add    %al,(%rax)
  110694:	00 00                	add    %al,(%rax)
  110696:	00 00                	add    %al,(%rax)
  110698:	00 00                	add    %al,(%rax)
  11069a:	00 00                	add    %al,(%rax)
  11069c:	00 00                	add    %al,(%rax)
  11069e:	00 00                	add    %al,(%rax)
  1106a0:	00 00                	add    %al,(%rax)
  1106a2:	00 00                	add    %al,(%rax)
  1106a4:	00 00                	add    %al,(%rax)
  1106a6:	00 00                	add    %al,(%rax)
  1106a8:	00 00                	add    %al,(%rax)
  1106aa:	00 00                	add    %al,(%rax)
  1106ac:	00 00                	add    %al,(%rax)
  1106ae:	00 00                	add    %al,(%rax)
  1106b0:	00 00                	add    %al,(%rax)
  1106b2:	00 00                	add    %al,(%rax)
  1106b4:	00 00                	add    %al,(%rax)
  1106b6:	00 00                	add    %al,(%rax)
  1106b8:	00 00                	add    %al,(%rax)
  1106ba:	00 00                	add    %al,(%rax)
  1106bc:	00 00                	add    %al,(%rax)
  1106be:	00 00                	add    %al,(%rax)
  1106c0:	00 00                	add    %al,(%rax)
  1106c2:	00 00                	add    %al,(%rax)
  1106c4:	00 00                	add    %al,(%rax)
  1106c6:	00 00                	add    %al,(%rax)
  1106c8:	00 00                	add    %al,(%rax)
  1106ca:	00 00                	add    %al,(%rax)
  1106cc:	00 00                	add    %al,(%rax)
  1106ce:	00 00                	add    %al,(%rax)
  1106d0:	00 00                	add    %al,(%rax)
  1106d2:	00 00                	add    %al,(%rax)
  1106d4:	00 00                	add    %al,(%rax)
  1106d6:	00 00                	add    %al,(%rax)
  1106d8:	00 00                	add    %al,(%rax)
  1106da:	00 00                	add    %al,(%rax)
  1106dc:	00 00                	add    %al,(%rax)
  1106de:	00 00                	add    %al,(%rax)
  1106e0:	00 00                	add    %al,(%rax)
  1106e2:	00 00                	add    %al,(%rax)
  1106e4:	00 00                	add    %al,(%rax)
  1106e6:	00 00                	add    %al,(%rax)
  1106e8:	00 00                	add    %al,(%rax)
  1106ea:	00 00                	add    %al,(%rax)
  1106ec:	00 00                	add    %al,(%rax)
  1106ee:	00 00                	add    %al,(%rax)
  1106f0:	00 00                	add    %al,(%rax)
  1106f2:	00 00                	add    %al,(%rax)
  1106f4:	00 00                	add    %al,(%rax)
  1106f6:	00 00                	add    %al,(%rax)
  1106f8:	00 00                	add    %al,(%rax)
  1106fa:	00 00                	add    %al,(%rax)
  1106fc:	00 00                	add    %al,(%rax)
  1106fe:	00 00                	add    %al,(%rax)
  110700:	00 00                	add    %al,(%rax)
  110702:	00 00                	add    %al,(%rax)
  110704:	00 00                	add    %al,(%rax)
  110706:	00 00                	add    %al,(%rax)
  110708:	00 00                	add    %al,(%rax)
  11070a:	00 00                	add    %al,(%rax)
  11070c:	00 00                	add    %al,(%rax)
  11070e:	00 00                	add    %al,(%rax)
  110710:	00 00                	add    %al,(%rax)
  110712:	00 00                	add    %al,(%rax)
  110714:	00 00                	add    %al,(%rax)
  110716:	00 00                	add    %al,(%rax)
  110718:	00 00                	add    %al,(%rax)
  11071a:	00 00                	add    %al,(%rax)
  11071c:	00 00                	add    %al,(%rax)
  11071e:	00 00                	add    %al,(%rax)
  110720:	00 00                	add    %al,(%rax)
  110722:	00 00                	add    %al,(%rax)
  110724:	00 00                	add    %al,(%rax)
  110726:	00 00                	add    %al,(%rax)
  110728:	00 00                	add    %al,(%rax)
  11072a:	00 00                	add    %al,(%rax)
  11072c:	00 00                	add    %al,(%rax)
  11072e:	00 00                	add    %al,(%rax)
  110730:	00 00                	add    %al,(%rax)
  110732:	00 00                	add    %al,(%rax)
  110734:	00 00                	add    %al,(%rax)
  110736:	00 00                	add    %al,(%rax)
  110738:	00 00                	add    %al,(%rax)
  11073a:	00 00                	add    %al,(%rax)
  11073c:	00 00                	add    %al,(%rax)
  11073e:	00 00                	add    %al,(%rax)
  110740:	00 00                	add    %al,(%rax)
  110742:	00 00                	add    %al,(%rax)
  110744:	00 00                	add    %al,(%rax)
  110746:	00 00                	add    %al,(%rax)
  110748:	00 00                	add    %al,(%rax)
  11074a:	00 00                	add    %al,(%rax)
  11074c:	00 00                	add    %al,(%rax)
  11074e:	00 00                	add    %al,(%rax)
  110750:	00 00                	add    %al,(%rax)
  110752:	00 00                	add    %al,(%rax)
  110754:	00 00                	add    %al,(%rax)
  110756:	00 00                	add    %al,(%rax)
  110758:	00 00                	add    %al,(%rax)
  11075a:	00 00                	add    %al,(%rax)
  11075c:	00 00                	add    %al,(%rax)
  11075e:	00 00                	add    %al,(%rax)
  110760:	00 00                	add    %al,(%rax)
  110762:	00 00                	add    %al,(%rax)
  110764:	00 00                	add    %al,(%rax)
  110766:	00 00                	add    %al,(%rax)
  110768:	00 00                	add    %al,(%rax)
  11076a:	00 00                	add    %al,(%rax)
  11076c:	00 00                	add    %al,(%rax)
  11076e:	00 00                	add    %al,(%rax)
  110770:	00 00                	add    %al,(%rax)
  110772:	00 00                	add    %al,(%rax)
  110774:	00 00                	add    %al,(%rax)
  110776:	00 00                	add    %al,(%rax)
  110778:	00 00                	add    %al,(%rax)
  11077a:	00 00                	add    %al,(%rax)
  11077c:	00 00                	add    %al,(%rax)
  11077e:	00 00                	add    %al,(%rax)
  110780:	00 00                	add    %al,(%rax)
  110782:	00 00                	add    %al,(%rax)
  110784:	00 00                	add    %al,(%rax)
  110786:	00 00                	add    %al,(%rax)
  110788:	00 00                	add    %al,(%rax)
  11078a:	00 00                	add    %al,(%rax)
  11078c:	00 00                	add    %al,(%rax)
  11078e:	00 00                	add    %al,(%rax)
  110790:	00 00                	add    %al,(%rax)
  110792:	00 00                	add    %al,(%rax)
  110794:	00 00                	add    %al,(%rax)
  110796:	00 00                	add    %al,(%rax)
  110798:	00 00                	add    %al,(%rax)
  11079a:	00 00                	add    %al,(%rax)
  11079c:	00 00                	add    %al,(%rax)
  11079e:	00 00                	add    %al,(%rax)
  1107a0:	00 00                	add    %al,(%rax)
  1107a2:	00 00                	add    %al,(%rax)
  1107a4:	00 00                	add    %al,(%rax)
  1107a6:	00 00                	add    %al,(%rax)
  1107a8:	00 00                	add    %al,(%rax)
  1107aa:	00 00                	add    %al,(%rax)
  1107ac:	00 00                	add    %al,(%rax)
  1107ae:	00 00                	add    %al,(%rax)
  1107b0:	00 00                	add    %al,(%rax)
  1107b2:	00 00                	add    %al,(%rax)
  1107b4:	00 00                	add    %al,(%rax)
  1107b6:	00 00                	add    %al,(%rax)
  1107b8:	00 00                	add    %al,(%rax)
  1107ba:	00 00                	add    %al,(%rax)
  1107bc:	00 00                	add    %al,(%rax)
  1107be:	00 00                	add    %al,(%rax)
  1107c0:	00 00                	add    %al,(%rax)
  1107c2:	00 00                	add    %al,(%rax)
  1107c4:	00 00                	add    %al,(%rax)
  1107c6:	00 00                	add    %al,(%rax)
  1107c8:	00 00                	add    %al,(%rax)
  1107ca:	00 00                	add    %al,(%rax)
  1107cc:	00 00                	add    %al,(%rax)
  1107ce:	00 00                	add    %al,(%rax)
  1107d0:	00 00                	add    %al,(%rax)
  1107d2:	00 00                	add    %al,(%rax)
  1107d4:	00 00                	add    %al,(%rax)
  1107d6:	00 00                	add    %al,(%rax)
  1107d8:	00 00                	add    %al,(%rax)
  1107da:	00 00                	add    %al,(%rax)
  1107dc:	00 00                	add    %al,(%rax)
  1107de:	00 00                	add    %al,(%rax)
  1107e0:	00 00                	add    %al,(%rax)
  1107e2:	00 00                	add    %al,(%rax)
  1107e4:	00 00                	add    %al,(%rax)
  1107e6:	00 00                	add    %al,(%rax)
  1107e8:	00 00                	add    %al,(%rax)
  1107ea:	00 00                	add    %al,(%rax)
  1107ec:	00 00                	add    %al,(%rax)
  1107ee:	00 00                	add    %al,(%rax)
  1107f0:	00 00                	add    %al,(%rax)
  1107f2:	00 00                	add    %al,(%rax)
  1107f4:	00 00                	add    %al,(%rax)
  1107f6:	00 00                	add    %al,(%rax)
  1107f8:	00 00                	add    %al,(%rax)
  1107fa:	00 00                	add    %al,(%rax)
  1107fc:	00 00                	add    %al,(%rax)
  1107fe:	00 00                	add    %al,(%rax)
  110800:	00 00                	add    %al,(%rax)
  110802:	00 00                	add    %al,(%rax)
  110804:	00 00                	add    %al,(%rax)
  110806:	00 00                	add    %al,(%rax)
  110808:	00 00                	add    %al,(%rax)
  11080a:	00 00                	add    %al,(%rax)
  11080c:	00 00                	add    %al,(%rax)
  11080e:	00 00                	add    %al,(%rax)
  110810:	00 00                	add    %al,(%rax)
  110812:	00 00                	add    %al,(%rax)
  110814:	00 00                	add    %al,(%rax)
  110816:	00 00                	add    %al,(%rax)
  110818:	00 00                	add    %al,(%rax)
  11081a:	00 00                	add    %al,(%rax)
  11081c:	00 00                	add    %al,(%rax)
  11081e:	00 00                	add    %al,(%rax)
  110820:	00 00                	add    %al,(%rax)
  110822:	00 00                	add    %al,(%rax)
  110824:	00 00                	add    %al,(%rax)
  110826:	00 00                	add    %al,(%rax)
  110828:	00 00                	add    %al,(%rax)
  11082a:	00 00                	add    %al,(%rax)
  11082c:	00 00                	add    %al,(%rax)
  11082e:	00 00                	add    %al,(%rax)
  110830:	00 00                	add    %al,(%rax)
  110832:	00 00                	add    %al,(%rax)
  110834:	00 00                	add    %al,(%rax)
  110836:	00 00                	add    %al,(%rax)
  110838:	00 00                	add    %al,(%rax)
  11083a:	00 00                	add    %al,(%rax)
  11083c:	00 00                	add    %al,(%rax)
  11083e:	00 00                	add    %al,(%rax)
  110840:	00 00                	add    %al,(%rax)
  110842:	00 00                	add    %al,(%rax)
  110844:	00 00                	add    %al,(%rax)
  110846:	00 00                	add    %al,(%rax)
  110848:	00 00                	add    %al,(%rax)
  11084a:	00 00                	add    %al,(%rax)
  11084c:	00 00                	add    %al,(%rax)
  11084e:	00 00                	add    %al,(%rax)
  110850:	00 00                	add    %al,(%rax)
  110852:	00 00                	add    %al,(%rax)
  110854:	00 00                	add    %al,(%rax)
  110856:	00 00                	add    %al,(%rax)
  110858:	00 00                	add    %al,(%rax)
  11085a:	00 00                	add    %al,(%rax)
  11085c:	00 00                	add    %al,(%rax)
  11085e:	00 00                	add    %al,(%rax)
  110860:	00 00                	add    %al,(%rax)
  110862:	00 00                	add    %al,(%rax)
  110864:	00 00                	add    %al,(%rax)
  110866:	00 00                	add    %al,(%rax)
  110868:	00 00                	add    %al,(%rax)
  11086a:	00 00                	add    %al,(%rax)
  11086c:	00 00                	add    %al,(%rax)
  11086e:	00 00                	add    %al,(%rax)
  110870:	00 00                	add    %al,(%rax)
  110872:	00 00                	add    %al,(%rax)
  110874:	00 00                	add    %al,(%rax)
  110876:	00 00                	add    %al,(%rax)
  110878:	00 00                	add    %al,(%rax)
  11087a:	00 00                	add    %al,(%rax)
  11087c:	00 00                	add    %al,(%rax)
  11087e:	00 00                	add    %al,(%rax)
  110880:	00 00                	add    %al,(%rax)
  110882:	00 00                	add    %al,(%rax)
  110884:	00 00                	add    %al,(%rax)
  110886:	00 00                	add    %al,(%rax)
  110888:	00 00                	add    %al,(%rax)
  11088a:	00 00                	add    %al,(%rax)
  11088c:	00 00                	add    %al,(%rax)
  11088e:	00 00                	add    %al,(%rax)
  110890:	00 00                	add    %al,(%rax)
  110892:	00 00                	add    %al,(%rax)
  110894:	00 00                	add    %al,(%rax)
  110896:	00 00                	add    %al,(%rax)
  110898:	00 00                	add    %al,(%rax)
  11089a:	00 00                	add    %al,(%rax)
  11089c:	00 00                	add    %al,(%rax)
  11089e:	00 00                	add    %al,(%rax)
  1108a0:	00 00                	add    %al,(%rax)
  1108a2:	00 00                	add    %al,(%rax)
  1108a4:	00 00                	add    %al,(%rax)
  1108a6:	00 00                	add    %al,(%rax)
  1108a8:	00 00                	add    %al,(%rax)
  1108aa:	00 00                	add    %al,(%rax)
  1108ac:	00 00                	add    %al,(%rax)
  1108ae:	00 00                	add    %al,(%rax)
  1108b0:	00 00                	add    %al,(%rax)
  1108b2:	00 00                	add    %al,(%rax)
  1108b4:	00 00                	add    %al,(%rax)
  1108b6:	00 00                	add    %al,(%rax)
  1108b8:	00 00                	add    %al,(%rax)
  1108ba:	00 00                	add    %al,(%rax)
  1108bc:	00 00                	add    %al,(%rax)
  1108be:	00 00                	add    %al,(%rax)
  1108c0:	00 00                	add    %al,(%rax)
  1108c2:	00 00                	add    %al,(%rax)
  1108c4:	00 00                	add    %al,(%rax)
  1108c6:	00 00                	add    %al,(%rax)
  1108c8:	00 00                	add    %al,(%rax)
  1108ca:	00 00                	add    %al,(%rax)
  1108cc:	00 00                	add    %al,(%rax)
  1108ce:	00 00                	add    %al,(%rax)
  1108d0:	00 00                	add    %al,(%rax)
  1108d2:	00 00                	add    %al,(%rax)
  1108d4:	00 00                	add    %al,(%rax)
  1108d6:	00 00                	add    %al,(%rax)
  1108d8:	00 00                	add    %al,(%rax)
  1108da:	00 00                	add    %al,(%rax)
  1108dc:	00 00                	add    %al,(%rax)
  1108de:	00 00                	add    %al,(%rax)
  1108e0:	00 00                	add    %al,(%rax)
  1108e2:	00 00                	add    %al,(%rax)
  1108e4:	00 00                	add    %al,(%rax)
  1108e6:	00 00                	add    %al,(%rax)
  1108e8:	00 00                	add    %al,(%rax)
  1108ea:	00 00                	add    %al,(%rax)
  1108ec:	00 00                	add    %al,(%rax)
  1108ee:	00 00                	add    %al,(%rax)
  1108f0:	00 00                	add    %al,(%rax)
  1108f2:	00 00                	add    %al,(%rax)
  1108f4:	00 00                	add    %al,(%rax)
  1108f6:	00 00                	add    %al,(%rax)
  1108f8:	00 00                	add    %al,(%rax)
  1108fa:	00 00                	add    %al,(%rax)
  1108fc:	00 00                	add    %al,(%rax)
  1108fe:	00 00                	add    %al,(%rax)
  110900:	00 00                	add    %al,(%rax)
  110902:	00 00                	add    %al,(%rax)
  110904:	00 00                	add    %al,(%rax)
  110906:	00 00                	add    %al,(%rax)
  110908:	00 00                	add    %al,(%rax)
  11090a:	00 00                	add    %al,(%rax)
  11090c:	00 00                	add    %al,(%rax)
  11090e:	00 00                	add    %al,(%rax)
  110910:	00 00                	add    %al,(%rax)
  110912:	00 00                	add    %al,(%rax)
  110914:	00 00                	add    %al,(%rax)
  110916:	00 00                	add    %al,(%rax)
  110918:	00 00                	add    %al,(%rax)
  11091a:	00 00                	add    %al,(%rax)
  11091c:	00 00                	add    %al,(%rax)
  11091e:	00 00                	add    %al,(%rax)
  110920:	00 00                	add    %al,(%rax)
  110922:	00 00                	add    %al,(%rax)
  110924:	00 00                	add    %al,(%rax)
  110926:	00 00                	add    %al,(%rax)
  110928:	00 00                	add    %al,(%rax)
  11092a:	00 00                	add    %al,(%rax)
  11092c:	00 00                	add    %al,(%rax)
  11092e:	00 00                	add    %al,(%rax)
  110930:	00 00                	add    %al,(%rax)
  110932:	00 00                	add    %al,(%rax)
  110934:	00 00                	add    %al,(%rax)
  110936:	00 00                	add    %al,(%rax)
  110938:	00 00                	add    %al,(%rax)
  11093a:	00 00                	add    %al,(%rax)
  11093c:	00 00                	add    %al,(%rax)
  11093e:	00 00                	add    %al,(%rax)
  110940:	00 00                	add    %al,(%rax)
  110942:	00 00                	add    %al,(%rax)
  110944:	00 00                	add    %al,(%rax)
  110946:	00 00                	add    %al,(%rax)
  110948:	00 00                	add    %al,(%rax)
  11094a:	00 00                	add    %al,(%rax)
  11094c:	00 00                	add    %al,(%rax)
  11094e:	00 00                	add    %al,(%rax)
  110950:	00 00                	add    %al,(%rax)
  110952:	00 00                	add    %al,(%rax)
  110954:	00 00                	add    %al,(%rax)
  110956:	00 00                	add    %al,(%rax)
  110958:	00 00                	add    %al,(%rax)
  11095a:	00 00                	add    %al,(%rax)
  11095c:	00 00                	add    %al,(%rax)
  11095e:	00 00                	add    %al,(%rax)
  110960:	00 00                	add    %al,(%rax)
  110962:	00 00                	add    %al,(%rax)
  110964:	00 00                	add    %al,(%rax)
  110966:	00 00                	add    %al,(%rax)
  110968:	00 00                	add    %al,(%rax)
  11096a:	00 00                	add    %al,(%rax)
  11096c:	00 00                	add    %al,(%rax)
  11096e:	00 00                	add    %al,(%rax)
  110970:	00 00                	add    %al,(%rax)
  110972:	00 00                	add    %al,(%rax)
  110974:	00 00                	add    %al,(%rax)
  110976:	00 00                	add    %al,(%rax)
  110978:	00 00                	add    %al,(%rax)
  11097a:	00 00                	add    %al,(%rax)
  11097c:	00 00                	add    %al,(%rax)
  11097e:	00 00                	add    %al,(%rax)
  110980:	00 00                	add    %al,(%rax)
  110982:	00 00                	add    %al,(%rax)
  110984:	00 00                	add    %al,(%rax)
  110986:	00 00                	add    %al,(%rax)
  110988:	00 00                	add    %al,(%rax)
  11098a:	00 00                	add    %al,(%rax)
  11098c:	00 00                	add    %al,(%rax)
  11098e:	00 00                	add    %al,(%rax)
  110990:	00 00                	add    %al,(%rax)
  110992:	00 00                	add    %al,(%rax)
  110994:	00 00                	add    %al,(%rax)
  110996:	00 00                	add    %al,(%rax)
  110998:	00 00                	add    %al,(%rax)
  11099a:	00 00                	add    %al,(%rax)
  11099c:	00 00                	add    %al,(%rax)
  11099e:	00 00                	add    %al,(%rax)
  1109a0:	00 00                	add    %al,(%rax)
  1109a2:	00 00                	add    %al,(%rax)
  1109a4:	00 00                	add    %al,(%rax)
  1109a6:	00 00                	add    %al,(%rax)
  1109a8:	00 00                	add    %al,(%rax)
  1109aa:	00 00                	add    %al,(%rax)
  1109ac:	00 00                	add    %al,(%rax)
  1109ae:	00 00                	add    %al,(%rax)
  1109b0:	00 00                	add    %al,(%rax)
  1109b2:	00 00                	add    %al,(%rax)
  1109b4:	00 00                	add    %al,(%rax)
  1109b6:	00 00                	add    %al,(%rax)
  1109b8:	00 00                	add    %al,(%rax)
  1109ba:	00 00                	add    %al,(%rax)
  1109bc:	00 00                	add    %al,(%rax)
  1109be:	00 00                	add    %al,(%rax)
  1109c0:	00 00                	add    %al,(%rax)
  1109c2:	00 00                	add    %al,(%rax)
  1109c4:	00 00                	add    %al,(%rax)
  1109c6:	00 00                	add    %al,(%rax)
  1109c8:	00 00                	add    %al,(%rax)
  1109ca:	00 00                	add    %al,(%rax)
  1109cc:	00 00                	add    %al,(%rax)
  1109ce:	00 00                	add    %al,(%rax)
  1109d0:	00 00                	add    %al,(%rax)
  1109d2:	00 00                	add    %al,(%rax)
  1109d4:	00 00                	add    %al,(%rax)
  1109d6:	00 00                	add    %al,(%rax)
  1109d8:	00 00                	add    %al,(%rax)
  1109da:	00 00                	add    %al,(%rax)
  1109dc:	00 00                	add    %al,(%rax)
  1109de:	00 00                	add    %al,(%rax)
  1109e0:	00 00                	add    %al,(%rax)
  1109e2:	00 00                	add    %al,(%rax)
  1109e4:	00 00                	add    %al,(%rax)
  1109e6:	00 00                	add    %al,(%rax)
  1109e8:	00 00                	add    %al,(%rax)
  1109ea:	00 00                	add    %al,(%rax)
  1109ec:	00 00                	add    %al,(%rax)
  1109ee:	00 00                	add    %al,(%rax)
  1109f0:	00 00                	add    %al,(%rax)
  1109f2:	00 00                	add    %al,(%rax)
  1109f4:	00 00                	add    %al,(%rax)
  1109f6:	00 00                	add    %al,(%rax)
  1109f8:	00 00                	add    %al,(%rax)
  1109fa:	00 00                	add    %al,(%rax)
  1109fc:	00 00                	add    %al,(%rax)
  1109fe:	00 00                	add    %al,(%rax)
  110a00:	00 00                	add    %al,(%rax)
  110a02:	00 00                	add    %al,(%rax)
  110a04:	00 00                	add    %al,(%rax)
  110a06:	00 00                	add    %al,(%rax)
  110a08:	00 00                	add    %al,(%rax)
  110a0a:	00 00                	add    %al,(%rax)
  110a0c:	00 00                	add    %al,(%rax)
  110a0e:	00 00                	add    %al,(%rax)
  110a10:	00 00                	add    %al,(%rax)
  110a12:	00 00                	add    %al,(%rax)
  110a14:	00 00                	add    %al,(%rax)
  110a16:	00 00                	add    %al,(%rax)
  110a18:	00 00                	add    %al,(%rax)
  110a1a:	00 00                	add    %al,(%rax)
  110a1c:	00 00                	add    %al,(%rax)
  110a1e:	00 00                	add    %al,(%rax)
  110a20:	00 00                	add    %al,(%rax)
  110a22:	00 00                	add    %al,(%rax)
  110a24:	00 00                	add    %al,(%rax)
  110a26:	00 00                	add    %al,(%rax)
  110a28:	00 00                	add    %al,(%rax)
  110a2a:	00 00                	add    %al,(%rax)
  110a2c:	00 00                	add    %al,(%rax)
  110a2e:	00 00                	add    %al,(%rax)
  110a30:	00 00                	add    %al,(%rax)
  110a32:	00 00                	add    %al,(%rax)
  110a34:	00 00                	add    %al,(%rax)
  110a36:	00 00                	add    %al,(%rax)
  110a38:	00 00                	add    %al,(%rax)
  110a3a:	00 00                	add    %al,(%rax)
  110a3c:	00 00                	add    %al,(%rax)
  110a3e:	00 00                	add    %al,(%rax)

0000000000110a40 <__intel_cpu_indicator>:
  110a40:	00 00                	add    %al,(%rax)
  110a42:	00 00                	add    %al,(%rax)
  110a44:	00 00                	add    %al,(%rax)
  110a46:	00 00                	add    %al,(%rax)
Disassembly of section .comment:

0000000000000000 <.comment>:
   0:	00 47 43             	add    %al,0x43(%rdi)
   3:	43 3a 20             	rex.XB cmp    (%r8),%spl
   6:	28 47 4e             	sub    %al,0x4e(%rdi)
   9:	55                   	push   %rbp
   a:	29 20                	sub    %esp,(%rax)
   c:	34 2e                	xor    $0x2e,%al
   e:	31 2e                	xor    %ebp,(%rsi)
  10:	32 20                	xor    (%rax),%ah
  12:	32 30                	xor    (%rax),%dh
  14:	30 37                	xor    %dh,(%rdi)
  16:	30 31                	xor    %dh,(%rcx)
  18:	31 35 20 28 53 55    	xor    %esi,1431513120(%rip)        # 5553283e <message_catalog.0+0x54f1c81e>
  1e:	53                   	push   %rbx
  1f:	45 20 4c 69 6e       	and    %r9b,0x6e(%r9,%rbp,2)
  24:	75 78                	jne    9e <_init-0xb47a>
  26:	29 00                	sub    %eax,(%rax)
  28:	00 47 43             	add    %al,0x43(%rdi)
  2b:	43 3a 20             	rex.XB cmp    (%r8),%spl
  2e:	28 47 4e             	sub    %al,0x4e(%rdi)
  31:	55                   	push   %rbp
  32:	29 20                	sub    %esp,(%rax)
  34:	34 2e                	xor    $0x2e,%al
  36:	31 2e                	xor    %ebp,(%rsi)
  38:	32 20                	xor    (%rax),%ah
  3a:	32 30                	xor    (%rax),%dh
  3c:	30 37                	xor    %dh,(%rdi)
  3e:	30 31                	xor    %dh,(%rcx)
  40:	31 35 20 28 53 55    	xor    %esi,1431513120(%rip)        # 55532866 <message_catalog.0+0x54f1c846>
  46:	53                   	push   %rbx
  47:	45 20 4c 69 6e       	and    %r9b,0x6e(%r9,%rbp,2)
  4c:	75 78                	jne    c6 <_init-0xb452>
  4e:	29 00                	sub    %eax,(%rax)
  50:	00 47 43             	add    %al,0x43(%rdi)
  53:	43 3a 20             	rex.XB cmp    (%r8),%spl
  56:	28 47 4e             	sub    %al,0x4e(%rdi)
  59:	55                   	push   %rbp
  5a:	29 20                	sub    %esp,(%rax)
  5c:	34 2e                	xor    $0x2e,%al
  5e:	32 2e                	xor    (%rsi),%ch
  60:	32 00                	xor    (%rax),%al
  62:	2d 64 65 66 61       	sub    $0x61666564,%eax
  67:	75 6c                	jne    d5 <_init-0xb443>
  69:	74 6c                	je     d7 <_init-0xb441>
  6b:	69 62 3a 6c 69 62 69 	imul   $0x6962696c,0x3a(%rdx),%esp
  72:	72 63                	jb     d7 <_init-0xb441>
  74:	20 00                	and    %al,(%rax)
  76:	47                   	rex.RXB
  77:	43                   	rex.XB
  78:	43 3a 20             	rex.XB cmp    (%r8),%spl
  7b:	28 47 4e             	sub    %al,0x4e(%rdi)
  7e:	55                   	push   %rbp
  7f:	29 20                	sub    %esp,(%rax)
  81:	34 2e                	xor    $0x2e,%al
  83:	31 2e                	xor    %ebp,(%rsi)
  85:	32 20                	xor    (%rax),%ah
  87:	32 30                	xor    (%rax),%dh
  89:	30 37                	xor    %dh,(%rdi)
  8b:	30 31                	xor    %dh,(%rcx)
  8d:	31 35 20 28 53 55    	xor    %esi,1431513120(%rip)        # 555328b3 <message_catalog.0+0x54f1c893>
  93:	53                   	push   %rbx
  94:	45 20 4c 69 6e       	and    %r9b,0x6e(%r9,%rbp,2)
  99:	75 78                	jne    113 <_init-0xb405>
  9b:	29 00                	sub    %eax,(%rax)
  9d:	00 47 43             	add    %al,0x43(%rdi)
  a0:	43 3a 20             	rex.XB cmp    (%r8),%spl
  a3:	28 47 4e             	sub    %al,0x4e(%rdi)
  a6:	55                   	push   %rbp
  a7:	29 20                	sub    %esp,(%rax)
  a9:	34 2e                	xor    $0x2e,%al
  ab:	32 2e                	xor    (%rsi),%ch
  ad:	32 00                	xor    (%rax),%al
  af:	00 47 43             	add    %al,0x43(%rdi)
  b2:	43 3a 20             	rex.XB cmp    (%r8),%spl
  b5:	28 47 4e             	sub    %al,0x4e(%rdi)
  b8:	55                   	push   %rbp
  b9:	29 20                	sub    %esp,(%rax)
  bb:	34 2e                	xor    $0x2e,%al
  bd:	31 2e                	xor    %ebp,(%rsi)
  bf:	32 20                	xor    (%rax),%ah
  c1:	32 30                	xor    (%rax),%dh
  c3:	30 37                	xor    %dh,(%rdi)
  c5:	30 31                	xor    %dh,(%rcx)
  c7:	31 35 20 28 53 55    	xor    %esi,1431513120(%rip)        # 555328ed <message_catalog.0+0x54f1c8cd>
  cd:	53                   	push   %rbx
  ce:	45 20 4c 69 6e       	and    %r9b,0x6e(%r9,%rbp,2)
  d3:	75 78                	jne    14d <_init-0xb3cb>
  d5:	29 00                	sub    %eax,(%rax)
Disassembly of section .debug_aranges:

0000000000000000 <.debug_aranges>:
   0:	4c 00 00             	rex.WR add    %r8b,(%rax)
   3:	00 02                	add    %al,(%rdx)
   5:	00 8f 00 00 00 08    	add    %cl,0x8000000(%rdi)
   b:	00 00                	add    %al,(%rax)
   d:	00 00                	add    %al,(%rax)
   f:	00 28                	add    %ch,(%rax)
  11:	32 40 00             	xor    0x0(%rax),%al
  14:	00 00                	add    %al,(%rax)
  16:	00 00                	add    %al,(%rax)
  18:	10 00                	adc    %al,(%rax)
  1a:	00 00                	add    %al,(%rax)
  1c:	00 00                	add    %al,(%rax)
  1e:	00 00                	add    %al,(%rax)
  20:	50                   	push   %rax
  21:	07                   	(bad)  
  22:	40 00 00             	add    %al,(%rax)
  25:	00 00                	add    %al,(%rax)
  27:	00 09                	add    %cl,(%rcx)
  29:	00 00                	add    %al,(%rax)
  2b:	00 00                	add    %al,(%rax)
  2d:	00 00                	add    %al,(%rax)
  2f:	00 6c 08 40          	add    %ch,0x40(%rax,%rcx,1)
  33:	00 00                	add    %al,(%rax)
  35:	00 00                	add    %al,(%rax)
  37:	00 17                	add    %dl,(%rdi)
  39:	00 00                	add    %al,(%rax)
  3b:	00 00                	add    %al,(%rax)
  3d:	00 00                	add    %al,(%rax)
  3f:	00 00                	add    %al,(%rax)
  41:	00 00                	add    %al,(%rax)
  43:	00 00                	add    %al,(%rax)
  45:	00 00                	add    %al,(%rax)
  47:	00 00                	add    %al,(%rax)
  49:	00 00                	add    %al,(%rax)
  4b:	00 00                	add    %al,(%rax)
  4d:	00 00                	add    %al,(%rax)
  4f:	00 3c 00             	add    %bh,(%rax,%rax,1)
  52:	00 00                	add    %al,(%rax)
  54:	02 00                	add    (%rax),%al
  56:	0f 01 00             	sgdt   (%rax)
  59:	00 08                	add    %cl,(%rax)
  5b:	00 00                	add    %al,(%rax)
  5d:	00 00                	add    %al,(%rax)
  5f:	00 3d 32 40 00 00    	add    %bh,16434(%rip)        # 4097 <_init-0x7481>
  65:	00 00                	add    %al,(%rax)
  67:	00 01                	add    %al,(%rcx)
  69:	00 00                	add    %al,(%rax)
  6b:	00 00                	add    %al,(%rax)
  6d:	00 00                	add    %al,(%rax)
  6f:	00 63 07             	add    %ah,0x7(%rbx)
  72:	40 00 00             	add    %al,(%rax)
  75:	00 00                	add    %al,(%rax)
  77:	00 05 00 00 00 00    	add    %al,0(%rip)        # 7d <_init-0xb49b>
  7d:	00 00                	add    %al,(%rax)
  7f:	00 00                	add    %al,(%rax)
  81:	00 00                	add    %al,(%rax)
  83:	00 00                	add    %al,(%rax)
  85:	00 00                	add    %al,(%rax)
  87:	00 00                	add    %al,(%rax)
  89:	00 00                	add    %al,(%rax)
  8b:	00 00                	add    %al,(%rax)
  8d:	00 00                	add    %al,(%rax)
  8f:	00                   	.byte 0x0
Disassembly of section .debug_pubnames:

0000000000000000 <.debug_pubnames>:
   0:	21 00                	and    %eax,(%rax)
   2:	00 00                	add    %al,(%rax)
   4:	02 00                	add    (%rax),%al
   6:	00 00                	add    %al,(%rax)
   8:	00 00                	add    %al,(%rax)
   a:	8f 00                	popq   (%rax)
   c:	00 00                	add    %al,(%rax)
   e:	73 00                	jae    10 <_init-0xb508>
  10:	00 00                	add    %al,(%rax)
  12:	5f                   	pop    %rdi
  13:	49                   	rex.WB
  14:	4f 5f                	rex.WRXB pop    %r15
  16:	73 74                	jae    8c <_init-0xb48c>
  18:	64 69 6e 5f 75 73 65 	imul   $0x64657375,%fs:0x5f(%rsi),%ebp
  1f:	64 
  20:	00 00                	add    %al,(%rax)
  22:	00 00                	add    %al,(%rax)
  24:	00                   	.byte 0x0
Disassembly of section .debug_info:

0000000000000000 <.debug_info>:
   0:	8b 00                	mov    (%rax),%eax
   2:	00 00                	add    %al,(%rax)
   4:	02 00                	add    (%rax),%al
   6:	00 00                	add    %al,(%rax)
   8:	00 00                	add    %al,(%rax)
   a:	08 01                	or     %al,(%rcx)
   c:	00 00                	add    %al,(%rax)
   e:	00 00                	add    %al,(%rax)
  10:	6c                   	insb   (%dx),%es:(%rdi)
  11:	08 40 00             	or     %al,0x0(%rax)
  14:	00 00                	add    %al,(%rax)
  16:	00 00                	add    %al,(%rax)
  18:	6c                   	insb   (%dx),%es:(%rdi)
  19:	08 40 00             	or     %al,0x0(%rax)
  1c:	00 00                	add    %al,(%rax)
  1e:	00 00                	add    %al,(%rax)
  20:	3b 00                	cmp    (%rax),%eax
  22:	00 00                	add    %al,(%rax)
  24:	01 00                	add    %eax,(%rax)
  26:	00 00                	add    %al,(%rax)
  28:	00 6f 00             	add    %ch,0x0(%rdi)
  2b:	00 00                	add    %al,(%rax)
  2d:	02 5d 00             	add    0x0(%rbp),%bl
  30:	00 00                	add    %al,(%rax)
  32:	08 07                	or     %al,(%rdi)
  34:	02 1a                	add    (%rdx),%bl
  36:	00 00                	add    %al,(%rax)
  38:	00 01                	add    %al,(%rcx)
  3a:	08 02                	or     %al,(%rdx)
  3c:	28 00                	sub    %al,(%rax)
  3e:	00 00                	add    %al,(%rax)
  40:	02 07                	add    (%rdi),%al
  42:	02 62 00             	add    0x0(%rdx),%ah
  45:	00 00                	add    %al,(%rax)
  47:	04 07                	add    $0x7,%al
  49:	02 1c 00             	add    (%rax,%rax,1),%bl
  4c:	00 00                	add    %al,(%rax)
  4e:	01 06                	add    %eax,(%rsi)
  50:	02 07                	add    (%rdi),%al
  52:	00 00                	add    %al,(%rax)
  54:	00 02                	add    %al,(%rdx)
  56:	05 03 69 6e 74       	add    $0x746e6903,%eax
  5b:	00 04 05 02 11 00 00 	add    %al,0x1102(,%rax,1)
  62:	00 08                	add    %cl,(%rax)
  64:	05 02 5d 00 00       	add    $0x5d02,%eax
  69:	00 08                	add    %cl,(%rax)
  6b:	07                   	(bad)  
  6c:	02 23                	add    (%rbx),%ah
  6e:	00 00                	add    %al,(%rax)
  70:	00 01                	add    %al,(%rcx)
  72:	06                   	(bad)  
  73:	04 95                	add    $0x95,%al
  75:	00 00                	add    %al,(%rax)
  77:	00 01                	add    %al,(%rcx)
  79:	19 89 00 00 00 01    	sbb    %ecx,0x1000000(%rcx)
  7f:	09 03                	or     %eax,(%rbx)
  81:	40 32 40 00          	xor    0x0(%rax),%al
  85:	00 00                	add    %al,(%rax)
  87:	00 00                	add    %al,(%rax)
  89:	05 57 00 00 00       	add    $0x57,%eax
  8e:	00 7c 00 00          	add    %bh,0x0(%rax,%rax,1)
  92:	00 02                	add    %al,(%rdx)
  94:	00 42 00             	add    %al,0x0(%rdx)
  97:	00 00                	add    %al,(%rax)
  99:	08 01                	or     %al,(%rcx)
  9b:	27                   	(bad)  
  9c:	00 00                	add    %al,(%rax)
  9e:	00 2f                	add    %ch,(%rdi)
  a0:	75 73                	jne    115 <_init-0xb403>
  a2:	72 2f                	jb     d3 <_init-0xb445>
  a4:	73 72                	jae    118 <_init-0xb400>
  a6:	63 2f                	movslq (%rdi),%ebp
  a8:	70 61                	jo     10b <_init-0xb40d>
  aa:	63 6b 61             	movslq 0x61(%rbx),%ebp
  ad:	67                   	addr32
  ae:	65                   	gs
  af:	73 2f                	jae    e0 <_init-0xb438>
  b1:	42 55                	rex.X push   %rbp
  b3:	49                   	rex.WB
  b4:	4c                   	rex.WR
  b5:	44 2f                	rex.R (bad)  
  b7:	67 6c                	addr32 insb (%dx),%es:(%edi)
  b9:	69 62 63 2d 32 2e 34 	imul   $0x342e322d,0x63(%rdx),%esp
  c0:	2f                   	(bad)  
  c1:	63 63 2d             	movslq 0x2d(%rbx),%esp
  c4:	6e                   	outsb  %ds:(%rsi),(%dx)
  c5:	70 74                	jo     13b <_init-0xb3dd>
  c7:	6c                   	insb   (%dx),%es:(%rdi)
  c8:	2f                   	(bad)  
  c9:	63 73 75             	movslq 0x75(%rbx),%esi
  cc:	2f                   	(bad)  
  cd:	63 72 74             	movslq 0x74(%rdx),%esi
  d0:	69 2e 53 00 2f 75    	imul   $0x752f0053,(%rsi),%ebp
  d6:	73 72                	jae    14a <_init-0xb3ce>
  d8:	2f                   	(bad)  
  d9:	73 72                	jae    14d <_init-0xb3cb>
  db:	63 2f                	movslq (%rdi),%ebp
  dd:	70 61                	jo     140 <_init-0xb3d8>
  df:	63 6b 61             	movslq 0x61(%rbx),%ebp
  e2:	67                   	addr32
  e3:	65                   	gs
  e4:	73 2f                	jae    115 <_init-0xb403>
  e6:	42 55                	rex.X push   %rbp
  e8:	49                   	rex.WB
  e9:	4c                   	rex.WR
  ea:	44 2f                	rex.R (bad)  
  ec:	67 6c                	addr32 insb (%dx),%es:(%edi)
  ee:	69 62 63 2d 32 2e 34 	imul   $0x342e322d,0x63(%rdx),%esp
  f5:	2f                   	(bad)  
  f6:	63 73 75             	movslq 0x75(%rbx),%esi
  f9:	00 47 4e             	add    %al,0x4e(%rdi)
  fc:	55                   	push   %rbp
  fd:	20 41 53             	and    %al,0x53(%rcx)
 100:	20 32                	and    %dh,(%rdx)
 102:	2e 31 36             	xor    %esi,%cs:(%rsi)
 105:	2e 39 31             	cmp    %esi,%cs:(%rcx)
 108:	2e 30 2e             	xor    %ch,%cs:(%rsi)
 10b:	35 00 01 80 7c       	xor    $0x7c800100,%eax
 110:	00 00                	add    %al,(%rax)
 112:	00 02                	add    %al,(%rdx)
 114:	00 52 00             	add    %dl,0x0(%rdx)
 117:	00 00                	add    %al,(%rax)
 119:	08 01                	or     %al,(%rcx)
 11b:	c1 00 00             	roll   $0x0,(%rax)
 11e:	00 2f                	add    %ch,(%rdi)
 120:	75 73                	jne    195 <_init-0xb383>
 122:	72 2f                	jb     153 <_init-0xb3c5>
 124:	73 72                	jae    198 <_init-0xb380>
 126:	63 2f                	movslq (%rdi),%ebp
 128:	70 61                	jo     18b <_init-0xb38d>
 12a:	63 6b 61             	movslq 0x61(%rbx),%ebp
 12d:	67                   	addr32
 12e:	65                   	gs
 12f:	73 2f                	jae    160 <_init-0xb3b8>
 131:	42 55                	rex.X push   %rbp
 133:	49                   	rex.WB
 134:	4c                   	rex.WR
 135:	44 2f                	rex.R (bad)  
 137:	67 6c                	addr32 insb (%dx),%es:(%edi)
 139:	69 62 63 2d 32 2e 34 	imul   $0x342e322d,0x63(%rdx),%esp
 140:	2f                   	(bad)  
 141:	63 63 2d             	movslq 0x2d(%rbx),%esp
 144:	6e                   	outsb  %ds:(%rsi),(%dx)
 145:	70 74                	jo     1bb <_init-0xb35d>
 147:	6c                   	insb   (%dx),%es:(%rdi)
 148:	2f                   	(bad)  
 149:	63 73 75             	movslq 0x75(%rbx),%esi
 14c:	2f                   	(bad)  
 14d:	63 72 74             	movslq 0x74(%rdx),%esi
 150:	6e                   	outsb  %ds:(%rsi),(%dx)
 151:	2e                   	cs
 152:	53                   	push   %rbx
 153:	00 2f                	add    %ch,(%rdi)
 155:	75 73                	jne    1ca <_init-0xb34e>
 157:	72 2f                	jb     188 <_init-0xb390>
 159:	73 72                	jae    1cd <_init-0xb34b>
 15b:	63 2f                	movslq (%rdi),%ebp
 15d:	70 61                	jo     1c0 <_init-0xb358>
 15f:	63 6b 61             	movslq 0x61(%rbx),%ebp
 162:	67                   	addr32
 163:	65                   	gs
 164:	73 2f                	jae    195 <_init-0xb383>
 166:	42 55                	rex.X push   %rbp
 168:	49                   	rex.WB
 169:	4c                   	rex.WR
 16a:	44 2f                	rex.R (bad)  
 16c:	67 6c                	addr32 insb (%dx),%es:(%edi)
 16e:	69 62 63 2d 32 2e 34 	imul   $0x342e322d,0x63(%rdx),%esp
 175:	2f                   	(bad)  
 176:	63 73 75             	movslq 0x75(%rbx),%esi
 179:	00 47 4e             	add    %al,0x4e(%rdi)
 17c:	55                   	push   %rbp
 17d:	20 41 53             	and    %al,0x53(%rcx)
 180:	20 32                	and    %dh,(%rdx)
 182:	2e 31 36             	xor    %esi,%cs:(%rsi)
 185:	2e 39 31             	cmp    %esi,%cs:(%rcx)
 188:	2e 30 2e             	xor    %ch,%cs:(%rsi)
 18b:	35                   	.byte 0x35
 18c:	00 01                	add    %al,(%rcx)
 18e:	80                   	.byte 0x80
Disassembly of section .debug_abbrev:

0000000000000000 <.debug_abbrev>:
   0:	01 11                	add    %edx,(%rcx)
   2:	01 10                	add    %edx,(%rax)
   4:	06                   	(bad)  
   5:	12 01                	adc    (%rcx),%al
   7:	11 01                	adc    %eax,(%rcx)
   9:	25 0e 13 0b 03       	and    $0x30b130e,%eax
   e:	0e                   	(bad)  
   f:	1b 0e                	sbb    (%rsi),%ecx
  11:	00 00                	add    %al,(%rax)
  13:	02 24 00             	add    (%rax,%rax,1),%ah
  16:	03 0e                	add    (%rsi),%ecx
  18:	0b 0b                	or     (%rbx),%ecx
  1a:	3e 0b 00             	or     %ds:(%rax),%eax
  1d:	00 03                	add    %al,(%rbx)
  1f:	24 00                	and    $0x0,%al
  21:	03 08                	add    (%rax),%ecx
  23:	0b 0b                	or     (%rbx),%ecx
  25:	3e 0b 00             	or     %ds:(%rax),%eax
  28:	00 04 34             	add    %al,(%rsp,%rsi,1)
  2b:	00 03                	add    %al,(%rbx)
  2d:	0e                   	(bad)  
  2e:	3a 0b                	cmp    (%rbx),%cl
  30:	3b 0b                	cmp    (%rbx),%ecx
  32:	49 13 3f             	adc    (%r15),%rdi
  35:	0c 02                	or     $0x2,%al
  37:	0a 00                	or     (%rax),%al
  39:	00 05 26 00 49 13    	add    %al,323551270(%rip)        # 13490065 <message_catalog.0+0x12e7a045>
  3f:	00 00                	add    %al,(%rax)
  41:	00 01                	add    %al,(%rcx)
  43:	11 00                	adc    %eax,(%rax)
  45:	10 06                	adc    %al,(%rsi)
  47:	03 08                	add    (%rax),%ecx
  49:	1b 08                	sbb    (%rax),%ecx
  4b:	25 08 13 05 00       	and    $0x51308,%eax
  50:	00 00                	add    %al,(%rax)
  52:	01 11                	add    %edx,(%rcx)
  54:	00 10                	add    %dl,(%rax)
  56:	06                   	(bad)  
  57:	03 08                	add    (%rax),%ecx
  59:	1b 08                	sbb    (%rax),%ecx
  5b:	25 08 13 05 00       	and    $0x51308,%eax
  60:	00 00                	add    %al,(%rax)
Disassembly of section .debug_line:

0000000000000000 <.debug_line>:
   0:	23 00                	and    (%rax),%eax
   2:	00 00                	add    %al,(%rax)
   4:	02 00                	add    (%rax),%al
   6:	1d 00 00 00 01       	sbb    $0x1000000,%eax
   b:	01 fb                	add    %edi,%ebx
   d:	0e                   	(bad)  
   e:	0d 00 01 01 01       	or     $0x1010100,%eax
  13:	01 00                	add    %eax,(%rax)
  15:	00 00                	add    %al,(%rax)
  17:	01 00                	add    %eax,(%rax)
  19:	00 01                	add    %al,(%rcx)
  1b:	00 69 6e             	add    %ch,0x6e(%rcx)
  1e:	69 74 2e 63 00 00 00 	imul   $0x0,0x63(%rsi,%rbp,1),%esi
  25:	00 
  26:	00 96 00 00 00 02    	add    %dl,0x2000000(%rsi)
  2c:	00 4b 00             	add    %cl,0x0(%rbx)
  2f:	00 00                	add    %al,(%rax)
  31:	01 01                	add    %eax,(%rcx)
  33:	fb                   	sti    
  34:	0e                   	(bad)  
  35:	0d 00 01 01 01       	or     $0x1010100,%eax
  3a:	01 00                	add    %eax,(%rax)
  3c:	00 00                	add    %al,(%rax)
  3e:	01 00                	add    %eax,(%rax)
  40:	00 01                	add    %al,(%rcx)
  42:	2f                   	(bad)  
  43:	75 73                	jne    b8 <_init-0xb460>
  45:	72 2f                	jb     76 <_init-0xb4a2>
  47:	73 72                	jae    bb <_init-0xb45d>
  49:	63 2f                	movslq (%rdi),%ebp
  4b:	70 61                	jo     ae <_init-0xb46a>
  4d:	63 6b 61             	movslq 0x61(%rbx),%ebp
  50:	67                   	addr32
  51:	65                   	gs
  52:	73 2f                	jae    83 <_init-0xb495>
  54:	42 55                	rex.X push   %rbp
  56:	49                   	rex.WB
  57:	4c                   	rex.WR
  58:	44 2f                	rex.R (bad)  
  5a:	67 6c                	addr32 insb (%dx),%es:(%edi)
  5c:	69 62 63 2d 32 2e 34 	imul   $0x342e322d,0x63(%rdx),%esp
  63:	2f                   	(bad)  
  64:	63 63 2d             	movslq 0x2d(%rbx),%esp
  67:	6e                   	outsb  %ds:(%rsi),(%dx)
  68:	70 74                	jo     de <_init-0xb43a>
  6a:	6c                   	insb   (%dx),%es:(%rdi)
  6b:	2f                   	(bad)  
  6c:	63 73 75             	movslq 0x75(%rbx),%esi
  6f:	00 00                	add    %al,(%rax)
  71:	63 72 74             	movslq 0x74(%rdx),%esi
  74:	69 2e 53 00 01 00    	imul   $0x10053,(%rsi),%ebp
  7a:	00 00                	add    %al,(%rax)
  7c:	00 09                	add    %cl,(%rcx)
  7e:	02 28                	add    (%rax),%ch
  80:	32 40 00             	xor    0x0(%rax),%al
  83:	00 00                	add    %al,(%rax)
  85:	00 00                	add    %al,(%rax)
  87:	03 25 01 23 4c 59    	add    1498161921(%rip),%esp        # 594c238e <message_catalog.0+0x58eac36e>
  8d:	4c 21 02             	and    %r8,(%rdx)
  90:	01 00                	add    %eax,(%rax)
  92:	01 01                	add    %eax,(%rcx)
  94:	00 09                	add    %cl,(%rcx)
  96:	02 50 07             	add    0x7(%rax),%dl
  99:	40 00 00             	add    %al,(%rax)
  9c:	00 00                	add    %al,(%rax)
  9e:	00 03                	add    %al,(%rbx)
  a0:	18 01                	sbb    %al,(%rcx)
  a2:	4b 02 05 00 01 01 00 	rex.WXB add    65792(%rip),%al        # 101a9 <_IO_stdin_used+0x21a9>
  a9:	09 02                	or     %eax,(%rdx)
  ab:	6c                   	insb   (%dx),%es:(%rdi)
  ac:	08 40 00             	or     %al,0x0(%rax)
  af:	00 00                	add    %al,(%rax)
  b1:	00 00                	add    %al,(%rax)
  b3:	03 0a                	add    (%rdx),%ecx
  b5:	01 4b 75             	add    %ecx,0x75(%rbx)
  b8:	3d 2f 30 4b 02       	cmp    $0x24b302f,%eax
  bd:	01 00                	add    %eax,(%rax)
  bf:	01 01                	add    %eax,(%rcx)
  c1:	76 00                	jbe    c3 <_init-0xb455>
  c3:	00 00                	add    %al,(%rax)
  c5:	02 00                	add    (%rax),%al
  c7:	4b 00 00             	rex.WXB add    %al,(%r8)
  ca:	00 01                	add    %al,(%rcx)
  cc:	01 fb                	add    %edi,%ebx
  ce:	0e                   	(bad)  
  cf:	0d 00 01 01 01       	or     $0x1010100,%eax
  d4:	01 00                	add    %eax,(%rax)
  d6:	00 00                	add    %al,(%rax)
  d8:	01 00                	add    %eax,(%rax)
  da:	00 01                	add    %al,(%rcx)
  dc:	2f                   	(bad)  
  dd:	75 73                	jne    152 <_init-0xb3c6>
  df:	72 2f                	jb     110 <_init-0xb408>
  e1:	73 72                	jae    155 <_init-0xb3c3>
  e3:	63 2f                	movslq (%rdi),%ebp
  e5:	70 61                	jo     148 <_init-0xb3d0>
  e7:	63 6b 61             	movslq 0x61(%rbx),%ebp
  ea:	67                   	addr32
  eb:	65                   	gs
  ec:	73 2f                	jae    11d <_init-0xb3fb>
  ee:	42 55                	rex.X push   %rbp
  f0:	49                   	rex.WB
  f1:	4c                   	rex.WR
  f2:	44 2f                	rex.R (bad)  
  f4:	67 6c                	addr32 insb (%dx),%es:(%edi)
  f6:	69 62 63 2d 32 2e 34 	imul   $0x342e322d,0x63(%rdx),%esp
  fd:	2f                   	(bad)  
  fe:	63 63 2d             	movslq 0x2d(%rbx),%esp
 101:	6e                   	outsb  %ds:(%rsi),(%dx)
 102:	70 74                	jo     178 <_init-0xb3a0>
 104:	6c                   	insb   (%dx),%es:(%rdi)
 105:	2f                   	(bad)  
 106:	63 73 75             	movslq 0x75(%rbx),%esi
 109:	00 00                	add    %al,(%rax)
 10b:	63 72 74             	movslq 0x74(%rdx),%esi
 10e:	6e                   	outsb  %ds:(%rsi),(%dx)
 10f:	2e                   	cs
 110:	53                   	push   %rbx
 111:	00 01                	add    %al,(%rcx)
 113:	00 00                	add    %al,(%rax)
 115:	00 00                	add    %al,(%rax)
 117:	09 02                	or     %eax,(%rdx)
 119:	3d 32 40 00 00       	cmp    $0x4032,%eax
 11e:	00 00                	add    %al,(%rax)
 120:	00 03                	add    %al,(%rbx)
 122:	0f 01 02             	sgdt   (%rdx)
 125:	01 00                	add    %eax,(%rax)
 127:	01 01                	add    %eax,(%rcx)
 129:	00 09                	add    %cl,(%rcx)
 12b:	02 63 07             	add    0x7(%rbx),%ah
 12e:	40 00 00             	add    %al,(%rax)
 131:	00 00                	add    %al,(%rax)
 133:	00 1a                	add    %bl,(%rdx)
 135:	4b 02 01             	rex.WXB add    (%r9),%al
 138:	00 01                	add    %al,(%rcx)
 13a:	01                   	.byte 0x1
Disassembly of section .debug_str:

0000000000000000 <.debug_str>:
   0:	69 6e 69 74 2e 63 00 	imul   $0x632e74,0x69(%rsi),%ebp
   7:	73 68                	jae    71 <_init-0xb4a7>
   9:	6f                   	outsl  %ds:(%rsi),(%dx)
   a:	72 74                	jb     80 <_init-0xb498>
   c:	20 69 6e             	and    %ch,0x6e(%rcx)
   f:	74 00                	je     11 <_init-0xb507>
  11:	6c                   	insb   (%dx),%es:(%rdi)
  12:	6f                   	outsl  %ds:(%rsi),(%dx)
  13:	6e                   	outsb  %ds:(%rsi),(%dx)
  14:	67 20 69 6e          	addr32 and %ch,0x6e(%ecx)
  18:	74 00                	je     1a <_init-0xb4fe>
  1a:	75 6e                	jne    8a <_init-0xb48e>
  1c:	73 69                	jae    87 <_init-0xb491>
  1e:	67 6e                	addr32 outsb %ds:(%esi),(%dx)
  20:	65 64 20 63 68       	and    %ah,%fs:%gs:0x68(%rbx)
  25:	61                   	(bad)  
  26:	72 00                	jb     28 <_init-0xb4f0>
  28:	73 68                	jae    92 <_init-0xb486>
  2a:	6f                   	outsl  %ds:(%rsi),(%dx)
  2b:	72 74                	jb     a1 <_init-0xb477>
  2d:	20 75 6e             	and    %dh,0x6e(%rbp)
  30:	73 69                	jae    9b <_init-0xb47d>
  32:	67 6e                	addr32 outsb %ds:(%esi),(%dx)
  34:	65 64 20 69 6e       	and    %ch,%fs:%gs:0x6e(%rcx)
  39:	74 00                	je     3b <_init-0xb4dd>
  3b:	47                   	rex.RXB
  3c:	4e 55                	rex.WRX push   %rbp
  3e:	20 43 20             	and    %al,0x20(%rbx)
  41:	34 2e                	xor    $0x2e,%al
  43:	31 2e                	xor    %ebp,(%rsi)
  45:	32 20                	xor    (%rax),%ah
  47:	32 30                	xor    (%rax),%dh
  49:	30 37                	xor    %dh,(%rdi)
  4b:	30 31                	xor    %dh,(%rcx)
  4d:	31 35 20 28 53 55    	xor    %esi,1431513120(%rip)        # 55532873 <message_catalog.0+0x54f1c853>
  53:	53                   	push   %rbx
  54:	45 20 4c 69 6e       	and    %r9b,0x6e(%r9,%rbp,2)
  59:	75 78                	jne    d3 <_init-0xb445>
  5b:	29 00                	sub    %eax,(%rax)
  5d:	6c                   	insb   (%dx),%es:(%rdi)
  5e:	6f                   	outsl  %ds:(%rsi),(%dx)
  5f:	6e                   	outsb  %ds:(%rsi),(%dx)
  60:	67 20 75 6e          	addr32 and %dh,0x6e(%ebp)
  64:	73 69                	jae    cf <_init-0xb449>
  66:	67 6e                	addr32 outsb %ds:(%esi),(%dx)
  68:	65 64 20 69 6e       	and    %ch,%fs:%gs:0x6e(%rcx)
  6d:	74 00                	je     6f <_init-0xb4a9>
  6f:	2f                   	(bad)  
  70:	75 73                	jne    e5 <_init-0xb433>
  72:	72 2f                	jb     a3 <_init-0xb475>
  74:	73 72                	jae    e8 <_init-0xb430>
  76:	63 2f                	movslq (%rdi),%ebp
  78:	70 61                	jo     db <_init-0xb43d>
  7a:	63 6b 61             	movslq 0x61(%rbx),%ebp
  7d:	67                   	addr32
  7e:	65                   	gs
  7f:	73 2f                	jae    b0 <_init-0xb468>
  81:	42 55                	rex.X push   %rbp
  83:	49                   	rex.WB
  84:	4c                   	rex.WR
  85:	44 2f                	rex.R (bad)  
  87:	67 6c                	addr32 insb (%dx),%es:(%edi)
  89:	69 62 63 2d 32 2e 34 	imul   $0x342e322d,0x63(%rdx),%esp
  90:	2f                   	(bad)  
  91:	63 73 75             	movslq 0x75(%rbx),%esi
  94:	00 5f 49             	add    %bl,0x49(%rdi)
  97:	4f 5f                	rex.WRXB pop    %r15
  99:	73 74                	jae    10f <_init-0xb409>
  9b:	64 69 6e 5f 75 73 65 	imul   $0x64657375,%fs:0x5f(%rsi),%ebp
  a2:	64 
  a3:	00                   	.byte 0x0
Disassembly of section .rela.dyn:

000000000000b398 <.rela.dyn>:
    b398:	e8 51 50 00 00       	callq  103ee <_IO_stdin_used+0x23ee>
    b39d:	00 00                	add    %al,(%rax)
    b39f:	00 06                	add    %al,(%rsi)
    b3a1:	00 00                	add    %al,(%rax)
    b3a3:	00 03                	add    %al,(%rbx)
    b3a5:	00 00                	add    %al,(%rax)
    b3a7:	00 00                	add    %al,(%rax)
    b3a9:	00 00                	add    %al,(%rax)
    b3ab:	00 00                	add    %al,(%rax)
    b3ad:	00 00                	add    %al,(%rax)
    b3af:	00 f0                	add    %dh,%al
    b3b1:	51                   	push   %rcx
    b3b2:	50                   	push   %rax
    b3b3:	00 00                	add    %al,(%rax)
    b3b5:	00 00                	add    %al,(%rax)
    b3b7:	00 06                	add    %al,(%rsi)
    b3b9:	00 00                	add    %al,(%rax)
    b3bb:	00 07                	add    %al,(%rdi)
    b3bd:	00 00                	add    %al,(%rax)
    b3bf:	00 00                	add    %al,(%rax)
    b3c1:	00 00                	add    %al,(%rax)
    b3c3:	00 00                	add    %al,(%rax)
    b3c5:	00 00                	add    %al,(%rax)
    b3c7:	00 f8                	add    %bh,%al
    b3c9:	51                   	push   %rcx
    b3ca:	50                   	push   %rax
    b3cb:	00 00                	add    %al,(%rax)
    b3cd:	00 00                	add    %al,(%rax)
    b3cf:	00 06                	add    %al,(%rsi)
    b3d1:	00 00                	add    %al,(%rax)
    b3d3:	00 0f                	add    %cl,(%rdi)
    b3d5:	00 00                	add    %al,(%rax)
    b3d7:	00 00                	add    %al,(%rax)
    b3d9:	00 00                	add    %al,(%rax)
    b3db:	00 00                	add    %al,(%rax)
    b3dd:	00 00                	add    %al,(%rax)
    b3df:	00 00                	add    %al,(%rax)
    b3e1:	52                   	push   %rdx
    b3e2:	50                   	push   %rax
    b3e3:	00 00                	add    %al,(%rax)
    b3e5:	00 00                	add    %al,(%rax)
    b3e7:	00 06                	add    %al,(%rsi)
    b3e9:	00 00                	add    %al,(%rax)
    b3eb:	00 10                	add    %dl,(%rax)
    b3ed:	00 00                	add    %al,(%rax)
    b3ef:	00 00                	add    %al,(%rax)
    b3f1:	00 00                	add    %al,(%rax)
    b3f3:	00 00                	add    %al,(%rax)
    b3f5:	00 00                	add    %al,(%rax)
    b3f7:	00                   	.byte 0x0
