
md5sum.l:     file format elf64-x86-64

Disassembly of section .text:

000000000000b000 <_start>:
    b000:	31 ed                	xor    %ebp,%ebp
    b002:	49 89 d1             	mov    %rdx,%r9
    b005:	5e                   	pop    %rsi
    b006:	48 89 e2             	mov    %rsp,%rdx
    b009:	48 83 e4 f0          	and    $0xfffffffffffffff0,%rsp
    b00d:	50                   	push   %rax
    b00e:	54                   	push   %rsp
    b00f:	49 c7 c0 e0 0c 40 00 	mov    $0x400ce0,%r8
    b016:	48 c7 c1 f0 0c 40 00 	mov    $0x400cf0,%rcx
    b01d:	48 c7 c7 ec 04 40 00 	mov    $0x4004ec,%rdi
    b024:	e8 c7 ff ff ff       	callq  aff0 <__libc_start_main@plt+0x9e08>
    b029:	f4                   	hlt    
    b02a:	90                   	nop    
    b02b:	90                   	nop    
    b02c:	48 83 ec 08          	sub    $0x8,%rsp
    b030:	48 8b 05 89 0d 10 00 	mov    1052041(%rip),%rax        # 10bdc0 <_end+0x140>
    b037:	48 85 c0             	test   %rax,%rax
    b03a:	74 02                	je     b03e <_start+0x3e>
    b03c:	ff d0                	callq  *%rax
    b03e:	48 83 c4 08          	add    $0x8,%rsp
    b042:	c3                   	retq   
    b043:	90                   	nop    
    b044:	90                   	nop    
    b045:	90                   	nop    
    b046:	90                   	nop    
    b047:	90                   	nop    
    b048:	90                   	nop    
    b049:	90                   	nop    
    b04a:	90                   	nop    
    b04b:	90                   	nop    
    b04c:	90                   	nop    
    b04d:	90                   	nop    
    b04e:	90                   	nop    
    b04f:	90                   	nop    
    b050:	80 3d a9 0d 10 00 00 	cmpb   $0x0,1052073(%rip)        # 10be00 <_end+0x180>
    b057:	55                   	push   %rbp
    b058:	48 89 e5             	mov    %rsp,%rbp
    b05b:	74 10                	je     b06d <_start+0x6d>
    b05d:	eb 24                	jmp    b083 <_start+0x83>
    b05f:	90                   	nop    
    b060:	48 83 c0 08          	add    $0x8,%rax
    b064:	48 89 05 8d 0d 10 00 	mov    %rax,1052045(%rip)        # 10bdf8 <_end+0x178>
    b06b:	ff d2                	callq  *%rdx
    b06d:	48 8b 05 84 0d 10 00 	mov    1052036(%rip),%rax        # 10bdf8 <_end+0x178>
    b074:	48 8b 10             	mov    (%rax),%rdx
    b077:	48 85 d2             	test   %rdx,%rdx
    b07a:	75 e4                	jne    b060 <_start+0x60>
    b07c:	c6 05 7d 0d 10 00 01 	movb   $0x1,1052029(%rip)        # 10be00 <_end+0x180>
    b083:	c9                   	leaveq 
    b084:	c3                   	retq   
    b085:	66 66 66 90          	xchg   %ax,%ax
    b089:	66 66 66 90          	xchg   %ax,%ax
    b08d:	66 66 90             	xchg   %ax,%ax
    b090:	55                   	push   %rbp
    b091:	48 83 3d 57 0b 10 00 	cmpq   $0x0,1051479(%rip)        # 10bbf0 <_IO_stdin_used+0x100250>
    b098:	00 
    b099:	48 89 e5             	mov    %rsp,%rbp
    b09c:	74 1a                	je     b0b8 <_start+0xb8>
    b09e:	48 8b 05 13 0d 10 00 	mov    1051923(%rip),%rax        # 10bdb8 <_end+0x138>
    b0a5:	48 85 c0             	test   %rax,%rax
    b0a8:	74 0e                	je     b0b8 <_start+0xb8>
    b0aa:	48 8d 3d 3f 0b 10 00 	lea    1051455(%rip),%rdi        # 10bbf0 <_IO_stdin_used+0x100250>
    b0b1:	49 89 c3             	mov    %rax,%r11
    b0b4:	c9                   	leaveq 
    b0b5:	41 ff e3             	jmpq   *%r11
    b0b8:	c9                   	leaveq 
    b0b9:	c3                   	retq   
    b0ba:	90                   	nop    
    b0bb:	90                   	nop    

000000000000b0bc <main>:
    b0bc:	48 31 db             	xor    %rbx,%rbx
    b0bf:	48 31 c0             	xor    %rax,%rax
    b0c2:	b8 01 00 00 00       	mov    $0x1,%eax
    b0c7:	0f a2                	cpuid  
    b0c9:	c1 eb 18             	shr    $0x18,%ebx
    b0cc:	49 89 de             	mov    %rbx,%r14
    b0cf:	48 31 c9             	xor    %rcx,%rcx
    b0d2:	48 01 d9             	add    %rbx,%rcx
    b0d5:	48 c1 e1 19          	shl    $0x19,%rcx
    b0d9:	48 83 c1 07          	add    $0x7,%rcx
    b0dd:	90                   	nop    
    b0de:	e2 fd                	loop   b0dd <main+0x21>
    b0e0:	49 bc ff ff ff ff ff 	mov    $0xfffffffffffffff,%r12
    b0e7:	ff ff 0f 
    b0ea:	48 31 c0             	xor    %rax,%rax
    b0ed:	48 31 db             	xor    %rbx,%rbx
    b0f0:	48 31 c9             	xor    %rcx,%rcx
    b0f3:	48 31 d2             	xor    %rdx,%rdx
    b0f6:	49 c7 c3 00 09 3d 00 	mov    $0x3d0900,%r11
    b0fd:	89 ce                	mov    %ecx,%esi
    b0ff:	05 ef be 00 00       	add    $0xbeef,%eax
    b104:	31 d6                	xor    %edx,%esi
    b106:	21 de                	and    %ebx,%esi
    b108:	31 d6                	xor    %edx,%esi
    b10a:	67 8d 84 06 78 a4 6a 	addr32 lea 0xffffffffd76aa478(%esi,%eax,1),%eax
    b111:	d7 
    b112:	c1 c0 07             	rol    $0x7,%eax
    b115:	01 d8                	add    %ebx,%eax
    b117:	89 de                	mov    %ebx,%esi
    b119:	81 c2 ef be 00 00    	add    $0xbeef,%edx
    b11f:	31 ce                	xor    %ecx,%esi
    b121:	21 c6                	and    %eax,%esi
    b123:	31 ce                	xor    %ecx,%esi
    b125:	67 8d 94 16 56 b7 c7 	addr32 lea 0xffffffffe8c7b756(%esi,%edx,1),%edx
    b12c:	e8 
    b12d:	c1 c2 0c             	rol    $0xc,%edx
    b130:	01 c2                	add    %eax,%edx
    b132:	89 c6                	mov    %eax,%esi
    b134:	81 c1 ef be 00 00    	add    $0xbeef,%ecx
    b13a:	31 de                	xor    %ebx,%esi
    b13c:	21 d6                	and    %edx,%esi
    b13e:	31 de                	xor    %ebx,%esi
    b140:	67 8d 8c 0e db 70 20 	addr32 lea 0x242070db(%esi,%ecx,1),%ecx
    b147:	24 
    b148:	c1 c1 11             	rol    $0x11,%ecx
    b14b:	01 d1                	add    %edx,%ecx
    b14d:	89 d6                	mov    %edx,%esi
    b14f:	81 c3 ef be 00 00    	add    $0xbeef,%ebx
    b155:	31 c6                	xor    %eax,%esi
    b157:	21 ce                	and    %ecx,%esi
    b159:	31 c6                	xor    %eax,%esi
    b15b:	67 8d 9c 1e ee ce bd 	addr32 lea 0xffffffffc1bdceee(%esi,%ebx,1),%ebx
    b162:	c1 
    b163:	c1 c3 16             	rol    $0x16,%ebx
    b166:	01 cb                	add    %ecx,%ebx
    b168:	89 ce                	mov    %ecx,%esi
    b16a:	05 ef be 00 00       	add    $0xbeef,%eax
    b16f:	31 d6                	xor    %edx,%esi
    b171:	21 de                	and    %ebx,%esi
    b173:	31 d6                	xor    %edx,%esi
    b175:	67 8d 84 06 af 0f 7c 	addr32 lea 0xfffffffff57c0faf(%esi,%eax,1),%eax
    b17c:	f5 
    b17d:	c1 c0 07             	rol    $0x7,%eax
    b180:	01 d8                	add    %ebx,%eax
    b182:	89 de                	mov    %ebx,%esi
    b184:	81 c2 ef be 00 00    	add    $0xbeef,%edx
    b18a:	31 ce                	xor    %ecx,%esi
    b18c:	21 c6                	and    %eax,%esi
    b18e:	31 ce                	xor    %ecx,%esi
    b190:	67 8d 94 16 2a c6 87 	addr32 lea 0x4787c62a(%esi,%edx,1),%edx
    b197:	47 
    b198:	c1 c2 0c             	rol    $0xc,%edx
    b19b:	01 c2                	add    %eax,%edx
    b19d:	89 c6                	mov    %eax,%esi
    b19f:	81 c1 ef be 00 00    	add    $0xbeef,%ecx
    b1a5:	31 de                	xor    %ebx,%esi
    b1a7:	21 d6                	and    %edx,%esi
    b1a9:	31 de                	xor    %ebx,%esi
    b1ab:	67 8d 8c 0e 13 46 30 	addr32 lea 0xffffffffa8304613(%esi,%ecx,1),%ecx
    b1b2:	a8 
    b1b3:	c1 c1 11             	rol    $0x11,%ecx
    b1b6:	01 d1                	add    %edx,%ecx
    b1b8:	89 d6                	mov    %edx,%esi
    b1ba:	81 c3 ef be 00 00    	add    $0xbeef,%ebx
    b1c0:	31 c6                	xor    %eax,%esi
    b1c2:	21 ce                	and    %ecx,%esi
    b1c4:	31 c6                	xor    %eax,%esi
    b1c6:	67 8d 9c 1e 01 95 46 	addr32 lea 0xfffffffffd469501(%esi,%ebx,1),%ebx
    b1cd:	fd 
    b1ce:	c1 c3 16             	rol    $0x16,%ebx
    b1d1:	01 cb                	add    %ecx,%ebx
    b1d3:	89 ce                	mov    %ecx,%esi
    b1d5:	05 ef be 00 00       	add    $0xbeef,%eax
    b1da:	31 d6                	xor    %edx,%esi
    b1dc:	21 de                	and    %ebx,%esi
    b1de:	31 d6                	xor    %edx,%esi
    b1e0:	67 8d 84 06 d8 98 80 	addr32 lea 0x698098d8(%esi,%eax,1),%eax
    b1e7:	69 
    b1e8:	c1 c0 07             	rol    $0x7,%eax
    b1eb:	01 d8                	add    %ebx,%eax
    b1ed:	89 de                	mov    %ebx,%esi
    b1ef:	81 c2 ef be 00 00    	add    $0xbeef,%edx
    b1f5:	31 ce                	xor    %ecx,%esi
    b1f7:	21 c6                	and    %eax,%esi
    b1f9:	31 ce                	xor    %ecx,%esi
    b1fb:	67 8d 94 16 af f7 44 	addr32 lea 0xffffffff8b44f7af(%esi,%edx,1),%edx
    b202:	8b 
    b203:	c1 c2 0c             	rol    $0xc,%edx
    b206:	01 c2                	add    %eax,%edx
    b208:	89 c6                	mov    %eax,%esi
    b20a:	81 c1 ef be 00 00    	add    $0xbeef,%ecx
    b210:	31 de                	xor    %ebx,%esi
    b212:	21 d6                	and    %edx,%esi
    b214:	31 de                	xor    %ebx,%esi
    b216:	67 8d 8c 0e b1 5b ff 	addr32 lea 0xffffffffffff5bb1(%esi,%ecx,1),%ecx
    b21d:	ff 
    b21e:	c1 c1 11             	rol    $0x11,%ecx
    b221:	01 d1                	add    %edx,%ecx
    b223:	89 d6                	mov    %edx,%esi
    b225:	81 c3 ef be 00 00    	add    $0xbeef,%ebx
    b22b:	31 c6                	xor    %eax,%esi
    b22d:	21 ce                	and    %ecx,%esi
    b22f:	31 c6                	xor    %eax,%esi
    b231:	67 8d 9c 1e be d7 5c 	addr32 lea 0xffffffff895cd7be(%esi,%ebx,1),%ebx
    b238:	89 
    b239:	c1 c3 16             	rol    $0x16,%ebx
    b23c:	01 cb                	add    %ecx,%ebx
    b23e:	89 ce                	mov    %ecx,%esi
    b240:	05 ef be 00 00       	add    $0xbeef,%eax
    b245:	31 d6                	xor    %edx,%esi
    b247:	21 de                	and    %ebx,%esi
    b249:	31 d6                	xor    %edx,%esi
    b24b:	67 8d 84 06 22 11 90 	addr32 lea 0x6b901122(%esi,%eax,1),%eax
    b252:	6b 
    b253:	c1 c0 07             	rol    $0x7,%eax
    b256:	01 d8                	add    %ebx,%eax
    b258:	89 de                	mov    %ebx,%esi
    b25a:	81 c2 ef be 00 00    	add    $0xbeef,%edx
    b260:	31 ce                	xor    %ecx,%esi
    b262:	21 c6                	and    %eax,%esi
    b264:	31 ce                	xor    %ecx,%esi
    b266:	67 8d 94 16 93 71 98 	addr32 lea 0xfffffffffd987193(%esi,%edx,1),%edx
    b26d:	fd 
    b26e:	c1 c2 0c             	rol    $0xc,%edx
    b271:	01 c2                	add    %eax,%edx
    b273:	89 c6                	mov    %eax,%esi
    b275:	81 c1 ef be 00 00    	add    $0xbeef,%ecx
    b27b:	31 de                	xor    %ebx,%esi
    b27d:	21 d6                	and    %edx,%esi
    b27f:	31 de                	xor    %ebx,%esi
    b281:	67 8d 8c 0e 8e 43 79 	addr32 lea 0xffffffffa679438e(%esi,%ecx,1),%ecx
    b288:	a6 
    b289:	c1 c1 11             	rol    $0x11,%ecx
    b28c:	01 d1                	add    %edx,%ecx
    b28e:	89 d6                	mov    %edx,%esi
    b290:	81 c3 ef be 00 00    	add    $0xbeef,%ebx
    b296:	31 c6                	xor    %eax,%esi
    b298:	21 ce                	and    %ecx,%esi
    b29a:	31 c6                	xor    %eax,%esi
    b29c:	67 8d 9c 1e 21 08 b4 	addr32 lea 0x49b40821(%esi,%ebx,1),%ebx
    b2a3:	49 
    b2a4:	c1 c3 16             	rol    $0x16,%ebx
    b2a7:	01 cb                	add    %ecx,%ebx
    b2a9:	89 d6                	mov    %edx,%esi
    b2ab:	89 d7                	mov    %edx,%edi
    b2ad:	05 ef be 00 00       	add    $0xbeef,%eax
    b2b2:	f7 d6                	not    %esi
    b2b4:	21 df                	and    %ebx,%edi
    b2b6:	21 ce                	and    %ecx,%esi
    b2b8:	09 fe                	or     %edi,%esi
    b2ba:	67 8d 84 06 62 25 1e 	addr32 lea 0xfffffffff61e2562(%esi,%eax,1),%eax
    b2c1:	f6 
    b2c2:	c1 c0 05             	rol    $0x5,%eax
    b2c5:	01 d8                	add    %ebx,%eax
    b2c7:	89 ce                	mov    %ecx,%esi
    b2c9:	89 cf                	mov    %ecx,%edi
    b2cb:	81 c2 ef be 00 00    	add    $0xbeef,%edx
    b2d1:	f7 d6                	not    %esi
    b2d3:	21 c7                	and    %eax,%edi
    b2d5:	21 de                	and    %ebx,%esi
    b2d7:	09 fe                	or     %edi,%esi
    b2d9:	67 8d 94 16 40 b3 40 	addr32 lea 0xffffffffc040b340(%esi,%edx,1),%edx
    b2e0:	c0 
    b2e1:	c1 c2 09             	rol    $0x9,%edx
    b2e4:	01 c2                	add    %eax,%edx
    b2e6:	89 de                	mov    %ebx,%esi
    b2e8:	89 df                	mov    %ebx,%edi
    b2ea:	81 c1 ef be 00 00    	add    $0xbeef,%ecx
    b2f0:	f7 d6                	not    %esi
    b2f2:	21 d7                	and    %edx,%edi
    b2f4:	21 c6                	and    %eax,%esi
    b2f6:	09 fe                	or     %edi,%esi
    b2f8:	67 8d 8c 0e 51 5a 5e 	addr32 lea 0x265e5a51(%esi,%ecx,1),%ecx
    b2ff:	26 
    b300:	c1 c1 0e             	rol    $0xe,%ecx
    b303:	01 d1                	add    %edx,%ecx
    b305:	89 c6                	mov    %eax,%esi
    b307:	89 c7                	mov    %eax,%edi
    b309:	81 c3 ef be 00 00    	add    $0xbeef,%ebx
    b30f:	f7 d6                	not    %esi
    b311:	21 cf                	and    %ecx,%edi
    b313:	21 d6                	and    %edx,%esi
    b315:	09 fe                	or     %edi,%esi
    b317:	67 8d 9c 1e aa c7 b6 	addr32 lea 0xffffffffe9b6c7aa(%esi,%ebx,1),%ebx
    b31e:	e9 
    b31f:	c1 c3 14             	rol    $0x14,%ebx
    b322:	01 cb                	add    %ecx,%ebx
    b324:	89 d6                	mov    %edx,%esi
    b326:	89 d7                	mov    %edx,%edi
    b328:	05 ef be 00 00       	add    $0xbeef,%eax
    b32d:	f7 d6                	not    %esi
    b32f:	21 df                	and    %ebx,%edi
    b331:	21 ce                	and    %ecx,%esi
    b333:	09 fe                	or     %edi,%esi
    b335:	67 8d 84 06 5d 10 2f 	addr32 lea 0xffffffffd62f105d(%esi,%eax,1),%eax
    b33c:	d6 
    b33d:	c1 c0 05             	rol    $0x5,%eax
    b340:	01 d8                	add    %ebx,%eax
    b342:	89 ce                	mov    %ecx,%esi
    b344:	89 cf                	mov    %ecx,%edi
    b346:	81 c2 ef be 00 00    	add    $0xbeef,%edx
    b34c:	f7 d6                	not    %esi
    b34e:	21 c7                	and    %eax,%edi
    b350:	21 de                	and    %ebx,%esi
    b352:	09 fe                	or     %edi,%esi
    b354:	67 8d 94 16 53 14 44 	addr32 lea 0x2441453(%esi,%edx,1),%edx
    b35b:	02 
    b35c:	c1 c2 09             	rol    $0x9,%edx
    b35f:	01 c2                	add    %eax,%edx
    b361:	89 de                	mov    %ebx,%esi
    b363:	89 df                	mov    %ebx,%edi
    b365:	81 c1 ef be 00 00    	add    $0xbeef,%ecx
    b36b:	f7 d6                	not    %esi
    b36d:	21 d7                	and    %edx,%edi
    b36f:	21 c6                	and    %eax,%esi
    b371:	09 fe                	or     %edi,%esi
    b373:	67 8d 8c 0e 81 e6 a1 	addr32 lea 0xffffffffd8a1e681(%esi,%ecx,1),%ecx
    b37a:	d8 
    b37b:	c1 c1 0e             	rol    $0xe,%ecx
    b37e:	01 d1                	add    %edx,%ecx
    b380:	89 c6                	mov    %eax,%esi
    b382:	89 c7                	mov    %eax,%edi
    b384:	81 c3 ef be 00 00    	add    $0xbeef,%ebx
    b38a:	f7 d6                	not    %esi
    b38c:	21 cf                	and    %ecx,%edi
    b38e:	21 d6                	and    %edx,%esi
    b390:	09 fe                	or     %edi,%esi
    b392:	67 8d 9c 1e c8 fb d3 	addr32 lea 0xffffffffe7d3fbc8(%esi,%ebx,1),%ebx
    b399:	e7 
    b39a:	c1 c3 14             	rol    $0x14,%ebx
    b39d:	01 cb                	add    %ecx,%ebx
    b39f:	89 d6                	mov    %edx,%esi
    b3a1:	89 d7                	mov    %edx,%edi
    b3a3:	05 ef be 00 00       	add    $0xbeef,%eax
    b3a8:	f7 d6                	not    %esi
    b3aa:	21 df                	and    %ebx,%edi
    b3ac:	21 ce                	and    %ecx,%esi
    b3ae:	09 fe                	or     %edi,%esi
    b3b0:	67 8d 84 06 e6 cd e1 	addr32 lea 0x21e1cde6(%esi,%eax,1),%eax
    b3b7:	21 
    b3b8:	c1 c0 05             	rol    $0x5,%eax
    b3bb:	01 d8                	add    %ebx,%eax
    b3bd:	89 ce                	mov    %ecx,%esi
    b3bf:	89 cf                	mov    %ecx,%edi
    b3c1:	81 c2 ef be 00 00    	add    $0xbeef,%edx
    b3c7:	f7 d6                	not    %esi
    b3c9:	21 c7                	and    %eax,%edi
    b3cb:	21 de                	and    %ebx,%esi
    b3cd:	09 fe                	or     %edi,%esi
    b3cf:	67 8d 94 16 d6 07 37 	addr32 lea 0xffffffffc33707d6(%esi,%edx,1),%edx
    b3d6:	c3 
    b3d7:	c1 c2 09             	rol    $0x9,%edx
    b3da:	01 c2                	add    %eax,%edx
    b3dc:	89 de                	mov    %ebx,%esi
    b3de:	89 df                	mov    %ebx,%edi
    b3e0:	81 c1 ef be 00 00    	add    $0xbeef,%ecx
    b3e6:	f7 d6                	not    %esi
    b3e8:	21 d7                	and    %edx,%edi
    b3ea:	21 c6                	and    %eax,%esi
    b3ec:	09 fe                	or     %edi,%esi
    b3ee:	67 8d 8c 0e 87 0d d5 	addr32 lea 0xfffffffff4d50d87(%esi,%ecx,1),%ecx
    b3f5:	f4 
    b3f6:	c1 c1 0e             	rol    $0xe,%ecx
    b3f9:	01 d1                	add    %edx,%ecx
    b3fb:	89 c6                	mov    %eax,%esi
    b3fd:	89 c7                	mov    %eax,%edi
    b3ff:	81 c3 ef be 00 00    	add    $0xbeef,%ebx
    b405:	f7 d6                	not    %esi
    b407:	21 cf                	and    %ecx,%edi
    b409:	21 d6                	and    %edx,%esi
    b40b:	09 fe                	or     %edi,%esi
    b40d:	67 8d 9c 1e ed 14 5a 	addr32 lea 0x455a14ed(%esi,%ebx,1),%ebx
    b414:	45 
    b415:	c1 c3 14             	rol    $0x14,%ebx
    b418:	01 cb                	add    %ecx,%ebx
    b41a:	89 d6                	mov    %edx,%esi
    b41c:	89 d7                	mov    %edx,%edi
    b41e:	05 ef be 00 00       	add    $0xbeef,%eax
    b423:	f7 d6                	not    %esi
    b425:	21 df                	and    %ebx,%edi
    b427:	21 ce                	and    %ecx,%esi
    b429:	09 fe                	or     %edi,%esi
    b42b:	67 8d 84 06 05 e9 e3 	addr32 lea 0xffffffffa9e3e905(%esi,%eax,1),%eax
    b432:	a9 
    b433:	c1 c0 05             	rol    $0x5,%eax
    b436:	01 d8                	add    %ebx,%eax
    b438:	89 ce                	mov    %ecx,%esi
    b43a:	89 cf                	mov    %ecx,%edi
    b43c:	81 c2 ef be 00 00    	add    $0xbeef,%edx
    b442:	f7 d6                	not    %esi
    b444:	21 c7                	and    %eax,%edi
    b446:	21 de                	and    %ebx,%esi
    b448:	09 fe                	or     %edi,%esi
    b44a:	67 8d 94 16 f8 a3 ef 	addr32 lea 0xfffffffffcefa3f8(%esi,%edx,1),%edx
    b451:	fc 
    b452:	c1 c2 09             	rol    $0x9,%edx
    b455:	01 c2                	add    %eax,%edx
    b457:	89 de                	mov    %ebx,%esi
    b459:	89 df                	mov    %ebx,%edi
    b45b:	81 c1 ef be 00 00    	add    $0xbeef,%ecx
    b461:	f7 d6                	not    %esi
    b463:	21 d7                	and    %edx,%edi
    b465:	21 c6                	and    %eax,%esi
    b467:	09 fe                	or     %edi,%esi
    b469:	67 8d 8c 0e d9 02 6f 	addr32 lea 0x676f02d9(%esi,%ecx,1),%ecx
    b470:	67 
    b471:	c1 c1 0e             	rol    $0xe,%ecx
    b474:	01 d1                	add    %edx,%ecx
    b476:	89 c6                	mov    %eax,%esi
    b478:	89 c7                	mov    %eax,%edi
    b47a:	81 c3 ef be 00 00    	add    $0xbeef,%ebx
    b480:	f7 d6                	not    %esi
    b482:	21 cf                	and    %ecx,%edi
    b484:	21 d6                	and    %edx,%esi
    b486:	09 fe                	or     %edi,%esi
    b488:	67 8d 9c 1e 8a 4c 2a 	addr32 lea 0xffffffff8d2a4c8a(%esi,%ebx,1),%ebx
    b48f:	8d 
    b490:	c1 c3 14             	rol    $0x14,%ebx
    b493:	01 cb                	add    %ecx,%ebx
    b495:	89 ce                	mov    %ecx,%esi
    b497:	05 ef be 00 00       	add    $0xbeef,%eax
    b49c:	31 d6                	xor    %edx,%esi
    b49e:	31 de                	xor    %ebx,%esi
    b4a0:	67 8d 84 06 42 39 fa 	addr32 lea 0xfffffffffffa3942(%esi,%eax,1),%eax
    b4a7:	ff 
    b4a8:	c1 c0 04             	rol    $0x4,%eax
    b4ab:	01 d8                	add    %ebx,%eax
    b4ad:	89 de                	mov    %ebx,%esi
    b4af:	81 c2 ef be 00 00    	add    $0xbeef,%edx
    b4b5:	31 ce                	xor    %ecx,%esi
    b4b7:	31 c6                	xor    %eax,%esi
    b4b9:	67 8d 94 16 81 f6 71 	addr32 lea 0xffffffff8771f681(%esi,%edx,1),%edx
    b4c0:	87 
    b4c1:	c1 c2 0b             	rol    $0xb,%edx
    b4c4:	01 c2                	add    %eax,%edx
    b4c6:	89 c6                	mov    %eax,%esi
    b4c8:	81 c1 ef be 00 00    	add    $0xbeef,%ecx
    b4ce:	31 de                	xor    %ebx,%esi
    b4d0:	31 d6                	xor    %edx,%esi
    b4d2:	67 8d 8c 0e 22 61 9d 	addr32 lea 0x6d9d6122(%esi,%ecx,1),%ecx
    b4d9:	6d 
    b4da:	c1 c1 10             	rol    $0x10,%ecx
    b4dd:	01 d1                	add    %edx,%ecx
    b4df:	89 d6                	mov    %edx,%esi
    b4e1:	81 c3 ef be 00 00    	add    $0xbeef,%ebx
    b4e7:	31 c6                	xor    %eax,%esi
    b4e9:	31 ce                	xor    %ecx,%esi
    b4eb:	67 8d 9c 1e 0c 38 e5 	addr32 lea 0xfffffffffde5380c(%esi,%ebx,1),%ebx
    b4f2:	fd 
    b4f3:	c1 c3 17             	rol    $0x17,%ebx
    b4f6:	01 cb                	add    %ecx,%ebx
    b4f8:	89 ce                	mov    %ecx,%esi
    b4fa:	05 ef be 00 00       	add    $0xbeef,%eax
    b4ff:	31 d6                	xor    %edx,%esi
    b501:	31 de                	xor    %ebx,%esi
    b503:	67 8d 84 06 44 ea be 	addr32 lea 0xffffffffa4beea44(%esi,%eax,1),%eax
    b50a:	a4 
    b50b:	c1 c0 04             	rol    $0x4,%eax
    b50e:	01 d8                	add    %ebx,%eax
    b510:	89 de                	mov    %ebx,%esi
    b512:	81 c2 ef be 00 00    	add    $0xbeef,%edx
    b518:	31 ce                	xor    %ecx,%esi
    b51a:	31 c6                	xor    %eax,%esi
    b51c:	67 8d 94 16 a9 cf de 	addr32 lea 0x4bdecfa9(%esi,%edx,1),%edx
    b523:	4b 
    b524:	c1 c2 0b             	rol    $0xb,%edx
    b527:	01 c2                	add    %eax,%edx
    b529:	89 c6                	mov    %eax,%esi
    b52b:	81 c1 ef be 00 00    	add    $0xbeef,%ecx
    b531:	31 de                	xor    %ebx,%esi
    b533:	31 d6                	xor    %edx,%esi
    b535:	67 8d 8c 0e 60 4b bb 	addr32 lea 0xfffffffff6bb4b60(%esi,%ecx,1),%ecx
    b53c:	f6 
    b53d:	c1 c1 10             	rol    $0x10,%ecx
    b540:	01 d1                	add    %edx,%ecx
    b542:	89 d6                	mov    %edx,%esi
    b544:	81 c3 ef be 00 00    	add    $0xbeef,%ebx
    b54a:	31 c6                	xor    %eax,%esi
    b54c:	31 ce                	xor    %ecx,%esi
    b54e:	67 8d 9c 1e 70 bc bf 	addr32 lea 0xffffffffbebfbc70(%esi,%ebx,1),%ebx
    b555:	be 
    b556:	c1 c3 17             	rol    $0x17,%ebx
    b559:	01 cb                	add    %ecx,%ebx
    b55b:	89 ce                	mov    %ecx,%esi
    b55d:	05 ef be 00 00       	add    $0xbeef,%eax
    b562:	31 d6                	xor    %edx,%esi
    b564:	31 de                	xor    %ebx,%esi
    b566:	67 8d 84 06 c6 7e 9b 	addr32 lea 0x289b7ec6(%esi,%eax,1),%eax
    b56d:	28 
    b56e:	c1 c0 04             	rol    $0x4,%eax
    b571:	01 d8                	add    %ebx,%eax
    b573:	89 de                	mov    %ebx,%esi
    b575:	81 c2 ef be 00 00    	add    $0xbeef,%edx
    b57b:	31 ce                	xor    %ecx,%esi
    b57d:	31 c6                	xor    %eax,%esi
    b57f:	67 8d 94 16 fa 27 a1 	addr32 lea 0xffffffffeaa127fa(%esi,%edx,1),%edx
    b586:	ea 
    b587:	c1 c2 0b             	rol    $0xb,%edx
    b58a:	01 c2                	add    %eax,%edx
    b58c:	89 c6                	mov    %eax,%esi
    b58e:	81 c1 ef be 00 00    	add    $0xbeef,%ecx
    b594:	31 de                	xor    %ebx,%esi
    b596:	31 d6                	xor    %edx,%esi
    b598:	67 8d 8c 0e 85 30 ef 	addr32 lea 0xffffffffd4ef3085(%esi,%ecx,1),%ecx
    b59f:	d4 
    b5a0:	c1 c1 10             	rol    $0x10,%ecx
    b5a3:	01 d1                	add    %edx,%ecx
    b5a5:	89 d6                	mov    %edx,%esi
    b5a7:	81 c3 ef be 00 00    	add    $0xbeef,%ebx
    b5ad:	31 c6                	xor    %eax,%esi
    b5af:	31 ce                	xor    %ecx,%esi
    b5b1:	67 8d 9c 1e 05 1d 88 	addr32 lea 0x4881d05(%esi,%ebx,1),%ebx
    b5b8:	04 
    b5b9:	c1 c3 17             	rol    $0x17,%ebx
    b5bc:	01 cb                	add    %ecx,%ebx
    b5be:	89 ce                	mov    %ecx,%esi
    b5c0:	05 ef be 00 00       	add    $0xbeef,%eax
    b5c5:	31 d6                	xor    %edx,%esi
    b5c7:	31 de                	xor    %ebx,%esi
    b5c9:	67 8d 84 06 39 d0 d4 	addr32 lea 0xffffffffd9d4d039(%esi,%eax,1),%eax
    b5d0:	d9 
    b5d1:	c1 c0 04             	rol    $0x4,%eax
    b5d4:	01 d8                	add    %ebx,%eax
    b5d6:	89 de                	mov    %ebx,%esi
    b5d8:	81 c2 ef be 00 00    	add    $0xbeef,%edx
    b5de:	31 ce                	xor    %ecx,%esi
    b5e0:	31 c6                	xor    %eax,%esi
    b5e2:	67 8d 94 16 e5 99 db 	addr32 lea 0xffffffffe6db99e5(%esi,%edx,1),%edx
    b5e9:	e6 
    b5ea:	c1 c2 0b             	rol    $0xb,%edx
    b5ed:	01 c2                	add    %eax,%edx
    b5ef:	89 c6                	mov    %eax,%esi
    b5f1:	81 c1 ef be 00 00    	add    $0xbeef,%ecx
    b5f7:	31 de                	xor    %ebx,%esi
    b5f9:	31 d6                	xor    %edx,%esi
    b5fb:	67 8d 8c 0e f8 7c a2 	addr32 lea 0x1fa27cf8(%esi,%ecx,1),%ecx
    b602:	1f 
    b603:	c1 c1 10             	rol    $0x10,%ecx
    b606:	01 d1                	add    %edx,%ecx
    b608:	89 d6                	mov    %edx,%esi
    b60a:	81 c3 ef be 00 00    	add    $0xbeef,%ebx
    b610:	31 c6                	xor    %eax,%esi
    b612:	31 ce                	xor    %ecx,%esi
    b614:	67 8d 9c 1e 65 56 ac 	addr32 lea 0xffffffffc4ac5665(%esi,%ebx,1),%ebx
    b61b:	c4 
    b61c:	c1 c3 17             	rol    $0x17,%ebx
    b61f:	01 cb                	add    %ecx,%ebx
    b621:	89 d6                	mov    %edx,%esi
    b623:	f7 d6                	not    %esi
    b625:	05 ef be 00 00       	add    $0xbeef,%eax
    b62a:	09 de                	or     %ebx,%esi
    b62c:	31 ce                	xor    %ecx,%esi
    b62e:	67 8d 84 06 44 22 29 	addr32 lea 0xfffffffff4292244(%esi,%eax,1),%eax
    b635:	f4 
    b636:	c1 c0 06             	rol    $0x6,%eax
    b639:	01 d8                	add    %ebx,%eax
    b63b:	89 ce                	mov    %ecx,%esi
    b63d:	f7 d6                	not    %esi
    b63f:	81 c2 ef be 00 00    	add    $0xbeef,%edx
    b645:	09 c6                	or     %eax,%esi
    b647:	31 de                	xor    %ebx,%esi
    b649:	67 8d 94 16 97 ff 2a 	addr32 lea 0x432aff97(%esi,%edx,1),%edx
    b650:	43 
    b651:	c1 c2 0a             	rol    $0xa,%edx
    b654:	01 c2                	add    %eax,%edx
    b656:	89 de                	mov    %ebx,%esi
    b658:	f7 d6                	not    %esi
    b65a:	81 c1 ef be 00 00    	add    $0xbeef,%ecx
    b660:	09 d6                	or     %edx,%esi
    b662:	31 c6                	xor    %eax,%esi
    b664:	67 8d 8c 0e a7 23 94 	addr32 lea 0xffffffffab9423a7(%esi,%ecx,1),%ecx
    b66b:	ab 
    b66c:	c1 c1 0f             	rol    $0xf,%ecx
    b66f:	01 d1                	add    %edx,%ecx
    b671:	89 c6                	mov    %eax,%esi
    b673:	f7 d6                	not    %esi
    b675:	81 c3 ef be 00 00    	add    $0xbeef,%ebx
    b67b:	09 ce                	or     %ecx,%esi
    b67d:	31 d6                	xor    %edx,%esi
    b67f:	67 8d 9c 1e 39 a0 93 	addr32 lea 0xfffffffffc93a039(%esi,%ebx,1),%ebx
    b686:	fc 
    b687:	c1 c3 15             	rol    $0x15,%ebx
    b68a:	01 cb                	add    %ecx,%ebx
    b68c:	89 d6                	mov    %edx,%esi
    b68e:	f7 d6                	not    %esi
    b690:	05 ef be 00 00       	add    $0xbeef,%eax
    b695:	09 de                	or     %ebx,%esi
    b697:	31 ce                	xor    %ecx,%esi
    b699:	67 8d 84 06 c3 59 5b 	addr32 lea 0x655b59c3(%esi,%eax,1),%eax
    b6a0:	65 
    b6a1:	c1 c0 06             	rol    $0x6,%eax
    b6a4:	01 d8                	add    %ebx,%eax
    b6a6:	89 ce                	mov    %ecx,%esi
    b6a8:	f7 d6                	not    %esi
    b6aa:	81 c2 ef be 00 00    	add    $0xbeef,%edx
    b6b0:	09 c6                	or     %eax,%esi
    b6b2:	31 de                	xor    %ebx,%esi
    b6b4:	67 8d 94 16 92 cc 0c 	addr32 lea 0xffffffff8f0ccc92(%esi,%edx,1),%edx
    b6bb:	8f 
    b6bc:	c1 c2 0a             	rol    $0xa,%edx
    b6bf:	01 c2                	add    %eax,%edx
    b6c1:	89 de                	mov    %ebx,%esi
    b6c3:	f7 d6                	not    %esi
    b6c5:	81 c1 ef be 00 00    	add    $0xbeef,%ecx
    b6cb:	09 d6                	or     %edx,%esi
    b6cd:	31 c6                	xor    %eax,%esi
    b6cf:	67 8d 8c 0e 7d f4 ef 	addr32 lea 0xffffffffffeff47d(%esi,%ecx,1),%ecx
    b6d6:	ff 
    b6d7:	c1 c1 0f             	rol    $0xf,%ecx
    b6da:	01 d1                	add    %edx,%ecx
    b6dc:	89 c6                	mov    %eax,%esi
    b6de:	f7 d6                	not    %esi
    b6e0:	81 c3 ef be 00 00    	add    $0xbeef,%ebx
    b6e6:	09 ce                	or     %ecx,%esi
    b6e8:	31 d6                	xor    %edx,%esi
    b6ea:	67 8d 9c 1e d1 5d 84 	addr32 lea 0xffffffff85845dd1(%esi,%ebx,1),%ebx
    b6f1:	85 
    b6f2:	c1 c3 15             	rol    $0x15,%ebx
    b6f5:	01 cb                	add    %ecx,%ebx
    b6f7:	89 d6                	mov    %edx,%esi
    b6f9:	f7 d6                	not    %esi
    b6fb:	05 ef be 00 00       	add    $0xbeef,%eax
    b700:	09 de                	or     %ebx,%esi
    b702:	31 ce                	xor    %ecx,%esi
    b704:	67 8d 84 06 4f 7e a8 	addr32 lea 0x6fa87e4f(%esi,%eax,1),%eax
    b70b:	6f 
    b70c:	c1 c0 06             	rol    $0x6,%eax
    b70f:	01 d8                	add    %ebx,%eax
    b711:	89 ce                	mov    %ecx,%esi
    b713:	f7 d6                	not    %esi
    b715:	81 c2 ef be 00 00    	add    $0xbeef,%edx
    b71b:	09 c6                	or     %eax,%esi
    b71d:	31 de                	xor    %ebx,%esi
    b71f:	67 8d 94 16 e0 e6 2c 	addr32 lea 0xfffffffffe2ce6e0(%esi,%edx,1),%edx
    b726:	fe 
    b727:	c1 c2 0a             	rol    $0xa,%edx
    b72a:	01 c2                	add    %eax,%edx
    b72c:	89 de                	mov    %ebx,%esi
    b72e:	f7 d6                	not    %esi
    b730:	81 c1 ef be 00 00    	add    $0xbeef,%ecx
    b736:	09 d6                	or     %edx,%esi
    b738:	31 c6                	xor    %eax,%esi
    b73a:	67 8d 8c 0e 14 43 01 	addr32 lea 0xffffffffa3014314(%esi,%ecx,1),%ecx
    b741:	a3 
    b742:	c1 c1 0f             	rol    $0xf,%ecx
    b745:	01 d1                	add    %edx,%ecx
    b747:	89 c6                	mov    %eax,%esi
    b749:	f7 d6                	not    %esi
    b74b:	81 c3 ef be 00 00    	add    $0xbeef,%ebx
    b751:	09 ce                	or     %ecx,%esi
    b753:	31 d6                	xor    %edx,%esi
    b755:	67 8d 9c 1e a1 11 08 	addr32 lea 0x4e0811a1(%esi,%ebx,1),%ebx
    b75c:	4e 
    b75d:	c1 c3 15             	rol    $0x15,%ebx
    b760:	01 cb                	add    %ecx,%ebx
    b762:	89 d6                	mov    %edx,%esi
    b764:	f7 d6                	not    %esi
    b766:	05 ef be 00 00       	add    $0xbeef,%eax
    b76b:	09 de                	or     %ebx,%esi
    b76d:	31 ce                	xor    %ecx,%esi
    b76f:	67 8d 84 06 82 7e 53 	addr32 lea 0xfffffffff7537e82(%esi,%eax,1),%eax
    b776:	f7 
    b777:	c1 c0 06             	rol    $0x6,%eax
    b77a:	01 d8                	add    %ebx,%eax
    b77c:	89 ce                	mov    %ecx,%esi
    b77e:	f7 d6                	not    %esi
    b780:	81 c2 ef be 00 00    	add    $0xbeef,%edx
    b786:	09 c6                	or     %eax,%esi
    b788:	31 de                	xor    %ebx,%esi
    b78a:	67 8d 94 16 35 f2 3a 	addr32 lea 0xffffffffbd3af235(%esi,%edx,1),%edx
    b791:	bd 
    b792:	c1 c2 0a             	rol    $0xa,%edx
    b795:	01 c2                	add    %eax,%edx
    b797:	89 de                	mov    %ebx,%esi
    b799:	f7 d6                	not    %esi
    b79b:	81 c1 ef be 00 00    	add    $0xbeef,%ecx
    b7a1:	09 d6                	or     %edx,%esi
    b7a3:	31 c6                	xor    %eax,%esi
    b7a5:	67 8d 8c 0e bb d2 d7 	addr32 lea 0x2ad7d2bb(%esi,%ecx,1),%ecx
    b7ac:	2a 
    b7ad:	c1 c1 0f             	rol    $0xf,%ecx
    b7b0:	01 d1                	add    %edx,%ecx
    b7b2:	89 c6                	mov    %eax,%esi
    b7b4:	f7 d6                	not    %esi
    b7b6:	81 c3 ef be 00 00    	add    $0xbeef,%ebx
    b7bc:	09 ce                	or     %ecx,%esi
    b7be:	31 d6                	xor    %edx,%esi
    b7c0:	67 8d 9c 1e 91 d3 86 	addr32 lea 0xffffffffeb86d391(%esi,%ebx,1),%ebx
    b7c7:	eb 
    b7c8:	c1 c3 15             	rol    $0x15,%ebx
    b7cb:	01 cb                	add    %ecx,%ebx
    b7cd:	49 ff cb             	dec    %r11
    b7d0:	49 83 fb 00          	cmp    $0x0,%r11
    b7d4:	0f 85 23 f9 ff ff    	jne    b0fd <main+0x41>
    b7da:	3d 08 f2 42 78       	cmp    $0x7842f208,%eax
    b7df:	75 36                	jne    b817 <main+0x75b>
    b7e1:	81 fb 7d 03 d0 82    	cmp    $0x82d0037d,%ebx
    b7e7:	75 2e                	jne    b817 <main+0x75b>
    b7e9:	81 f9 67 c4 c6 4b    	cmp    $0x4bc6c467,%ecx
    b7ef:	75 26                	jne    b817 <main+0x75b>
    b7f1:	81 fa f8 1a e0 20    	cmp    $0x20e01af8,%edx
    b7f7:	75 1e                	jne    b817 <main+0x75b>
    b7f9:	48 31 c0             	xor    %rax,%rax
    b7fc:	4c 01 f0             	add    %r14,%rax
    b7ff:	48 c1 e0 02          	shl    $0x2,%rax
    b803:	66 ba f8 03          	mov    $0x3f8,%dx
    b807:	ee                   	out    %al,(%dx)
    b808:	49 ff cc             	dec    %r12
    b80b:	49 83 fc 00          	cmp    $0x0,%r12
    b80f:	0f 85 d5 f8 ff ff    	jne    b0ea <main+0x2e>
    b815:	eb 1b                	jmp    b832 <main+0x776>
    b817:	48 31 c0             	xor    %rax,%rax
    b81a:	4c 01 f0             	add    %r14,%rax
    b81d:	48 c1 e8 0a          	shr    $0xa,%rax
    b821:	48 31 db             	xor    %rbx,%rbx
    b824:	48 83 c3 01          	add    $0x1,%rbx
    b828:	48 09 d8             	or     %rbx,%rax
    b82b:	66 ba f8 03          	mov    $0x3f8,%dx
    b82f:	ee                   	out    %al,(%dx)
    b830:	eb 00                	jmp    b832 <main+0x776>
    b832:	eb fe                	jmp    b832 <main+0x776>
    b834:	43 6f                	rex.XB outsl  %ds:(%rsi),(%dx)
    b836:	72 72                	jb     b8aa <main+0x7ee>
    b838:	65 63 74 0a 00       	movslq %gs:0x0(%rdx,%rcx,1),%esi
    b83d:	49 6e                	rex.WB outsb  %ds:(%rsi),(%dx)
    b83f:	63 6f 72             	movslq 0x72(%rdi),%ebp
    b842:	72 65                	jb     b8a9 <main+0x7ed>
    b844:	63 74 3a 20          	movslq 0x20(%rdx,%rdi,1),%esi
    b848:	45                   	rex.RB
    b849:	41 58                	pop    %r8
    b84b:	20 6d 69             	and    %ch,0x69(%rbp)
    b84e:	73 6d                	jae    b8bd <__libc_csu_fini+0xd>
    b850:	61                   	(bad)  
    b851:	74 63                	je     b8b6 <__libc_csu_fini+0x6>
    b853:	68 0a 00 49 6e       	pushq  $0x6e49000a
    b858:	63 6f 72             	movslq 0x72(%rdi),%ebp
    b85b:	72 65                	jb     b8c2 <__libc_csu_init+0x2>
    b85d:	63 74 3a 20          	movslq 0x20(%rdx,%rdi,1),%esi
    b861:	45                   	rex.RB
    b862:	42 58                	rex.X pop    %rax
    b864:	20 6d 69             	and    %ch,0x69(%rbp)
    b867:	73 6d                	jae    b8d6 <__libc_csu_init+0x16>
    b869:	61                   	(bad)  
    b86a:	74 63                	je     b8cf <__libc_csu_init+0xf>
    b86c:	68 0a 00 49 6e       	pushq  $0x6e49000a
    b871:	63 6f 72             	movslq 0x72(%rdi),%ebp
    b874:	72 65                	jb     b8db <__libc_csu_init+0x1b>
    b876:	63 74 3a 20          	movslq 0x20(%rdx,%rdi,1),%esi
    b87a:	45                   	rex.RB
    b87b:	43 58                	rex.XB pop    %r8
    b87d:	20 6d 69             	and    %ch,0x69(%rbp)
    b880:	73 6d                	jae    b8ef <__libc_csu_init+0x2f>
    b882:	61                   	(bad)  
    b883:	74 63                	je     b8e8 <__libc_csu_init+0x28>
    b885:	68 0a 00 49 6e       	pushq  $0x6e49000a
    b88a:	63 6f 72             	movslq 0x72(%rdi),%ebp
    b88d:	72 65                	jb     b8f4 <__libc_csu_init+0x34>
    b88f:	63 74 3a 20          	movslq 0x20(%rdx,%rdi,1),%esi
    b893:	45                   	rex.RB
    b894:	44 58                	rex.R pop    %rax
    b896:	20 6d 69             	and    %ch,0x69(%rbp)
    b899:	73 6d                	jae    b908 <__libc_csu_init+0x48>
    b89b:	61                   	(bad)  
    b89c:	74 63                	je     b901 <__libc_csu_init+0x41>
    b89e:	68 0a 00 44 6f       	pushq  $0x6f44000a
    b8a3:	6e                   	outsb  %ds:(%rsi),(%dx)
    b8a4:	65 0a 00             	or     %gs:(%rax),%al
    b8a7:	90                   	nop    
    b8a8:	90                   	nop    
    b8a9:	90                   	nop    
    b8aa:	90                   	nop    
    b8ab:	90                   	nop    
    b8ac:	90                   	nop    
    b8ad:	90                   	nop    
    b8ae:	90                   	nop    
    b8af:	90                   	nop    

000000000000b8b0 <__libc_csu_fini>:
    b8b0:	f3 c3                	repz retq 
    b8b2:	66 66 66 90          	xchg   %ax,%ax
    b8b6:	66 66 66 90          	xchg   %ax,%ax
    b8ba:	66 66 90             	xchg   %ax,%ax
    b8bd:	66 66 90             	xchg   %ax,%ax

000000000000b8c0 <__libc_csu_init>:
    b8c0:	4c 89 64 24 e0       	mov    %r12,0xffffffffffffffe0(%rsp)
    b8c5:	4c 89 6c 24 e8       	mov    %r13,0xffffffffffffffe8(%rsp)
    b8ca:	4c 8d 25 ff 02 10 00 	lea    1049343(%rip),%r12        # 10bbd0 <_IO_stdin_used+0x100230>
    b8d1:	4c 89 74 24 f0       	mov    %r14,0xfffffffffffffff0(%rsp)
    b8d6:	4c 89 7c 24 f8       	mov    %r15,0xfffffffffffffff8(%rsp)
    b8db:	49 89 f6             	mov    %rsi,%r14
    b8de:	48 89 5c 24 d0       	mov    %rbx,0xffffffffffffffd0(%rsp)
    b8e3:	48 89 6c 24 d8       	mov    %rbp,0xffffffffffffffd8(%rsp)
    b8e8:	48 83 ec 38          	sub    $0x38,%rsp
    b8ec:	41 89 ff             	mov    %edi,%r15d
    b8ef:	49 89 d5             	mov    %rdx,%r13
    b8f2:	e8 d1 f6 ff ff       	callq  afc8 <__libc_start_main@plt+0x9de0>
    b8f7:	48 8d 05 d2 02 10 00 	lea    1049298(%rip),%rax        # 10bbd0 <_IO_stdin_used+0x100230>
    b8fe:	49 29 c4             	sub    %rax,%r12
    b901:	49 c1 fc 03          	sar    $0x3,%r12
    b905:	4d 85 e4             	test   %r12,%r12
    b908:	74 1e                	je     b928 <__libc_csu_init+0x68>
    b90a:	31 ed                	xor    %ebp,%ebp
    b90c:	48 89 c3             	mov    %rax,%rbx
    b90f:	90                   	nop    
    b910:	48 83 c5 01          	add    $0x1,%rbp
    b914:	4c 89 ea             	mov    %r13,%rdx
    b917:	4c 89 f6             	mov    %r14,%rsi
    b91a:	44 89 ff             	mov    %r15d,%edi
    b91d:	ff 13                	callq  *(%rbx)
    b91f:	48 83 c3 08          	add    $0x8,%rbx
    b923:	49 39 ec             	cmp    %rbp,%r12
    b926:	75 e8                	jne    b910 <__libc_csu_init+0x50>
    b928:	48 8b 5c 24 08       	mov    0x8(%rsp),%rbx
    b92d:	48 8b 6c 24 10       	mov    0x10(%rsp),%rbp
    b932:	4c 8b 64 24 18       	mov    0x18(%rsp),%r12
    b937:	4c 8b 6c 24 20       	mov    0x20(%rsp),%r13
    b93c:	4c 8b 74 24 28       	mov    0x28(%rsp),%r14
    b941:	4c 8b 7c 24 30       	mov    0x30(%rsp),%r15
    b946:	48 83 c4 38          	add    $0x38,%rsp
    b94a:	c3                   	retq   
    b94b:	90                   	nop    
    b94c:	90                   	nop    
    b94d:	90                   	nop    
    b94e:	90                   	nop    
    b94f:	90                   	nop    
    b950:	55                   	push   %rbp
    b951:	48 89 e5             	mov    %rsp,%rbp
    b954:	53                   	push   %rbx
    b955:	48 83 ec 08          	sub    $0x8,%rsp
    b959:	48 8b 05 70 02 10 00 	mov    1049200(%rip),%rax        # 10bbd0 <_IO_stdin_used+0x100230>
    b960:	48 83 f8 ff          	cmp    $0xffffffffffffffff,%rax
    b964:	74 1a                	je     b980 <__libc_csu_init+0xc0>
    b966:	48 8d 1d 63 02 10 00 	lea    1049187(%rip),%rbx        # 10bbd0 <_IO_stdin_used+0x100230>
    b96d:	66 66 90             	xchg   %ax,%ax
    b970:	ff d0                	callq  *%rax
    b972:	48 8b 43 f8          	mov    0xfffffffffffffff8(%rbx),%rax
    b976:	48 83 eb 08          	sub    $0x8,%rbx
    b97a:	48 83 f8 ff          	cmp    $0xffffffffffffffff,%rax
    b97e:	75 f0                	jne    b970 <__libc_csu_init+0xb0>
    b980:	48 83 c4 08          	add    $0x8,%rsp
    b984:	5b                   	pop    %rbx
    b985:	c9                   	leaveq 
    b986:	c3                   	retq   
    b987:	90                   	nop    
