
md5test:     file format elf64-x86-64

Disassembly of section .init:

0000000000400810 <_init>:
  400810:	48 83 ec 08          	sub    $0x8,%rsp
  400814:	e8 43 01 00 00       	callq  40095c <call_gmon_start>
  400819:	e8 a2 01 00 00       	callq  4009c0 <frame_dummy>
  40081e:	e8 ed 80 00 00       	callq  408910 <__do_global_ctors_aux>
  400823:	48 83 c4 08          	add    $0x8,%rsp
  400827:	c3                   	retq   
Disassembly of section .plt:

0000000000400828 <__libc_start_main@plt-0x10>:
  400828:	ff 35 6a a0 10 00    	pushq  1089642(%rip)        # 50a898 <_GLOBAL_OFFSET_TABLE_+0x8>
  40082e:	ff 25 6c a0 10 00    	jmpq   *1089644(%rip)        # 50a8a0 <_GLOBAL_OFFSET_TABLE_+0x10>
  400834:	90                   	nop    
  400835:	90                   	nop    
  400836:	90                   	nop    
  400837:	90                   	nop    

0000000000400838 <__libc_start_main@plt>:
  400838:	ff 25 6a a0 10 00    	jmpq   *1089642(%rip)        # 50a8a8 <_GLOBAL_OFFSET_TABLE_+0x18>
  40083e:	68 00 00 00 00       	pushq  $0x0
  400843:	e9 e0 ff ff ff       	jmpq   400828 <_init+0x18>

0000000000400848 <catgets@plt>:
  400848:	ff 25 62 a0 10 00    	jmpq   *1089634(%rip)        # 50a8b0 <_GLOBAL_OFFSET_TABLE_+0x20>
  40084e:	68 01 00 00 00       	pushq  $0x1
  400853:	e9 d0 ff ff ff       	jmpq   400828 <_init+0x18>

0000000000400858 <vsprintf@plt>:
  400858:	ff 25 5a a0 10 00    	jmpq   *1089626(%rip)        # 50a8b8 <_GLOBAL_OFFSET_TABLE_+0x28>
  40085e:	68 02 00 00 00       	pushq  $0x2
  400863:	e9 c0 ff ff ff       	jmpq   400828 <_init+0x18>

0000000000400868 <getenv@plt>:
  400868:	ff 25 52 a0 10 00    	jmpq   *1089618(%rip)        # 50a8c0 <_GLOBAL_OFFSET_TABLE_+0x30>
  40086e:	68 03 00 00 00       	pushq  $0x3
  400873:	e9 b0 ff ff ff       	jmpq   400828 <_init+0x18>

0000000000400878 <strncpy@plt>:
  400878:	ff 25 4a a0 10 00    	jmpq   *1089610(%rip)        # 50a8c8 <_GLOBAL_OFFSET_TABLE_+0x38>
  40087e:	68 04 00 00 00       	pushq  $0x4
  400883:	e9 a0 ff ff ff       	jmpq   400828 <_init+0x18>

0000000000400888 <clock@plt>:
  400888:	ff 25 42 a0 10 00    	jmpq   *1089602(%rip)        # 50a8d0 <_GLOBAL_OFFSET_TABLE_+0x40>
  40088e:	68 05 00 00 00       	pushq  $0x5
  400893:	e9 90 ff ff ff       	jmpq   400828 <_init+0x18>

0000000000400898 <setenv@plt>:
  400898:	ff 25 3a a0 10 00    	jmpq   *1089594(%rip)        # 50a8d8 <_GLOBAL_OFFSET_TABLE_+0x48>
  40089e:	68 06 00 00 00       	pushq  $0x6
  4008a3:	e9 80 ff ff ff       	jmpq   400828 <_init+0x18>

00000000004008a8 <fprintf@plt>:
  4008a8:	ff 25 32 a0 10 00    	jmpq   *1089586(%rip)        # 50a8e0 <_GLOBAL_OFFSET_TABLE_+0x50>
  4008ae:	68 07 00 00 00       	pushq  $0x7
  4008b3:	e9 70 ff ff ff       	jmpq   400828 <_init+0x18>

00000000004008b8 <memcpy@plt>:
  4008b8:	ff 25 2a a0 10 00    	jmpq   *1089578(%rip)        # 50a8e8 <_GLOBAL_OFFSET_TABLE_+0x58>
  4008be:	68 08 00 00 00       	pushq  $0x8
  4008c3:	e9 60 ff ff ff       	jmpq   400828 <_init+0x18>

00000000004008c8 <strcmp@plt>:
  4008c8:	ff 25 22 a0 10 00    	jmpq   *1089570(%rip)        # 50a8f0 <_GLOBAL_OFFSET_TABLE_+0x60>
  4008ce:	68 09 00 00 00       	pushq  $0x9
  4008d3:	e9 50 ff ff ff       	jmpq   400828 <_init+0x18>

00000000004008d8 <printf@plt>:
  4008d8:	ff 25 1a a0 10 00    	jmpq   *1089562(%rip)        # 50a8f8 <_GLOBAL_OFFSET_TABLE_+0x68>
  4008de:	68 0a 00 00 00       	pushq  $0xa
  4008e3:	e9 40 ff ff ff       	jmpq   400828 <_init+0x18>

00000000004008e8 <catopen@plt>:
  4008e8:	ff 25 12 a0 10 00    	jmpq   *1089554(%rip)        # 50a900 <_GLOBAL_OFFSET_TABLE_+0x70>
  4008ee:	68 0b 00 00 00       	pushq  $0xb
  4008f3:	e9 30 ff ff ff       	jmpq   400828 <_init+0x18>

00000000004008f8 <strchr@plt>:
  4008f8:	ff 25 0a a0 10 00    	jmpq   *1089546(%rip)        # 50a908 <_GLOBAL_OFFSET_TABLE_+0x78>
  4008fe:	68 0c 00 00 00       	pushq  $0xc
  400903:	e9 20 ff ff ff       	jmpq   400828 <_init+0x18>

0000000000400908 <memset@plt>:
  400908:	ff 25 02 a0 10 00    	jmpq   *1089538(%rip)        # 50a910 <_GLOBAL_OFFSET_TABLE_+0x80>
  40090e:	68 0d 00 00 00       	pushq  $0xd
  400913:	e9 10 ff ff ff       	jmpq   400828 <_init+0x18>

0000000000400918 <exit@plt>:
  400918:	ff 25 fa 9f 10 00    	jmpq   *1089530(%rip)        # 50a918 <_GLOBAL_OFFSET_TABLE_+0x88>
  40091e:	68 0e 00 00 00       	pushq  $0xe
  400923:	e9 00 ff ff ff       	jmpq   400828 <_init+0x18>
Disassembly of section .text:

0000000000400930 <_start>:
  400930:	31 ed                	xor    %ebp,%ebp
  400932:	49 89 d1             	mov    %rdx,%r9
  400935:	5e                   	pop    %rsi
  400936:	48 89 e2             	mov    %rsp,%rdx
  400939:	48 83 e4 f0          	and    $0xfffffffffffffff0,%rsp
  40093d:	50                   	push   %rax
  40093e:	54                   	push   %rsp
  40093f:	49 c7 c0 70 88 40 00 	mov    $0x408870,%r8
  400946:	48 c7 c1 80 88 40 00 	mov    $0x408880,%rcx
  40094d:	48 c7 c7 f0 09 40 00 	mov    $0x4009f0,%rdi
  400954:	e8 df fe ff ff       	callq  400838 <__libc_start_main@plt>
  400959:	f4                   	hlt    
  40095a:	90                   	nop    
  40095b:	90                   	nop    

000000000040095c <call_gmon_start>:
  40095c:	48 83 ec 08          	sub    $0x8,%rsp
  400960:	48 8b 05 21 9f 10 00 	mov    1089313(%rip),%rax        # 50a888 <_DYNAMIC+0x1d8>
  400967:	48 85 c0             	test   %rax,%rax
  40096a:	74 02                	je     40096e <call_gmon_start+0x12>
  40096c:	ff d0                	callq  *%rax
  40096e:	48 83 c4 08          	add    $0x8,%rsp
  400972:	c3                   	retq   
  400973:	90                   	nop    
  400974:	90                   	nop    
  400975:	90                   	nop    
  400976:	90                   	nop    
  400977:	90                   	nop    
  400978:	90                   	nop    
  400979:	90                   	nop    
  40097a:	90                   	nop    
  40097b:	90                   	nop    
  40097c:	90                   	nop    
  40097d:	90                   	nop    
  40097e:	90                   	nop    
  40097f:	90                   	nop    

0000000000400980 <__do_global_dtors_aux>:
  400980:	80 3d 79 a9 10 00 00 	cmpb   $0x0,1091961(%rip)        # 50b300 <__bss_start>
  400987:	55                   	push   %rbp
  400988:	48 89 e5             	mov    %rsp,%rbp
  40098b:	74 10                	je     40099d <__do_global_dtors_aux+0x1d>
  40098d:	eb 24                	jmp    4009b3 <__do_global_dtors_aux+0x33>
  40098f:	90                   	nop    
  400990:	48 83 c0 08          	add    $0x8,%rax
  400994:	48 89 05 95 9f 10 00 	mov    %rax,1089429(%rip)        # 50a930 <p.6302>
  40099b:	ff d2                	callq  *%rdx
  40099d:	48 8b 05 8c 9f 10 00 	mov    1089420(%rip),%rax        # 50a930 <p.6302>
  4009a4:	48 8b 10             	mov    (%rax),%rdx
  4009a7:	48 85 d2             	test   %rdx,%rdx
  4009aa:	75 e4                	jne    400990 <__do_global_dtors_aux+0x10>
  4009ac:	c6 05 4d a9 10 00 01 	movb   $0x1,1091917(%rip)        # 50b300 <__bss_start>
  4009b3:	c9                   	leaveq 
  4009b4:	c3                   	retq   
  4009b5:	66 66 66 90          	xchg   %ax,%ax
  4009b9:	66 66 66 90          	xchg   %ax,%ax
  4009bd:	66 66 90             	xchg   %ax,%ax

00000000004009c0 <frame_dummy>:
  4009c0:	55                   	push   %rbp
  4009c1:	48 83 3d df 9c 10 00 	cmpq   $0x0,1088735(%rip)        # 50a6a8 <__JCR_END__>
  4009c8:	00 
  4009c9:	48 89 e5             	mov    %rsp,%rbp
  4009cc:	74 1a                	je     4009e8 <frame_dummy+0x28>
  4009ce:	48 8b 05 ab 9e 10 00 	mov    1089195(%rip),%rax        # 50a880 <_DYNAMIC+0x1d0>
  4009d5:	48 85 c0             	test   %rax,%rax
  4009d8:	74 0e                	je     4009e8 <frame_dummy+0x28>
  4009da:	48 8d 3d c7 9c 10 00 	lea    1088711(%rip),%rdi        # 50a6a8 <__JCR_END__>
  4009e1:	49 89 c3             	mov    %rax,%r11
  4009e4:	c9                   	leaveq 
  4009e5:	41 ff e3             	jmpq   *%r11
  4009e8:	c9                   	leaveq 
  4009e9:	c3                   	retq   
  4009ea:	90                   	nop    
  4009eb:	90                   	nop    
  4009ec:	90                   	nop    
  4009ed:	90                   	nop    
  4009ee:	90                   	nop    
  4009ef:	90                   	nop    

00000000004009f0 <main>:
  4009f0:	55                   	push   %rbp
  4009f1:	48 89 e5             	mov    %rsp,%rbp
  4009f4:	48 83 e4 80          	and    $0xffffffffffffff80,%rsp
  4009f8:	53                   	push   %rbx
  4009f9:	48 81 ec 78 02 00 00 	sub    $0x278,%rsp
  400a00:	bf 03 00 00 00       	mov    $0x3,%edi
  400a05:	e8 76 27 00 00       	callq  403180 <__intel_new_proc_init>
  400a0a:	0f ae 1c 24          	stmxcsr (%rsp)
  400a0e:	81 0c 24 40 80 00 00 	orl    $0x8040,(%rsp)
  400a15:	0f ae 14 24          	ldmxcsr (%rsp)
  400a19:	c7 84 24 00 02 00 00 	movl   $0x67452301,0x200(%rsp)
  400a20:	01 23 45 67 
  400a24:	c7 84 24 04 02 00 00 	movl   $0xefcdab89,0x204(%rsp)
  400a2b:	89 ab cd ef 
  400a2f:	c7 84 24 08 02 00 00 	movl   $0x98badcfe,0x208(%rsp)
  400a36:	fe dc ba 98 
  400a3a:	c7 84 24 0c 02 00 00 	movl   $0x10325476,0x20c(%rsp)
  400a41:	76 54 32 10 
  400a45:	c6 84 24 80 01 00 00 	movb   $0x80,0x180(%rsp)
  400a4c:	80 
  400a4d:	33 c0                	xor    %eax,%eax
  400a4f:	66 0f ef c0          	pxor   %xmm0,%xmm0
  400a53:	66 0f d6 84 24 81 01 	movq   %xmm0,0x181(%rsp)
  400a5a:	00 00 
  400a5c:	66 0f d6 84 24 89 01 	movq   %xmm0,0x189(%rsp)
  400a63:	00 00 
  400a65:	66 0f d6 84 24 91 01 	movq   %xmm0,0x191(%rsp)
  400a6c:	00 00 
  400a6e:	66 0f d6 84 24 99 01 	movq   %xmm0,0x199(%rsp)
  400a75:	00 00 
  400a77:	66 0f d6 84 24 a1 01 	movq   %xmm0,0x1a1(%rsp)
  400a7e:	00 00 
  400a80:	66 0f d6 84 24 a9 01 	movq   %xmm0,0x1a9(%rsp)
  400a87:	00 00 
  400a89:	89 84 24 b1 01 00 00 	mov    %eax,0x1b1(%rsp)
  400a90:	66 89 84 24 b5 01 00 	mov    %ax,0x1b5(%rsp)
  400a97:	00 
  400a98:	88 84 24 b7 01 00 00 	mov    %al,0x1b7(%rsp)
  400a9f:	48 8d bc 24 00 02 00 	lea    0x200(%rsp),%rdi
  400aa6:	00 
  400aa7:	48 8d b4 24 80 01 00 	lea    0x180(%rsp),%rsi
  400aae:	00 
  400aaf:	33 c0                	xor    %eax,%eax
  400ab1:	89 84 24 b8 01 00 00 	mov    %eax,0x1b8(%rsp)
  400ab8:	89 84 24 bc 01 00 00 	mov    %eax,0x1bc(%rsp)
  400abf:	e8 ac 08 00 00       	callq  401370 <md5_compress>
  400ac4:	8b 84 24 00 02 00 00 	mov    0x200(%rsp),%eax
  400acb:	3d d4 1d 8c d9       	cmp    $0xd98c1dd4,%eax
  400ad0:	0f 85 4b 07 00 00    	jne    401221 <main+0x831>
  400ad6:	8b 84 24 04 02 00 00 	mov    0x204(%rsp),%eax
  400add:	3d 8f 00 b2 04       	cmp    $0x4b2008f,%eax
  400ae2:	0f 85 39 07 00 00    	jne    401221 <main+0x831>
  400ae8:	8b 84 24 08 02 00 00 	mov    0x208(%rsp),%eax
  400aef:	3d e9 80 09 98       	cmp    $0x980980e9,%eax
  400af4:	0f 85 27 07 00 00    	jne    401221 <main+0x831>
  400afa:	8b 84 24 0c 02 00 00 	mov    0x20c(%rsp),%eax
  400b01:	3d ec f8 42 7e       	cmp    $0x7e42f8ec,%eax
  400b06:	0f 85 15 07 00 00    	jne    401221 <main+0x831>
  400b0c:	c7 84 24 00 02 00 00 	movl   $0x67452301,0x200(%rsp)
  400b13:	01 23 45 67 
  400b17:	c7 84 24 04 02 00 00 	movl   $0xefcdab89,0x204(%rsp)
  400b1e:	89 ab cd ef 
  400b22:	c7 84 24 08 02 00 00 	movl   $0x98badcfe,0x208(%rsp)
  400b29:	fe dc ba 98 
  400b2d:	c7 84 24 0c 02 00 00 	movl   $0x10325476,0x20c(%rsp)
  400b34:	76 54 32 10 
  400b38:	c6 84 24 40 01 00 00 	movb   $0x61,0x140(%rsp)
  400b3f:	61 
  400b40:	c6 84 24 41 01 00 00 	movb   $0x80,0x141(%rsp)
  400b47:	80 
  400b48:	33 c0                	xor    %eax,%eax
  400b4a:	66 0f ef c0          	pxor   %xmm0,%xmm0
  400b4e:	66 0f d6 84 24 42 01 	movq   %xmm0,0x142(%rsp)
  400b55:	00 00 
  400b57:	66 0f d6 84 24 4a 01 	movq   %xmm0,0x14a(%rsp)
  400b5e:	00 00 
  400b60:	66 0f d6 84 24 52 01 	movq   %xmm0,0x152(%rsp)
  400b67:	00 00 
  400b69:	66 0f d6 84 24 5a 01 	movq   %xmm0,0x15a(%rsp)
  400b70:	00 00 
  400b72:	66 0f d6 84 24 62 01 	movq   %xmm0,0x162(%rsp)
  400b79:	00 00 
  400b7b:	66 0f d6 84 24 6a 01 	movq   %xmm0,0x16a(%rsp)
  400b82:	00 00 
  400b84:	89 84 24 72 01 00 00 	mov    %eax,0x172(%rsp)
  400b8b:	66 89 84 24 76 01 00 	mov    %ax,0x176(%rsp)
  400b92:	00 
  400b93:	c7 84 24 78 01 00 00 	movl   $0x8,0x178(%rsp)
  400b9a:	08 00 00 00 
  400b9e:	48 8d bc 24 00 02 00 	lea    0x200(%rsp),%rdi
  400ba5:	00 
  400ba6:	48 8d b4 24 40 01 00 	lea    0x140(%rsp),%rsi
  400bad:	00 
  400bae:	c7 84 24 7c 01 00 00 	movl   $0x0,0x17c(%rsp)
  400bb5:	00 00 00 00 
  400bb9:	e8 b2 07 00 00       	callq  401370 <md5_compress>
  400bbe:	8b 84 24 00 02 00 00 	mov    0x200(%rsp),%eax
  400bc5:	3d 0c c1 75 b9       	cmp    $0xb975c10c,%eax
  400bca:	0f 85 51 06 00 00    	jne    401221 <main+0x831>
  400bd0:	8b 84 24 04 02 00 00 	mov    0x204(%rsp),%eax
  400bd7:	3d c0 f1 b6 a8       	cmp    $0xa8b6f1c0,%eax
  400bdc:	0f 85 3f 06 00 00    	jne    401221 <main+0x831>
  400be2:	8b 84 24 08 02 00 00 	mov    0x208(%rsp),%eax
  400be9:	3d 31 c3 99 e2       	cmp    $0xe299c331,%eax
  400bee:	0f 85 2d 06 00 00    	jne    401221 <main+0x831>
  400bf4:	8b 84 24 0c 02 00 00 	mov    0x20c(%rsp),%eax
  400bfb:	3d 69 77 26 61       	cmp    $0x61267769,%eax
  400c00:	0f 85 1b 06 00 00    	jne    401221 <main+0x831>
  400c06:	c7 84 24 00 02 00 00 	movl   $0x67452301,0x200(%rsp)
  400c0d:	01 23 45 67 
  400c11:	c7 84 24 04 02 00 00 	movl   $0xefcdab89,0x204(%rsp)
  400c18:	89 ab cd ef 
  400c1c:	c7 84 24 08 02 00 00 	movl   $0x98badcfe,0x208(%rsp)
  400c23:	fe dc ba 98 
  400c27:	c7 84 24 0c 02 00 00 	movl   $0x10325476,0x20c(%rsp)
  400c2e:	76 54 32 10 
  400c32:	c6 84 24 02 01 00 00 	movb   $0x63,0x102(%rsp)
  400c39:	63 
  400c3a:	66 c7 84 24 00 01 00 	movw   $0x6261,0x100(%rsp)
  400c41:	00 61 62 
  400c44:	c6 84 24 03 01 00 00 	movb   $0x80,0x103(%rsp)
  400c4b:	80 
  400c4c:	66 0f ef c0          	pxor   %xmm0,%xmm0
  400c50:	66 0f d6 84 24 04 01 	movq   %xmm0,0x104(%rsp)
  400c57:	00 00 
  400c59:	66 0f d6 84 24 0c 01 	movq   %xmm0,0x10c(%rsp)
  400c60:	00 00 
  400c62:	66 0f d6 84 24 14 01 	movq   %xmm0,0x114(%rsp)
  400c69:	00 00 
  400c6b:	66 0f d6 84 24 1c 01 	movq   %xmm0,0x11c(%rsp)
  400c72:	00 00 
  400c74:	66 0f d6 84 24 24 01 	movq   %xmm0,0x124(%rsp)
  400c7b:	00 00 
  400c7d:	66 0f d6 84 24 2c 01 	movq   %xmm0,0x12c(%rsp)
  400c84:	00 00 
  400c86:	c7 84 24 34 01 00 00 	movl   $0x0,0x134(%rsp)
  400c8d:	00 00 00 00 
  400c91:	c7 84 24 38 01 00 00 	movl   $0x18,0x138(%rsp)
  400c98:	18 00 00 00 
  400c9c:	48 8d bc 24 00 02 00 	lea    0x200(%rsp),%rdi
  400ca3:	00 
  400ca4:	48 8d b4 24 00 01 00 	lea    0x100(%rsp),%rsi
  400cab:	00 
  400cac:	c7 84 24 3c 01 00 00 	movl   $0x0,0x13c(%rsp)
  400cb3:	00 00 00 00 
  400cb7:	e8 b4 06 00 00       	callq  401370 <md5_compress>
  400cbc:	8b 84 24 00 02 00 00 	mov    0x200(%rsp),%eax
  400cc3:	3d 90 01 50 98       	cmp    $0x98500190,%eax
  400cc8:	0f 85 53 05 00 00    	jne    401221 <main+0x831>
  400cce:	8b 84 24 04 02 00 00 	mov    0x204(%rsp),%eax
  400cd5:	3d 3c d2 4f b0       	cmp    $0xb04fd23c,%eax
  400cda:	0f 85 41 05 00 00    	jne    401221 <main+0x831>
  400ce0:	8b 84 24 08 02 00 00 	mov    0x208(%rsp),%eax
  400ce7:	3d d6 96 3f 7d       	cmp    $0x7d3f96d6,%eax
  400cec:	0f 85 2f 05 00 00    	jne    401221 <main+0x831>
  400cf2:	8b 84 24 0c 02 00 00 	mov    0x20c(%rsp),%eax
  400cf9:	3d 28 e1 7f 72       	cmp    $0x727fe128,%eax
  400cfe:	0f 85 1d 05 00 00    	jne    401221 <main+0x831>
  400d04:	c7 84 24 00 02 00 00 	movl   $0x67452301,0x200(%rsp)
  400d0b:	01 23 45 67 
  400d0f:	c7 84 24 04 02 00 00 	movl   $0xefcdab89,0x204(%rsp)
  400d16:	89 ab cd ef 
  400d1a:	c7 84 24 08 02 00 00 	movl   $0x98badcfe,0x208(%rsp)
  400d21:	fe dc ba 98 
  400d25:	c7 84 24 0c 02 00 00 	movl   $0x10325476,0x20c(%rsp)
  400d2c:	76 54 32 10 
  400d30:	66 c7 84 24 cc 00 00 	movw   $0x7473,0xcc(%rsp)
  400d37:	00 73 74 
  400d3a:	c7 84 24 c8 00 00 00 	movl   $0x65676964,0xc8(%rsp)
  400d41:	64 69 67 65 
  400d45:	c7 84 24 c4 00 00 00 	movl   $0x20656761,0xc4(%rsp)
  400d4c:	61 67 65 20 
  400d50:	c7 84 24 c0 00 00 00 	movl   $0x7373656d,0xc0(%rsp)
  400d57:	6d 65 73 73 
  400d5b:	c6 84 24 ce 00 00 00 	movb   $0x80,0xce(%rsp)
  400d62:	80 
  400d63:	66 0f ef c0          	pxor   %xmm0,%xmm0
  400d67:	66 0f d6 84 24 cf 00 	movq   %xmm0,0xcf(%rsp)
  400d6e:	00 00 
  400d70:	66 0f d6 84 24 d7 00 	movq   %xmm0,0xd7(%rsp)
  400d77:	00 00 
  400d79:	66 0f d6 84 24 df 00 	movq   %xmm0,0xdf(%rsp)
  400d80:	00 00 
  400d82:	66 0f d6 84 24 e7 00 	movq   %xmm0,0xe7(%rsp)
  400d89:	00 00 
  400d8b:	66 0f d6 84 24 ef 00 	movq   %xmm0,0xef(%rsp)
  400d92:	00 00 
  400d94:	c6 84 24 f7 00 00 00 	movb   $0x0,0xf7(%rsp)
  400d9b:	00 
  400d9c:	c7 84 24 f8 00 00 00 	movl   $0x70,0xf8(%rsp)
  400da3:	70 00 00 00 
  400da7:	48 8d bc 24 00 02 00 	lea    0x200(%rsp),%rdi
  400dae:	00 
  400daf:	48 8d b4 24 c0 00 00 	lea    0xc0(%rsp),%rsi
  400db6:	00 
  400db7:	c7 84 24 fc 00 00 00 	movl   $0x0,0xfc(%rsp)
  400dbe:	00 00 00 00 
  400dc2:	e8 a9 05 00 00       	callq  401370 <md5_compress>
  400dc7:	8b 84 24 00 02 00 00 	mov    0x200(%rsp),%eax
  400dce:	3d f9 6b 69 7d       	cmp    $0x7d696bf9,%eax
  400dd3:	0f 85 48 04 00 00    	jne    401221 <main+0x831>
  400dd9:	8b 84 24 04 02 00 00 	mov    0x204(%rsp),%eax
  400de0:	3d 7c b7 93 8d       	cmp    $0x8d93b77c,%eax
  400de5:	0f 85 36 04 00 00    	jne    401221 <main+0x831>
  400deb:	8b 84 24 08 02 00 00 	mov    0x208(%rsp),%eax
  400df2:	3d 52 5a 2f 31       	cmp    $0x312f5a52,%eax
  400df7:	0f 85 24 04 00 00    	jne    401221 <main+0x831>
  400dfd:	8b 84 24 0c 02 00 00 	mov    0x20c(%rsp),%eax
  400e04:	3d aa f1 61 d0       	cmp    $0xd061f1aa,%eax
  400e09:	0f 85 12 04 00 00    	jne    401221 <main+0x831>
  400e0f:	c7 84 24 00 02 00 00 	movl   $0x67452301,0x200(%rsp)
  400e16:	01 23 45 67 
  400e1a:	c7 84 24 04 02 00 00 	movl   $0xefcdab89,0x204(%rsp)
  400e21:	89 ab cd ef 
  400e25:	c7 84 24 08 02 00 00 	movl   $0x98badcfe,0x208(%rsp)
  400e2c:	fe dc ba 98 
  400e30:	c7 84 24 0c 02 00 00 	movl   $0x10325476,0x20c(%rsp)
  400e37:	76 54 32 10 
  400e3b:	66 c7 84 24 98 00 00 	movw   $0x7a79,0x98(%rsp)
  400e42:	00 79 7a 
  400e45:	c7 84 24 94 00 00 00 	movl   $0x78777675,0x94(%rsp)
  400e4c:	75 76 77 78 
  400e50:	c7 84 24 90 00 00 00 	movl   $0x74737271,0x90(%rsp)
  400e57:	71 72 73 74 
  400e5b:	c7 84 24 8c 00 00 00 	movl   $0x706f6e6d,0x8c(%rsp)
  400e62:	6d 6e 6f 70 
  400e66:	c7 84 24 88 00 00 00 	movl   $0x6c6b6a69,0x88(%rsp)
  400e6d:	69 6a 6b 6c 
  400e71:	c7 84 24 84 00 00 00 	movl   $0x68676665,0x84(%rsp)
  400e78:	65 66 67 68 
  400e7c:	c7 84 24 80 00 00 00 	movl   $0x64636261,0x80(%rsp)
  400e83:	61 62 63 64 
  400e87:	c6 84 24 9a 00 00 00 	movb   $0x80,0x9a(%rsp)
  400e8e:	80 
  400e8f:	33 c0                	xor    %eax,%eax
  400e91:	66 0f ef c0          	pxor   %xmm0,%xmm0
  400e95:	66 0f d6 84 24 9b 00 	movq   %xmm0,0x9b(%rsp)
  400e9c:	00 00 
  400e9e:	66 0f d6 84 24 a3 00 	movq   %xmm0,0xa3(%rsp)
  400ea5:	00 00 
  400ea7:	66 0f d6 84 24 ab 00 	movq   %xmm0,0xab(%rsp)
  400eae:	00 00 
  400eb0:	89 84 24 b3 00 00 00 	mov    %eax,0xb3(%rsp)
  400eb7:	88 84 24 b7 00 00 00 	mov    %al,0xb7(%rsp)
  400ebe:	c7 84 24 b8 00 00 00 	movl   $0xd0,0xb8(%rsp)
  400ec5:	d0 00 00 00 
  400ec9:	48 8d bc 24 00 02 00 	lea    0x200(%rsp),%rdi
  400ed0:	00 
  400ed1:	48 8d b4 24 80 00 00 	lea    0x80(%rsp),%rsi
  400ed8:	00 
  400ed9:	c7 84 24 bc 00 00 00 	movl   $0x0,0xbc(%rsp)
  400ee0:	00 00 00 00 
  400ee4:	e8 87 04 00 00       	callq  401370 <md5_compress>
  400ee9:	8b 84 24 00 02 00 00 	mov    0x200(%rsp),%eax
  400ef0:	3d c3 fc d3 d7       	cmp    $0xd7d3fcc3,%eax
  400ef5:	0f 85 26 03 00 00    	jne    401221 <main+0x831>
  400efb:	8b 84 24 04 02 00 00 	mov    0x204(%rsp),%eax
  400f02:	3d 61 92 e4 00       	cmp    $0xe49261,%eax
  400f07:	0f 85 14 03 00 00    	jne    401221 <main+0x831>
  400f0d:	8b 84 24 08 02 00 00 	mov    0x208(%rsp),%eax
  400f14:	3d 7d fb 49 6c       	cmp    $0x6c49fb7d,%eax
  400f19:	0f 85 02 03 00 00    	jne    401221 <main+0x831>
  400f1f:	8b 84 24 0c 02 00 00 	mov    0x20c(%rsp),%eax
  400f26:	3d ca 67 e1 3b       	cmp    $0x3be167ca,%eax
  400f2b:	0f 85 f0 02 00 00    	jne    401221 <main+0x831>
  400f31:	c7 84 24 00 02 00 00 	movl   $0x67452301,0x200(%rsp)
  400f38:	01 23 45 67 
  400f3c:	c7 84 24 04 02 00 00 	movl   $0xefcdab89,0x204(%rsp)
  400f43:	89 ab cd ef 
  400f47:	c7 84 24 08 02 00 00 	movl   $0x98badcfe,0x208(%rsp)
  400f4e:	fe dc ba 98 
  400f52:	c7 84 24 0c 02 00 00 	movl   $0x10325476,0x20c(%rsp)
  400f59:	76 54 32 10 
  400f5d:	66 c7 44 24 7c 38 39 	movw   $0x3938,0x7c(%rsp)
  400f64:	c7 44 24 78 34 35 36 	movl   $0x37363534,0x78(%rsp)
  400f6b:	37 
  400f6c:	c7 44 24 74 30 31 32 	movl   $0x33323130,0x74(%rsp)
  400f73:	33 
  400f74:	c7 44 24 70 77 78 79 	movl   $0x7a797877,0x70(%rsp)
  400f7b:	7a 
  400f7c:	c7 44 24 6c 73 74 75 	movl   $0x76757473,0x6c(%rsp)
  400f83:	76 
  400f84:	c7 44 24 68 6f 70 71 	movl   $0x7271706f,0x68(%rsp)
  400f8b:	72 
  400f8c:	c7 44 24 64 6b 6c 6d 	movl   $0x6e6d6c6b,0x64(%rsp)
  400f93:	6e 
  400f94:	c7 44 24 60 67 68 69 	movl   $0x6a696867,0x60(%rsp)
  400f9b:	6a 
  400f9c:	c7 44 24 5c 63 64 65 	movl   $0x66656463,0x5c(%rsp)
  400fa3:	66 
  400fa4:	c7 44 24 58 59 5a 61 	movl   $0x62615a59,0x58(%rsp)
  400fab:	62 
  400fac:	c7 44 24 54 55 56 57 	movl   $0x58575655,0x54(%rsp)
  400fb3:	58 
  400fb4:	c7 44 24 50 51 52 53 	movl   $0x54535251,0x50(%rsp)
  400fbb:	54 
  400fbc:	c7 44 24 4c 4d 4e 4f 	movl   $0x504f4e4d,0x4c(%rsp)
  400fc3:	50 
  400fc4:	c7 44 24 48 49 4a 4b 	movl   $0x4c4b4a49,0x48(%rsp)
  400fcb:	4c 
  400fcc:	c7 44 24 44 45 46 47 	movl   $0x48474645,0x44(%rsp)
  400fd3:	48 
  400fd4:	c7 44 24 40 41 42 43 	movl   $0x44434241,0x40(%rsp)
  400fdb:	44 
  400fdc:	c6 44 24 7e 80       	movb   $0x80,0x7e(%rsp)
  400fe1:	c6 44 24 7f 00       	movb   $0x0,0x7f(%rsp)
  400fe6:	48 8d bc 24 00 02 00 	lea    0x200(%rsp),%rdi
  400fed:	00 
  400fee:	48 8d 74 24 40       	lea    0x40(%rsp),%rsi
  400ff3:	e8 78 03 00 00       	callq  401370 <md5_compress>
  400ff8:	66 0f ef c0          	pxor   %xmm0,%xmm0
  400ffc:	0f 29 44 24 40       	movaps %xmm0,0x40(%rsp)
  401001:	0f 29 44 24 50       	movaps %xmm0,0x50(%rsp)
  401006:	0f 29 44 24 60       	movaps %xmm0,0x60(%rsp)
  40100b:	0f 13 44 24 70       	movlps %xmm0,0x70(%rsp)
  401010:	c7 44 24 78 f0 01 00 	movl   $0x1f0,0x78(%rsp)
  401017:	00 
  401018:	48 8d bc 24 00 02 00 	lea    0x200(%rsp),%rdi
  40101f:	00 
  401020:	48 8d 74 24 40       	lea    0x40(%rsp),%rsi
  401025:	c7 44 24 7c 00 00 00 	movl   $0x0,0x7c(%rsp)
  40102c:	00 
  40102d:	e8 3e 03 00 00       	callq  401370 <md5_compress>
  401032:	8b 84 24 00 02 00 00 	mov    0x200(%rsp),%eax
  401039:	3d d1 74 ab 98       	cmp    $0x98ab74d1,%eax
  40103e:	0f 85 dd 01 00 00    	jne    401221 <main+0x831>
  401044:	8b 84 24 04 02 00 00 	mov    0x204(%rsp),%eax
  40104b:	3d d2 77 d9 f5       	cmp    $0xf5d977d2,%eax
  401050:	0f 85 cb 01 00 00    	jne    401221 <main+0x831>
  401056:	8b 84 24 08 02 00 00 	mov    0x208(%rsp),%eax
  40105d:	3d a5 61 1c 2c       	cmp    $0x2c1c61a5,%eax
  401062:	0f 85 b9 01 00 00    	jne    401221 <main+0x831>
  401068:	8b 84 24 0c 02 00 00 	mov    0x20c(%rsp),%eax
  40106f:	3d 9f 41 9d 9f       	cmp    $0x9f9d419f,%eax
  401074:	0f 85 a7 01 00 00    	jne    401221 <main+0x831>
  40107a:	c7 84 24 00 02 00 00 	movl   $0x67452301,0x200(%rsp)
  401081:	01 23 45 67 
  401085:	48 8d bc 24 00 02 00 	lea    0x200(%rsp),%rdi
  40108c:	00 
  40108d:	be 80 89 40 00       	mov    $0x408980,%esi
  401092:	c7 84 24 04 02 00 00 	movl   $0xefcdab89,0x204(%rsp)
  401099:	89 ab cd ef 
  40109d:	c7 84 24 08 02 00 00 	movl   $0x98badcfe,0x208(%rsp)
  4010a4:	fe dc ba 98 
  4010a8:	c7 84 24 0c 02 00 00 	movl   $0x10325476,0x20c(%rsp)
  4010af:	76 54 32 10 
  4010b3:	e8 b8 02 00 00       	callq  401370 <md5_compress>
  4010b8:	48 8b 05 01 79 00 00 	mov    30977(%rip),%rax        # 4089c0 <_2__STRING.9.0+0x40>
  4010bf:	48 89 04 24          	mov    %rax,(%rsp)
  4010c3:	48 8b 15 fe 78 00 00 	mov    30974(%rip),%rdx        # 4089c8 <_2__STRING.9.0+0x48>
  4010ca:	48 89 54 24 08       	mov    %rdx,0x8(%rsp)
  4010cf:	c6 44 24 10 80       	movb   $0x80,0x10(%rsp)
  4010d4:	33 c0                	xor    %eax,%eax
  4010d6:	66 0f ef c0          	pxor   %xmm0,%xmm0
  4010da:	66 0f d6 44 24 11    	movq   %xmm0,0x11(%rsp)
  4010e0:	66 0f d6 44 24 19    	movq   %xmm0,0x19(%rsp)
  4010e6:	66 0f d6 44 24 21    	movq   %xmm0,0x21(%rsp)
  4010ec:	66 0f d6 44 24 29    	movq   %xmm0,0x29(%rsp)
  4010f2:	89 44 24 31          	mov    %eax,0x31(%rsp)
  4010f6:	66 89 44 24 35       	mov    %ax,0x35(%rsp)
  4010fb:	88 44 24 37          	mov    %al,0x37(%rsp)
  4010ff:	c7 44 24 38 80 02 00 	movl   $0x280,0x38(%rsp)
  401106:	00 
  401107:	48 8d bc 24 00 02 00 	lea    0x200(%rsp),%rdi
  40110e:	00 
  40110f:	48 8d 34 24          	lea    (%rsp),%rsi
  401113:	c7 44 24 3c 00 00 00 	movl   $0x0,0x3c(%rsp)
  40111a:	00 
  40111b:	e8 50 02 00 00       	callq  401370 <md5_compress>
  401120:	8b 84 24 00 02 00 00 	mov    0x200(%rsp),%eax
  401127:	3d 57 ed f4 a2       	cmp    $0xa2f4ed57,%eax
  40112c:	0f 85 ef 00 00 00    	jne    401221 <main+0x831>
  401132:	8b 84 24 04 02 00 00 	mov    0x204(%rsp),%eax
  401139:	3d 2b e3 c9 55       	cmp    $0x55c9e32b,%eax
  40113e:	0f 85 dd 00 00 00    	jne    401221 <main+0x831>
  401144:	8b 84 24 08 02 00 00 	mov    0x208(%rsp),%eax
  40114b:	3d ac 49 da 2e       	cmp    $0x2eda49ac,%eax
  401150:	0f 85 cb 00 00 00    	jne    401221 <main+0x831>
  401156:	8b 84 24 0c 02 00 00 	mov    0x20c(%rsp),%eax
  40115d:	3d 21 07 b6 7a       	cmp    $0x7ab60721,%eax
  401162:	0f 85 b9 00 00 00    	jne    401221 <main+0x831>
  401168:	bf 48 8a 40 00       	mov    $0x408a48,%edi
  40116d:	33 c0                	xor    %eax,%eax
  40116f:	e8 64 f7 ff ff       	callq  4008d8 <printf@plt>
  401174:	66 0f ef c0          	pxor   %xmm0,%xmm0
  401178:	0f 29 84 24 20 02 00 	movaps %xmm0,0x220(%rsp)
  40117f:	00 
  401180:	66 0f ef c0          	pxor   %xmm0,%xmm0
  401184:	0f 29 84 24 c0 01 00 	movaps %xmm0,0x1c0(%rsp)
  40118b:	00 
  40118c:	0f 29 84 24 d0 01 00 	movaps %xmm0,0x1d0(%rsp)
  401193:	00 
  401194:	0f 29 84 24 e0 01 00 	movaps %xmm0,0x1e0(%rsp)
  40119b:	00 
  40119c:	0f 29 84 24 f0 01 00 	movaps %xmm0,0x1f0(%rsp)
  4011a3:	00 
  4011a4:	e8 df f6 ff ff       	callq  400888 <clock@plt>
  4011a9:	48 89 c3             	mov    %rax,%rbx
  4011ac:	4c 89 bc 24 10 02 00 	mov    %r15,0x210(%rsp)
  4011b3:	00 
  4011b4:	33 c0                	xor    %eax,%eax
  4011b6:	41 89 c7             	mov    %eax,%r15d
  4011b9:	48 8d bc 24 20 02 00 	lea    0x220(%rsp),%rdi
  4011c0:	00 
  4011c1:	48 8d b4 24 c0 01 00 	lea    0x1c0(%rsp),%rsi
  4011c8:	00 
  4011c9:	e8 a2 01 00 00       	callq  401370 <md5_compress>
  4011ce:	41 ff c7             	inc    %r15d
  4011d1:	41 81 ff 80 96 98 00 	cmp    $0x989680,%r15d
  4011d8:	7c df                	jl     4011b9 <main+0x7c9>
  4011da:	4c 8b bc 24 10 02 00 	mov    0x210(%rsp),%r15
  4011e1:	00 
  4011e2:	e8 a1 f6 ff ff       	callq  400888 <clock@plt>
  4011e7:	f2 0f 10 05 a1 78 00 	movsd  30881(%rip),%xmm0        # 408a90 <_2il0floatpacket.2>
  4011ee:	00 
  4011ef:	48 2b c3             	sub    %rbx,%rax
  4011f2:	f2 48 0f 2a c8       	cvtsi2sdq %rax,%xmm1
  4011f7:	f2 0f 5e c1          	divsd  %xmm1,%xmm0
  4011fb:	f2 0f 59 05 85 78 00 	mulsd  30853(%rip),%xmm0        # 408a88 <_2il0floatpacket.1>
  401202:	00 
  401203:	bf 5c 8a 40 00       	mov    $0x408a5c,%edi
  401208:	b8 01 00 00 00       	mov    $0x1,%eax
  40120d:	e8 c6 f6 ff ff       	callq  4008d8 <printf@plt>
  401212:	33 c0                	xor    %eax,%eax
  401214:	48 81 c4 78 02 00 00 	add    $0x278,%rsp
  40121b:	5b                   	pop    %rbx
  40121c:	48 89 ec             	mov    %rbp,%rsp
  40121f:	5d                   	pop    %rbp
  401220:	c3                   	retq   
  401221:	bf 70 8a 40 00       	mov    $0x408a70,%edi
  401226:	33 c0                	xor    %eax,%eax
  401228:	e8 ab f6 ff ff       	callq  4008d8 <printf@plt>
  40122d:	b8 01 00 00 00       	mov    $0x1,%eax
  401232:	48 81 c4 78 02 00 00 	add    $0x278,%rsp
  401239:	5b                   	pop    %rbx
  40123a:	48 89 ec             	mov    %rbp,%rsp
  40123d:	5d                   	pop    %rbp
  40123e:	c3                   	retq   
  40123f:	90                   	nop    

0000000000401240 <md5_hash>:
  401240:	41 56                	push   %r14
  401242:	41 55                	push   %r13
  401244:	41 54                	push   %r12
  401246:	53                   	push   %rbx
  401247:	48 83 ec 48          	sub    $0x48,%rsp
  40124b:	49 89 d6             	mov    %rdx,%r14
  40124e:	41 89 f5             	mov    %esi,%r13d
  401251:	33 f6                	xor    %esi,%esi
  401253:	41 c7 06 01 23 45 67 	movl   $0x67452301,(%r14)
  40125a:	33 c0                	xor    %eax,%eax
  40125c:	41 83 fd 40          	cmp    $0x40,%r13d
  401260:	41 c7 46 04 89 ab cd 	movl   $0xefcdab89,0x4(%r14)
  401267:	ef 
  401268:	41 c7 46 08 fe dc ba 	movl   $0x98badcfe,0x8(%r14)
  40126f:	98 
  401270:	41 c7 46 0c 76 54 32 	movl   $0x10325476,0xc(%r14)
  401277:	10 
  401278:	0f 82 dd 00 00 00    	jb     40135b <md5_hash+0x11b>
  40127e:	4c 89 7c 24 40       	mov    %r15,0x40(%rsp)
  401283:	41 89 c7             	mov    %eax,%r15d
  401286:	89 f3                	mov    %esi,%ebx
  401288:	49 89 fc             	mov    %rdi,%r12
  40128b:	89 de                	mov    %ebx,%esi
  40128d:	49 03 f4             	add    %r12,%rsi
  401290:	4c 89 f7             	mov    %r14,%rdi
  401293:	e8 d8 00 00 00       	callq  401370 <md5_compress>
  401298:	41 83 c7 c0          	add    $0xffffffffffffffc0,%r15d
  40129c:	83 c3 40             	add    $0x40,%ebx
  40129f:	43 8d 7c 3d 00       	lea    0x0(%r13,%r15,1),%edi
  4012a4:	83 ff 40             	cmp    $0x40,%edi
  4012a7:	73 e2                	jae    40128b <md5_hash+0x4b>
  4012a9:	4c 8b 7c 24 40       	mov    0x40(%rsp),%r15
  4012ae:	89 de                	mov    %ebx,%esi
  4012b0:	89 fb                	mov    %edi,%ebx
  4012b2:	4c 89 e7             	mov    %r12,%rdi
  4012b5:	41 89 dc             	mov    %ebx,%r12d
  4012b8:	89 f6                	mov    %esi,%esi
  4012ba:	48 03 f7             	add    %rdi,%rsi
  4012bd:	48 8d 3c 24          	lea    (%rsp),%rdi
  4012c1:	4c 89 e2             	mov    %r12,%rdx
  4012c4:	e8 07 09 00 00       	callq  401bd0 <_intel_fast_memcpy>
  4012c9:	42 c6 04 24 80       	movb   $0x80,(%rsp,%r12,1)
  4012ce:	ff c3                	inc    %ebx
  4012d0:	89 da                	mov    %ebx,%edx
  4012d2:	f7 da                	neg    %edx
  4012d4:	83 c2 40             	add    $0x40,%edx
  4012d7:	83 fa 08             	cmp    $0x8,%edx
  4012da:	72 1a                	jb     4012f6 <md5_hash+0xb6>
  4012dc:	48 8d 04 24          	lea    (%rsp),%rax
  4012e0:	89 df                	mov    %ebx,%edi
  4012e2:	48 03 f8             	add    %rax,%rdi
  4012e5:	f7 db                	neg    %ebx
  4012e7:	83 c3 38             	add    $0x38,%ebx
  4012ea:	33 f6                	xor    %esi,%esi
  4012ec:	48 89 da             	mov    %rbx,%rdx
  4012ef:	e8 2c 09 00 00       	callq  401c20 <_intel_fast_memset>
  4012f4:	eb 38                	jmp    40132e <md5_hash+0xee>
  4012f6:	48 8d 04 24          	lea    (%rsp),%rax
  4012fa:	89 db                	mov    %ebx,%ebx
  4012fc:	48 03 d8             	add    %rax,%rbx
  4012ff:	89 d2                	mov    %edx,%edx
  401301:	48 89 df             	mov    %rbx,%rdi
  401304:	33 f6                	xor    %esi,%esi
  401306:	e8 15 09 00 00       	callq  401c20 <_intel_fast_memset>
  40130b:	48 8d 34 24          	lea    (%rsp),%rsi
  40130f:	4c 89 f7             	mov    %r14,%rdi
  401312:	e8 59 00 00 00       	callq  401370 <md5_compress>
  401317:	66 0f ef c0          	pxor   %xmm0,%xmm0
  40131b:	0f 29 04 24          	movaps %xmm0,(%rsp)
  40131f:	0f 29 44 24 10       	movaps %xmm0,0x10(%rsp)
  401324:	0f 29 44 24 20       	movaps %xmm0,0x20(%rsp)
  401329:	0f 13 44 24 30       	movlps %xmm0,0x30(%rsp)
  40132e:	48 8d 34 24          	lea    (%rsp),%rsi
  401332:	42 8d 04 ed 00 00 00 	lea    0x0(,%r13,8),%eax
  401339:	00 
  40133a:	89 44 24 38          	mov    %eax,0x38(%rsp)
  40133e:	41 c1 ed 1d          	shr    $0x1d,%r13d
  401342:	4c 89 f7             	mov    %r14,%rdi
  401345:	44 89 6c 24 3c       	mov    %r13d,0x3c(%rsp)
  40134a:	e8 21 00 00 00       	callq  401370 <md5_compress>
  40134f:	48 83 c4 48          	add    $0x48,%rsp
  401353:	5b                   	pop    %rbx
  401354:	41 5c                	pop    %r12
  401356:	41 5d                	pop    %r13
  401358:	41 5e                	pop    %r14
  40135a:	c3                   	retq   
  40135b:	44 89 eb             	mov    %r13d,%ebx
  40135e:	e9 52 ff ff ff       	jmpq   4012b5 <md5_hash+0x75>
  401363:	90                   	nop    
  401364:	48 8d 74 26 00       	lea    0x0(%rsi),%rsi
  401369:	48 8d bf 00 00 00 00 	lea    0x0(%rdi),%rdi

0000000000401370 <md5_compress>:
  401370:	66 48 0f 6e c3       	movd   %rbx,%xmm0
  401375:	66 48 0f 6e cd       	movd   %rbp,%xmm1
  40137a:	48 31 db             	xor    %rbx,%rbx
  40137d:	48 31 c0             	xor    %rax,%rax
  401380:	b8 01 00 00 00       	mov    $0x1,%eax
  401385:	0f a2                	cpuid  
  401387:	c1 eb 18             	shr    $0x18,%ebx
  40138a:	49 89 de             	mov    %rbx,%r14
  40138d:	48 31 c9             	xor    %rcx,%rcx
  401390:	48 01 d9             	add    %rbx,%rcx
  401393:	48 c1 e1 19          	shl    $0x19,%rcx
  401397:	48 83 c1 07          	add    $0x7,%rcx

000000000040139b <loop_delay>:
  40139b:	90                   	nop    
  40139c:	e2 fd                	loop   40139b <loop_delay>

000000000040139e <no_delay>:
  40139e:	49 bc ff ff ff ff ff 	mov    $0xfffffffffffffff,%r12
  4013a5:	ff ff 0f 

00000000004013a8 <loop_outer>:
  4013a8:	48 31 c0             	xor    %rax,%rax
  4013ab:	48 31 db             	xor    %rbx,%rbx
  4013ae:	48 31 c9             	xor    %rcx,%rcx
  4013b1:	48 31 d2             	xor    %rdx,%rdx
  4013b4:	49 c7 c3 00 09 3d 00 	mov    $0x3d0900,%r11

00000000004013bb <loop_main>:
  4013bb:	89 ce                	mov    %ecx,%esi
  4013bd:	05 ef be 00 00       	add    $0xbeef,%eax
  4013c2:	31 d6                	xor    %edx,%esi
  4013c4:	21 de                	and    %ebx,%esi
  4013c6:	31 d6                	xor    %edx,%esi
  4013c8:	67 8d 84 06 78 a4 6a 	addr32 lea 0xffffffffd76aa478(%esi,%eax,1),%eax
  4013cf:	d7 
  4013d0:	c1 c0 07             	rol    $0x7,%eax
  4013d3:	01 d8                	add    %ebx,%eax
  4013d5:	89 de                	mov    %ebx,%esi
  4013d7:	81 c2 ef be 00 00    	add    $0xbeef,%edx
  4013dd:	31 ce                	xor    %ecx,%esi
  4013df:	21 c6                	and    %eax,%esi
  4013e1:	31 ce                	xor    %ecx,%esi
  4013e3:	67 8d 94 16 56 b7 c7 	addr32 lea 0xffffffffe8c7b756(%esi,%edx,1),%edx
  4013ea:	e8 
  4013eb:	c1 c2 0c             	rol    $0xc,%edx
  4013ee:	01 c2                	add    %eax,%edx
  4013f0:	89 c6                	mov    %eax,%esi
  4013f2:	81 c1 ef be 00 00    	add    $0xbeef,%ecx
  4013f8:	31 de                	xor    %ebx,%esi
  4013fa:	21 d6                	and    %edx,%esi
  4013fc:	31 de                	xor    %ebx,%esi
  4013fe:	67 8d 8c 0e db 70 20 	addr32 lea 0x242070db(%esi,%ecx,1),%ecx
  401405:	24 
  401406:	c1 c1 11             	rol    $0x11,%ecx
  401409:	01 d1                	add    %edx,%ecx
  40140b:	89 d6                	mov    %edx,%esi
  40140d:	81 c3 ef be 00 00    	add    $0xbeef,%ebx
  401413:	31 c6                	xor    %eax,%esi
  401415:	21 ce                	and    %ecx,%esi
  401417:	31 c6                	xor    %eax,%esi
  401419:	67 8d 9c 1e ee ce bd 	addr32 lea 0xffffffffc1bdceee(%esi,%ebx,1),%ebx
  401420:	c1 
  401421:	c1 c3 16             	rol    $0x16,%ebx
  401424:	01 cb                	add    %ecx,%ebx
  401426:	89 ce                	mov    %ecx,%esi
  401428:	05 ef be 00 00       	add    $0xbeef,%eax
  40142d:	31 d6                	xor    %edx,%esi
  40142f:	21 de                	and    %ebx,%esi
  401431:	31 d6                	xor    %edx,%esi
  401433:	67 8d 84 06 af 0f 7c 	addr32 lea 0xfffffffff57c0faf(%esi,%eax,1),%eax
  40143a:	f5 
  40143b:	c1 c0 07             	rol    $0x7,%eax
  40143e:	01 d8                	add    %ebx,%eax
  401440:	89 de                	mov    %ebx,%esi
  401442:	81 c2 ef be 00 00    	add    $0xbeef,%edx
  401448:	31 ce                	xor    %ecx,%esi
  40144a:	21 c6                	and    %eax,%esi
  40144c:	31 ce                	xor    %ecx,%esi
  40144e:	67 8d 94 16 2a c6 87 	addr32 lea 0x4787c62a(%esi,%edx,1),%edx
  401455:	47 
  401456:	c1 c2 0c             	rol    $0xc,%edx
  401459:	01 c2                	add    %eax,%edx
  40145b:	89 c6                	mov    %eax,%esi
  40145d:	81 c1 ef be 00 00    	add    $0xbeef,%ecx
  401463:	31 de                	xor    %ebx,%esi
  401465:	21 d6                	and    %edx,%esi
  401467:	31 de                	xor    %ebx,%esi
  401469:	67 8d 8c 0e 13 46 30 	addr32 lea 0xffffffffa8304613(%esi,%ecx,1),%ecx
  401470:	a8 
  401471:	c1 c1 11             	rol    $0x11,%ecx
  401474:	01 d1                	add    %edx,%ecx
  401476:	89 d6                	mov    %edx,%esi
  401478:	81 c3 ef be 00 00    	add    $0xbeef,%ebx
  40147e:	31 c6                	xor    %eax,%esi
  401480:	21 ce                	and    %ecx,%esi
  401482:	31 c6                	xor    %eax,%esi
  401484:	67 8d 9c 1e 01 95 46 	addr32 lea 0xfffffffffd469501(%esi,%ebx,1),%ebx
  40148b:	fd 
  40148c:	c1 c3 16             	rol    $0x16,%ebx
  40148f:	01 cb                	add    %ecx,%ebx
  401491:	89 ce                	mov    %ecx,%esi
  401493:	05 ef be 00 00       	add    $0xbeef,%eax
  401498:	31 d6                	xor    %edx,%esi
  40149a:	21 de                	and    %ebx,%esi
  40149c:	31 d6                	xor    %edx,%esi
  40149e:	67 8d 84 06 d8 98 80 	addr32 lea 0x698098d8(%esi,%eax,1),%eax
  4014a5:	69 
  4014a6:	c1 c0 07             	rol    $0x7,%eax
  4014a9:	01 d8                	add    %ebx,%eax
  4014ab:	89 de                	mov    %ebx,%esi
  4014ad:	81 c2 ef be 00 00    	add    $0xbeef,%edx
  4014b3:	31 ce                	xor    %ecx,%esi
  4014b5:	21 c6                	and    %eax,%esi
  4014b7:	31 ce                	xor    %ecx,%esi
  4014b9:	67 8d 94 16 af f7 44 	addr32 lea 0xffffffff8b44f7af(%esi,%edx,1),%edx
  4014c0:	8b 
  4014c1:	c1 c2 0c             	rol    $0xc,%edx
  4014c4:	01 c2                	add    %eax,%edx
  4014c6:	89 c6                	mov    %eax,%esi
  4014c8:	81 c1 ef be 00 00    	add    $0xbeef,%ecx
  4014ce:	31 de                	xor    %ebx,%esi
  4014d0:	21 d6                	and    %edx,%esi
  4014d2:	31 de                	xor    %ebx,%esi
  4014d4:	67 8d 8c 0e b1 5b ff 	addr32 lea 0xffffffffffff5bb1(%esi,%ecx,1),%ecx
  4014db:	ff 
  4014dc:	c1 c1 11             	rol    $0x11,%ecx
  4014df:	01 d1                	add    %edx,%ecx
  4014e1:	89 d6                	mov    %edx,%esi
  4014e3:	81 c3 ef be 00 00    	add    $0xbeef,%ebx
  4014e9:	31 c6                	xor    %eax,%esi
  4014eb:	21 ce                	and    %ecx,%esi
  4014ed:	31 c6                	xor    %eax,%esi
  4014ef:	67 8d 9c 1e be d7 5c 	addr32 lea 0xffffffff895cd7be(%esi,%ebx,1),%ebx
  4014f6:	89 
  4014f7:	c1 c3 16             	rol    $0x16,%ebx
  4014fa:	01 cb                	add    %ecx,%ebx
  4014fc:	89 ce                	mov    %ecx,%esi
  4014fe:	05 ef be 00 00       	add    $0xbeef,%eax
  401503:	31 d6                	xor    %edx,%esi
  401505:	21 de                	and    %ebx,%esi
  401507:	31 d6                	xor    %edx,%esi
  401509:	67 8d 84 06 22 11 90 	addr32 lea 0x6b901122(%esi,%eax,1),%eax
  401510:	6b 
  401511:	c1 c0 07             	rol    $0x7,%eax
  401514:	01 d8                	add    %ebx,%eax
  401516:	89 de                	mov    %ebx,%esi
  401518:	81 c2 ef be 00 00    	add    $0xbeef,%edx
  40151e:	31 ce                	xor    %ecx,%esi
  401520:	21 c6                	and    %eax,%esi
  401522:	31 ce                	xor    %ecx,%esi
  401524:	67 8d 94 16 93 71 98 	addr32 lea 0xfffffffffd987193(%esi,%edx,1),%edx
  40152b:	fd 
  40152c:	c1 c2 0c             	rol    $0xc,%edx
  40152f:	01 c2                	add    %eax,%edx
  401531:	89 c6                	mov    %eax,%esi
  401533:	81 c1 ef be 00 00    	add    $0xbeef,%ecx
  401539:	31 de                	xor    %ebx,%esi
  40153b:	21 d6                	and    %edx,%esi
  40153d:	31 de                	xor    %ebx,%esi
  40153f:	67 8d 8c 0e 8e 43 79 	addr32 lea 0xffffffffa679438e(%esi,%ecx,1),%ecx
  401546:	a6 
  401547:	c1 c1 11             	rol    $0x11,%ecx
  40154a:	01 d1                	add    %edx,%ecx
  40154c:	89 d6                	mov    %edx,%esi
  40154e:	81 c3 ef be 00 00    	add    $0xbeef,%ebx
  401554:	31 c6                	xor    %eax,%esi
  401556:	21 ce                	and    %ecx,%esi
  401558:	31 c6                	xor    %eax,%esi
  40155a:	67 8d 9c 1e 21 08 b4 	addr32 lea 0x49b40821(%esi,%ebx,1),%ebx
  401561:	49 
  401562:	c1 c3 16             	rol    $0x16,%ebx
  401565:	01 cb                	add    %ecx,%ebx
  401567:	89 d6                	mov    %edx,%esi
  401569:	89 d7                	mov    %edx,%edi
  40156b:	05 ef be 00 00       	add    $0xbeef,%eax
  401570:	f7 d6                	not    %esi
  401572:	21 df                	and    %ebx,%edi
  401574:	21 ce                	and    %ecx,%esi
  401576:	09 fe                	or     %edi,%esi
  401578:	67 8d 84 06 62 25 1e 	addr32 lea 0xfffffffff61e2562(%esi,%eax,1),%eax
  40157f:	f6 
  401580:	c1 c0 05             	rol    $0x5,%eax
  401583:	01 d8                	add    %ebx,%eax
  401585:	89 ce                	mov    %ecx,%esi
  401587:	89 cf                	mov    %ecx,%edi
  401589:	81 c2 ef be 00 00    	add    $0xbeef,%edx
  40158f:	f7 d6                	not    %esi
  401591:	21 c7                	and    %eax,%edi
  401593:	21 de                	and    %ebx,%esi
  401595:	09 fe                	or     %edi,%esi
  401597:	67 8d 94 16 40 b3 40 	addr32 lea 0xffffffffc040b340(%esi,%edx,1),%edx
  40159e:	c0 
  40159f:	c1 c2 09             	rol    $0x9,%edx
  4015a2:	01 c2                	add    %eax,%edx
  4015a4:	89 de                	mov    %ebx,%esi
  4015a6:	89 df                	mov    %ebx,%edi
  4015a8:	81 c1 ef be 00 00    	add    $0xbeef,%ecx
  4015ae:	f7 d6                	not    %esi
  4015b0:	21 d7                	and    %edx,%edi
  4015b2:	21 c6                	and    %eax,%esi
  4015b4:	09 fe                	or     %edi,%esi
  4015b6:	67 8d 8c 0e 51 5a 5e 	addr32 lea 0x265e5a51(%esi,%ecx,1),%ecx
  4015bd:	26 
  4015be:	c1 c1 0e             	rol    $0xe,%ecx
  4015c1:	01 d1                	add    %edx,%ecx
  4015c3:	89 c6                	mov    %eax,%esi
  4015c5:	89 c7                	mov    %eax,%edi
  4015c7:	81 c3 ef be 00 00    	add    $0xbeef,%ebx
  4015cd:	f7 d6                	not    %esi
  4015cf:	21 cf                	and    %ecx,%edi
  4015d1:	21 d6                	and    %edx,%esi
  4015d3:	09 fe                	or     %edi,%esi
  4015d5:	67 8d 9c 1e aa c7 b6 	addr32 lea 0xffffffffe9b6c7aa(%esi,%ebx,1),%ebx
  4015dc:	e9 
  4015dd:	c1 c3 14             	rol    $0x14,%ebx
  4015e0:	01 cb                	add    %ecx,%ebx
  4015e2:	89 d6                	mov    %edx,%esi
  4015e4:	89 d7                	mov    %edx,%edi
  4015e6:	05 ef be 00 00       	add    $0xbeef,%eax
  4015eb:	f7 d6                	not    %esi
  4015ed:	21 df                	and    %ebx,%edi
  4015ef:	21 ce                	and    %ecx,%esi
  4015f1:	09 fe                	or     %edi,%esi
  4015f3:	67 8d 84 06 5d 10 2f 	addr32 lea 0xffffffffd62f105d(%esi,%eax,1),%eax
  4015fa:	d6 
  4015fb:	c1 c0 05             	rol    $0x5,%eax
  4015fe:	01 d8                	add    %ebx,%eax
  401600:	89 ce                	mov    %ecx,%esi
  401602:	89 cf                	mov    %ecx,%edi
  401604:	81 c2 ef be 00 00    	add    $0xbeef,%edx
  40160a:	f7 d6                	not    %esi
  40160c:	21 c7                	and    %eax,%edi
  40160e:	21 de                	and    %ebx,%esi
  401610:	09 fe                	or     %edi,%esi
  401612:	67 8d 94 16 53 14 44 	addr32 lea 0x2441453(%esi,%edx,1),%edx
  401619:	02 
  40161a:	c1 c2 09             	rol    $0x9,%edx
  40161d:	01 c2                	add    %eax,%edx
  40161f:	89 de                	mov    %ebx,%esi
  401621:	89 df                	mov    %ebx,%edi
  401623:	81 c1 ef be 00 00    	add    $0xbeef,%ecx
  401629:	f7 d6                	not    %esi
  40162b:	21 d7                	and    %edx,%edi
  40162d:	21 c6                	and    %eax,%esi
  40162f:	09 fe                	or     %edi,%esi
  401631:	67 8d 8c 0e 81 e6 a1 	addr32 lea 0xffffffffd8a1e681(%esi,%ecx,1),%ecx
  401638:	d8 
  401639:	c1 c1 0e             	rol    $0xe,%ecx
  40163c:	01 d1                	add    %edx,%ecx
  40163e:	89 c6                	mov    %eax,%esi
  401640:	89 c7                	mov    %eax,%edi
  401642:	81 c3 ef be 00 00    	add    $0xbeef,%ebx
  401648:	f7 d6                	not    %esi
  40164a:	21 cf                	and    %ecx,%edi
  40164c:	21 d6                	and    %edx,%esi
  40164e:	09 fe                	or     %edi,%esi
  401650:	67 8d 9c 1e c8 fb d3 	addr32 lea 0xffffffffe7d3fbc8(%esi,%ebx,1),%ebx
  401657:	e7 
  401658:	c1 c3 14             	rol    $0x14,%ebx
  40165b:	01 cb                	add    %ecx,%ebx
  40165d:	89 d6                	mov    %edx,%esi
  40165f:	89 d7                	mov    %edx,%edi
  401661:	05 ef be 00 00       	add    $0xbeef,%eax
  401666:	f7 d6                	not    %esi
  401668:	21 df                	and    %ebx,%edi
  40166a:	21 ce                	and    %ecx,%esi
  40166c:	09 fe                	or     %edi,%esi
  40166e:	67 8d 84 06 e6 cd e1 	addr32 lea 0x21e1cde6(%esi,%eax,1),%eax
  401675:	21 
  401676:	c1 c0 05             	rol    $0x5,%eax
  401679:	01 d8                	add    %ebx,%eax
  40167b:	89 ce                	mov    %ecx,%esi
  40167d:	89 cf                	mov    %ecx,%edi
  40167f:	81 c2 ef be 00 00    	add    $0xbeef,%edx
  401685:	f7 d6                	not    %esi
  401687:	21 c7                	and    %eax,%edi
  401689:	21 de                	and    %ebx,%esi
  40168b:	09 fe                	or     %edi,%esi
  40168d:	67 8d 94 16 d6 07 37 	addr32 lea 0xffffffffc33707d6(%esi,%edx,1),%edx
  401694:	c3 
  401695:	c1 c2 09             	rol    $0x9,%edx
  401698:	01 c2                	add    %eax,%edx
  40169a:	89 de                	mov    %ebx,%esi
  40169c:	89 df                	mov    %ebx,%edi
  40169e:	81 c1 ef be 00 00    	add    $0xbeef,%ecx
  4016a4:	f7 d6                	not    %esi
  4016a6:	21 d7                	and    %edx,%edi
  4016a8:	21 c6                	and    %eax,%esi
  4016aa:	09 fe                	or     %edi,%esi
  4016ac:	67 8d 8c 0e 87 0d d5 	addr32 lea 0xfffffffff4d50d87(%esi,%ecx,1),%ecx
  4016b3:	f4 
  4016b4:	c1 c1 0e             	rol    $0xe,%ecx
  4016b7:	01 d1                	add    %edx,%ecx
  4016b9:	89 c6                	mov    %eax,%esi
  4016bb:	89 c7                	mov    %eax,%edi
  4016bd:	81 c3 ef be 00 00    	add    $0xbeef,%ebx
  4016c3:	f7 d6                	not    %esi
  4016c5:	21 cf                	and    %ecx,%edi
  4016c7:	21 d6                	and    %edx,%esi
  4016c9:	09 fe                	or     %edi,%esi
  4016cb:	67 8d 9c 1e ed 14 5a 	addr32 lea 0x455a14ed(%esi,%ebx,1),%ebx
  4016d2:	45 
  4016d3:	c1 c3 14             	rol    $0x14,%ebx
  4016d6:	01 cb                	add    %ecx,%ebx
  4016d8:	89 d6                	mov    %edx,%esi
  4016da:	89 d7                	mov    %edx,%edi
  4016dc:	05 ef be 00 00       	add    $0xbeef,%eax
  4016e1:	f7 d6                	not    %esi
  4016e3:	21 df                	and    %ebx,%edi
  4016e5:	21 ce                	and    %ecx,%esi
  4016e7:	09 fe                	or     %edi,%esi
  4016e9:	67 8d 84 06 05 e9 e3 	addr32 lea 0xffffffffa9e3e905(%esi,%eax,1),%eax
  4016f0:	a9 
  4016f1:	c1 c0 05             	rol    $0x5,%eax
  4016f4:	01 d8                	add    %ebx,%eax
  4016f6:	89 ce                	mov    %ecx,%esi
  4016f8:	89 cf                	mov    %ecx,%edi
  4016fa:	81 c2 ef be 00 00    	add    $0xbeef,%edx
  401700:	f7 d6                	not    %esi
  401702:	21 c7                	and    %eax,%edi
  401704:	21 de                	and    %ebx,%esi
  401706:	09 fe                	or     %edi,%esi
  401708:	67 8d 94 16 f8 a3 ef 	addr32 lea 0xfffffffffcefa3f8(%esi,%edx,1),%edx
  40170f:	fc 
  401710:	c1 c2 09             	rol    $0x9,%edx
  401713:	01 c2                	add    %eax,%edx
  401715:	89 de                	mov    %ebx,%esi
  401717:	89 df                	mov    %ebx,%edi
  401719:	81 c1 ef be 00 00    	add    $0xbeef,%ecx
  40171f:	f7 d6                	not    %esi
  401721:	21 d7                	and    %edx,%edi
  401723:	21 c6                	and    %eax,%esi
  401725:	09 fe                	or     %edi,%esi
  401727:	67 8d 8c 0e d9 02 6f 	addr32 lea 0x676f02d9(%esi,%ecx,1),%ecx
  40172e:	67 
  40172f:	c1 c1 0e             	rol    $0xe,%ecx
  401732:	01 d1                	add    %edx,%ecx
  401734:	89 c6                	mov    %eax,%esi
  401736:	89 c7                	mov    %eax,%edi
  401738:	81 c3 ef be 00 00    	add    $0xbeef,%ebx
  40173e:	f7 d6                	not    %esi
  401740:	21 cf                	and    %ecx,%edi
  401742:	21 d6                	and    %edx,%esi
  401744:	09 fe                	or     %edi,%esi
  401746:	67 8d 9c 1e 8a 4c 2a 	addr32 lea 0xffffffff8d2a4c8a(%esi,%ebx,1),%ebx
  40174d:	8d 
  40174e:	c1 c3 14             	rol    $0x14,%ebx
  401751:	01 cb                	add    %ecx,%ebx
  401753:	89 ce                	mov    %ecx,%esi
  401755:	05 ef be 00 00       	add    $0xbeef,%eax
  40175a:	31 d6                	xor    %edx,%esi
  40175c:	31 de                	xor    %ebx,%esi
  40175e:	67 8d 84 06 42 39 fa 	addr32 lea 0xfffffffffffa3942(%esi,%eax,1),%eax
  401765:	ff 
  401766:	c1 c0 04             	rol    $0x4,%eax
  401769:	01 d8                	add    %ebx,%eax
  40176b:	89 de                	mov    %ebx,%esi
  40176d:	81 c2 ef be 00 00    	add    $0xbeef,%edx
  401773:	31 ce                	xor    %ecx,%esi
  401775:	31 c6                	xor    %eax,%esi
  401777:	67 8d 94 16 81 f6 71 	addr32 lea 0xffffffff8771f681(%esi,%edx,1),%edx
  40177e:	87 
  40177f:	c1 c2 0b             	rol    $0xb,%edx
  401782:	01 c2                	add    %eax,%edx
  401784:	89 c6                	mov    %eax,%esi
  401786:	81 c1 ef be 00 00    	add    $0xbeef,%ecx
  40178c:	31 de                	xor    %ebx,%esi
  40178e:	31 d6                	xor    %edx,%esi
  401790:	67 8d 8c 0e 22 61 9d 	addr32 lea 0x6d9d6122(%esi,%ecx,1),%ecx
  401797:	6d 
  401798:	c1 c1 10             	rol    $0x10,%ecx
  40179b:	01 d1                	add    %edx,%ecx
  40179d:	89 d6                	mov    %edx,%esi
  40179f:	81 c3 ef be 00 00    	add    $0xbeef,%ebx
  4017a5:	31 c6                	xor    %eax,%esi
  4017a7:	31 ce                	xor    %ecx,%esi
  4017a9:	67 8d 9c 1e 0c 38 e5 	addr32 lea 0xfffffffffde5380c(%esi,%ebx,1),%ebx
  4017b0:	fd 
  4017b1:	c1 c3 17             	rol    $0x17,%ebx
  4017b4:	01 cb                	add    %ecx,%ebx
  4017b6:	89 ce                	mov    %ecx,%esi
  4017b8:	05 ef be 00 00       	add    $0xbeef,%eax
  4017bd:	31 d6                	xor    %edx,%esi
  4017bf:	31 de                	xor    %ebx,%esi
  4017c1:	67 8d 84 06 44 ea be 	addr32 lea 0xffffffffa4beea44(%esi,%eax,1),%eax
  4017c8:	a4 
  4017c9:	c1 c0 04             	rol    $0x4,%eax
  4017cc:	01 d8                	add    %ebx,%eax
  4017ce:	89 de                	mov    %ebx,%esi
  4017d0:	81 c2 ef be 00 00    	add    $0xbeef,%edx
  4017d6:	31 ce                	xor    %ecx,%esi
  4017d8:	31 c6                	xor    %eax,%esi
  4017da:	67 8d 94 16 a9 cf de 	addr32 lea 0x4bdecfa9(%esi,%edx,1),%edx
  4017e1:	4b 
  4017e2:	c1 c2 0b             	rol    $0xb,%edx
  4017e5:	01 c2                	add    %eax,%edx
  4017e7:	89 c6                	mov    %eax,%esi
  4017e9:	81 c1 ef be 00 00    	add    $0xbeef,%ecx
  4017ef:	31 de                	xor    %ebx,%esi
  4017f1:	31 d6                	xor    %edx,%esi
  4017f3:	67 8d 8c 0e 60 4b bb 	addr32 lea 0xfffffffff6bb4b60(%esi,%ecx,1),%ecx
  4017fa:	f6 
  4017fb:	c1 c1 10             	rol    $0x10,%ecx
  4017fe:	01 d1                	add    %edx,%ecx
  401800:	89 d6                	mov    %edx,%esi
  401802:	81 c3 ef be 00 00    	add    $0xbeef,%ebx
  401808:	31 c6                	xor    %eax,%esi
  40180a:	31 ce                	xor    %ecx,%esi
  40180c:	67 8d 9c 1e 70 bc bf 	addr32 lea 0xffffffffbebfbc70(%esi,%ebx,1),%ebx
  401813:	be 
  401814:	c1 c3 17             	rol    $0x17,%ebx
  401817:	01 cb                	add    %ecx,%ebx
  401819:	89 ce                	mov    %ecx,%esi
  40181b:	05 ef be 00 00       	add    $0xbeef,%eax
  401820:	31 d6                	xor    %edx,%esi
  401822:	31 de                	xor    %ebx,%esi
  401824:	67 8d 84 06 c6 7e 9b 	addr32 lea 0x289b7ec6(%esi,%eax,1),%eax
  40182b:	28 
  40182c:	c1 c0 04             	rol    $0x4,%eax
  40182f:	01 d8                	add    %ebx,%eax
  401831:	89 de                	mov    %ebx,%esi
  401833:	81 c2 ef be 00 00    	add    $0xbeef,%edx
  401839:	31 ce                	xor    %ecx,%esi
  40183b:	31 c6                	xor    %eax,%esi
  40183d:	67 8d 94 16 fa 27 a1 	addr32 lea 0xffffffffeaa127fa(%esi,%edx,1),%edx
  401844:	ea 
  401845:	c1 c2 0b             	rol    $0xb,%edx
  401848:	01 c2                	add    %eax,%edx
  40184a:	89 c6                	mov    %eax,%esi
  40184c:	81 c1 ef be 00 00    	add    $0xbeef,%ecx
  401852:	31 de                	xor    %ebx,%esi
  401854:	31 d6                	xor    %edx,%esi
  401856:	67 8d 8c 0e 85 30 ef 	addr32 lea 0xffffffffd4ef3085(%esi,%ecx,1),%ecx
  40185d:	d4 
  40185e:	c1 c1 10             	rol    $0x10,%ecx
  401861:	01 d1                	add    %edx,%ecx
  401863:	89 d6                	mov    %edx,%esi
  401865:	81 c3 ef be 00 00    	add    $0xbeef,%ebx
  40186b:	31 c6                	xor    %eax,%esi
  40186d:	31 ce                	xor    %ecx,%esi
  40186f:	67 8d 9c 1e 05 1d 88 	addr32 lea 0x4881d05(%esi,%ebx,1),%ebx
  401876:	04 
  401877:	c1 c3 17             	rol    $0x17,%ebx
  40187a:	01 cb                	add    %ecx,%ebx
  40187c:	89 ce                	mov    %ecx,%esi
  40187e:	05 ef be 00 00       	add    $0xbeef,%eax
  401883:	31 d6                	xor    %edx,%esi
  401885:	31 de                	xor    %ebx,%esi
  401887:	67 8d 84 06 39 d0 d4 	addr32 lea 0xffffffffd9d4d039(%esi,%eax,1),%eax
  40188e:	d9 
  40188f:	c1 c0 04             	rol    $0x4,%eax
  401892:	01 d8                	add    %ebx,%eax
  401894:	89 de                	mov    %ebx,%esi
  401896:	81 c2 ef be 00 00    	add    $0xbeef,%edx
  40189c:	31 ce                	xor    %ecx,%esi
  40189e:	31 c6                	xor    %eax,%esi
  4018a0:	67 8d 94 16 e5 99 db 	addr32 lea 0xffffffffe6db99e5(%esi,%edx,1),%edx
  4018a7:	e6 
  4018a8:	c1 c2 0b             	rol    $0xb,%edx
  4018ab:	01 c2                	add    %eax,%edx
  4018ad:	89 c6                	mov    %eax,%esi
  4018af:	81 c1 ef be 00 00    	add    $0xbeef,%ecx
  4018b5:	31 de                	xor    %ebx,%esi
  4018b7:	31 d6                	xor    %edx,%esi
  4018b9:	67 8d 8c 0e f8 7c a2 	addr32 lea 0x1fa27cf8(%esi,%ecx,1),%ecx
  4018c0:	1f 
  4018c1:	c1 c1 10             	rol    $0x10,%ecx
  4018c4:	01 d1                	add    %edx,%ecx
  4018c6:	89 d6                	mov    %edx,%esi
  4018c8:	81 c3 ef be 00 00    	add    $0xbeef,%ebx
  4018ce:	31 c6                	xor    %eax,%esi
  4018d0:	31 ce                	xor    %ecx,%esi
  4018d2:	67 8d 9c 1e 65 56 ac 	addr32 lea 0xffffffffc4ac5665(%esi,%ebx,1),%ebx
  4018d9:	c4 
  4018da:	c1 c3 17             	rol    $0x17,%ebx
  4018dd:	01 cb                	add    %ecx,%ebx
  4018df:	89 d6                	mov    %edx,%esi
  4018e1:	f7 d6                	not    %esi
  4018e3:	05 ef be 00 00       	add    $0xbeef,%eax
  4018e8:	09 de                	or     %ebx,%esi
  4018ea:	31 ce                	xor    %ecx,%esi
  4018ec:	67 8d 84 06 44 22 29 	addr32 lea 0xfffffffff4292244(%esi,%eax,1),%eax
  4018f3:	f4 
  4018f4:	c1 c0 06             	rol    $0x6,%eax
  4018f7:	01 d8                	add    %ebx,%eax
  4018f9:	89 ce                	mov    %ecx,%esi
  4018fb:	f7 d6                	not    %esi
  4018fd:	81 c2 ef be 00 00    	add    $0xbeef,%edx
  401903:	09 c6                	or     %eax,%esi
  401905:	31 de                	xor    %ebx,%esi
  401907:	67 8d 94 16 97 ff 2a 	addr32 lea 0x432aff97(%esi,%edx,1),%edx
  40190e:	43 
  40190f:	c1 c2 0a             	rol    $0xa,%edx
  401912:	01 c2                	add    %eax,%edx
  401914:	89 de                	mov    %ebx,%esi
  401916:	f7 d6                	not    %esi
  401918:	81 c1 ef be 00 00    	add    $0xbeef,%ecx
  40191e:	09 d6                	or     %edx,%esi
  401920:	31 c6                	xor    %eax,%esi
  401922:	67 8d 8c 0e a7 23 94 	addr32 lea 0xffffffffab9423a7(%esi,%ecx,1),%ecx
  401929:	ab 
  40192a:	c1 c1 0f             	rol    $0xf,%ecx
  40192d:	01 d1                	add    %edx,%ecx
  40192f:	89 c6                	mov    %eax,%esi
  401931:	f7 d6                	not    %esi
  401933:	81 c3 ef be 00 00    	add    $0xbeef,%ebx
  401939:	09 ce                	or     %ecx,%esi
  40193b:	31 d6                	xor    %edx,%esi
  40193d:	67 8d 9c 1e 39 a0 93 	addr32 lea 0xfffffffffc93a039(%esi,%ebx,1),%ebx
  401944:	fc 
  401945:	c1 c3 15             	rol    $0x15,%ebx
  401948:	01 cb                	add    %ecx,%ebx
  40194a:	89 d6                	mov    %edx,%esi
  40194c:	f7 d6                	not    %esi
  40194e:	05 ef be 00 00       	add    $0xbeef,%eax
  401953:	09 de                	or     %ebx,%esi
  401955:	31 ce                	xor    %ecx,%esi
  401957:	67 8d 84 06 c3 59 5b 	addr32 lea 0x655b59c3(%esi,%eax,1),%eax
  40195e:	65 
  40195f:	c1 c0 06             	rol    $0x6,%eax
  401962:	01 d8                	add    %ebx,%eax
  401964:	89 ce                	mov    %ecx,%esi
  401966:	f7 d6                	not    %esi
  401968:	81 c2 ef be 00 00    	add    $0xbeef,%edx
  40196e:	09 c6                	or     %eax,%esi
  401970:	31 de                	xor    %ebx,%esi
  401972:	67 8d 94 16 92 cc 0c 	addr32 lea 0xffffffff8f0ccc92(%esi,%edx,1),%edx
  401979:	8f 
  40197a:	c1 c2 0a             	rol    $0xa,%edx
  40197d:	01 c2                	add    %eax,%edx
  40197f:	89 de                	mov    %ebx,%esi
  401981:	f7 d6                	not    %esi
  401983:	81 c1 ef be 00 00    	add    $0xbeef,%ecx
  401989:	09 d6                	or     %edx,%esi
  40198b:	31 c6                	xor    %eax,%esi
  40198d:	67 8d 8c 0e 7d f4 ef 	addr32 lea 0xffffffffffeff47d(%esi,%ecx,1),%ecx
  401994:	ff 
  401995:	c1 c1 0f             	rol    $0xf,%ecx
  401998:	01 d1                	add    %edx,%ecx
  40199a:	89 c6                	mov    %eax,%esi
  40199c:	f7 d6                	not    %esi
  40199e:	81 c3 ef be 00 00    	add    $0xbeef,%ebx
  4019a4:	09 ce                	or     %ecx,%esi
  4019a6:	31 d6                	xor    %edx,%esi
  4019a8:	67 8d 9c 1e d1 5d 84 	addr32 lea 0xffffffff85845dd1(%esi,%ebx,1),%ebx
  4019af:	85 
  4019b0:	c1 c3 15             	rol    $0x15,%ebx
  4019b3:	01 cb                	add    %ecx,%ebx
  4019b5:	89 d6                	mov    %edx,%esi
  4019b7:	f7 d6                	not    %esi
  4019b9:	05 ef be 00 00       	add    $0xbeef,%eax
  4019be:	09 de                	or     %ebx,%esi
  4019c0:	31 ce                	xor    %ecx,%esi
  4019c2:	67 8d 84 06 4f 7e a8 	addr32 lea 0x6fa87e4f(%esi,%eax,1),%eax
  4019c9:	6f 
  4019ca:	c1 c0 06             	rol    $0x6,%eax
  4019cd:	01 d8                	add    %ebx,%eax
  4019cf:	89 ce                	mov    %ecx,%esi
  4019d1:	f7 d6                	not    %esi
  4019d3:	81 c2 ef be 00 00    	add    $0xbeef,%edx
  4019d9:	09 c6                	or     %eax,%esi
  4019db:	31 de                	xor    %ebx,%esi
  4019dd:	67 8d 94 16 e0 e6 2c 	addr32 lea 0xfffffffffe2ce6e0(%esi,%edx,1),%edx
  4019e4:	fe 
  4019e5:	c1 c2 0a             	rol    $0xa,%edx
  4019e8:	01 c2                	add    %eax,%edx
  4019ea:	89 de                	mov    %ebx,%esi
  4019ec:	f7 d6                	not    %esi
  4019ee:	81 c1 ef be 00 00    	add    $0xbeef,%ecx
  4019f4:	09 d6                	or     %edx,%esi
  4019f6:	31 c6                	xor    %eax,%esi
  4019f8:	67 8d 8c 0e 14 43 01 	addr32 lea 0xffffffffa3014314(%esi,%ecx,1),%ecx
  4019ff:	a3 
  401a00:	c1 c1 0f             	rol    $0xf,%ecx
  401a03:	01 d1                	add    %edx,%ecx
  401a05:	89 c6                	mov    %eax,%esi
  401a07:	f7 d6                	not    %esi
  401a09:	81 c3 ef be 00 00    	add    $0xbeef,%ebx
  401a0f:	09 ce                	or     %ecx,%esi
  401a11:	31 d6                	xor    %edx,%esi
  401a13:	67 8d 9c 1e a1 11 08 	addr32 lea 0x4e0811a1(%esi,%ebx,1),%ebx
  401a1a:	4e 
  401a1b:	c1 c3 15             	rol    $0x15,%ebx
  401a1e:	01 cb                	add    %ecx,%ebx
  401a20:	89 d6                	mov    %edx,%esi
  401a22:	f7 d6                	not    %esi
  401a24:	05 ef be 00 00       	add    $0xbeef,%eax
  401a29:	09 de                	or     %ebx,%esi
  401a2b:	31 ce                	xor    %ecx,%esi
  401a2d:	67 8d 84 06 82 7e 53 	addr32 lea 0xfffffffff7537e82(%esi,%eax,1),%eax
  401a34:	f7 
  401a35:	c1 c0 06             	rol    $0x6,%eax
  401a38:	01 d8                	add    %ebx,%eax
  401a3a:	89 ce                	mov    %ecx,%esi
  401a3c:	f7 d6                	not    %esi
  401a3e:	81 c2 ef be 00 00    	add    $0xbeef,%edx
  401a44:	09 c6                	or     %eax,%esi
  401a46:	31 de                	xor    %ebx,%esi
  401a48:	67 8d 94 16 35 f2 3a 	addr32 lea 0xffffffffbd3af235(%esi,%edx,1),%edx
  401a4f:	bd 
  401a50:	c1 c2 0a             	rol    $0xa,%edx
  401a53:	01 c2                	add    %eax,%edx
  401a55:	89 de                	mov    %ebx,%esi
  401a57:	f7 d6                	not    %esi
  401a59:	81 c1 ef be 00 00    	add    $0xbeef,%ecx
  401a5f:	09 d6                	or     %edx,%esi
  401a61:	31 c6                	xor    %eax,%esi
  401a63:	67 8d 8c 0e bb d2 d7 	addr32 lea 0x2ad7d2bb(%esi,%ecx,1),%ecx
  401a6a:	2a 
  401a6b:	c1 c1 0f             	rol    $0xf,%ecx
  401a6e:	01 d1                	add    %edx,%ecx
  401a70:	89 c6                	mov    %eax,%esi
  401a72:	f7 d6                	not    %esi
  401a74:	81 c3 ef be 00 00    	add    $0xbeef,%ebx
  401a7a:	09 ce                	or     %ecx,%esi
  401a7c:	31 d6                	xor    %edx,%esi
  401a7e:	67 8d 9c 1e 91 d3 86 	addr32 lea 0xffffffffeb86d391(%esi,%ebx,1),%ebx
  401a85:	eb 
  401a86:	c1 c3 15             	rol    $0x15,%ebx
  401a89:	01 cb                	add    %ecx,%ebx
  401a8b:	49 ff cb             	dec    %r11
  401a8e:	49 83 fb 00          	cmp    $0x0,%r11
  401a92:	0f 85 23 f9 ff ff    	jne    4013bb <loop_main>
  401a98:	3d 08 f2 42 78       	cmp    $0x7842f208,%eax
  401a9d:	75 57                	jne    401af6 <incorrect_eax>
  401a9f:	81 fb 7d 03 d0 82    	cmp    $0x82d0037d,%ebx
  401aa5:	75 67                	jne    401b0e <incorrect_ebx>
  401aa7:	81 f9 67 c4 c6 4b    	cmp    $0x4bc6c467,%ecx
  401aad:	75 77                	jne    401b26 <incorrect_ecx>
  401aaf:	81 fa f8 1a e0 20    	cmp    $0x20e01af8,%edx
  401ab5:	0f 85 83 00 00 00    	jne    401b3e <incorrect_edx>
  401abb:	b8 04 00 00 00       	mov    $0x4,%eax
  401ac0:	bb 01 00 00 00       	mov    $0x1,%ebx
  401ac5:	b9 58 1b 40 00       	mov    $0x401b58,%ecx
  401aca:	ba 09 00 00 00       	mov    $0x9,%edx
  401acf:	cd 80                	int    $0x80
  401ad1:	49 ff cc             	dec    %r12
  401ad4:	49 83 fc 00          	cmp    $0x0,%r12
  401ad8:	0f 85 ca f8 ff ff    	jne    4013a8 <loop_outer>
  401ade:	b8 04 00 00 00       	mov    $0x4,%eax
  401ae3:	bb 01 00 00 00       	mov    $0x1,%ebx
  401ae8:	b9 c5 1b 40 00       	mov    $0x401bc5,%ecx
  401aed:	ba 06 00 00 00       	mov    $0x6,%edx
  401af2:	cd 80                	int    $0x80
  401af4:	eb 60                	jmp    401b56 <end_loop>

0000000000401af6 <incorrect_eax>:
  401af6:	b8 04 00 00 00       	mov    $0x4,%eax
  401afb:	bb 01 00 00 00       	mov    $0x1,%ebx
  401b00:	b9 61 1b 40 00       	mov    $0x401b61,%ecx
  401b05:	ba 19 00 00 00       	mov    $0x19,%edx
  401b0a:	cd 80                	int    $0x80
  401b0c:	eb 48                	jmp    401b56 <end_loop>

0000000000401b0e <incorrect_ebx>:
  401b0e:	b8 04 00 00 00       	mov    $0x4,%eax
  401b13:	bb 01 00 00 00       	mov    $0x1,%ebx
  401b18:	b9 7a 1b 40 00       	mov    $0x401b7a,%ecx
  401b1d:	ba 19 00 00 00       	mov    $0x19,%edx
  401b22:	cd 80                	int    $0x80
  401b24:	eb 30                	jmp    401b56 <end_loop>

0000000000401b26 <incorrect_ecx>:
  401b26:	b8 04 00 00 00       	mov    $0x4,%eax
  401b2b:	bb 01 00 00 00       	mov    $0x1,%ebx
  401b30:	b9 93 1b 40 00       	mov    $0x401b93,%ecx
  401b35:	ba 19 00 00 00       	mov    $0x19,%edx
  401b3a:	cd 80                	int    $0x80
  401b3c:	eb 18                	jmp    401b56 <end_loop>

0000000000401b3e <incorrect_edx>:
  401b3e:	b8 04 00 00 00       	mov    $0x4,%eax
  401b43:	bb 01 00 00 00       	mov    $0x1,%ebx
  401b48:	b9 ac 1b 40 00       	mov    $0x401bac,%ecx
  401b4d:	ba 19 00 00 00       	mov    $0x19,%edx
  401b52:	cd 80                	int    $0x80
  401b54:	eb 00                	jmp    401b56 <end_loop>

0000000000401b56 <end_loop>:
  401b56:	eb fe                	jmp    401b56 <end_loop>

0000000000401b58 <msg_correct>:
  401b58:	43 6f                	rex.XB outsl  %ds:(%rsi),(%dx)
  401b5a:	72 72                	jb     401bce <msg_done+0x9>
  401b5c:	65 63 74 0a 00       	movslq %gs:0x0(%rdx,%rcx,1),%esi

0000000000401b61 <msg_wrong_eax>:
  401b61:	49 6e                	rex.WB outsb  %ds:(%rsi),(%dx)
  401b63:	63 6f 72             	movslq 0x72(%rdi),%ebp
  401b66:	72 65                	jb     401bcd <msg_done+0x8>
  401b68:	63 74 3a 20          	movslq 0x20(%rdx,%rdi,1),%esi
  401b6c:	45                   	rex.RB
  401b6d:	41 58                	pop    %r8
  401b6f:	20 6d 69             	and    %ch,0x69(%rbp)
  401b72:	73 6d                	jae    401be1 <_intel_fast_memcpy+0x11>
  401b74:	61                   	(bad)  
  401b75:	74 63                	je     401bda <_intel_fast_memcpy+0xa>
  401b77:	68 0a 00 49 6e       	pushq  $0x6e49000a

0000000000401b7a <msg_wrong_ebx>:
  401b7a:	49 6e                	rex.WB outsb  %ds:(%rsi),(%dx)
  401b7c:	63 6f 72             	movslq 0x72(%rdi),%ebp
  401b7f:	72 65                	jb     401be6 <_intel_fast_memcpy+0x16>
  401b81:	63 74 3a 20          	movslq 0x20(%rdx,%rdi,1),%esi
  401b85:	45                   	rex.RB
  401b86:	42 58                	rex.X pop    %rax
  401b88:	20 6d 69             	and    %ch,0x69(%rbp)
  401b8b:	73 6d                	jae    401bfa <_intel_fast_memcpy+0x2a>
  401b8d:	61                   	(bad)  
  401b8e:	74 63                	je     401bf3 <_intel_fast_memcpy+0x23>
  401b90:	68 0a 00 49 6e       	pushq  $0x6e49000a

0000000000401b93 <msg_wrong_ecx>:
  401b93:	49 6e                	rex.WB outsb  %ds:(%rsi),(%dx)
  401b95:	63 6f 72             	movslq 0x72(%rdi),%ebp
  401b98:	72 65                	jb     401bff <_intel_fast_memcpy+0x2f>
  401b9a:	63 74 3a 20          	movslq 0x20(%rdx,%rdi,1),%esi
  401b9e:	45                   	rex.RB
  401b9f:	43 58                	rex.XB pop    %r8
  401ba1:	20 6d 69             	and    %ch,0x69(%rbp)
  401ba4:	73 6d                	jae    401c13 <_intel_fast_memcpy.A+0x3>
  401ba6:	61                   	(bad)  
  401ba7:	74 63                	je     401c0c <_intel_fast_memcpy.J+0xc>
  401ba9:	68 0a 00 49 6e       	pushq  $0x6e49000a

0000000000401bac <msg_wrong_edx>:
  401bac:	49 6e                	rex.WB outsb  %ds:(%rsi),(%dx)
  401bae:	63 6f 72             	movslq 0x72(%rdi),%ebp
  401bb1:	72 65                	jb     401c18 <_intel_fast_memcpy.A+0x8>
  401bb3:	63 74 3a 20          	movslq 0x20(%rdx,%rdi,1),%esi
  401bb7:	45                   	rex.RB
  401bb8:	44 58                	rex.R pop    %rax
  401bba:	20 6d 69             	and    %ch,0x69(%rbp)
  401bbd:	73 6d                	jae    401c2c <_intel_fast_memset+0xc>
  401bbf:	61                   	(bad)  
  401bc0:	74 63                	je     401c25 <_intel_fast_memset+0x5>
  401bc2:	68 0a 00 44 6f       	pushq  $0x6f44000a

0000000000401bc5 <msg_done>:
  401bc5:	44 6f                	rex.R outsl  %ds:(%rsi),(%dx)
  401bc7:	6e                   	outsb  %ds:(%rsi),(%dx)
  401bc8:	65 0a 00             	or     %gs:(%rax),%al
  401bcb:	90                   	nop    
  401bcc:	90                   	nop    
  401bcd:	90                   	nop    
  401bce:	90                   	nop    
  401bcf:	90                   	nop    

0000000000401bd0 <_intel_fast_memcpy>:
  401bd0:	48 8b 05 99 8c 10 00 	mov    1084569(%rip),%rax        # 50a870 <_DYNAMIC+0x1c0>
  401bd7:	8b 00                	mov    (%rax),%eax
  401bd9:	a9 00 fe ff ff       	test   $0xfffffe00,%eax
  401bde:	0f 85 1c 00 00 00    	jne    401c00 <_intel_fast_memcpy.J>
  401be4:	a9 ff ff ff ff       	test   $0xffffffff,%eax
  401be9:	0f 85 21 00 00 00    	jne    401c10 <_intel_fast_memcpy.A>
  401bef:	48 83 ec 08          	sub    $0x8,%rsp
  401bf3:	e8 f8 4f 00 00       	callq  406bf0 <__intel_cpu_indicator_init>
  401bf8:	48 83 c4 08          	add    $0x8,%rsp
  401bfc:	eb d2                	jmp    401bd0 <_intel_fast_memcpy>
  401bfe:	90                   	nop    
  401bff:	90                   	nop    

0000000000401c00 <_intel_fast_memcpy.J>:
  401c00:	56                   	push   %rsi
  401c01:	e8 aa 15 00 00       	callq  4031b0 <__intel_new_memcpy>
  401c06:	59                   	pop    %rcx
  401c07:	c3                   	retq   
  401c08:	48 8d b4 26 00 00 00 	lea    0x0(%rsi),%rsi
  401c0f:	00 

0000000000401c10 <_intel_fast_memcpy.A>:
  401c10:	56                   	push   %rsi
  401c11:	e8 a2 ec ff ff       	callq  4008b8 <memcpy@plt>
  401c16:	59                   	pop    %rcx
  401c17:	c3                   	retq   
  401c18:	48 8d b4 26 00 00 00 	lea    0x0(%rsi),%rsi
  401c1f:	00 

0000000000401c20 <_intel_fast_memset>:
  401c20:	48 8b 05 49 8c 10 00 	mov    1084489(%rip),%rax        # 50a870 <_DYNAMIC+0x1c0>
  401c27:	8b 00                	mov    (%rax),%eax
  401c29:	a9 00 fe ff ff       	test   $0xfffffe00,%eax
  401c2e:	0f 85 1c 00 00 00    	jne    401c50 <_intel_fast_memset.J>
  401c34:	a9 ff ff ff ff       	test   $0xffffffff,%eax
  401c39:	0f 85 21 00 00 00    	jne    401c60 <_intel_fast_memset.A>
  401c3f:	48 83 ec 08          	sub    $0x8,%rsp
  401c43:	e8 a8 4f 00 00       	callq  406bf0 <__intel_cpu_indicator_init>
  401c48:	48 83 c4 08          	add    $0x8,%rsp
  401c4c:	eb d2                	jmp    401c20 <_intel_fast_memset>
  401c4e:	90                   	nop    
  401c4f:	90                   	nop    

0000000000401c50 <_intel_fast_memset.J>:
  401c50:	56                   	push   %rsi
  401c51:	e8 3a 39 00 00       	callq  405590 <__intel_new_memset>
  401c56:	59                   	pop    %rcx
  401c57:	c3                   	retq   
  401c58:	48 8d b4 26 00 00 00 	lea    0x0(%rsi),%rsi
  401c5f:	00 

0000000000401c60 <_intel_fast_memset.A>:
  401c60:	56                   	push   %rsi
  401c61:	e8 a2 ec ff ff       	callq  400908 <memset@plt>
  401c66:	59                   	pop    %rcx
  401c67:	c3                   	retq   
  401c68:	48 8d b4 26 00 00 00 	lea    0x0(%rsi),%rsi
  401c6f:	00 

0000000000401c70 <__intel_proc_init_N.A>:
  401c70:	48 81 ec 08 02 00 00 	sub    $0x208,%rsp
  401c77:	bf 01 00 00 00       	mov    $0x1,%edi
  401c7c:	33 f6                	xor    %esi,%esi
  401c7e:	33 d2                	xor    %edx,%edx
  401c80:	33 c0                	xor    %eax,%eax
  401c82:	e8 29 4b 00 00       	callq  4067b0 <irc__print>
  401c87:	bf 01 00 00 00       	mov    $0x1,%edi
  401c8c:	be 17 00 00 00       	mov    $0x17,%esi
  401c91:	33 d2                	xor    %edx,%edx
  401c93:	33 c0                	xor    %eax,%eax
  401c95:	e8 16 4b 00 00       	callq  4067b0 <irc__print>
  401c9a:	bf 2d 00 00 00       	mov    $0x2d,%edi
  401c9f:	33 f6                	xor    %esi,%esi
  401ca1:	33 c0                	xor    %eax,%eax
  401ca3:	e8 58 4d 00 00       	callq  406a00 <irc__get_msg>
  401ca8:	48 8d 3c 24          	lea    (%rsp),%rdi
  401cac:	48 89 c6             	mov    %rax,%rsi
  401caf:	ba 00 02 00 00       	mov    $0x200,%edx
  401cb4:	e8 bf eb ff ff       	callq  400878 <strncpy@plt>
  401cb9:	48 8d 0c 24          	lea    (%rsp),%rcx
  401cbd:	bf 01 00 00 00       	mov    $0x1,%edi
  401cc2:	be 18 00 00 00       	mov    $0x18,%esi
  401cc7:	89 fa                	mov    %edi,%edx
  401cc9:	33 c0                	xor    %eax,%eax
  401ccb:	e8 e0 4a 00 00       	callq  4067b0 <irc__print>
  401cd0:	bf 01 00 00 00       	mov    $0x1,%edi
  401cd5:	33 f6                	xor    %esi,%esi
  401cd7:	33 d2                	xor    %edx,%edx
  401cd9:	33 c0                	xor    %eax,%eax
  401cdb:	e8 d0 4a 00 00       	callq  4067b0 <irc__print>
  401ce0:	bf 01 00 00 00       	mov    $0x1,%edi
  401ce5:	e8 2e ec ff ff       	callq  400918 <exit@plt>
  401cea:	90                   	nop    
  401ceb:	48 8d 74 26 00       	lea    0x0(%rsi),%rsi

0000000000401cf0 <__intel_proc_init_N.J>:
  401cf0:	48 81 ec 08 02 00 00 	sub    $0x208,%rsp
  401cf7:	48 8d 3c 24          	lea    (%rsp),%rdi
  401cfb:	33 f6                	xor    %esi,%esi
  401cfd:	ba 00 02 00 00       	mov    $0x200,%edx
  401d02:	e8 01 ec ff ff       	callq  400908 <memset@plt>
  401d07:	0f ae 04 24          	fxsave (%rsp)
  401d0b:	8b 54 24 1c          	mov    0x1c(%rsp),%edx
  401d0f:	0f ae 9c 24 00 02 00 	stmxcsr 0x200(%rsp)
  401d16:	00 
  401d17:	8b 84 24 00 02 00 00 	mov    0x200(%rsp),%eax
  401d1e:	83 e2 40             	and    $0x40,%edx
  401d21:	0d 00 80 00 00       	or     $0x8000,%eax
  401d26:	89 84 24 00 02 00 00 	mov    %eax,0x200(%rsp)
  401d2d:	0f ae 94 24 00 02 00 	ldmxcsr 0x200(%rsp)
  401d34:	00 
  401d35:	85 d2                	test   %edx,%edx
  401d37:	74 21                	je     401d5a <__intel_proc_init_N.J+0x6a>
  401d39:	0f ae 9c 24 00 02 00 	stmxcsr 0x200(%rsp)
  401d40:	00 
  401d41:	8b 84 24 00 02 00 00 	mov    0x200(%rsp),%eax
  401d48:	83 c8 40             	or     $0x40,%eax
  401d4b:	89 84 24 00 02 00 00 	mov    %eax,0x200(%rsp)
  401d52:	0f ae 94 24 00 02 00 	ldmxcsr 0x200(%rsp)
  401d59:	00 
  401d5a:	48 81 c4 08 02 00 00 	add    $0x208,%rsp
  401d61:	c3                   	retq   
  401d62:	48 8d b6 00 00 00 00 	lea    0x0(%rsi),%rsi
  401d69:	48 8d bf 00 00 00 00 	lea    0x0(%rdi),%rdi

0000000000401d70 <__intel_proc_init_N.K>:
  401d70:	0f ae 5c 24 f8       	stmxcsr 0xfffffffffffffff8(%rsp)
  401d75:	8b 44 24 f8          	mov    0xfffffffffffffff8(%rsp),%eax
  401d79:	0d 00 80 00 00       	or     $0x8000,%eax
  401d7e:	89 44 24 f8          	mov    %eax,0xfffffffffffffff8(%rsp)
  401d82:	0f ae 54 24 f8       	ldmxcsr 0xfffffffffffffff8(%rsp)
  401d87:	0f ae 5c 24 f8       	stmxcsr 0xfffffffffffffff8(%rsp)
  401d8c:	8b 44 24 f8          	mov    0xfffffffffffffff8(%rsp),%eax
  401d90:	83 c8 40             	or     $0x40,%eax
  401d93:	89 44 24 f8          	mov    %eax,0xfffffffffffffff8(%rsp)
  401d97:	0f ae 54 24 f8       	ldmxcsr 0xfffffffffffffff8(%rsp)
  401d9c:	c3                   	retq   
  401d9d:	48 89 f6             	mov    %rsi,%rsi

0000000000401da0 <__intel_proc_init_N.L>:
  401da0:	0f ae 5c 24 f8       	stmxcsr 0xfffffffffffffff8(%rsp)
  401da5:	8b 44 24 f8          	mov    0xfffffffffffffff8(%rsp),%eax
  401da9:	0d 00 80 00 00       	or     $0x8000,%eax
  401dae:	89 44 24 f8          	mov    %eax,0xfffffffffffffff8(%rsp)
  401db2:	0f ae 54 24 f8       	ldmxcsr 0xfffffffffffffff8(%rsp)
  401db7:	0f ae 5c 24 f8       	stmxcsr 0xfffffffffffffff8(%rsp)
  401dbc:	8b 44 24 f8          	mov    0xfffffffffffffff8(%rsp),%eax
  401dc0:	83 c8 40             	or     $0x40,%eax
  401dc3:	89 44 24 f8          	mov    %eax,0xfffffffffffffff8(%rsp)
  401dc7:	0f ae 54 24 f8       	ldmxcsr 0xfffffffffffffff8(%rsp)
  401dcc:	c3                   	retq   
  401dcd:	48 89 f6             	mov    %rsi,%rsi

0000000000401dd0 <__intel_proc_init_N>:
  401dd0:	48 8b 05 99 8a 10 00 	mov    1084057(%rip),%rax        # 50a870 <_DYNAMIC+0x1c0>
  401dd7:	8b 00                	mov    (%rax),%eax
  401dd9:	a9 00 f8 ff ff       	test   $0xfffff800,%eax
  401dde:	0f 85 bc ff ff ff    	jne    401da0 <__intel_proc_init_N.L>
  401de4:	a9 00 04 00 00       	test   $0x400,%eax
  401de9:	0f 85 81 ff ff ff    	jne    401d70 <__intel_proc_init_N.K>
  401def:	a9 00 fe ff ff       	test   $0xfffffe00,%eax
  401df4:	0f 85 f6 fe ff ff    	jne    401cf0 <__intel_proc_init_N.J>
  401dfa:	a9 ff ff ff ff       	test   $0xffffffff,%eax
  401dff:	0f 85 6b fe ff ff    	jne    401c70 <__intel_proc_init_N.A>
  401e05:	48 83 ec 08          	sub    $0x8,%rsp
  401e09:	e8 e2 4d 00 00       	callq  406bf0 <__intel_cpu_indicator_init>
  401e0e:	48 83 c4 08          	add    $0x8,%rsp
  401e12:	eb bc                	jmp    401dd0 <__intel_proc_init_N>
  401e14:	90                   	nop    
  401e15:	48 8d 74 26 00       	lea    0x0(%rsi),%rsi
  401e1a:	90                   	nop    
  401e1b:	48 8d 7c 27 00       	lea    0x0(%rdi),%rdi

0000000000401e20 <__intel_new_proc_init_N.A>:
  401e20:	48 81 ec 08 02 00 00 	sub    $0x208,%rsp
  401e27:	bf 01 00 00 00       	mov    $0x1,%edi
  401e2c:	33 f6                	xor    %esi,%esi
  401e2e:	33 d2                	xor    %edx,%edx
  401e30:	33 c0                	xor    %eax,%eax
  401e32:	e8 79 49 00 00       	callq  4067b0 <irc__print>
  401e37:	bf 01 00 00 00       	mov    $0x1,%edi
  401e3c:	be 17 00 00 00       	mov    $0x17,%esi
  401e41:	33 d2                	xor    %edx,%edx
  401e43:	33 c0                	xor    %eax,%eax
  401e45:	e8 66 49 00 00       	callq  4067b0 <irc__print>
  401e4a:	bf 2d 00 00 00       	mov    $0x2d,%edi
  401e4f:	33 f6                	xor    %esi,%esi
  401e51:	33 c0                	xor    %eax,%eax
  401e53:	e8 a8 4b 00 00       	callq  406a00 <irc__get_msg>
  401e58:	48 8d 3c 24          	lea    (%rsp),%rdi
  401e5c:	48 89 c6             	mov    %rax,%rsi
  401e5f:	ba 00 02 00 00       	mov    $0x200,%edx
  401e64:	e8 0f ea ff ff       	callq  400878 <strncpy@plt>
  401e69:	48 8d 0c 24          	lea    (%rsp),%rcx
  401e6d:	bf 01 00 00 00       	mov    $0x1,%edi
  401e72:	be 18 00 00 00       	mov    $0x18,%esi
  401e77:	89 fa                	mov    %edi,%edx
  401e79:	33 c0                	xor    %eax,%eax
  401e7b:	e8 30 49 00 00       	callq  4067b0 <irc__print>
  401e80:	bf 01 00 00 00       	mov    $0x1,%edi
  401e85:	33 f6                	xor    %esi,%esi
  401e87:	33 d2                	xor    %edx,%edx
  401e89:	33 c0                	xor    %eax,%eax
  401e8b:	e8 20 49 00 00       	callq  4067b0 <irc__print>
  401e90:	bf 01 00 00 00       	mov    $0x1,%edi
  401e95:	e8 7e ea ff ff       	callq  400918 <exit@plt>
  401e9a:	90                   	nop    
  401e9b:	48 8d 74 26 00       	lea    0x0(%rsi),%rsi

0000000000401ea0 <__intel_new_proc_init_N.J>:
  401ea0:	41 57                	push   %r15
  401ea2:	41 56                	push   %r14
  401ea4:	55                   	push   %rbp
  401ea5:	48 81 ec 10 02 00 00 	sub    $0x210,%rsp
  401eac:	41 89 ff             	mov    %edi,%r15d
  401eaf:	44 89 fd             	mov    %r15d,%ebp
  401eb2:	83 e5 02             	and    $0x2,%ebp
  401eb5:	45 89 fe             	mov    %r15d,%r14d
  401eb8:	41 83 e6 04          	and    $0x4,%r14d
  401ebc:	85 ed                	test   %ebp,%ebp
  401ebe:	75 05                	jne    401ec5 <__intel_new_proc_init_N.J+0x25>
  401ec0:	45 85 f6             	test   %r14d,%r14d
  401ec3:	74 2c                	je     401ef1 <__intel_new_proc_init_N.J+0x51>
  401ec5:	48 8d 3c 24          	lea    (%rsp),%rdi
  401ec9:	33 f6                	xor    %esi,%esi
  401ecb:	ba 00 02 00 00       	mov    $0x200,%edx
  401ed0:	e8 33 ea ff ff       	callq  400908 <memset@plt>
  401ed5:	0f ae 04 24          	fxsave (%rsp)
  401ed9:	8b 54 24 1c          	mov    0x1c(%rsp),%edx
  401edd:	33 c9                	xor    %ecx,%ecx
  401edf:	89 d0                	mov    %edx,%eax
  401ee1:	83 e0 40             	and    $0x40,%eax
  401ee4:	0f 44 e9             	cmove  %ecx,%ebp
  401ee7:	81 e2 00 00 02 00    	and    $0x20000,%edx
  401eed:	44 0f 44 f1          	cmove  %ecx,%r14d
  401ef1:	41 f7 c7 01 00 00 00 	test   $0x1,%r15d
  401ef8:	75 5a                	jne    401f54 <__intel_new_proc_init_N.J+0xb4>
  401efa:	85 ed                	test   %ebp,%ebp
  401efc:	74 21                	je     401f1f <__intel_new_proc_init_N.J+0x7f>
  401efe:	0f ae 9c 24 00 02 00 	stmxcsr 0x200(%rsp)
  401f05:	00 
  401f06:	8b 84 24 00 02 00 00 	mov    0x200(%rsp),%eax
  401f0d:	83 c8 40             	or     $0x40,%eax
  401f10:	89 84 24 00 02 00 00 	mov    %eax,0x200(%rsp)
  401f17:	0f ae 94 24 00 02 00 	ldmxcsr 0x200(%rsp)
  401f1e:	00 
  401f1f:	45 85 f6             	test   %r14d,%r14d
  401f22:	74 23                	je     401f47 <__intel_new_proc_init_N.J+0xa7>
  401f24:	0f ae 9c 24 00 02 00 	stmxcsr 0x200(%rsp)
  401f2b:	00 
  401f2c:	8b 84 24 00 02 00 00 	mov    0x200(%rsp),%eax
  401f33:	0d 00 00 02 00       	or     $0x20000,%eax
  401f38:	89 84 24 00 02 00 00 	mov    %eax,0x200(%rsp)
  401f3f:	0f ae 94 24 00 02 00 	ldmxcsr 0x200(%rsp)
  401f46:	00 
  401f47:	48 81 c4 10 02 00 00 	add    $0x210,%rsp
  401f4e:	5d                   	pop    %rbp
  401f4f:	41 5e                	pop    %r14
  401f51:	41 5f                	pop    %r15
  401f53:	c3                   	retq   
  401f54:	0f ae 9c 24 00 02 00 	stmxcsr 0x200(%rsp)
  401f5b:	00 
  401f5c:	8b 84 24 00 02 00 00 	mov    0x200(%rsp),%eax
  401f63:	0d 00 80 00 00       	or     $0x8000,%eax
  401f68:	89 84 24 00 02 00 00 	mov    %eax,0x200(%rsp)
  401f6f:	0f ae 94 24 00 02 00 	ldmxcsr 0x200(%rsp)
  401f76:	00 
  401f77:	eb 81                	jmp    401efa <__intel_new_proc_init_N.J+0x5a>
  401f79:	48 8d b6 00 00 00 00 	lea    0x0(%rsi),%rsi

0000000000401f80 <__intel_new_proc_init_N.K>:
  401f80:	41 57                	push   %r15
  401f82:	41 56                	push   %r14
  401f84:	55                   	push   %rbp
  401f85:	48 81 ec 10 02 00 00 	sub    $0x210,%rsp
  401f8c:	41 89 ff             	mov    %edi,%r15d
  401f8f:	44 89 fd             	mov    %r15d,%ebp
  401f92:	83 e5 02             	and    $0x2,%ebp
  401f95:	45 89 fe             	mov    %r15d,%r14d
  401f98:	41 83 e6 04          	and    $0x4,%r14d
  401f9c:	74 2c                	je     401fca <__intel_new_proc_init_N.K+0x4a>
  401f9e:	48 8d 3c 24          	lea    (%rsp),%rdi
  401fa2:	33 f6                	xor    %esi,%esi
  401fa4:	ba 00 02 00 00       	mov    $0x200,%edx
  401fa9:	e8 5a e9 ff ff       	callq  400908 <memset@plt>
  401fae:	0f ae 04 24          	fxsave (%rsp)
  401fb2:	8b 54 24 1c          	mov    0x1c(%rsp),%edx
  401fb6:	33 c9                	xor    %ecx,%ecx
  401fb8:	89 d0                	mov    %edx,%eax
  401fba:	83 e0 40             	and    $0x40,%eax
  401fbd:	0f 44 e9             	cmove  %ecx,%ebp
  401fc0:	81 e2 00 00 02 00    	and    $0x20000,%edx
  401fc6:	44 0f 44 f1          	cmove  %ecx,%r14d
  401fca:	41 f7 c7 01 00 00 00 	test   $0x1,%r15d
  401fd1:	75 5a                	jne    40202d <__intel_new_proc_init_N.K+0xad>
  401fd3:	85 ed                	test   %ebp,%ebp
  401fd5:	74 21                	je     401ff8 <__intel_new_proc_init_N.K+0x78>
  401fd7:	0f ae 9c 24 00 02 00 	stmxcsr 0x200(%rsp)
  401fde:	00 
  401fdf:	8b 84 24 00 02 00 00 	mov    0x200(%rsp),%eax
  401fe6:	83 c8 40             	or     $0x40,%eax
  401fe9:	89 84 24 00 02 00 00 	mov    %eax,0x200(%rsp)
  401ff0:	0f ae 94 24 00 02 00 	ldmxcsr 0x200(%rsp)
  401ff7:	00 
  401ff8:	45 85 f6             	test   %r14d,%r14d
  401ffb:	74 23                	je     402020 <__intel_new_proc_init_N.K+0xa0>
  401ffd:	0f ae 9c 24 00 02 00 	stmxcsr 0x200(%rsp)
  402004:	00 
  402005:	8b 84 24 00 02 00 00 	mov    0x200(%rsp),%eax
  40200c:	0d 00 00 02 00       	or     $0x20000,%eax
  402011:	89 84 24 00 02 00 00 	mov    %eax,0x200(%rsp)
  402018:	0f ae 94 24 00 02 00 	ldmxcsr 0x200(%rsp)
  40201f:	00 
  402020:	48 81 c4 10 02 00 00 	add    $0x210,%rsp
  402027:	5d                   	pop    %rbp
  402028:	41 5e                	pop    %r14
  40202a:	41 5f                	pop    %r15
  40202c:	c3                   	retq   
  40202d:	0f ae 9c 24 00 02 00 	stmxcsr 0x200(%rsp)
  402034:	00 
  402035:	8b 84 24 00 02 00 00 	mov    0x200(%rsp),%eax
  40203c:	0d 00 80 00 00       	or     $0x8000,%eax
  402041:	89 84 24 00 02 00 00 	mov    %eax,0x200(%rsp)
  402048:	0f ae 94 24 00 02 00 	ldmxcsr 0x200(%rsp)
  40204f:	00 
  402050:	eb 81                	jmp    401fd3 <__intel_new_proc_init_N.K+0x53>
  402052:	48 8d b6 00 00 00 00 	lea    0x0(%rsi),%rsi
  402059:	48 8d bf 00 00 00 00 	lea    0x0(%rdi),%rdi

0000000000402060 <__intel_new_proc_init_N.L>:
  402060:	41 57                	push   %r15
  402062:	41 56                	push   %r14
  402064:	55                   	push   %rbp
  402065:	48 81 ec 10 02 00 00 	sub    $0x210,%rsp
  40206c:	41 89 ff             	mov    %edi,%r15d
  40206f:	44 89 fd             	mov    %r15d,%ebp
  402072:	83 e5 02             	and    $0x2,%ebp
  402075:	45 89 fe             	mov    %r15d,%r14d
  402078:	41 83 e6 04          	and    $0x4,%r14d
  40207c:	74 2c                	je     4020aa <__intel_new_proc_init_N.L+0x4a>
  40207e:	48 8d 3c 24          	lea    (%rsp),%rdi
  402082:	33 f6                	xor    %esi,%esi
  402084:	ba 00 02 00 00       	mov    $0x200,%edx
  402089:	e8 7a e8 ff ff       	callq  400908 <memset@plt>
  40208e:	0f ae 04 24          	fxsave (%rsp)
  402092:	8b 54 24 1c          	mov    0x1c(%rsp),%edx
  402096:	33 c9                	xor    %ecx,%ecx
  402098:	89 d0                	mov    %edx,%eax
  40209a:	83 e0 40             	and    $0x40,%eax
  40209d:	0f 44 e9             	cmove  %ecx,%ebp
  4020a0:	81 e2 00 00 02 00    	and    $0x20000,%edx
  4020a6:	44 0f 44 f1          	cmove  %ecx,%r14d
  4020aa:	41 f7 c7 01 00 00 00 	test   $0x1,%r15d
  4020b1:	75 5a                	jne    40210d <__intel_new_proc_init_N.L+0xad>
  4020b3:	85 ed                	test   %ebp,%ebp
  4020b5:	74 21                	je     4020d8 <__intel_new_proc_init_N.L+0x78>
  4020b7:	0f ae 9c 24 00 02 00 	stmxcsr 0x200(%rsp)
  4020be:	00 
  4020bf:	8b 84 24 00 02 00 00 	mov    0x200(%rsp),%eax
  4020c6:	83 c8 40             	or     $0x40,%eax
  4020c9:	89 84 24 00 02 00 00 	mov    %eax,0x200(%rsp)
  4020d0:	0f ae 94 24 00 02 00 	ldmxcsr 0x200(%rsp)
  4020d7:	00 
  4020d8:	45 85 f6             	test   %r14d,%r14d
  4020db:	74 23                	je     402100 <__intel_new_proc_init_N.L+0xa0>
  4020dd:	0f ae 9c 24 00 02 00 	stmxcsr 0x200(%rsp)
  4020e4:	00 
  4020e5:	8b 84 24 00 02 00 00 	mov    0x200(%rsp),%eax
  4020ec:	0d 00 00 02 00       	or     $0x20000,%eax
  4020f1:	89 84 24 00 02 00 00 	mov    %eax,0x200(%rsp)
  4020f8:	0f ae 94 24 00 02 00 	ldmxcsr 0x200(%rsp)
  4020ff:	00 
  402100:	48 81 c4 10 02 00 00 	add    $0x210,%rsp
  402107:	5d                   	pop    %rbp
  402108:	41 5e                	pop    %r14
  40210a:	41 5f                	pop    %r15
  40210c:	c3                   	retq   
  40210d:	0f ae 9c 24 00 02 00 	stmxcsr 0x200(%rsp)
  402114:	00 
  402115:	8b 84 24 00 02 00 00 	mov    0x200(%rsp),%eax
  40211c:	0d 00 80 00 00       	or     $0x8000,%eax
  402121:	89 84 24 00 02 00 00 	mov    %eax,0x200(%rsp)
  402128:	0f ae 94 24 00 02 00 	ldmxcsr 0x200(%rsp)
  40212f:	00 
  402130:	eb 81                	jmp    4020b3 <__intel_new_proc_init_N.L+0x53>
  402132:	48 8d b6 00 00 00 00 	lea    0x0(%rsi),%rsi
  402139:	48 8d bf 00 00 00 00 	lea    0x0(%rdi),%rdi

0000000000402140 <__intel_new_proc_init_N>:
  402140:	48 8b 05 29 87 10 00 	mov    1083177(%rip),%rax        # 50a870 <_DYNAMIC+0x1c0>
  402147:	8b 00                	mov    (%rax),%eax
  402149:	a9 00 f8 ff ff       	test   $0xfffff800,%eax
  40214e:	0f 85 0c ff ff ff    	jne    402060 <__intel_new_proc_init_N.L>
  402154:	a9 00 04 00 00       	test   $0x400,%eax
  402159:	0f 85 21 fe ff ff    	jne    401f80 <__intel_new_proc_init_N.K>
  40215f:	a9 00 fe ff ff       	test   $0xfffffe00,%eax
  402164:	0f 85 36 fd ff ff    	jne    401ea0 <__intel_new_proc_init_N.J>
  40216a:	a9 ff ff ff ff       	test   $0xffffffff,%eax
  40216f:	0f 85 ab fc ff ff    	jne    401e20 <__intel_new_proc_init_N.A>
  402175:	48 83 ec 08          	sub    $0x8,%rsp
  402179:	e8 72 4a 00 00       	callq  406bf0 <__intel_cpu_indicator_init>
  40217e:	48 83 c4 08          	add    $0x8,%rsp
  402182:	eb bc                	jmp    402140 <__intel_new_proc_init_N>
  402184:	90                   	nop    
  402185:	48 8d 74 26 00       	lea    0x0(%rsi),%rsi
  40218a:	90                   	nop    
  40218b:	48 8d 7c 27 00       	lea    0x0(%rdi),%rdi

0000000000402190 <__intel_proc_init_B.A>:
  402190:	48 81 ec 08 02 00 00 	sub    $0x208,%rsp
  402197:	bf 01 00 00 00       	mov    $0x1,%edi
  40219c:	33 f6                	xor    %esi,%esi
  40219e:	33 d2                	xor    %edx,%edx
  4021a0:	33 c0                	xor    %eax,%eax
  4021a2:	e8 09 46 00 00       	callq  4067b0 <irc__print>
  4021a7:	bf 01 00 00 00       	mov    $0x1,%edi
  4021ac:	be 17 00 00 00       	mov    $0x17,%esi
  4021b1:	33 d2                	xor    %edx,%edx
  4021b3:	33 c0                	xor    %eax,%eax
  4021b5:	e8 f6 45 00 00       	callq  4067b0 <irc__print>
  4021ba:	bf 2c 00 00 00       	mov    $0x2c,%edi
  4021bf:	33 f6                	xor    %esi,%esi
  4021c1:	33 c0                	xor    %eax,%eax
  4021c3:	e8 38 48 00 00       	callq  406a00 <irc__get_msg>
  4021c8:	48 8d 3c 24          	lea    (%rsp),%rdi
  4021cc:	48 89 c6             	mov    %rax,%rsi
  4021cf:	ba 00 02 00 00       	mov    $0x200,%edx
  4021d4:	e8 9f e6 ff ff       	callq  400878 <strncpy@plt>
  4021d9:	48 8d 0c 24          	lea    (%rsp),%rcx
  4021dd:	bf 01 00 00 00       	mov    $0x1,%edi
  4021e2:	be 18 00 00 00       	mov    $0x18,%esi
  4021e7:	89 fa                	mov    %edi,%edx
  4021e9:	33 c0                	xor    %eax,%eax
  4021eb:	e8 c0 45 00 00       	callq  4067b0 <irc__print>
  4021f0:	bf 01 00 00 00       	mov    $0x1,%edi
  4021f5:	33 f6                	xor    %esi,%esi
  4021f7:	33 d2                	xor    %edx,%edx
  4021f9:	33 c0                	xor    %eax,%eax
  4021fb:	e8 b0 45 00 00       	callq  4067b0 <irc__print>
  402200:	bf 01 00 00 00       	mov    $0x1,%edi
  402205:	e8 0e e7 ff ff       	callq  400918 <exit@plt>
  40220a:	90                   	nop    
  40220b:	48 8d 74 26 00       	lea    0x0(%rsi),%rsi

0000000000402210 <__intel_proc_init_B.J>:
  402210:	48 81 ec 08 02 00 00 	sub    $0x208,%rsp
  402217:	48 8d 3c 24          	lea    (%rsp),%rdi
  40221b:	33 f6                	xor    %esi,%esi
  40221d:	ba 00 02 00 00       	mov    $0x200,%edx
  402222:	e8 e1 e6 ff ff       	callq  400908 <memset@plt>
  402227:	0f ae 04 24          	fxsave (%rsp)
  40222b:	8b 54 24 1c          	mov    0x1c(%rsp),%edx
  40222f:	0f ae 9c 24 00 02 00 	stmxcsr 0x200(%rsp)
  402236:	00 
  402237:	8b 84 24 00 02 00 00 	mov    0x200(%rsp),%eax
  40223e:	83 e2 40             	and    $0x40,%edx
  402241:	0d 00 80 00 00       	or     $0x8000,%eax
  402246:	89 84 24 00 02 00 00 	mov    %eax,0x200(%rsp)
  40224d:	0f ae 94 24 00 02 00 	ldmxcsr 0x200(%rsp)
  402254:	00 
  402255:	85 d2                	test   %edx,%edx
  402257:	74 21                	je     40227a <__intel_proc_init_B.J+0x6a>
  402259:	0f ae 9c 24 00 02 00 	stmxcsr 0x200(%rsp)
  402260:	00 
  402261:	8b 84 24 00 02 00 00 	mov    0x200(%rsp),%eax
  402268:	83 c8 40             	or     $0x40,%eax
  40226b:	89 84 24 00 02 00 00 	mov    %eax,0x200(%rsp)
  402272:	0f ae 94 24 00 02 00 	ldmxcsr 0x200(%rsp)
  402279:	00 
  40227a:	48 81 c4 08 02 00 00 	add    $0x208,%rsp
  402281:	c3                   	retq   
  402282:	48 8d b6 00 00 00 00 	lea    0x0(%rsi),%rsi
  402289:	48 8d bf 00 00 00 00 	lea    0x0(%rdi),%rdi

0000000000402290 <__intel_proc_init_B.K>:
  402290:	0f ae 5c 24 f8       	stmxcsr 0xfffffffffffffff8(%rsp)
  402295:	8b 44 24 f8          	mov    0xfffffffffffffff8(%rsp),%eax
  402299:	0d 00 80 00 00       	or     $0x8000,%eax
  40229e:	89 44 24 f8          	mov    %eax,0xfffffffffffffff8(%rsp)
  4022a2:	0f ae 54 24 f8       	ldmxcsr 0xfffffffffffffff8(%rsp)
  4022a7:	0f ae 5c 24 f8       	stmxcsr 0xfffffffffffffff8(%rsp)
  4022ac:	8b 44 24 f8          	mov    0xfffffffffffffff8(%rsp),%eax
  4022b0:	83 c8 40             	or     $0x40,%eax
  4022b3:	89 44 24 f8          	mov    %eax,0xfffffffffffffff8(%rsp)
  4022b7:	0f ae 54 24 f8       	ldmxcsr 0xfffffffffffffff8(%rsp)
  4022bc:	c3                   	retq   
  4022bd:	48 89 f6             	mov    %rsi,%rsi

00000000004022c0 <__intel_proc_init_B.L>:
  4022c0:	0f ae 5c 24 f8       	stmxcsr 0xfffffffffffffff8(%rsp)
  4022c5:	8b 44 24 f8          	mov    0xfffffffffffffff8(%rsp),%eax
  4022c9:	0d 00 80 00 00       	or     $0x8000,%eax
  4022ce:	89 44 24 f8          	mov    %eax,0xfffffffffffffff8(%rsp)
  4022d2:	0f ae 54 24 f8       	ldmxcsr 0xfffffffffffffff8(%rsp)
  4022d7:	0f ae 5c 24 f8       	stmxcsr 0xfffffffffffffff8(%rsp)
  4022dc:	8b 44 24 f8          	mov    0xfffffffffffffff8(%rsp),%eax
  4022e0:	83 c8 40             	or     $0x40,%eax
  4022e3:	89 44 24 f8          	mov    %eax,0xfffffffffffffff8(%rsp)
  4022e7:	0f ae 54 24 f8       	ldmxcsr 0xfffffffffffffff8(%rsp)
  4022ec:	c3                   	retq   
  4022ed:	48 89 f6             	mov    %rsi,%rsi

00000000004022f0 <__intel_proc_init_B>:
  4022f0:	48 8b 05 79 85 10 00 	mov    1082745(%rip),%rax        # 50a870 <_DYNAMIC+0x1c0>
  4022f7:	8b 00                	mov    (%rax),%eax
  4022f9:	a9 00 f8 ff ff       	test   $0xfffff800,%eax
  4022fe:	0f 85 bc ff ff ff    	jne    4022c0 <__intel_proc_init_B.L>
  402304:	a9 00 04 00 00       	test   $0x400,%eax
  402309:	0f 85 81 ff ff ff    	jne    402290 <__intel_proc_init_B.K>
  40230f:	a9 00 fe ff ff       	test   $0xfffffe00,%eax
  402314:	0f 85 f6 fe ff ff    	jne    402210 <__intel_proc_init_B.J>
  40231a:	a9 ff ff ff ff       	test   $0xffffffff,%eax
  40231f:	0f 85 6b fe ff ff    	jne    402190 <__intel_proc_init_B.A>
  402325:	48 83 ec 08          	sub    $0x8,%rsp
  402329:	e8 c2 48 00 00       	callq  406bf0 <__intel_cpu_indicator_init>
  40232e:	48 83 c4 08          	add    $0x8,%rsp
  402332:	eb bc                	jmp    4022f0 <__intel_proc_init_B>
  402334:	90                   	nop    
  402335:	48 8d 74 26 00       	lea    0x0(%rsi),%rsi
  40233a:	90                   	nop    
  40233b:	48 8d 7c 27 00       	lea    0x0(%rdi),%rdi

0000000000402340 <__intel_new_proc_init_B.A>:
  402340:	48 81 ec 08 02 00 00 	sub    $0x208,%rsp
  402347:	bf 01 00 00 00       	mov    $0x1,%edi
  40234c:	33 f6                	xor    %esi,%esi
  40234e:	33 d2                	xor    %edx,%edx
  402350:	33 c0                	xor    %eax,%eax
  402352:	e8 59 44 00 00       	callq  4067b0 <irc__print>
  402357:	bf 01 00 00 00       	mov    $0x1,%edi
  40235c:	be 17 00 00 00       	mov    $0x17,%esi
  402361:	33 d2                	xor    %edx,%edx
  402363:	33 c0                	xor    %eax,%eax
  402365:	e8 46 44 00 00       	callq  4067b0 <irc__print>
  40236a:	bf 2c 00 00 00       	mov    $0x2c,%edi
  40236f:	33 f6                	xor    %esi,%esi
  402371:	33 c0                	xor    %eax,%eax
  402373:	e8 88 46 00 00       	callq  406a00 <irc__get_msg>
  402378:	48 8d 3c 24          	lea    (%rsp),%rdi
  40237c:	48 89 c6             	mov    %rax,%rsi
  40237f:	ba 00 02 00 00       	mov    $0x200,%edx
  402384:	e8 ef e4 ff ff       	callq  400878 <strncpy@plt>
  402389:	48 8d 0c 24          	lea    (%rsp),%rcx
  40238d:	bf 01 00 00 00       	mov    $0x1,%edi
  402392:	be 18 00 00 00       	mov    $0x18,%esi
  402397:	89 fa                	mov    %edi,%edx
  402399:	33 c0                	xor    %eax,%eax
  40239b:	e8 10 44 00 00       	callq  4067b0 <irc__print>
  4023a0:	bf 01 00 00 00       	mov    $0x1,%edi
  4023a5:	33 f6                	xor    %esi,%esi
  4023a7:	33 d2                	xor    %edx,%edx
  4023a9:	33 c0                	xor    %eax,%eax
  4023ab:	e8 00 44 00 00       	callq  4067b0 <irc__print>
  4023b0:	bf 01 00 00 00       	mov    $0x1,%edi
  4023b5:	e8 5e e5 ff ff       	callq  400918 <exit@plt>
  4023ba:	90                   	nop    
  4023bb:	48 8d 74 26 00       	lea    0x0(%rsi),%rsi

00000000004023c0 <__intel_new_proc_init_B.J>:
  4023c0:	41 57                	push   %r15
  4023c2:	41 56                	push   %r14
  4023c4:	55                   	push   %rbp
  4023c5:	48 81 ec 10 02 00 00 	sub    $0x210,%rsp
  4023cc:	41 89 ff             	mov    %edi,%r15d
  4023cf:	44 89 fd             	mov    %r15d,%ebp
  4023d2:	83 e5 02             	and    $0x2,%ebp
  4023d5:	45 89 fe             	mov    %r15d,%r14d
  4023d8:	41 83 e6 04          	and    $0x4,%r14d
  4023dc:	85 ed                	test   %ebp,%ebp
  4023de:	75 05                	jne    4023e5 <__intel_new_proc_init_B.J+0x25>
  4023e0:	45 85 f6             	test   %r14d,%r14d
  4023e3:	74 2c                	je     402411 <__intel_new_proc_init_B.J+0x51>
  4023e5:	48 8d 3c 24          	lea    (%rsp),%rdi
  4023e9:	33 f6                	xor    %esi,%esi
  4023eb:	ba 00 02 00 00       	mov    $0x200,%edx
  4023f0:	e8 13 e5 ff ff       	callq  400908 <memset@plt>
  4023f5:	0f ae 04 24          	fxsave (%rsp)
  4023f9:	8b 54 24 1c          	mov    0x1c(%rsp),%edx
  4023fd:	33 c9                	xor    %ecx,%ecx
  4023ff:	89 d0                	mov    %edx,%eax
  402401:	83 e0 40             	and    $0x40,%eax
  402404:	0f 44 e9             	cmove  %ecx,%ebp
  402407:	81 e2 00 00 02 00    	and    $0x20000,%edx
  40240d:	44 0f 44 f1          	cmove  %ecx,%r14d
  402411:	41 f7 c7 01 00 00 00 	test   $0x1,%r15d
  402418:	75 5a                	jne    402474 <__intel_new_proc_init_B.J+0xb4>
  40241a:	85 ed                	test   %ebp,%ebp
  40241c:	74 21                	je     40243f <__intel_new_proc_init_B.J+0x7f>
  40241e:	0f ae 9c 24 00 02 00 	stmxcsr 0x200(%rsp)
  402425:	00 
  402426:	8b 84 24 00 02 00 00 	mov    0x200(%rsp),%eax
  40242d:	83 c8 40             	or     $0x40,%eax
  402430:	89 84 24 00 02 00 00 	mov    %eax,0x200(%rsp)
  402437:	0f ae 94 24 00 02 00 	ldmxcsr 0x200(%rsp)
  40243e:	00 
  40243f:	45 85 f6             	test   %r14d,%r14d
  402442:	74 23                	je     402467 <__intel_new_proc_init_B.J+0xa7>
  402444:	0f ae 9c 24 00 02 00 	stmxcsr 0x200(%rsp)
  40244b:	00 
  40244c:	8b 84 24 00 02 00 00 	mov    0x200(%rsp),%eax
  402453:	0d 00 00 02 00       	or     $0x20000,%eax
  402458:	89 84 24 00 02 00 00 	mov    %eax,0x200(%rsp)
  40245f:	0f ae 94 24 00 02 00 	ldmxcsr 0x200(%rsp)
  402466:	00 
  402467:	48 81 c4 10 02 00 00 	add    $0x210,%rsp
  40246e:	5d                   	pop    %rbp
  40246f:	41 5e                	pop    %r14
  402471:	41 5f                	pop    %r15
  402473:	c3                   	retq   
  402474:	0f ae 9c 24 00 02 00 	stmxcsr 0x200(%rsp)
  40247b:	00 
  40247c:	8b 84 24 00 02 00 00 	mov    0x200(%rsp),%eax
  402483:	0d 00 80 00 00       	or     $0x8000,%eax
  402488:	89 84 24 00 02 00 00 	mov    %eax,0x200(%rsp)
  40248f:	0f ae 94 24 00 02 00 	ldmxcsr 0x200(%rsp)
  402496:	00 
  402497:	eb 81                	jmp    40241a <__intel_new_proc_init_B.J+0x5a>
  402499:	48 8d b6 00 00 00 00 	lea    0x0(%rsi),%rsi

00000000004024a0 <__intel_new_proc_init_B.K>:
  4024a0:	41 57                	push   %r15
  4024a2:	41 56                	push   %r14
  4024a4:	55                   	push   %rbp
  4024a5:	48 81 ec 10 02 00 00 	sub    $0x210,%rsp
  4024ac:	41 89 ff             	mov    %edi,%r15d
  4024af:	44 89 fd             	mov    %r15d,%ebp
  4024b2:	83 e5 02             	and    $0x2,%ebp
  4024b5:	45 89 fe             	mov    %r15d,%r14d
  4024b8:	41 83 e6 04          	and    $0x4,%r14d
  4024bc:	74 2c                	je     4024ea <__intel_new_proc_init_B.K+0x4a>
  4024be:	48 8d 3c 24          	lea    (%rsp),%rdi
  4024c2:	33 f6                	xor    %esi,%esi
  4024c4:	ba 00 02 00 00       	mov    $0x200,%edx
  4024c9:	e8 3a e4 ff ff       	callq  400908 <memset@plt>
  4024ce:	0f ae 04 24          	fxsave (%rsp)
  4024d2:	8b 54 24 1c          	mov    0x1c(%rsp),%edx
  4024d6:	33 c9                	xor    %ecx,%ecx
  4024d8:	89 d0                	mov    %edx,%eax
  4024da:	83 e0 40             	and    $0x40,%eax
  4024dd:	0f 44 e9             	cmove  %ecx,%ebp
  4024e0:	81 e2 00 00 02 00    	and    $0x20000,%edx
  4024e6:	44 0f 44 f1          	cmove  %ecx,%r14d
  4024ea:	41 f7 c7 01 00 00 00 	test   $0x1,%r15d
  4024f1:	75 5a                	jne    40254d <__intel_new_proc_init_B.K+0xad>
  4024f3:	85 ed                	test   %ebp,%ebp
  4024f5:	74 21                	je     402518 <__intel_new_proc_init_B.K+0x78>
  4024f7:	0f ae 9c 24 00 02 00 	stmxcsr 0x200(%rsp)
  4024fe:	00 
  4024ff:	8b 84 24 00 02 00 00 	mov    0x200(%rsp),%eax
  402506:	83 c8 40             	or     $0x40,%eax
  402509:	89 84 24 00 02 00 00 	mov    %eax,0x200(%rsp)
  402510:	0f ae 94 24 00 02 00 	ldmxcsr 0x200(%rsp)
  402517:	00 
  402518:	45 85 f6             	test   %r14d,%r14d
  40251b:	74 23                	je     402540 <__intel_new_proc_init_B.K+0xa0>
  40251d:	0f ae 9c 24 00 02 00 	stmxcsr 0x200(%rsp)
  402524:	00 
  402525:	8b 84 24 00 02 00 00 	mov    0x200(%rsp),%eax
  40252c:	0d 00 00 02 00       	or     $0x20000,%eax
  402531:	89 84 24 00 02 00 00 	mov    %eax,0x200(%rsp)
  402538:	0f ae 94 24 00 02 00 	ldmxcsr 0x200(%rsp)
  40253f:	00 
  402540:	48 81 c4 10 02 00 00 	add    $0x210,%rsp
  402547:	5d                   	pop    %rbp
  402548:	41 5e                	pop    %r14
  40254a:	41 5f                	pop    %r15
  40254c:	c3                   	retq   
  40254d:	0f ae 9c 24 00 02 00 	stmxcsr 0x200(%rsp)
  402554:	00 
  402555:	8b 84 24 00 02 00 00 	mov    0x200(%rsp),%eax
  40255c:	0d 00 80 00 00       	or     $0x8000,%eax
  402561:	89 84 24 00 02 00 00 	mov    %eax,0x200(%rsp)
  402568:	0f ae 94 24 00 02 00 	ldmxcsr 0x200(%rsp)
  40256f:	00 
  402570:	eb 81                	jmp    4024f3 <__intel_new_proc_init_B.K+0x53>
  402572:	48 8d b6 00 00 00 00 	lea    0x0(%rsi),%rsi
  402579:	48 8d bf 00 00 00 00 	lea    0x0(%rdi),%rdi

0000000000402580 <__intel_new_proc_init_B.L>:
  402580:	41 57                	push   %r15
  402582:	41 56                	push   %r14
  402584:	55                   	push   %rbp
  402585:	48 81 ec 10 02 00 00 	sub    $0x210,%rsp
  40258c:	41 89 ff             	mov    %edi,%r15d
  40258f:	44 89 fd             	mov    %r15d,%ebp
  402592:	83 e5 02             	and    $0x2,%ebp
  402595:	45 89 fe             	mov    %r15d,%r14d
  402598:	41 83 e6 04          	and    $0x4,%r14d
  40259c:	74 2c                	je     4025ca <__intel_new_proc_init_B.L+0x4a>
  40259e:	48 8d 3c 24          	lea    (%rsp),%rdi
  4025a2:	33 f6                	xor    %esi,%esi
  4025a4:	ba 00 02 00 00       	mov    $0x200,%edx
  4025a9:	e8 5a e3 ff ff       	callq  400908 <memset@plt>
  4025ae:	0f ae 04 24          	fxsave (%rsp)
  4025b2:	8b 54 24 1c          	mov    0x1c(%rsp),%edx
  4025b6:	33 c9                	xor    %ecx,%ecx
  4025b8:	89 d0                	mov    %edx,%eax
  4025ba:	83 e0 40             	and    $0x40,%eax
  4025bd:	0f 44 e9             	cmove  %ecx,%ebp
  4025c0:	81 e2 00 00 02 00    	and    $0x20000,%edx
  4025c6:	44 0f 44 f1          	cmove  %ecx,%r14d
  4025ca:	41 f7 c7 01 00 00 00 	test   $0x1,%r15d
  4025d1:	75 5a                	jne    40262d <__intel_new_proc_init_B.L+0xad>
  4025d3:	85 ed                	test   %ebp,%ebp
  4025d5:	74 21                	je     4025f8 <__intel_new_proc_init_B.L+0x78>
  4025d7:	0f ae 9c 24 00 02 00 	stmxcsr 0x200(%rsp)
  4025de:	00 
  4025df:	8b 84 24 00 02 00 00 	mov    0x200(%rsp),%eax
  4025e6:	83 c8 40             	or     $0x40,%eax
  4025e9:	89 84 24 00 02 00 00 	mov    %eax,0x200(%rsp)
  4025f0:	0f ae 94 24 00 02 00 	ldmxcsr 0x200(%rsp)
  4025f7:	00 
  4025f8:	45 85 f6             	test   %r14d,%r14d
  4025fb:	74 23                	je     402620 <__intel_new_proc_init_B.L+0xa0>
  4025fd:	0f ae 9c 24 00 02 00 	stmxcsr 0x200(%rsp)
  402604:	00 
  402605:	8b 84 24 00 02 00 00 	mov    0x200(%rsp),%eax
  40260c:	0d 00 00 02 00       	or     $0x20000,%eax
  402611:	89 84 24 00 02 00 00 	mov    %eax,0x200(%rsp)
  402618:	0f ae 94 24 00 02 00 	ldmxcsr 0x200(%rsp)
  40261f:	00 
  402620:	48 81 c4 10 02 00 00 	add    $0x210,%rsp
  402627:	5d                   	pop    %rbp
  402628:	41 5e                	pop    %r14
  40262a:	41 5f                	pop    %r15
  40262c:	c3                   	retq   
  40262d:	0f ae 9c 24 00 02 00 	stmxcsr 0x200(%rsp)
  402634:	00 
  402635:	8b 84 24 00 02 00 00 	mov    0x200(%rsp),%eax
  40263c:	0d 00 80 00 00       	or     $0x8000,%eax
  402641:	89 84 24 00 02 00 00 	mov    %eax,0x200(%rsp)
  402648:	0f ae 94 24 00 02 00 	ldmxcsr 0x200(%rsp)
  40264f:	00 
  402650:	eb 81                	jmp    4025d3 <__intel_new_proc_init_B.L+0x53>
  402652:	48 8d b6 00 00 00 00 	lea    0x0(%rsi),%rsi
  402659:	48 8d bf 00 00 00 00 	lea    0x0(%rdi),%rdi

0000000000402660 <__intel_new_proc_init_B>:
  402660:	48 8b 05 09 82 10 00 	mov    1081865(%rip),%rax        # 50a870 <_DYNAMIC+0x1c0>
  402667:	8b 00                	mov    (%rax),%eax
  402669:	a9 00 f8 ff ff       	test   $0xfffff800,%eax
  40266e:	0f 85 0c ff ff ff    	jne    402580 <__intel_new_proc_init_B.L>
  402674:	a9 00 04 00 00       	test   $0x400,%eax
  402679:	0f 85 21 fe ff ff    	jne    4024a0 <__intel_new_proc_init_B.K>
  40267f:	a9 00 fe ff ff       	test   $0xfffffe00,%eax
  402684:	0f 85 36 fd ff ff    	jne    4023c0 <__intel_new_proc_init_B.J>
  40268a:	a9 ff ff ff ff       	test   $0xffffffff,%eax
  40268f:	0f 85 ab fc ff ff    	jne    402340 <__intel_new_proc_init_B.A>
  402695:	48 83 ec 08          	sub    $0x8,%rsp
  402699:	e8 52 45 00 00       	callq  406bf0 <__intel_cpu_indicator_init>
  40269e:	48 83 c4 08          	add    $0x8,%rsp
  4026a2:	eb bc                	jmp    402660 <__intel_new_proc_init_B>
  4026a4:	90                   	nop    
  4026a5:	48 8d 74 26 00       	lea    0x0(%rsi),%rsi
  4026aa:	90                   	nop    
  4026ab:	48 8d 7c 27 00       	lea    0x0(%rdi),%rdi

00000000004026b0 <__intel_proc_init_P.A>:
  4026b0:	48 81 ec 08 02 00 00 	sub    $0x208,%rsp
  4026b7:	bf 01 00 00 00       	mov    $0x1,%edi
  4026bc:	33 f6                	xor    %esi,%esi
  4026be:	33 d2                	xor    %edx,%edx
  4026c0:	33 c0                	xor    %eax,%eax
  4026c2:	e8 e9 40 00 00       	callq  4067b0 <irc__print>
  4026c7:	bf 01 00 00 00       	mov    $0x1,%edi
  4026cc:	be 17 00 00 00       	mov    $0x17,%esi
  4026d1:	33 d2                	xor    %edx,%edx
  4026d3:	33 c0                	xor    %eax,%eax
  4026d5:	e8 d6 40 00 00       	callq  4067b0 <irc__print>
  4026da:	bf 2b 00 00 00       	mov    $0x2b,%edi
  4026df:	33 f6                	xor    %esi,%esi
  4026e1:	33 c0                	xor    %eax,%eax
  4026e3:	e8 18 43 00 00       	callq  406a00 <irc__get_msg>
  4026e8:	48 8d 3c 24          	lea    (%rsp),%rdi
  4026ec:	48 89 c6             	mov    %rax,%rsi
  4026ef:	ba 00 02 00 00       	mov    $0x200,%edx
  4026f4:	e8 7f e1 ff ff       	callq  400878 <strncpy@plt>
  4026f9:	48 8d 0c 24          	lea    (%rsp),%rcx
  4026fd:	bf 01 00 00 00       	mov    $0x1,%edi
  402702:	be 18 00 00 00       	mov    $0x18,%esi
  402707:	89 fa                	mov    %edi,%edx
  402709:	33 c0                	xor    %eax,%eax
  40270b:	e8 a0 40 00 00       	callq  4067b0 <irc__print>
  402710:	bf 01 00 00 00       	mov    $0x1,%edi
  402715:	33 f6                	xor    %esi,%esi
  402717:	33 d2                	xor    %edx,%edx
  402719:	33 c0                	xor    %eax,%eax
  40271b:	e8 90 40 00 00       	callq  4067b0 <irc__print>
  402720:	bf 01 00 00 00       	mov    $0x1,%edi
  402725:	e8 ee e1 ff ff       	callq  400918 <exit@plt>
  40272a:	90                   	nop    
  40272b:	48 8d 74 26 00       	lea    0x0(%rsi),%rsi

0000000000402730 <__intel_proc_init_P.L>:
  402730:	0f ae 5c 24 f8       	stmxcsr 0xfffffffffffffff8(%rsp)
  402735:	8b 44 24 f8          	mov    0xfffffffffffffff8(%rsp),%eax
  402739:	0d 00 80 00 00       	or     $0x8000,%eax
  40273e:	89 44 24 f8          	mov    %eax,0xfffffffffffffff8(%rsp)
  402742:	0f ae 54 24 f8       	ldmxcsr 0xfffffffffffffff8(%rsp)
  402747:	0f ae 5c 24 f8       	stmxcsr 0xfffffffffffffff8(%rsp)
  40274c:	8b 44 24 f8          	mov    0xfffffffffffffff8(%rsp),%eax
  402750:	83 c8 40             	or     $0x40,%eax
  402753:	89 44 24 f8          	mov    %eax,0xfffffffffffffff8(%rsp)
  402757:	0f ae 54 24 f8       	ldmxcsr 0xfffffffffffffff8(%rsp)
  40275c:	c3                   	retq   
  40275d:	48 89 f6             	mov    %rsi,%rsi

0000000000402760 <__intel_proc_init_P>:
  402760:	48 8b 05 09 81 10 00 	mov    1081609(%rip),%rax        # 50a870 <_DYNAMIC+0x1c0>
  402767:	8b 00                	mov    (%rax),%eax
  402769:	a9 00 f8 ff ff       	test   $0xfffff800,%eax
  40276e:	0f 85 bc ff ff ff    	jne    402730 <__intel_proc_init_P.L>
  402774:	a9 ff ff ff ff       	test   $0xffffffff,%eax
  402779:	0f 85 31 ff ff ff    	jne    4026b0 <__intel_proc_init_P.A>
  40277f:	48 83 ec 08          	sub    $0x8,%rsp
  402783:	e8 68 44 00 00       	callq  406bf0 <__intel_cpu_indicator_init>
  402788:	48 83 c4 08          	add    $0x8,%rsp
  40278c:	eb d2                	jmp    402760 <__intel_proc_init_P>
  40278e:	90                   	nop    
  40278f:	90                   	nop    

0000000000402790 <__intel_new_proc_init_P.A>:
  402790:	48 81 ec 08 02 00 00 	sub    $0x208,%rsp
  402797:	bf 01 00 00 00       	mov    $0x1,%edi
  40279c:	33 f6                	xor    %esi,%esi
  40279e:	33 d2                	xor    %edx,%edx
  4027a0:	33 c0                	xor    %eax,%eax
  4027a2:	e8 09 40 00 00       	callq  4067b0 <irc__print>
  4027a7:	bf 01 00 00 00       	mov    $0x1,%edi
  4027ac:	be 17 00 00 00       	mov    $0x17,%esi
  4027b1:	33 d2                	xor    %edx,%edx
  4027b3:	33 c0                	xor    %eax,%eax
  4027b5:	e8 f6 3f 00 00       	callq  4067b0 <irc__print>
  4027ba:	bf 2b 00 00 00       	mov    $0x2b,%edi
  4027bf:	33 f6                	xor    %esi,%esi
  4027c1:	33 c0                	xor    %eax,%eax
  4027c3:	e8 38 42 00 00       	callq  406a00 <irc__get_msg>
  4027c8:	48 8d 3c 24          	lea    (%rsp),%rdi
  4027cc:	48 89 c6             	mov    %rax,%rsi
  4027cf:	ba 00 02 00 00       	mov    $0x200,%edx
  4027d4:	e8 9f e0 ff ff       	callq  400878 <strncpy@plt>
  4027d9:	48 8d 0c 24          	lea    (%rsp),%rcx
  4027dd:	bf 01 00 00 00       	mov    $0x1,%edi
  4027e2:	be 18 00 00 00       	mov    $0x18,%esi
  4027e7:	89 fa                	mov    %edi,%edx
  4027e9:	33 c0                	xor    %eax,%eax
  4027eb:	e8 c0 3f 00 00       	callq  4067b0 <irc__print>
  4027f0:	bf 01 00 00 00       	mov    $0x1,%edi
  4027f5:	33 f6                	xor    %esi,%esi
  4027f7:	33 d2                	xor    %edx,%edx
  4027f9:	33 c0                	xor    %eax,%eax
  4027fb:	e8 b0 3f 00 00       	callq  4067b0 <irc__print>
  402800:	bf 01 00 00 00       	mov    $0x1,%edi
  402805:	e8 0e e1 ff ff       	callq  400918 <exit@plt>
  40280a:	90                   	nop    
  40280b:	48 8d 74 26 00       	lea    0x0(%rsi),%rsi

0000000000402810 <__intel_new_proc_init_P.L>:
  402810:	41 57                	push   %r15
  402812:	41 56                	push   %r14
  402814:	55                   	push   %rbp
  402815:	48 81 ec 10 02 00 00 	sub    $0x210,%rsp
  40281c:	41 89 ff             	mov    %edi,%r15d
  40281f:	44 89 fd             	mov    %r15d,%ebp
  402822:	83 e5 02             	and    $0x2,%ebp
  402825:	45 89 fe             	mov    %r15d,%r14d
  402828:	41 83 e6 04          	and    $0x4,%r14d
  40282c:	74 2c                	je     40285a <__intel_new_proc_init_P.L+0x4a>
  40282e:	48 8d 3c 24          	lea    (%rsp),%rdi
  402832:	33 f6                	xor    %esi,%esi
  402834:	ba 00 02 00 00       	mov    $0x200,%edx
  402839:	e8 ca e0 ff ff       	callq  400908 <memset@plt>
  40283e:	0f ae 04 24          	fxsave (%rsp)
  402842:	8b 54 24 1c          	mov    0x1c(%rsp),%edx
  402846:	33 c9                	xor    %ecx,%ecx
  402848:	89 d0                	mov    %edx,%eax
  40284a:	83 e0 40             	and    $0x40,%eax
  40284d:	0f 44 e9             	cmove  %ecx,%ebp
  402850:	81 e2 00 00 02 00    	and    $0x20000,%edx
  402856:	44 0f 44 f1          	cmove  %ecx,%r14d
  40285a:	41 f7 c7 01 00 00 00 	test   $0x1,%r15d
  402861:	75 5a                	jne    4028bd <__intel_new_proc_init_P.L+0xad>
  402863:	85 ed                	test   %ebp,%ebp
  402865:	74 21                	je     402888 <__intel_new_proc_init_P.L+0x78>
  402867:	0f ae 9c 24 00 02 00 	stmxcsr 0x200(%rsp)
  40286e:	00 
  40286f:	8b 84 24 00 02 00 00 	mov    0x200(%rsp),%eax
  402876:	83 c8 40             	or     $0x40,%eax
  402879:	89 84 24 00 02 00 00 	mov    %eax,0x200(%rsp)
  402880:	0f ae 94 24 00 02 00 	ldmxcsr 0x200(%rsp)
  402887:	00 
  402888:	45 85 f6             	test   %r14d,%r14d
  40288b:	74 23                	je     4028b0 <__intel_new_proc_init_P.L+0xa0>
  40288d:	0f ae 9c 24 00 02 00 	stmxcsr 0x200(%rsp)
  402894:	00 
  402895:	8b 84 24 00 02 00 00 	mov    0x200(%rsp),%eax
  40289c:	0d 00 00 02 00       	or     $0x20000,%eax
  4028a1:	89 84 24 00 02 00 00 	mov    %eax,0x200(%rsp)
  4028a8:	0f ae 94 24 00 02 00 	ldmxcsr 0x200(%rsp)
  4028af:	00 
  4028b0:	48 81 c4 10 02 00 00 	add    $0x210,%rsp
  4028b7:	5d                   	pop    %rbp
  4028b8:	41 5e                	pop    %r14
  4028ba:	41 5f                	pop    %r15
  4028bc:	c3                   	retq   
  4028bd:	0f ae 9c 24 00 02 00 	stmxcsr 0x200(%rsp)
  4028c4:	00 
  4028c5:	8b 84 24 00 02 00 00 	mov    0x200(%rsp),%eax
  4028cc:	0d 00 80 00 00       	or     $0x8000,%eax
  4028d1:	89 84 24 00 02 00 00 	mov    %eax,0x200(%rsp)
  4028d8:	0f ae 94 24 00 02 00 	ldmxcsr 0x200(%rsp)
  4028df:	00 
  4028e0:	eb 81                	jmp    402863 <__intel_new_proc_init_P.L+0x53>
  4028e2:	48 8d b6 00 00 00 00 	lea    0x0(%rsi),%rsi
  4028e9:	48 8d bf 00 00 00 00 	lea    0x0(%rdi),%rdi

00000000004028f0 <__intel_new_proc_init_P>:
  4028f0:	48 8b 05 79 7f 10 00 	mov    1081209(%rip),%rax        # 50a870 <_DYNAMIC+0x1c0>
  4028f7:	8b 00                	mov    (%rax),%eax
  4028f9:	a9 00 f8 ff ff       	test   $0xfffff800,%eax
  4028fe:	0f 85 0c ff ff ff    	jne    402810 <__intel_new_proc_init_P.L>
  402904:	a9 ff ff ff ff       	test   $0xffffffff,%eax
  402909:	0f 85 81 fe ff ff    	jne    402790 <__intel_new_proc_init_P.A>
  40290f:	48 83 ec 08          	sub    $0x8,%rsp
  402913:	e8 d8 42 00 00       	callq  406bf0 <__intel_cpu_indicator_init>
  402918:	48 83 c4 08          	add    $0x8,%rsp
  40291c:	eb d2                	jmp    4028f0 <__intel_new_proc_init_P>
  40291e:	90                   	nop    
  40291f:	90                   	nop    

0000000000402920 <__intel_proc_init_T.A>:
  402920:	48 81 ec 08 02 00 00 	sub    $0x208,%rsp
  402927:	bf 01 00 00 00       	mov    $0x1,%edi
  40292c:	33 f6                	xor    %esi,%esi
  40292e:	33 d2                	xor    %edx,%edx
  402930:	33 c0                	xor    %eax,%eax
  402932:	e8 79 3e 00 00       	callq  4067b0 <irc__print>
  402937:	bf 01 00 00 00       	mov    $0x1,%edi
  40293c:	be 17 00 00 00       	mov    $0x17,%esi
  402941:	33 d2                	xor    %edx,%edx
  402943:	33 c0                	xor    %eax,%eax
  402945:	e8 66 3e 00 00       	callq  4067b0 <irc__print>
  40294a:	bf 2a 00 00 00       	mov    $0x2a,%edi
  40294f:	33 f6                	xor    %esi,%esi
  402951:	33 c0                	xor    %eax,%eax
  402953:	e8 a8 40 00 00       	callq  406a00 <irc__get_msg>
  402958:	48 8d 3c 24          	lea    (%rsp),%rdi
  40295c:	48 89 c6             	mov    %rax,%rsi
  40295f:	ba 00 02 00 00       	mov    $0x200,%edx
  402964:	e8 0f df ff ff       	callq  400878 <strncpy@plt>
  402969:	48 8d 0c 24          	lea    (%rsp),%rcx
  40296d:	bf 01 00 00 00       	mov    $0x1,%edi
  402972:	be 18 00 00 00       	mov    $0x18,%esi
  402977:	89 fa                	mov    %edi,%edx
  402979:	33 c0                	xor    %eax,%eax
  40297b:	e8 30 3e 00 00       	callq  4067b0 <irc__print>
  402980:	bf 01 00 00 00       	mov    $0x1,%edi
  402985:	33 f6                	xor    %esi,%esi
  402987:	33 d2                	xor    %edx,%edx
  402989:	33 c0                	xor    %eax,%eax
  40298b:	e8 20 3e 00 00       	callq  4067b0 <irc__print>
  402990:	bf 01 00 00 00       	mov    $0x1,%edi
  402995:	e8 7e df ff ff       	callq  400918 <exit@plt>
  40299a:	90                   	nop    
  40299b:	48 8d 74 26 00       	lea    0x0(%rsi),%rsi

00000000004029a0 <__intel_proc_init_T.M>:
  4029a0:	0f ae 5c 24 f8       	stmxcsr 0xfffffffffffffff8(%rsp)
  4029a5:	8b 44 24 f8          	mov    0xfffffffffffffff8(%rsp),%eax
  4029a9:	0d 00 80 00 00       	or     $0x8000,%eax
  4029ae:	89 44 24 f8          	mov    %eax,0xfffffffffffffff8(%rsp)
  4029b2:	0f ae 54 24 f8       	ldmxcsr 0xfffffffffffffff8(%rsp)
  4029b7:	0f ae 5c 24 f8       	stmxcsr 0xfffffffffffffff8(%rsp)
  4029bc:	8b 44 24 f8          	mov    0xfffffffffffffff8(%rsp),%eax
  4029c0:	83 c8 40             	or     $0x40,%eax
  4029c3:	89 44 24 f8          	mov    %eax,0xfffffffffffffff8(%rsp)
  4029c7:	0f ae 54 24 f8       	ldmxcsr 0xfffffffffffffff8(%rsp)
  4029cc:	c3                   	retq   
  4029cd:	48 89 f6             	mov    %rsi,%rsi

00000000004029d0 <__intel_proc_init_T>:
  4029d0:	48 8b 05 99 7e 10 00 	mov    1080985(%rip),%rax        # 50a870 <_DYNAMIC+0x1c0>
  4029d7:	8b 00                	mov    (%rax),%eax
  4029d9:	a9 00 f0 ff ff       	test   $0xfffff000,%eax
  4029de:	0f 85 bc ff ff ff    	jne    4029a0 <__intel_proc_init_T.M>
  4029e4:	a9 ff ff ff ff       	test   $0xffffffff,%eax
  4029e9:	0f 85 31 ff ff ff    	jne    402920 <__intel_proc_init_T.A>
  4029ef:	48 83 ec 08          	sub    $0x8,%rsp
  4029f3:	e8 f8 41 00 00       	callq  406bf0 <__intel_cpu_indicator_init>
  4029f8:	48 83 c4 08          	add    $0x8,%rsp
  4029fc:	eb d2                	jmp    4029d0 <__intel_proc_init_T>
  4029fe:	90                   	nop    
  4029ff:	90                   	nop    

0000000000402a00 <__intel_new_proc_init_T.A>:
  402a00:	48 81 ec 08 02 00 00 	sub    $0x208,%rsp
  402a07:	bf 01 00 00 00       	mov    $0x1,%edi
  402a0c:	33 f6                	xor    %esi,%esi
  402a0e:	33 d2                	xor    %edx,%edx
  402a10:	33 c0                	xor    %eax,%eax
  402a12:	e8 99 3d 00 00       	callq  4067b0 <irc__print>
  402a17:	bf 01 00 00 00       	mov    $0x1,%edi
  402a1c:	be 17 00 00 00       	mov    $0x17,%esi
  402a21:	33 d2                	xor    %edx,%edx
  402a23:	33 c0                	xor    %eax,%eax
  402a25:	e8 86 3d 00 00       	callq  4067b0 <irc__print>
  402a2a:	bf 2a 00 00 00       	mov    $0x2a,%edi
  402a2f:	33 f6                	xor    %esi,%esi
  402a31:	33 c0                	xor    %eax,%eax
  402a33:	e8 c8 3f 00 00       	callq  406a00 <irc__get_msg>
  402a38:	48 8d 3c 24          	lea    (%rsp),%rdi
  402a3c:	48 89 c6             	mov    %rax,%rsi
  402a3f:	ba 00 02 00 00       	mov    $0x200,%edx
  402a44:	e8 2f de ff ff       	callq  400878 <strncpy@plt>
  402a49:	48 8d 0c 24          	lea    (%rsp),%rcx
  402a4d:	bf 01 00 00 00       	mov    $0x1,%edi
  402a52:	be 18 00 00 00       	mov    $0x18,%esi
  402a57:	89 fa                	mov    %edi,%edx
  402a59:	33 c0                	xor    %eax,%eax
  402a5b:	e8 50 3d 00 00       	callq  4067b0 <irc__print>
  402a60:	bf 01 00 00 00       	mov    $0x1,%edi
  402a65:	33 f6                	xor    %esi,%esi
  402a67:	33 d2                	xor    %edx,%edx
  402a69:	33 c0                	xor    %eax,%eax
  402a6b:	e8 40 3d 00 00       	callq  4067b0 <irc__print>
  402a70:	bf 01 00 00 00       	mov    $0x1,%edi
  402a75:	e8 9e de ff ff       	callq  400918 <exit@plt>
  402a7a:	90                   	nop    
  402a7b:	48 8d 74 26 00       	lea    0x0(%rsi),%rsi

0000000000402a80 <__intel_new_proc_init_T.M>:
  402a80:	41 57                	push   %r15
  402a82:	41 56                	push   %r14
  402a84:	55                   	push   %rbp
  402a85:	48 81 ec 10 02 00 00 	sub    $0x210,%rsp
  402a8c:	41 89 ff             	mov    %edi,%r15d
  402a8f:	44 89 fd             	mov    %r15d,%ebp
  402a92:	83 e5 02             	and    $0x2,%ebp
  402a95:	45 89 fe             	mov    %r15d,%r14d
  402a98:	41 83 e6 04          	and    $0x4,%r14d
  402a9c:	74 2c                	je     402aca <__intel_new_proc_init_T.M+0x4a>
  402a9e:	48 8d 3c 24          	lea    (%rsp),%rdi
  402aa2:	33 f6                	xor    %esi,%esi
  402aa4:	ba 00 02 00 00       	mov    $0x200,%edx
  402aa9:	e8 5a de ff ff       	callq  400908 <memset@plt>
  402aae:	0f ae 04 24          	fxsave (%rsp)
  402ab2:	8b 54 24 1c          	mov    0x1c(%rsp),%edx
  402ab6:	33 c9                	xor    %ecx,%ecx
  402ab8:	89 d0                	mov    %edx,%eax
  402aba:	83 e0 40             	and    $0x40,%eax
  402abd:	0f 44 e9             	cmove  %ecx,%ebp
  402ac0:	81 e2 00 00 02 00    	and    $0x20000,%edx
  402ac6:	44 0f 44 f1          	cmove  %ecx,%r14d
  402aca:	41 f7 c7 01 00 00 00 	test   $0x1,%r15d
  402ad1:	75 5a                	jne    402b2d <__intel_new_proc_init_T.M+0xad>
  402ad3:	85 ed                	test   %ebp,%ebp
  402ad5:	74 21                	je     402af8 <__intel_new_proc_init_T.M+0x78>
  402ad7:	0f ae 9c 24 00 02 00 	stmxcsr 0x200(%rsp)
  402ade:	00 
  402adf:	8b 84 24 00 02 00 00 	mov    0x200(%rsp),%eax
  402ae6:	83 c8 40             	or     $0x40,%eax
  402ae9:	89 84 24 00 02 00 00 	mov    %eax,0x200(%rsp)
  402af0:	0f ae 94 24 00 02 00 	ldmxcsr 0x200(%rsp)
  402af7:	00 
  402af8:	45 85 f6             	test   %r14d,%r14d
  402afb:	74 23                	je     402b20 <__intel_new_proc_init_T.M+0xa0>
  402afd:	0f ae 9c 24 00 02 00 	stmxcsr 0x200(%rsp)
  402b04:	00 
  402b05:	8b 84 24 00 02 00 00 	mov    0x200(%rsp),%eax
  402b0c:	0d 00 00 02 00       	or     $0x20000,%eax
  402b11:	89 84 24 00 02 00 00 	mov    %eax,0x200(%rsp)
  402b18:	0f ae 94 24 00 02 00 	ldmxcsr 0x200(%rsp)
  402b1f:	00 
  402b20:	48 81 c4 10 02 00 00 	add    $0x210,%rsp
  402b27:	5d                   	pop    %rbp
  402b28:	41 5e                	pop    %r14
  402b2a:	41 5f                	pop    %r15
  402b2c:	c3                   	retq   
  402b2d:	0f ae 9c 24 00 02 00 	stmxcsr 0x200(%rsp)
  402b34:	00 
  402b35:	8b 84 24 00 02 00 00 	mov    0x200(%rsp),%eax
  402b3c:	0d 00 80 00 00       	or     $0x8000,%eax
  402b41:	89 84 24 00 02 00 00 	mov    %eax,0x200(%rsp)
  402b48:	0f ae 94 24 00 02 00 	ldmxcsr 0x200(%rsp)
  402b4f:	00 
  402b50:	eb 81                	jmp    402ad3 <__intel_new_proc_init_T.M+0x53>
  402b52:	48 8d b6 00 00 00 00 	lea    0x0(%rsi),%rsi
  402b59:	48 8d bf 00 00 00 00 	lea    0x0(%rdi),%rdi

0000000000402b60 <__intel_new_proc_init_T>:
  402b60:	48 8b 05 09 7d 10 00 	mov    1080585(%rip),%rax        # 50a870 <_DYNAMIC+0x1c0>
  402b67:	8b 00                	mov    (%rax),%eax
  402b69:	a9 00 f0 ff ff       	test   $0xfffff000,%eax
  402b6e:	0f 85 0c ff ff ff    	jne    402a80 <__intel_new_proc_init_T.M>
  402b74:	a9 ff ff ff ff       	test   $0xffffffff,%eax
  402b79:	0f 85 81 fe ff ff    	jne    402a00 <__intel_new_proc_init_T.A>
  402b7f:	48 83 ec 08          	sub    $0x8,%rsp
  402b83:	e8 68 40 00 00       	callq  406bf0 <__intel_cpu_indicator_init>
  402b88:	48 83 c4 08          	add    $0x8,%rsp
  402b8c:	eb d2                	jmp    402b60 <__intel_new_proc_init_T>
  402b8e:	90                   	nop    
  402b8f:	90                   	nop    

0000000000402b90 <__intel_new_proc_init_S.A>:
  402b90:	48 81 ec 08 02 00 00 	sub    $0x208,%rsp
  402b97:	bf 01 00 00 00       	mov    $0x1,%edi
  402b9c:	33 f6                	xor    %esi,%esi
  402b9e:	33 d2                	xor    %edx,%edx
  402ba0:	33 c0                	xor    %eax,%eax
  402ba2:	e8 09 3c 00 00       	callq  4067b0 <irc__print>
  402ba7:	bf 01 00 00 00       	mov    $0x1,%edi
  402bac:	be 17 00 00 00       	mov    $0x17,%esi
  402bb1:	33 d2                	xor    %edx,%edx
  402bb3:	33 c0                	xor    %eax,%eax
  402bb5:	e8 f6 3b 00 00       	callq  4067b0 <irc__print>
  402bba:	bf 2e 00 00 00       	mov    $0x2e,%edi
  402bbf:	33 f6                	xor    %esi,%esi
  402bc1:	33 c0                	xor    %eax,%eax
  402bc3:	e8 38 3e 00 00       	callq  406a00 <irc__get_msg>
  402bc8:	48 8d 3c 24          	lea    (%rsp),%rdi
  402bcc:	48 89 c6             	mov    %rax,%rsi
  402bcf:	ba 00 02 00 00       	mov    $0x200,%edx
  402bd4:	e8 9f dc ff ff       	callq  400878 <strncpy@plt>
  402bd9:	48 8d 0c 24          	lea    (%rsp),%rcx
  402bdd:	bf 01 00 00 00       	mov    $0x1,%edi
  402be2:	be 18 00 00 00       	mov    $0x18,%esi
  402be7:	89 fa                	mov    %edi,%edx
  402be9:	33 c0                	xor    %eax,%eax
  402beb:	e8 c0 3b 00 00       	callq  4067b0 <irc__print>
  402bf0:	bf 01 00 00 00       	mov    $0x1,%edi
  402bf5:	33 f6                	xor    %esi,%esi
  402bf7:	33 d2                	xor    %edx,%edx
  402bf9:	33 c0                	xor    %eax,%eax
  402bfb:	e8 b0 3b 00 00       	callq  4067b0 <irc__print>
  402c00:	bf 01 00 00 00       	mov    $0x1,%edi
  402c05:	e8 0e dd ff ff       	callq  400918 <exit@plt>
  402c0a:	90                   	nop    
  402c0b:	48 8d 74 26 00       	lea    0x0(%rsi),%rsi

0000000000402c10 <__intel_new_proc_init_S.N>:
  402c10:	41 57                	push   %r15
  402c12:	41 56                	push   %r14
  402c14:	55                   	push   %rbp
  402c15:	48 81 ec 10 02 00 00 	sub    $0x210,%rsp
  402c1c:	41 89 ff             	mov    %edi,%r15d
  402c1f:	44 89 fd             	mov    %r15d,%ebp
  402c22:	83 e5 02             	and    $0x2,%ebp
  402c25:	45 89 fe             	mov    %r15d,%r14d
  402c28:	41 83 e6 04          	and    $0x4,%r14d
  402c2c:	74 2c                	je     402c5a <__intel_new_proc_init_S.N+0x4a>
  402c2e:	48 8d 3c 24          	lea    (%rsp),%rdi
  402c32:	33 f6                	xor    %esi,%esi
  402c34:	ba 00 02 00 00       	mov    $0x200,%edx
  402c39:	e8 ca dc ff ff       	callq  400908 <memset@plt>
  402c3e:	0f ae 04 24          	fxsave (%rsp)
  402c42:	8b 54 24 1c          	mov    0x1c(%rsp),%edx
  402c46:	33 c9                	xor    %ecx,%ecx
  402c48:	89 d0                	mov    %edx,%eax
  402c4a:	83 e0 40             	and    $0x40,%eax
  402c4d:	0f 44 e9             	cmove  %ecx,%ebp
  402c50:	81 e2 00 00 02 00    	and    $0x20000,%edx
  402c56:	44 0f 44 f1          	cmove  %ecx,%r14d
  402c5a:	41 f7 c7 01 00 00 00 	test   $0x1,%r15d
  402c61:	75 5a                	jne    402cbd <__intel_new_proc_init_S.N+0xad>
  402c63:	85 ed                	test   %ebp,%ebp
  402c65:	74 21                	je     402c88 <__intel_new_proc_init_S.N+0x78>
  402c67:	0f ae 9c 24 00 02 00 	stmxcsr 0x200(%rsp)
  402c6e:	00 
  402c6f:	8b 84 24 00 02 00 00 	mov    0x200(%rsp),%eax
  402c76:	83 c8 40             	or     $0x40,%eax
  402c79:	89 84 24 00 02 00 00 	mov    %eax,0x200(%rsp)
  402c80:	0f ae 94 24 00 02 00 	ldmxcsr 0x200(%rsp)
  402c87:	00 
  402c88:	45 85 f6             	test   %r14d,%r14d
  402c8b:	74 23                	je     402cb0 <__intel_new_proc_init_S.N+0xa0>
  402c8d:	0f ae 9c 24 00 02 00 	stmxcsr 0x200(%rsp)
  402c94:	00 
  402c95:	8b 84 24 00 02 00 00 	mov    0x200(%rsp),%eax
  402c9c:	0d 00 00 02 00       	or     $0x20000,%eax
  402ca1:	89 84 24 00 02 00 00 	mov    %eax,0x200(%rsp)
  402ca8:	0f ae 94 24 00 02 00 	ldmxcsr 0x200(%rsp)
  402caf:	00 
  402cb0:	48 81 c4 10 02 00 00 	add    $0x210,%rsp
  402cb7:	5d                   	pop    %rbp
  402cb8:	41 5e                	pop    %r14
  402cba:	41 5f                	pop    %r15
  402cbc:	c3                   	retq   
  402cbd:	0f ae 9c 24 00 02 00 	stmxcsr 0x200(%rsp)
  402cc4:	00 
  402cc5:	8b 84 24 00 02 00 00 	mov    0x200(%rsp),%eax
  402ccc:	0d 00 80 00 00       	or     $0x8000,%eax
  402cd1:	89 84 24 00 02 00 00 	mov    %eax,0x200(%rsp)
  402cd8:	0f ae 94 24 00 02 00 	ldmxcsr 0x200(%rsp)
  402cdf:	00 
  402ce0:	eb 81                	jmp    402c63 <__intel_new_proc_init_S.N+0x53>
  402ce2:	48 8d b6 00 00 00 00 	lea    0x0(%rsi),%rsi
  402ce9:	48 8d bf 00 00 00 00 	lea    0x0(%rdi),%rdi

0000000000402cf0 <__intel_new_proc_init_S>:
  402cf0:	48 8b 05 79 7b 10 00 	mov    1080185(%rip),%rax        # 50a870 <_DYNAMIC+0x1c0>
  402cf7:	8b 00                	mov    (%rax),%eax
  402cf9:	a9 00 a0 ff ff       	test   $0xffffa000,%eax
  402cfe:	0f 85 0c ff ff ff    	jne    402c10 <__intel_new_proc_init_S.N>
  402d04:	a9 ff ff ff ff       	test   $0xffffffff,%eax
  402d09:	0f 85 81 fe ff ff    	jne    402b90 <__intel_new_proc_init_S.A>
  402d0f:	48 83 ec 08          	sub    $0x8,%rsp
  402d13:	e8 d8 3e 00 00       	callq  406bf0 <__intel_cpu_indicator_init>
  402d18:	48 83 c4 08          	add    $0x8,%rsp
  402d1c:	eb d2                	jmp    402cf0 <__intel_new_proc_init_S>
  402d1e:	90                   	nop    
  402d1f:	90                   	nop    

0000000000402d20 <__intel_new_proc_init_L.A>:
  402d20:	48 81 ec 08 02 00 00 	sub    $0x208,%rsp
  402d27:	bf 01 00 00 00       	mov    $0x1,%edi
  402d2c:	33 f6                	xor    %esi,%esi
  402d2e:	33 d2                	xor    %edx,%edx
  402d30:	33 c0                	xor    %eax,%eax
  402d32:	e8 79 3a 00 00       	callq  4067b0 <irc__print>
  402d37:	bf 01 00 00 00       	mov    $0x1,%edi
  402d3c:	be 17 00 00 00       	mov    $0x17,%esi
  402d41:	33 d2                	xor    %edx,%edx
  402d43:	33 c0                	xor    %eax,%eax
  402d45:	e8 66 3a 00 00       	callq  4067b0 <irc__print>
  402d4a:	bf 30 00 00 00       	mov    $0x30,%edi
  402d4f:	33 f6                	xor    %esi,%esi
  402d51:	33 c0                	xor    %eax,%eax
  402d53:	e8 a8 3c 00 00       	callq  406a00 <irc__get_msg>
  402d58:	48 8d 3c 24          	lea    (%rsp),%rdi
  402d5c:	48 89 c6             	mov    %rax,%rsi
  402d5f:	ba 00 02 00 00       	mov    $0x200,%edx
  402d64:	e8 0f db ff ff       	callq  400878 <strncpy@plt>
  402d69:	48 8d 0c 24          	lea    (%rsp),%rcx
  402d6d:	bf 01 00 00 00       	mov    $0x1,%edi
  402d72:	be 18 00 00 00       	mov    $0x18,%esi
  402d77:	89 fa                	mov    %edi,%edx
  402d79:	33 c0                	xor    %eax,%eax
  402d7b:	e8 30 3a 00 00       	callq  4067b0 <irc__print>
  402d80:	bf 01 00 00 00       	mov    $0x1,%edi
  402d85:	33 f6                	xor    %esi,%esi
  402d87:	33 d2                	xor    %edx,%edx
  402d89:	33 c0                	xor    %eax,%eax
  402d8b:	e8 20 3a 00 00       	callq  4067b0 <irc__print>
  402d90:	bf 01 00 00 00       	mov    $0x1,%edi
  402d95:	e8 7e db ff ff       	callq  400918 <exit@plt>
  402d9a:	90                   	nop    
  402d9b:	48 8d 74 26 00       	lea    0x0(%rsi),%rsi

0000000000402da0 <__intel_new_proc_init_L.O>:
  402da0:	41 57                	push   %r15
  402da2:	41 56                	push   %r14
  402da4:	55                   	push   %rbp
  402da5:	48 81 ec 10 02 00 00 	sub    $0x210,%rsp
  402dac:	41 89 ff             	mov    %edi,%r15d
  402daf:	44 89 fd             	mov    %r15d,%ebp
  402db2:	45 89 fe             	mov    %r15d,%r14d
  402db5:	83 e5 02             	and    $0x2,%ebp
  402db8:	41 83 e6 04          	and    $0x4,%r14d
  402dbc:	74 2c                	je     402dea <__intel_new_proc_init_L.O+0x4a>
  402dbe:	33 f6                	xor    %esi,%esi
  402dc0:	ba 00 02 00 00       	mov    $0x200,%edx
  402dc5:	48 8d 3c 24          	lea    (%rsp),%rdi
  402dc9:	e8 3a db ff ff       	callq  400908 <memset@plt>
  402dce:	0f ae 04 24          	fxsave (%rsp)
  402dd2:	8b 54 24 1c          	mov    0x1c(%rsp),%edx
  402dd6:	89 d0                	mov    %edx,%eax
  402dd8:	33 c9                	xor    %ecx,%ecx
  402dda:	83 e0 40             	and    $0x40,%eax
  402ddd:	0f 44 e9             	cmove  %ecx,%ebp
  402de0:	81 e2 00 00 02 00    	and    $0x20000,%edx
  402de6:	44 0f 44 f1          	cmove  %ecx,%r14d
  402dea:	41 f7 c7 01 00 00 00 	test   $0x1,%r15d
  402df1:	75 5b                	jne    402e4e <__intel_new_proc_init_L.O+0xae>
  402df3:	85 ed                	test   %ebp,%ebp
  402df5:	74 21                	je     402e18 <__intel_new_proc_init_L.O+0x78>
  402df7:	0f ae 9c 24 00 02 00 	stmxcsr 0x200(%rsp)
  402dfe:	00 
  402dff:	8b 84 24 00 02 00 00 	mov    0x200(%rsp),%eax
  402e06:	83 c8 40             	or     $0x40,%eax
  402e09:	89 84 24 00 02 00 00 	mov    %eax,0x200(%rsp)
  402e10:	0f ae 94 24 00 02 00 	ldmxcsr 0x200(%rsp)
  402e17:	00 
  402e18:	45 85 f6             	test   %r14d,%r14d
  402e1b:	74 23                	je     402e40 <__intel_new_proc_init_L.O+0xa0>
  402e1d:	0f ae 9c 24 00 02 00 	stmxcsr 0x200(%rsp)
  402e24:	00 
  402e25:	8b 84 24 00 02 00 00 	mov    0x200(%rsp),%eax
  402e2c:	0d 00 00 02 00       	or     $0x20000,%eax
  402e31:	89 84 24 00 02 00 00 	mov    %eax,0x200(%rsp)
  402e38:	0f ae 94 24 00 02 00 	ldmxcsr 0x200(%rsp)
  402e3f:	00 
  402e40:	48 8d a4 24 10 02 00 	lea    0x210(%rsp),%rsp
  402e47:	00 
  402e48:	5d                   	pop    %rbp
  402e49:	41 5e                	pop    %r14
  402e4b:	41 5f                	pop    %r15
  402e4d:	c3                   	retq   
  402e4e:	0f ae 9c 24 00 02 00 	stmxcsr 0x200(%rsp)
  402e55:	00 
  402e56:	8b 84 24 00 02 00 00 	mov    0x200(%rsp),%eax
  402e5d:	0d 00 80 00 00       	or     $0x8000,%eax
  402e62:	89 84 24 00 02 00 00 	mov    %eax,0x200(%rsp)
  402e69:	0f ae 94 24 00 02 00 	ldmxcsr 0x200(%rsp)
  402e70:	00 
  402e71:	eb 80                	jmp    402df3 <__intel_new_proc_init_L.O+0x53>
  402e73:	90                   	nop    
  402e74:	48 8d 74 26 00       	lea    0x0(%rsi),%rsi
  402e79:	48 8d bf 00 00 00 00 	lea    0x0(%rdi),%rdi

0000000000402e80 <__intel_new_proc_init_L>:
  402e80:	48 8b 05 e9 79 10 00 	mov    1079785(%rip),%rax        # 50a870 <_DYNAMIC+0x1c0>
  402e87:	8b 00                	mov    (%rax),%eax
  402e89:	a9 00 40 00 00       	test   $0x4000,%eax
  402e8e:	0f 85 0c ff ff ff    	jne    402da0 <__intel_new_proc_init_L.O>
  402e94:	a9 ff ff ff ff       	test   $0xffffffff,%eax
  402e99:	0f 85 81 fe ff ff    	jne    402d20 <__intel_new_proc_init_L.A>
  402e9f:	48 8d 64 24 f8       	lea    0xfffffffffffffff8(%rsp),%rsp
  402ea4:	e8 47 3d 00 00       	callq  406bf0 <__intel_cpu_indicator_init>
  402ea9:	48 8d 64 24 08       	lea    0x8(%rsp),%rsp
  402eae:	eb d0                	jmp    402e80 <__intel_new_proc_init_L>

0000000000402eb0 <__intel_new_proc_init_H.A>:
  402eb0:	48 81 ec 08 02 00 00 	sub    $0x208,%rsp
  402eb7:	bf 01 00 00 00       	mov    $0x1,%edi
  402ebc:	33 f6                	xor    %esi,%esi
  402ebe:	33 d2                	xor    %edx,%edx
  402ec0:	33 c0                	xor    %eax,%eax
  402ec2:	e8 e9 38 00 00       	callq  4067b0 <irc__print>
  402ec7:	bf 01 00 00 00       	mov    $0x1,%edi
  402ecc:	be 17 00 00 00       	mov    $0x17,%esi
  402ed1:	33 d2                	xor    %edx,%edx
  402ed3:	33 c0                	xor    %eax,%eax
  402ed5:	e8 d6 38 00 00       	callq  4067b0 <irc__print>
  402eda:	bf 2f 00 00 00       	mov    $0x2f,%edi
  402edf:	33 f6                	xor    %esi,%esi
  402ee1:	33 c0                	xor    %eax,%eax
  402ee3:	e8 18 3b 00 00       	callq  406a00 <irc__get_msg>
  402ee8:	48 8d 3c 24          	lea    (%rsp),%rdi
  402eec:	48 89 c6             	mov    %rax,%rsi
  402eef:	ba 00 02 00 00       	mov    $0x200,%edx
  402ef4:	e8 7f d9 ff ff       	callq  400878 <strncpy@plt>
  402ef9:	48 8d 0c 24          	lea    (%rsp),%rcx
  402efd:	bf 01 00 00 00       	mov    $0x1,%edi
  402f02:	be 18 00 00 00       	mov    $0x18,%esi
  402f07:	89 fa                	mov    %edi,%edx
  402f09:	33 c0                	xor    %eax,%eax
  402f0b:	e8 a0 38 00 00       	callq  4067b0 <irc__print>
  402f10:	bf 01 00 00 00       	mov    $0x1,%edi
  402f15:	33 f6                	xor    %esi,%esi
  402f17:	33 d2                	xor    %edx,%edx
  402f19:	33 c0                	xor    %eax,%eax
  402f1b:	e8 90 38 00 00       	callq  4067b0 <irc__print>
  402f20:	bf 01 00 00 00       	mov    $0x1,%edi
  402f25:	e8 ee d9 ff ff       	callq  400918 <exit@plt>
  402f2a:	90                   	nop    
  402f2b:	48 8d 74 26 00       	lea    0x0(%rsi),%rsi

0000000000402f30 <__intel_new_proc_init_H.P>:
  402f30:	89 f8                	mov    %edi,%eax
  402f32:	83 e0 02             	and    $0x2,%eax
  402f35:	89 fa                	mov    %edi,%edx
  402f37:	83 e2 04             	and    $0x4,%edx
  402f3a:	f7 c7 01 00 00 00    	test   $0x1,%edi
  402f40:	75 35                	jne    402f77 <__intel_new_proc_init_H.P+0x47>
  402f42:	85 c0                	test   %eax,%eax
  402f44:	74 15                	je     402f5b <__intel_new_proc_init_H.P+0x2b>
  402f46:	0f ae 5c 24 f8       	stmxcsr 0xfffffffffffffff8(%rsp)
  402f4b:	8b 44 24 f8          	mov    0xfffffffffffffff8(%rsp),%eax
  402f4f:	83 c8 40             	or     $0x40,%eax
  402f52:	89 44 24 f8          	mov    %eax,0xfffffffffffffff8(%rsp)
  402f56:	0f ae 54 24 f8       	ldmxcsr 0xfffffffffffffff8(%rsp)
  402f5b:	85 d2                	test   %edx,%edx
  402f5d:	74 17                	je     402f76 <__intel_new_proc_init_H.P+0x46>
  402f5f:	0f ae 5c 24 f8       	stmxcsr 0xfffffffffffffff8(%rsp)
  402f64:	8b 44 24 f8          	mov    0xfffffffffffffff8(%rsp),%eax
  402f68:	0d 00 00 02 00       	or     $0x20000,%eax
  402f6d:	89 44 24 f8          	mov    %eax,0xfffffffffffffff8(%rsp)
  402f71:	0f ae 54 24 f8       	ldmxcsr 0xfffffffffffffff8(%rsp)
  402f76:	c3                   	retq   
  402f77:	0f ae 5c 24 f8       	stmxcsr 0xfffffffffffffff8(%rsp)
  402f7c:	8b 4c 24 f8          	mov    0xfffffffffffffff8(%rsp),%ecx
  402f80:	81 c9 00 80 00 00    	or     $0x8000,%ecx
  402f86:	89 4c 24 f8          	mov    %ecx,0xfffffffffffffff8(%rsp)
  402f8a:	0f ae 54 24 f8       	ldmxcsr 0xfffffffffffffff8(%rsp)
  402f8f:	eb b1                	jmp    402f42 <__intel_new_proc_init_H.P+0x12>
  402f91:	48 8d b4 26 00 00 00 	lea    0x0(%rsi),%rsi
  402f98:	00 
  402f99:	48 8d bf 00 00 00 00 	lea    0x0(%rdi),%rdi

0000000000402fa0 <__intel_new_proc_init_H>:
  402fa0:	48 8b 05 c9 78 10 00 	mov    1079497(%rip),%rax        # 50a870 <_DYNAMIC+0x1c0>
  402fa7:	8b 00                	mov    (%rax),%eax
  402fa9:	a9 00 80 ff ff       	test   $0xffff8000,%eax
  402fae:	0f 85 7c ff ff ff    	jne    402f30 <__intel_new_proc_init_H.P>
  402fb4:	a9 ff ff ff ff       	test   $0xffffffff,%eax
  402fb9:	0f 85 f1 fe ff ff    	jne    402eb0 <__intel_new_proc_init_H.A>
  402fbf:	48 83 ec 08          	sub    $0x8,%rsp
  402fc3:	e8 28 3c 00 00       	callq  406bf0 <__intel_cpu_indicator_init>
  402fc8:	48 83 c4 08          	add    $0x8,%rsp
  402fcc:	eb d2                	jmp    402fa0 <__intel_new_proc_init_H>
  402fce:	90                   	nop    
  402fcf:	90                   	nop    

0000000000402fd0 <__intel_proc_init.A>:
  402fd0:	c3                   	retq   
  402fd1:	48 8d b4 26 00 00 00 	lea    0x0(%rsi),%rsi
  402fd8:	00 
  402fd9:	48 8d bf 00 00 00 00 	lea    0x0(%rdi),%rdi

0000000000402fe0 <__intel_proc_init.H>:
  402fe0:	48 81 ec 08 02 00 00 	sub    $0x208,%rsp
  402fe7:	48 8d 3c 24          	lea    (%rsp),%rdi
  402feb:	33 f6                	xor    %esi,%esi
  402fed:	ba 00 02 00 00       	mov    $0x200,%edx
  402ff2:	e8 11 d9 ff ff       	callq  400908 <memset@plt>
  402ff7:	0f ae 04 24          	fxsave (%rsp)
  402ffb:	8b 54 24 1c          	mov    0x1c(%rsp),%edx
  402fff:	0f ae 9c 24 00 02 00 	stmxcsr 0x200(%rsp)
  403006:	00 
  403007:	8b 84 24 00 02 00 00 	mov    0x200(%rsp),%eax
  40300e:	83 e2 40             	and    $0x40,%edx
  403011:	0d 00 80 00 00       	or     $0x8000,%eax
  403016:	89 84 24 00 02 00 00 	mov    %eax,0x200(%rsp)
  40301d:	0f ae 94 24 00 02 00 	ldmxcsr 0x200(%rsp)
  403024:	00 
  403025:	85 d2                	test   %edx,%edx
  403027:	74 21                	je     40304a <__intel_proc_init.H+0x6a>
  403029:	0f ae 9c 24 00 02 00 	stmxcsr 0x200(%rsp)
  403030:	00 
  403031:	8b 84 24 00 02 00 00 	mov    0x200(%rsp),%eax
  403038:	83 c8 40             	or     $0x40,%eax
  40303b:	89 84 24 00 02 00 00 	mov    %eax,0x200(%rsp)
  403042:	0f ae 94 24 00 02 00 	ldmxcsr 0x200(%rsp)
  403049:	00 
  40304a:	48 81 c4 08 02 00 00 	add    $0x208,%rsp
  403051:	c3                   	retq   
  403052:	48 8d b6 00 00 00 00 	lea    0x0(%rsi),%rsi
  403059:	48 8d bf 00 00 00 00 	lea    0x0(%rdi),%rdi

0000000000403060 <__intel_proc_init>:
  403060:	48 8b 05 09 78 10 00 	mov    1079305(%rip),%rax        # 50a870 <_DYNAMIC+0x1c0>
  403067:	8b 00                	mov    (%rax),%eax
  403069:	a9 80 ff ff ff       	test   $0xffffff80,%eax
  40306e:	0f 85 6c ff ff ff    	jne    402fe0 <__intel_proc_init.H>
  403074:	a9 ff ff ff ff       	test   $0xffffffff,%eax
  403079:	0f 85 51 ff ff ff    	jne    402fd0 <__intel_proc_init.A>
  40307f:	48 83 ec 08          	sub    $0x8,%rsp
  403083:	e8 68 3b 00 00       	callq  406bf0 <__intel_cpu_indicator_init>
  403088:	48 83 c4 08          	add    $0x8,%rsp
  40308c:	eb d2                	jmp    403060 <__intel_proc_init>
  40308e:	90                   	nop    
  40308f:	90                   	nop    

0000000000403090 <__intel_new_proc_init.A>:
  403090:	c3                   	retq   
  403091:	48 8d b4 26 00 00 00 	lea    0x0(%rsi),%rsi
  403098:	00 
  403099:	48 8d bf 00 00 00 00 	lea    0x0(%rdi),%rdi

00000000004030a0 <__intel_new_proc_init.H>:
  4030a0:	41 57                	push   %r15
  4030a2:	41 56                	push   %r14
  4030a4:	55                   	push   %rbp
  4030a5:	48 81 ec 10 02 00 00 	sub    $0x210,%rsp
  4030ac:	41 89 ff             	mov    %edi,%r15d
  4030af:	44 89 fd             	mov    %r15d,%ebp
  4030b2:	83 e5 02             	and    $0x2,%ebp
  4030b5:	45 89 fe             	mov    %r15d,%r14d
  4030b8:	41 83 e6 04          	and    $0x4,%r14d
  4030bc:	85 ed                	test   %ebp,%ebp
  4030be:	75 05                	jne    4030c5 <__intel_new_proc_init.H+0x25>
  4030c0:	45 85 f6             	test   %r14d,%r14d
  4030c3:	74 2c                	je     4030f1 <__intel_new_proc_init.H+0x51>
  4030c5:	48 8d 3c 24          	lea    (%rsp),%rdi
  4030c9:	33 f6                	xor    %esi,%esi
  4030cb:	ba 00 02 00 00       	mov    $0x200,%edx
  4030d0:	e8 33 d8 ff ff       	callq  400908 <memset@plt>
  4030d5:	0f ae 04 24          	fxsave (%rsp)
  4030d9:	8b 54 24 1c          	mov    0x1c(%rsp),%edx
  4030dd:	33 c9                	xor    %ecx,%ecx
  4030df:	89 d0                	mov    %edx,%eax
  4030e1:	83 e0 40             	and    $0x40,%eax
  4030e4:	0f 44 e9             	cmove  %ecx,%ebp
  4030e7:	81 e2 00 00 02 00    	and    $0x20000,%edx
  4030ed:	44 0f 44 f1          	cmove  %ecx,%r14d
  4030f1:	41 f7 c7 01 00 00 00 	test   $0x1,%r15d
  4030f8:	75 5a                	jne    403154 <__intel_new_proc_init.H+0xb4>
  4030fa:	85 ed                	test   %ebp,%ebp
  4030fc:	74 21                	je     40311f <__intel_new_proc_init.H+0x7f>
  4030fe:	0f ae 9c 24 00 02 00 	stmxcsr 0x200(%rsp)
  403105:	00 
  403106:	8b 84 24 00 02 00 00 	mov    0x200(%rsp),%eax
  40310d:	83 c8 40             	or     $0x40,%eax
  403110:	89 84 24 00 02 00 00 	mov    %eax,0x200(%rsp)
  403117:	0f ae 94 24 00 02 00 	ldmxcsr 0x200(%rsp)
  40311e:	00 
  40311f:	45 85 f6             	test   %r14d,%r14d
  403122:	74 23                	je     403147 <__intel_new_proc_init.H+0xa7>
  403124:	0f ae 9c 24 00 02 00 	stmxcsr 0x200(%rsp)
  40312b:	00 
  40312c:	8b 84 24 00 02 00 00 	mov    0x200(%rsp),%eax
  403133:	0d 00 00 02 00       	or     $0x20000,%eax
  403138:	89 84 24 00 02 00 00 	mov    %eax,0x200(%rsp)
  40313f:	0f ae 94 24 00 02 00 	ldmxcsr 0x200(%rsp)
  403146:	00 
  403147:	48 81 c4 10 02 00 00 	add    $0x210,%rsp
  40314e:	5d                   	pop    %rbp
  40314f:	41 5e                	pop    %r14
  403151:	41 5f                	pop    %r15
  403153:	c3                   	retq   
  403154:	0f ae 9c 24 00 02 00 	stmxcsr 0x200(%rsp)
  40315b:	00 
  40315c:	8b 84 24 00 02 00 00 	mov    0x200(%rsp),%eax
  403163:	0d 00 80 00 00       	or     $0x8000,%eax
  403168:	89 84 24 00 02 00 00 	mov    %eax,0x200(%rsp)
  40316f:	0f ae 94 24 00 02 00 	ldmxcsr 0x200(%rsp)
  403176:	00 
  403177:	eb 81                	jmp    4030fa <__intel_new_proc_init.H+0x5a>
  403179:	48 8d b6 00 00 00 00 	lea    0x0(%rsi),%rsi

0000000000403180 <__intel_new_proc_init>:
  403180:	48 8b 05 e9 76 10 00 	mov    1079017(%rip),%rax        # 50a870 <_DYNAMIC+0x1c0>
  403187:	8b 00                	mov    (%rax),%eax
  403189:	a9 80 ff ff ff       	test   $0xffffff80,%eax
  40318e:	0f 85 0c ff ff ff    	jne    4030a0 <__intel_new_proc_init.H>
  403194:	a9 ff ff ff ff       	test   $0xffffffff,%eax
  403199:	0f 85 f1 fe ff ff    	jne    403090 <__intel_new_proc_init.A>
  40319f:	48 83 ec 08          	sub    $0x8,%rsp
  4031a3:	e8 48 3a 00 00       	callq  406bf0 <__intel_cpu_indicator_init>
  4031a8:	48 83 c4 08          	add    $0x8,%rsp
  4031ac:	eb d2                	jmp    403180 <__intel_new_proc_init>
  4031ae:	90                   	nop    
  4031af:	90                   	nop    

00000000004031b0 <__intel_new_memcpy>:
  4031b0:	49 89 d0             	mov    %rdx,%r8
  4031b3:	48 89 f9             	mov    %rdi,%rcx
  4031b6:	48 89 f2             	mov    %rsi,%rdx
  4031b9:	49 83 f8 01          	cmp    $0x1,%r8
  4031bd:	48 89 c8             	mov    %rcx,%rax
  4031c0:	75 07                	jne    4031c9 <__intel_new_memcpy+0x19>
  4031c2:	44 8a 0a             	mov    (%rdx),%r9b
  4031c5:	44 88 09             	mov    %r9b,(%rcx)
  4031c8:	c3                   	retq   
  4031c9:	4c 8d 1d 80 01 00 00 	lea    384(%rip),%r11        # 403350 <__intel_new_memcpy+0x1a0>
  4031d0:	49 83 f8 08          	cmp    $0x8,%r8
  4031d4:	7f 1a                	jg     4031f0 <__intel_new_memcpy+0x40>
  4031d6:	4c 01 c1             	add    %r8,%rcx
  4031d9:	4c 01 c2             	add    %r8,%rdx
  4031dc:	4f 8b 14 c3          	mov    (%r11,%r8,8),%r10
  4031e0:	4f 8d 1c 1a          	lea    (%r10,%r11,1),%r11
  4031e4:	41 ff e3             	jmpq   *%r11
  4031e7:	66 66 90             	xchg   %ax,%ax
  4031ea:	66 66 90             	xchg   %ax,%ax
  4031ed:	66 66 90             	xchg   %ax,%ax
  4031f0:	48 f7 c1 07 00 00 00 	test   $0x7,%rcx
  4031f7:	75 25                	jne    40321e <__intel_new_memcpy+0x6e>
  4031f9:	4c 8d 1d 50 01 00 00 	lea    336(%rip),%r11        # 403350 <__intel_new_memcpy+0x1a0>
  403200:	49 81 f8 b0 00 00 00 	cmp    $0xb0,%r8
  403207:	0f 8f a3 0e 00 00    	jg     4040b0 <__intel_new_memcpy+0xf00>
  40320d:	4c 01 c1             	add    %r8,%rcx
  403210:	4c 01 c2             	add    %r8,%rdx
  403213:	4f 8b 14 c3          	mov    (%r11,%r8,8),%r10
  403217:	4f 8d 1c 1a          	lea    (%r10,%r11,1),%r11
  40321b:	41 ff e3             	jmpq   *%r11
  40321e:	4c 8d 1d eb 00 00 00 	lea    235(%rip),%r11        # 403310 <__intel_new_memcpy+0x160>
  403225:	49 89 c9             	mov    %rcx,%r9
  403228:	49 83 e1 07          	and    $0x7,%r9
  40322c:	4f 8b 14 cb          	mov    (%r11,%r9,8),%r10
  403230:	4f 8d 1c 1a          	lea    (%r10,%r11,1),%r11
  403234:	41 ff e3             	jmpq   *%r11
  403237:	44 8a 1a             	mov    (%rdx),%r11b
  40323a:	66 44 8b 52 01       	mov    0x1(%rdx),%r10w
  40323f:	44 8b 4a 03          	mov    0x3(%rdx),%r9d
  403243:	44 88 19             	mov    %r11b,(%rcx)
  403246:	66 44 89 51 01       	mov    %r10w,0x1(%rcx)
  40324b:	44 89 49 03          	mov    %r9d,0x3(%rcx)
  40324f:	49 83 e8 07          	sub    $0x7,%r8
  403253:	48 83 c1 07          	add    $0x7,%rcx
  403257:	48 83 c2 07          	add    $0x7,%rdx
  40325b:	eb 9c                	jmp    4031f9 <__intel_new_memcpy+0x49>
  40325d:	66 44 8b 12          	mov    (%rdx),%r10w
  403261:	44 8b 4a 02          	mov    0x2(%rdx),%r9d
  403265:	66 44 89 11          	mov    %r10w,(%rcx)
  403269:	44 89 49 02          	mov    %r9d,0x2(%rcx)
  40326d:	49 83 e8 06          	sub    $0x6,%r8
  403271:	48 83 c1 06          	add    $0x6,%rcx
  403275:	48 83 c2 06          	add    $0x6,%rdx
  403279:	e9 7b ff ff ff       	jmpq   4031f9 <__intel_new_memcpy+0x49>
  40327e:	44 8a 1a             	mov    (%rdx),%r11b
  403281:	44 8b 4a 01          	mov    0x1(%rdx),%r9d
  403285:	44 88 19             	mov    %r11b,(%rcx)
  403288:	44 89 49 01          	mov    %r9d,0x1(%rcx)
  40328c:	49 83 e8 05          	sub    $0x5,%r8
  403290:	48 83 c1 05          	add    $0x5,%rcx
  403294:	48 83 c2 05          	add    $0x5,%rdx
  403298:	e9 5c ff ff ff       	jmpq   4031f9 <__intel_new_memcpy+0x49>
  40329d:	44 8b 0a             	mov    (%rdx),%r9d
  4032a0:	44 89 09             	mov    %r9d,(%rcx)
  4032a3:	49 83 e8 04          	sub    $0x4,%r8
  4032a7:	48 83 c1 04          	add    $0x4,%rcx
  4032ab:	48 83 c2 04          	add    $0x4,%rdx
  4032af:	e9 45 ff ff ff       	jmpq   4031f9 <__intel_new_memcpy+0x49>
  4032b4:	44 8a 1a             	mov    (%rdx),%r11b
  4032b7:	66 44 8b 52 01       	mov    0x1(%rdx),%r10w
  4032bc:	44 88 19             	mov    %r11b,(%rcx)
  4032bf:	66 44 89 51 01       	mov    %r10w,0x1(%rcx)
  4032c4:	49 83 e8 03          	sub    $0x3,%r8
  4032c8:	48 83 c1 03          	add    $0x3,%rcx
  4032cc:	48 83 c2 03          	add    $0x3,%rdx
  4032d0:	e9 24 ff ff ff       	jmpq   4031f9 <__intel_new_memcpy+0x49>
  4032d5:	66 44 8b 12          	mov    (%rdx),%r10w
  4032d9:	66 44 89 11          	mov    %r10w,(%rcx)
  4032dd:	49 83 e8 02          	sub    $0x2,%r8
  4032e1:	48 83 c1 02          	add    $0x2,%rcx
  4032e5:	48 83 c2 02          	add    $0x2,%rdx
  4032e9:	e9 0b ff ff ff       	jmpq   4031f9 <__intel_new_memcpy+0x49>
  4032ee:	44 8a 1a             	mov    (%rdx),%r11b
  4032f1:	44 88 19             	mov    %r11b,(%rcx)
  4032f4:	49 ff c8             	dec    %r8
  4032f7:	48 ff c1             	inc    %rcx
  4032fa:	48 ff c2             	inc    %rdx
  4032fd:	e9 f7 fe ff ff       	jmpq   4031f9 <__intel_new_memcpy+0x49>
  403302:	66 66 66 90          	xchg   %ax,%ax
  403306:	66 66 66 90          	xchg   %ax,%ax
  40330a:	66 66 90             	xchg   %ax,%ax
  40330d:	66 66 90             	xchg   %ax,%ax
  403310:	e9 fe ff ff ff       	jmpq   403313 <__intel_new_memcpy+0x163>
  403315:	ff                   	(bad)  
  403316:	ff                   	(bad)  
  403317:	ff 27                	jmpq   *(%rdi)
  403319:	ff                   	(bad)  
  40331a:	ff                   	(bad)  
  40331b:	ff                   	(bad)  
  40331c:	ff                   	(bad)  
  40331d:	ff                   	(bad)  
  40331e:	ff                   	(bad)  
  40331f:	ff 4d ff             	decl   0xffffffffffffffff(%rbp)
  403322:	ff                   	(bad)  
  403323:	ff                   	(bad)  
  403324:	ff                   	(bad)  
  403325:	ff                   	(bad)  
  403326:	ff                   	(bad)  
  403327:	ff 6e ff             	ljmpq  *0xffffffffffffffff(%rsi)
  40332a:	ff                   	(bad)  
  40332b:	ff                   	(bad)  
  40332c:	ff                   	(bad)  
  40332d:	ff                   	(bad)  
  40332e:	ff                   	(bad)  
  40332f:	ff 8d ff ff ff ff    	decl   0xffffffffffffffff(%rbp)
  403335:	ff                   	(bad)  
  403336:	ff                   	(bad)  
  403337:	ff a4 ff ff ff ff ff 	jmpq   *0xffffffffffffffff(%rdi,%rdi,8)
  40333e:	ff                   	(bad)  
  40333f:	ff c5                	inc    %ebp
  403341:	ff                   	(bad)  
  403342:	ff                   	(bad)  
  403343:	ff                   	(bad)  
  403344:	ff                   	(bad)  
  403345:	ff                   	(bad)  
  403346:	ff                   	(bad)  
  403347:	ff de                	lcallq *<internal disassembler error>
  403349:	ff                   	(bad)  
  40334a:	ff                   	(bad)  
  40334b:	ff                   	(bad)  
  40334c:	ff                   	(bad)  
  40334d:	ff                   	(bad)  
  40334e:	ff                   	(bad)  
  40334f:	ff f4                	push   %rsp
  403351:	06                   	(bad)  
  403352:	00 00                	add    %al,(%rax)
  403354:	00 00                	add    %al,(%rax)
  403356:	00 00                	add    %al,(%rax)
  403358:	cf                   	iret   
  403359:	07                   	(bad)  
  40335a:	00 00                	add    %al,(%rax)
  40335c:	00 00                	add    %al,(%rax)
  40335e:	00 00                	add    %al,(%rax)
  403360:	b2 08                	mov    $0x8,%dl
  403362:	00 00                	add    %al,(%rax)
  403364:	00 00                	add    %al,(%rax)
  403366:	00 00                	add    %al,(%rax)
  403368:	97                   	xchg   %eax,%edi
  403369:	09 00                	or     %eax,(%rax)
  40336b:	00 00                	add    %al,(%rax)
  40336d:	00 00                	add    %al,(%rax)
  40336f:	00 84 0a 00 00 00 00 	add    %al,0x0(%rdx,%rcx,1)
  403376:	00 00                	add    %al,(%rax)
  403378:	67 0b 00             	addr32 or (%eax),%eax
  40337b:	00 00                	add    %al,(%rax)
  40337d:	00 00                	add    %al,(%rax)
  40337f:	00 52 0c             	add    %dl,0xc(%rdx)
  403382:	00 00                	add    %al,(%rax)
  403384:	00 00                	add    %al,(%rax)
  403386:	00 00                	add    %al,(%rax)
  403388:	3f                   	(bad)  
  403389:	0d 00 00 00 00       	or     $0x0,%eax
  40338e:	00 00                	add    %al,(%rax)
  403390:	ec                   	in     (%dx),%al
  403391:	06                   	(bad)  
  403392:	00 00                	add    %al,(%rax)
  403394:	00 00                	add    %al,(%rax)
  403396:	00 00                	add    %al,(%rax)
  403398:	c7 07 00 00 00 00    	movl   $0x0,(%rdi)
  40339e:	00 00                	add    %al,(%rax)
  4033a0:	aa                   	stos   %al,%es:(%rdi)
  4033a1:	08 00                	or     %al,(%rax)
  4033a3:	00 00                	add    %al,(%rax)
  4033a5:	00 00                	add    %al,(%rax)
  4033a7:	00 8f 09 00 00 00    	add    %cl,0x9(%rdi)
  4033ad:	00 00                	add    %al,(%rax)
  4033af:	00 7c 0a 00          	add    %bh,0x0(%rdx,%rcx,1)
  4033b3:	00 00                	add    %al,(%rax)
  4033b5:	00 00                	add    %al,(%rax)
  4033b7:	00 5f 0b             	add    %bl,0xb(%rdi)
  4033ba:	00 00                	add    %al,(%rax)
  4033bc:	00 00                	add    %al,(%rax)
  4033be:	00 00                	add    %al,(%rax)
  4033c0:	4a 0c 00             	rex.WX or     $0x0,%al
  4033c3:	00 00                	add    %al,(%rax)
  4033c5:	00 00                	add    %al,(%rax)
  4033c7:	00 37                	add    %dh,(%rdi)
  4033c9:	0d 00 00 00 00       	or     $0x0,%eax
  4033ce:	00 00                	add    %al,(%rax)
  4033d0:	e4 06                	in     $0x6,%al
  4033d2:	00 00                	add    %al,(%rax)
  4033d4:	00 00                	add    %al,(%rax)
  4033d6:	00 00                	add    %al,(%rax)
  4033d8:	bf 07 00 00 00       	mov    $0x7,%edi
  4033dd:	00 00                	add    %al,(%rax)
  4033df:	00 a2 08 00 00 00    	add    %ah,0x8(%rdx)
  4033e5:	00 00                	add    %al,(%rax)
  4033e7:	00 87 09 00 00 00    	add    %al,0x9(%rdi)
  4033ed:	00 00                	add    %al,(%rax)
  4033ef:	00 74 0a 00          	add    %dh,0x0(%rdx,%rcx,1)
  4033f3:	00 00                	add    %al,(%rax)
  4033f5:	00 00                	add    %al,(%rax)
  4033f7:	00 57 0b             	add    %dl,0xb(%rdi)
  4033fa:	00 00                	add    %al,(%rax)
  4033fc:	00 00                	add    %al,(%rax)
  4033fe:	00 00                	add    %al,(%rax)
  403400:	42 0c 00             	rex.X or     $0x0,%al
  403403:	00 00                	add    %al,(%rax)
  403405:	00 00                	add    %al,(%rax)
  403407:	00 2f                	add    %ch,(%rdi)
  403409:	0d 00 00 00 00       	or     $0x0,%eax
  40340e:	00 00                	add    %al,(%rax)
  403410:	dc 06                	faddl  (%rsi)
  403412:	00 00                	add    %al,(%rax)
  403414:	00 00                	add    %al,(%rax)
  403416:	00 00                	add    %al,(%rax)
  403418:	b7 07                	mov    $0x7,%bh
  40341a:	00 00                	add    %al,(%rax)
  40341c:	00 00                	add    %al,(%rax)
  40341e:	00 00                	add    %al,(%rax)
  403420:	9a                   	(bad)  
  403421:	08 00                	or     %al,(%rax)
  403423:	00 00                	add    %al,(%rax)
  403425:	00 00                	add    %al,(%rax)
  403427:	00 7f 09             	add    %bh,0x9(%rdi)
  40342a:	00 00                	add    %al,(%rax)
  40342c:	00 00                	add    %al,(%rax)
  40342e:	00 00                	add    %al,(%rax)
  403430:	6c                   	insb   (%dx),%es:(%rdi)
  403431:	0a 00                	or     (%rax),%al
  403433:	00 00                	add    %al,(%rax)
  403435:	00 00                	add    %al,(%rax)
  403437:	00 4f 0b             	add    %cl,0xb(%rdi)
  40343a:	00 00                	add    %al,(%rax)
  40343c:	00 00                	add    %al,(%rax)
  40343e:	00 00                	add    %al,(%rax)
  403440:	3a 0c 00             	cmp    (%rax,%rax,1),%cl
  403443:	00 00                	add    %al,(%rax)
  403445:	00 00                	add    %al,(%rax)
  403447:	00 27                	add    %ah,(%rdi)
  403449:	0d 00 00 00 00       	or     $0x0,%eax
  40344e:	00 00                	add    %al,(%rax)
  403450:	d4                   	(bad)  
  403451:	06                   	(bad)  
  403452:	00 00                	add    %al,(%rax)
  403454:	00 00                	add    %al,(%rax)
  403456:	00 00                	add    %al,(%rax)
  403458:	af                   	scas   %es:(%rdi),%eax
  403459:	07                   	(bad)  
  40345a:	00 00                	add    %al,(%rax)
  40345c:	00 00                	add    %al,(%rax)
  40345e:	00 00                	add    %al,(%rax)
  403460:	92                   	xchg   %eax,%edx
  403461:	08 00                	or     %al,(%rax)
  403463:	00 00                	add    %al,(%rax)
  403465:	00 00                	add    %al,(%rax)
  403467:	00 77 09             	add    %dh,0x9(%rdi)
  40346a:	00 00                	add    %al,(%rax)
  40346c:	00 00                	add    %al,(%rax)
  40346e:	00 00                	add    %al,(%rax)
  403470:	64 0a 00             	or     %fs:(%rax),%al
  403473:	00 00                	add    %al,(%rax)
  403475:	00 00                	add    %al,(%rax)
  403477:	00 47 0b             	add    %al,0xb(%rdi)
  40347a:	00 00                	add    %al,(%rax)
  40347c:	00 00                	add    %al,(%rax)
  40347e:	00 00                	add    %al,(%rax)
  403480:	32 0c 00             	xor    (%rax,%rax,1),%cl
  403483:	00 00                	add    %al,(%rax)
  403485:	00 00                	add    %al,(%rax)
  403487:	00 1f                	add    %bl,(%rdi)
  403489:	0d 00 00 00 00       	or     $0x0,%eax
  40348e:	00 00                	add    %al,(%rax)
  403490:	cc                   	int3   
  403491:	06                   	(bad)  
  403492:	00 00                	add    %al,(%rax)
  403494:	00 00                	add    %al,(%rax)
  403496:	00 00                	add    %al,(%rax)
  403498:	a7                   	cmpsl  %es:(%rdi),%ds:(%rsi)
  403499:	07                   	(bad)  
  40349a:	00 00                	add    %al,(%rax)
  40349c:	00 00                	add    %al,(%rax)
  40349e:	00 00                	add    %al,(%rax)
  4034a0:	8a 08                	mov    (%rax),%cl
  4034a2:	00 00                	add    %al,(%rax)
  4034a4:	00 00                	add    %al,(%rax)
  4034a6:	00 00                	add    %al,(%rax)
  4034a8:	6f                   	outsl  %ds:(%rsi),(%dx)
  4034a9:	09 00                	or     %eax,(%rax)
  4034ab:	00 00                	add    %al,(%rax)
  4034ad:	00 00                	add    %al,(%rax)
  4034af:	00 5c 0a 00          	add    %bl,0x0(%rdx,%rcx,1)
  4034b3:	00 00                	add    %al,(%rax)
  4034b5:	00 00                	add    %al,(%rax)
  4034b7:	00 3f                	add    %bh,(%rdi)
  4034b9:	0b 00                	or     (%rax),%eax
  4034bb:	00 00                	add    %al,(%rax)
  4034bd:	00 00                	add    %al,(%rax)
  4034bf:	00 2a                	add    %ch,(%rdx)
  4034c1:	0c 00                	or     $0x0,%al
  4034c3:	00 00                	add    %al,(%rax)
  4034c5:	00 00                	add    %al,(%rax)
  4034c7:	00 17                	add    %dl,(%rdi)
  4034c9:	0d 00 00 00 00       	or     $0x0,%eax
  4034ce:	00 00                	add    %al,(%rax)
  4034d0:	c4                   	(bad)  
  4034d1:	06                   	(bad)  
  4034d2:	00 00                	add    %al,(%rax)
  4034d4:	00 00                	add    %al,(%rax)
  4034d6:	00 00                	add    %al,(%rax)
  4034d8:	9f                   	(bad)  
  4034d9:	07                   	(bad)  
  4034da:	00 00                	add    %al,(%rax)
  4034dc:	00 00                	add    %al,(%rax)
  4034de:	00 00                	add    %al,(%rax)
  4034e0:	82                   	(bad)  
  4034e1:	08 00                	or     %al,(%rax)
  4034e3:	00 00                	add    %al,(%rax)
  4034e5:	00 00                	add    %al,(%rax)
  4034e7:	00 67 09             	add    %ah,0x9(%rdi)
  4034ea:	00 00                	add    %al,(%rax)
  4034ec:	00 00                	add    %al,(%rax)
  4034ee:	00 00                	add    %al,(%rax)
  4034f0:	54                   	push   %rsp
  4034f1:	0a 00                	or     (%rax),%al
  4034f3:	00 00                	add    %al,(%rax)
  4034f5:	00 00                	add    %al,(%rax)
  4034f7:	00 37                	add    %dh,(%rdi)
  4034f9:	0b 00                	or     (%rax),%eax
  4034fb:	00 00                	add    %al,(%rax)
  4034fd:	00 00                	add    %al,(%rax)
  4034ff:	00 22                	add    %ah,(%rdx)
  403501:	0c 00                	or     $0x0,%al
  403503:	00 00                	add    %al,(%rax)
  403505:	00 00                	add    %al,(%rax)
  403507:	00 0f                	add    %cl,(%rdi)
  403509:	0d 00 00 00 00       	or     $0x0,%eax
  40350e:	00 00                	add    %al,(%rax)
  403510:	bc 06 00 00 00       	mov    $0x6,%esp
  403515:	00 00                	add    %al,(%rax)
  403517:	00 97 07 00 00 00    	add    %dl,0x7(%rdi)
  40351d:	00 00                	add    %al,(%rax)
  40351f:	00 7a 08             	add    %bh,0x8(%rdx)
  403522:	00 00                	add    %al,(%rax)
  403524:	00 00                	add    %al,(%rax)
  403526:	00 00                	add    %al,(%rax)
  403528:	5f                   	pop    %rdi
  403529:	09 00                	or     %eax,(%rax)
  40352b:	00 00                	add    %al,(%rax)
  40352d:	00 00                	add    %al,(%rax)
  40352f:	00 4c 0a 00          	add    %cl,0x0(%rdx,%rcx,1)
  403533:	00 00                	add    %al,(%rax)
  403535:	00 00                	add    %al,(%rax)
  403537:	00 2f                	add    %ch,(%rdi)
  403539:	0b 00                	or     (%rax),%eax
  40353b:	00 00                	add    %al,(%rax)
  40353d:	00 00                	add    %al,(%rax)
  40353f:	00 1a                	add    %bl,(%rdx)
  403541:	0c 00                	or     $0x0,%al
  403543:	00 00                	add    %al,(%rax)
  403545:	00 00                	add    %al,(%rax)
  403547:	00 07                	add    %al,(%rdi)
  403549:	0d 00 00 00 00       	or     $0x0,%eax
  40354e:	00 00                	add    %al,(%rax)
  403550:	b4 06                	mov    $0x6,%ah
  403552:	00 00                	add    %al,(%rax)
  403554:	00 00                	add    %al,(%rax)
  403556:	00 00                	add    %al,(%rax)
  403558:	8f 07                	popq   (%rdi)
  40355a:	00 00                	add    %al,(%rax)
  40355c:	00 00                	add    %al,(%rax)
  40355e:	00 00                	add    %al,(%rax)
  403560:	72 08                	jb     40356a <__intel_new_memcpy+0x3ba>
  403562:	00 00                	add    %al,(%rax)
  403564:	00 00                	add    %al,(%rax)
  403566:	00 00                	add    %al,(%rax)
  403568:	57                   	push   %rdi
  403569:	09 00                	or     %eax,(%rax)
  40356b:	00 00                	add    %al,(%rax)
  40356d:	00 00                	add    %al,(%rax)
  40356f:	00 44 0a 00          	add    %al,0x0(%rdx,%rcx,1)
  403573:	00 00                	add    %al,(%rax)
  403575:	00 00                	add    %al,(%rax)
  403577:	00 27                	add    %ah,(%rdi)
  403579:	0b 00                	or     (%rax),%eax
  40357b:	00 00                	add    %al,(%rax)
  40357d:	00 00                	add    %al,(%rax)
  40357f:	00 12                	add    %dl,(%rdx)
  403581:	0c 00                	or     $0x0,%al
  403583:	00 00                	add    %al,(%rax)
  403585:	00 00                	add    %al,(%rax)
  403587:	00 ff                	add    %bh,%bh
  403589:	0c 00                	or     $0x0,%al
  40358b:	00 00                	add    %al,(%rax)
  40358d:	00 00                	add    %al,(%rax)
  40358f:	00 ac 06 00 00 00 00 	add    %ch,0x0(%rsi,%rax,1)
  403596:	00 00                	add    %al,(%rax)
  403598:	87 07                	xchg   %eax,(%rdi)
  40359a:	00 00                	add    %al,(%rax)
  40359c:	00 00                	add    %al,(%rax)
  40359e:	00 00                	add    %al,(%rax)
  4035a0:	6a 08                	pushq  $0x8
  4035a2:	00 00                	add    %al,(%rax)
  4035a4:	00 00                	add    %al,(%rax)
  4035a6:	00 00                	add    %al,(%rax)
  4035a8:	4f 09 00             	rex.WRXB or     %r8,(%r8)
  4035ab:	00 00                	add    %al,(%rax)
  4035ad:	00 00                	add    %al,(%rax)
  4035af:	00 3c 0a             	add    %bh,(%rdx,%rcx,1)
  4035b2:	00 00                	add    %al,(%rax)
  4035b4:	00 00                	add    %al,(%rax)
  4035b6:	00 00                	add    %al,(%rax)
  4035b8:	1f                   	(bad)  
  4035b9:	0b 00                	or     (%rax),%eax
  4035bb:	00 00                	add    %al,(%rax)
  4035bd:	00 00                	add    %al,(%rax)
  4035bf:	00 0a                	add    %cl,(%rdx)
  4035c1:	0c 00                	or     $0x0,%al
  4035c3:	00 00                	add    %al,(%rax)
  4035c5:	00 00                	add    %al,(%rax)
  4035c7:	00 f7                	add    %dh,%bh
  4035c9:	0c 00                	or     $0x0,%al
  4035cb:	00 00                	add    %al,(%rax)
  4035cd:	00 00                	add    %al,(%rax)
  4035cf:	00 a4 06 00 00 00 00 	add    %ah,0x0(%rsi,%rax,1)
  4035d6:	00 00                	add    %al,(%rax)
  4035d8:	7f 07                	jg     4035e1 <__intel_new_memcpy+0x431>
  4035da:	00 00                	add    %al,(%rax)
  4035dc:	00 00                	add    %al,(%rax)
  4035de:	00 00                	add    %al,(%rax)
  4035e0:	62                   	(bad)  
  4035e1:	08 00                	or     %al,(%rax)
  4035e3:	00 00                	add    %al,(%rax)
  4035e5:	00 00                	add    %al,(%rax)
  4035e7:	00 47 09             	add    %al,0x9(%rdi)
  4035ea:	00 00                	add    %al,(%rax)
  4035ec:	00 00                	add    %al,(%rax)
  4035ee:	00 00                	add    %al,(%rax)
  4035f0:	34 0a                	xor    $0xa,%al
  4035f2:	00 00                	add    %al,(%rax)
  4035f4:	00 00                	add    %al,(%rax)
  4035f6:	00 00                	add    %al,(%rax)
  4035f8:	17                   	(bad)  
  4035f9:	0b 00                	or     (%rax),%eax
  4035fb:	00 00                	add    %al,(%rax)
  4035fd:	00 00                	add    %al,(%rax)
  4035ff:	00 02                	add    %al,(%rdx)
  403601:	0c 00                	or     $0x0,%al
  403603:	00 00                	add    %al,(%rax)
  403605:	00 00                	add    %al,(%rax)
  403607:	00 ef                	add    %ch,%bh
  403609:	0c 00                	or     $0x0,%al
  40360b:	00 00                	add    %al,(%rax)
  40360d:	00 00                	add    %al,(%rax)
  40360f:	00 9c 06 00 00 00 00 	add    %bl,0x0(%rsi,%rax,1)
  403616:	00 00                	add    %al,(%rax)
  403618:	77 07                	ja     403621 <__intel_new_memcpy+0x471>
  40361a:	00 00                	add    %al,(%rax)
  40361c:	00 00                	add    %al,(%rax)
  40361e:	00 00                	add    %al,(%rax)
  403620:	5a                   	pop    %rdx
  403621:	08 00                	or     %al,(%rax)
  403623:	00 00                	add    %al,(%rax)
  403625:	00 00                	add    %al,(%rax)
  403627:	00 3f                	add    %bh,(%rdi)
  403629:	09 00                	or     %eax,(%rax)
  40362b:	00 00                	add    %al,(%rax)
  40362d:	00 00                	add    %al,(%rax)
  40362f:	00 2c 0a             	add    %ch,(%rdx,%rcx,1)
  403632:	00 00                	add    %al,(%rax)
  403634:	00 00                	add    %al,(%rax)
  403636:	00 00                	add    %al,(%rax)
  403638:	0f 0b                	ud2a   
  40363a:	00 00                	add    %al,(%rax)
  40363c:	00 00                	add    %al,(%rax)
  40363e:	00 00                	add    %al,(%rax)
  403640:	fa                   	cli    
  403641:	0b 00                	or     (%rax),%eax
  403643:	00 00                	add    %al,(%rax)
  403645:	00 00                	add    %al,(%rax)
  403647:	00 e7                	add    %ah,%bh
  403649:	0c 00                	or     $0x0,%al
  40364b:	00 00                	add    %al,(%rax)
  40364d:	00 00                	add    %al,(%rax)
  40364f:	00 94 06 00 00 00 00 	add    %dl,0x0(%rsi,%rax,1)
  403656:	00 00                	add    %al,(%rax)
  403658:	6f                   	outsl  %ds:(%rsi),(%dx)
  403659:	07                   	(bad)  
  40365a:	00 00                	add    %al,(%rax)
  40365c:	00 00                	add    %al,(%rax)
  40365e:	00 00                	add    %al,(%rax)
  403660:	52                   	push   %rdx
  403661:	08 00                	or     %al,(%rax)
  403663:	00 00                	add    %al,(%rax)
  403665:	00 00                	add    %al,(%rax)
  403667:	00 37                	add    %dh,(%rdi)
  403669:	09 00                	or     %eax,(%rax)
  40366b:	00 00                	add    %al,(%rax)
  40366d:	00 00                	add    %al,(%rax)
  40366f:	00 24 0a             	add    %ah,(%rdx,%rcx,1)
  403672:	00 00                	add    %al,(%rax)
  403674:	00 00                	add    %al,(%rax)
  403676:	00 00                	add    %al,(%rax)
  403678:	07                   	(bad)  
  403679:	0b 00                	or     (%rax),%eax
  40367b:	00 00                	add    %al,(%rax)
  40367d:	00 00                	add    %al,(%rax)
  40367f:	00 f2                	add    %dh,%dl
  403681:	0b 00                	or     (%rax),%eax
  403683:	00 00                	add    %al,(%rax)
  403685:	00 00                	add    %al,(%rax)
  403687:	00 df                	add    %bl,%bh
  403689:	0c 00                	or     $0x0,%al
  40368b:	00 00                	add    %al,(%rax)
  40368d:	00 00                	add    %al,(%rax)
  40368f:	00 8c 06 00 00 00 00 	add    %cl,0x0(%rsi,%rax,1)
  403696:	00 00                	add    %al,(%rax)
  403698:	67 07                	(bad)  
  40369a:	00 00                	add    %al,(%rax)
  40369c:	00 00                	add    %al,(%rax)
  40369e:	00 00                	add    %al,(%rax)
  4036a0:	4a 08 00             	rex.WX or     %al,(%rax)
  4036a3:	00 00                	add    %al,(%rax)
  4036a5:	00 00                	add    %al,(%rax)
  4036a7:	00 2f                	add    %ch,(%rdi)
  4036a9:	09 00                	or     %eax,(%rax)
  4036ab:	00 00                	add    %al,(%rax)
  4036ad:	00 00                	add    %al,(%rax)
  4036af:	00 1c 0a             	add    %bl,(%rdx,%rcx,1)
  4036b2:	00 00                	add    %al,(%rax)
  4036b4:	00 00                	add    %al,(%rax)
  4036b6:	00 00                	add    %al,(%rax)
  4036b8:	ff 0a                	decl   (%rdx)
  4036ba:	00 00                	add    %al,(%rax)
  4036bc:	00 00                	add    %al,(%rax)
  4036be:	00 00                	add    %al,(%rax)
  4036c0:	ea                   	(bad)  
  4036c1:	0b 00                	or     (%rax),%eax
  4036c3:	00 00                	add    %al,(%rax)
  4036c5:	00 00                	add    %al,(%rax)
  4036c7:	00 d7                	add    %dl,%bh
  4036c9:	0c 00                	or     $0x0,%al
  4036cb:	00 00                	add    %al,(%rax)
  4036cd:	00 00                	add    %al,(%rax)
  4036cf:	00 84 06 00 00 00 00 	add    %al,0x0(%rsi,%rax,1)
  4036d6:	00 00                	add    %al,(%rax)
  4036d8:	5f                   	pop    %rdi
  4036d9:	07                   	(bad)  
  4036da:	00 00                	add    %al,(%rax)
  4036dc:	00 00                	add    %al,(%rax)
  4036de:	00 00                	add    %al,(%rax)
  4036e0:	42 08 00             	rex.X or     %al,(%rax)
  4036e3:	00 00                	add    %al,(%rax)
  4036e5:	00 00                	add    %al,(%rax)
  4036e7:	00 27                	add    %ah,(%rdi)
  4036e9:	09 00                	or     %eax,(%rax)
  4036eb:	00 00                	add    %al,(%rax)
  4036ed:	00 00                	add    %al,(%rax)
  4036ef:	00 14 0a             	add    %dl,(%rdx,%rcx,1)
  4036f2:	00 00                	add    %al,(%rax)
  4036f4:	00 00                	add    %al,(%rax)
  4036f6:	00 00                	add    %al,(%rax)
  4036f8:	f7                   	(bad)  
  4036f9:	0a 00                	or     (%rax),%al
  4036fb:	00 00                	add    %al,(%rax)
  4036fd:	00 00                	add    %al,(%rax)
  4036ff:	00 e2                	add    %ah,%dl
  403701:	0b 00                	or     (%rax),%eax
  403703:	00 00                	add    %al,(%rax)
  403705:	00 00                	add    %al,(%rax)
  403707:	00 cf                	add    %cl,%bh
  403709:	0c 00                	or     $0x0,%al
  40370b:	00 00                	add    %al,(%rax)
  40370d:	00 00                	add    %al,(%rax)
  40370f:	00 7c 06 00          	add    %bh,0x0(%rsi,%rax,1)
  403713:	00 00                	add    %al,(%rax)
  403715:	00 00                	add    %al,(%rax)
  403717:	00 57 07             	add    %dl,0x7(%rdi)
  40371a:	00 00                	add    %al,(%rax)
  40371c:	00 00                	add    %al,(%rax)
  40371e:	00 00                	add    %al,(%rax)
  403720:	3a 08                	cmp    (%rax),%cl
  403722:	00 00                	add    %al,(%rax)
  403724:	00 00                	add    %al,(%rax)
  403726:	00 00                	add    %al,(%rax)
  403728:	1f                   	(bad)  
  403729:	09 00                	or     %eax,(%rax)
  40372b:	00 00                	add    %al,(%rax)
  40372d:	00 00                	add    %al,(%rax)
  40372f:	00 0c 0a             	add    %cl,(%rdx,%rcx,1)
  403732:	00 00                	add    %al,(%rax)
  403734:	00 00                	add    %al,(%rax)
  403736:	00 00                	add    %al,(%rax)
  403738:	ef                   	out    %eax,(%dx)
  403739:	0a 00                	or     (%rax),%al
  40373b:	00 00                	add    %al,(%rax)
  40373d:	00 00                	add    %al,(%rax)
  40373f:	00 da                	add    %bl,%dl
  403741:	0b 00                	or     (%rax),%eax
  403743:	00 00                	add    %al,(%rax)
  403745:	00 00                	add    %al,(%rax)
  403747:	00 c7                	add    %al,%bh
  403749:	0c 00                	or     $0x0,%al
  40374b:	00 00                	add    %al,(%rax)
  40374d:	00 00                	add    %al,(%rax)
  40374f:	00 74 06 00          	add    %dh,0x0(%rsi,%rax,1)
  403753:	00 00                	add    %al,(%rax)
  403755:	00 00                	add    %al,(%rax)
  403757:	00 49 07             	add    %cl,0x7(%rcx)
  40375a:	00 00                	add    %al,(%rax)
  40375c:	00 00                	add    %al,(%rax)
  40375e:	00 00                	add    %al,(%rax)
  403760:	2c 08                	sub    $0x8,%al
  403762:	00 00                	add    %al,(%rax)
  403764:	00 00                	add    %al,(%rax)
  403766:	00 00                	add    %al,(%rax)
  403768:	11 09                	adc    %ecx,(%rcx)
  40376a:	00 00                	add    %al,(%rax)
  40376c:	00 00                	add    %al,(%rax)
  40376e:	00 00                	add    %al,(%rax)
  403770:	fe 09                	decb   (%rcx)
  403772:	00 00                	add    %al,(%rax)
  403774:	00 00                	add    %al,(%rax)
  403776:	00 00                	add    %al,(%rax)
  403778:	e1 0a                	loope  403784 <__intel_new_memcpy+0x5d4>
  40377a:	00 00                	add    %al,(%rax)
  40377c:	00 00                	add    %al,(%rax)
  40377e:	00 00                	add    %al,(%rax)
  403780:	cc                   	int3   
  403781:	0b 00                	or     (%rax),%eax
  403783:	00 00                	add    %al,(%rax)
  403785:	00 00                	add    %al,(%rax)
  403787:	00 b9 0c 00 00 00    	add    %bh,0xc(%rcx)
  40378d:	00 00                	add    %al,(%rax)
  40378f:	00 66 06             	add    %ah,0x6(%rsi)
  403792:	00 00                	add    %al,(%rax)
  403794:	00 00                	add    %al,(%rax)
  403796:	00 00                	add    %al,(%rax)
  403798:	3b 07                	cmp    (%rdi),%eax
  40379a:	00 00                	add    %al,(%rax)
  40379c:	00 00                	add    %al,(%rax)
  40379e:	00 00                	add    %al,(%rax)
  4037a0:	1e                   	(bad)  
  4037a1:	08 00                	or     %al,(%rax)
  4037a3:	00 00                	add    %al,(%rax)
  4037a5:	00 00                	add    %al,(%rax)
  4037a7:	00 03                	add    %al,(%rbx)
  4037a9:	09 00                	or     %eax,(%rax)
  4037ab:	00 00                	add    %al,(%rax)
  4037ad:	00 00                	add    %al,(%rax)
  4037af:	00 f0                	add    %dh,%al
  4037b1:	09 00                	or     %eax,(%rax)
  4037b3:	00 00                	add    %al,(%rax)
  4037b5:	00 00                	add    %al,(%rax)
  4037b7:	00 d3                	add    %dl,%bl
  4037b9:	0a 00                	or     (%rax),%al
  4037bb:	00 00                	add    %al,(%rax)
  4037bd:	00 00                	add    %al,(%rax)
  4037bf:	00 be 0b 00 00 00    	add    %bh,0xb(%rsi)
  4037c5:	00 00                	add    %al,(%rax)
  4037c7:	00 ab 0c 00 00 00    	add    %ch,0xc(%rbx)
  4037cd:	00 00                	add    %al,(%rax)
  4037cf:	00 58 06             	add    %bl,0x6(%rax)
  4037d2:	00 00                	add    %al,(%rax)
  4037d4:	00 00                	add    %al,(%rax)
  4037d6:	00 00                	add    %al,(%rax)
  4037d8:	2d 07 00 00 00       	sub    $0x7,%eax
  4037dd:	00 00                	add    %al,(%rax)
  4037df:	00 10                	add    %dl,(%rax)
  4037e1:	08 00                	or     %al,(%rax)
  4037e3:	00 00                	add    %al,(%rax)
  4037e5:	00 00                	add    %al,(%rax)
  4037e7:	00 f5                	add    %dh,%ch
  4037e9:	08 00                	or     %al,(%rax)
  4037eb:	00 00                	add    %al,(%rax)
  4037ed:	00 00                	add    %al,(%rax)
  4037ef:	00 e2                	add    %ah,%dl
  4037f1:	09 00                	or     %eax,(%rax)
  4037f3:	00 00                	add    %al,(%rax)
  4037f5:	00 00                	add    %al,(%rax)
  4037f7:	00 c5                	add    %al,%ch
  4037f9:	0a 00                	or     (%rax),%al
  4037fb:	00 00                	add    %al,(%rax)
  4037fd:	00 00                	add    %al,(%rax)
  4037ff:	00 b0 0b 00 00 00    	add    %dh,0xb(%rax)
  403805:	00 00                	add    %al,(%rax)
  403807:	00 9d 0c 00 00 00    	add    %bl,0xc(%rbp)
  40380d:	00 00                	add    %al,(%rax)
  40380f:	00 4a 06             	add    %cl,0x6(%rdx)
  403812:	00 00                	add    %al,(%rax)
  403814:	00 00                	add    %al,(%rax)
  403816:	00 00                	add    %al,(%rax)
  403818:	1f                   	(bad)  
  403819:	07                   	(bad)  
  40381a:	00 00                	add    %al,(%rax)
  40381c:	00 00                	add    %al,(%rax)
  40381e:	00 00                	add    %al,(%rax)
  403820:	02 08                	add    (%rax),%cl
  403822:	00 00                	add    %al,(%rax)
  403824:	00 00                	add    %al,(%rax)
  403826:	00 00                	add    %al,(%rax)
  403828:	e7 08                	out    %eax,$0x8
  40382a:	00 00                	add    %al,(%rax)
  40382c:	00 00                	add    %al,(%rax)
  40382e:	00 00                	add    %al,(%rax)
  403830:	d4                   	(bad)  
  403831:	09 00                	or     %eax,(%rax)
  403833:	00 00                	add    %al,(%rax)
  403835:	00 00                	add    %al,(%rax)
  403837:	00 b7 0a 00 00 00    	add    %dh,0xa(%rdi)
  40383d:	00 00                	add    %al,(%rax)
  40383f:	00 a2 0b 00 00 00    	add    %ah,0xb(%rdx)
  403845:	00 00                	add    %al,(%rax)
  403847:	00 8f 0c 00 00 00    	add    %cl,0xc(%rdi)
  40384d:	00 00                	add    %al,(%rax)
  40384f:	00 3c 06             	add    %bh,(%rsi,%rax,1)
  403852:	00 00                	add    %al,(%rax)
  403854:	00 00                	add    %al,(%rax)
  403856:	00 00                	add    %al,(%rax)
  403858:	11 07                	adc    %eax,(%rdi)
  40385a:	00 00                	add    %al,(%rax)
  40385c:	00 00                	add    %al,(%rax)
  40385e:	00 00                	add    %al,(%rax)
  403860:	f4                   	hlt    
  403861:	07                   	(bad)  
  403862:	00 00                	add    %al,(%rax)
  403864:	00 00                	add    %al,(%rax)
  403866:	00 00                	add    %al,(%rax)
  403868:	d9 08                	(bad)  (%rax)
  40386a:	00 00                	add    %al,(%rax)
  40386c:	00 00                	add    %al,(%rax)
  40386e:	00 00                	add    %al,(%rax)
  403870:	c6                   	(bad)  
  403871:	09 00                	or     %eax,(%rax)
  403873:	00 00                	add    %al,(%rax)
  403875:	00 00                	add    %al,(%rax)
  403877:	00 a9 0a 00 00 00    	add    %ch,0xa(%rcx)
  40387d:	00 00                	add    %al,(%rax)
  40387f:	00 94 0b 00 00 00 00 	add    %dl,0x0(%rbx,%rcx,1)
  403886:	00 00                	add    %al,(%rax)
  403888:	81 0c 00 00 00 00 00 	orl    $0x0,(%rax,%rax,1)
  40388f:	00 2e                	add    %ch,(%rsi)
  403891:	06                   	(bad)  
  403892:	00 00                	add    %al,(%rax)
  403894:	00 00                	add    %al,(%rax)
  403896:	00 00                	add    %al,(%rax)
  403898:	03 07                	add    (%rdi),%eax
  40389a:	00 00                	add    %al,(%rax)
  40389c:	00 00                	add    %al,(%rax)
  40389e:	00 00                	add    %al,(%rax)
  4038a0:	e6 07                	out    %al,$0x7
  4038a2:	00 00                	add    %al,(%rax)
  4038a4:	00 00                	add    %al,(%rax)
  4038a6:	00 00                	add    %al,(%rax)
  4038a8:	cb                   	lret   
  4038a9:	08 00                	or     %al,(%rax)
  4038ab:	00 00                	add    %al,(%rax)
  4038ad:	00 00                	add    %al,(%rax)
  4038af:	00 b8 09 00 00 00    	add    %bh,0x9(%rax)
  4038b5:	00 00                	add    %al,(%rax)
  4038b7:	00 9b 0a 00 00 00    	add    %bl,0xa(%rbx)
  4038bd:	00 00                	add    %al,(%rax)
  4038bf:	00 86 0b 00 00 00    	add    %al,0xb(%rsi)
  4038c5:	00 00                	add    %al,(%rax)
  4038c7:	00 73 0c             	add    %dh,0xc(%rbx)
  4038ca:	00 00                	add    %al,(%rax)
  4038cc:	00 00                	add    %al,(%rax)
  4038ce:	00 00                	add    %al,(%rax)
  4038d0:	20 06                	and    %al,(%rsi)
  4038d2:	00 00                	add    %al,(%rax)
  4038d4:	00 00                	add    %al,(%rax)
  4038d6:	00 00                	add    %al,(%rax)
  4038d8:	f5                   	cmc    
  4038d9:	06                   	(bad)  
  4038da:	00 00                	add    %al,(%rax)
  4038dc:	00 00                	add    %al,(%rax)
  4038de:	00 00                	add    %al,(%rax)
  4038e0:	d8 07                	fadds  (%rdi)
  4038e2:	00 00                	add    %al,(%rax)
  4038e4:	00 00                	add    %al,(%rax)
  4038e6:	00 00                	add    %al,(%rax)
  4038e8:	bd 08 00 00 00       	mov    $0x8,%ebp
  4038ed:	00 00                	add    %al,(%rax)
  4038ef:	00 aa 09 00 00 00    	add    %ch,0x9(%rdx)
  4038f5:	00 00                	add    %al,(%rax)
  4038f7:	00 8d 0a 00 00 00    	add    %cl,0xa(%rbp)
  4038fd:	00 00                	add    %al,(%rax)
  4038ff:	00 78 0b             	add    %bh,0xb(%rax)
  403902:	00 00                	add    %al,(%rax)
  403904:	00 00                	add    %al,(%rax)
  403906:	00 00                	add    %al,(%rax)
  403908:	65                   	gs
  403909:	0c 00                	or     $0x0,%al
  40390b:	00 00                	add    %al,(%rax)
  40390d:	00 00                	add    %al,(%rax)
  40390f:	00 c3                	add    %al,%bl
  403911:	48 f7 c1 01 00 00 00 	test   $0x1,%rcx
  403918:	74 12                	je     40392c <__intel_new_memcpy+0x77c>
  40391a:	44 8a 12             	mov    (%rdx),%r10b
  40391d:	44 88 11             	mov    %r10b,(%rcx)
  403920:	48 83 c1 01          	add    $0x1,%rcx
  403924:	49 83 e8 01          	sub    $0x1,%r8
  403928:	48 83 c2 01          	add    $0x1,%rdx
  40392c:	48 f7 c1 02 00 00 00 	test   $0x2,%rcx
  403933:	74 14                	je     403949 <__intel_new_memcpy+0x799>
  403935:	66 44 8b 12          	mov    (%rdx),%r10w
  403939:	66 44 89 11          	mov    %r10w,(%rcx)
  40393d:	48 83 c1 02          	add    $0x2,%rcx
  403941:	49 83 e8 02          	sub    $0x2,%r8
  403945:	48 83 c2 02          	add    $0x2,%rdx
  403949:	48 f7 c1 04 00 00 00 	test   $0x4,%rcx
  403950:	0f 84 a3 f8 ff ff    	je     4031f9 <__intel_new_memcpy+0x49>
  403956:	44 8b 12             	mov    (%rdx),%r10d
  403959:	44 89 11             	mov    %r10d,(%rcx)
  40395c:	49 83 e8 04          	sub    $0x4,%r8
  403960:	48 83 c2 04          	add    $0x4,%rdx
  403964:	48 83 c1 04          	add    $0x4,%rcx
  403968:	e9 8c f8 ff ff       	jmpq   4031f9 <__intel_new_memcpy+0x49>
  40396d:	66 66 90             	xchg   %ax,%ax
  403970:	4c 8b 8a 50 ff ff ff 	mov    0xffffffffffffff50(%rdx),%r9
  403977:	4c 89 89 50 ff ff ff 	mov    %r9,0xffffffffffffff50(%rcx)
  40397e:	4c 8b 9a 58 ff ff ff 	mov    0xffffffffffffff58(%rdx),%r11
  403985:	4c 89 99 58 ff ff ff 	mov    %r11,0xffffffffffffff58(%rcx)
  40398c:	4c 8b 8a 60 ff ff ff 	mov    0xffffffffffffff60(%rdx),%r9
  403993:	4c 89 89 60 ff ff ff 	mov    %r9,0xffffffffffffff60(%rcx)
  40399a:	4c 8b 92 68 ff ff ff 	mov    0xffffffffffffff68(%rdx),%r10
  4039a1:	4c 89 91 68 ff ff ff 	mov    %r10,0xffffffffffffff68(%rcx)
  4039a8:	4c 8b 8a 70 ff ff ff 	mov    0xffffffffffffff70(%rdx),%r9
  4039af:	4c 89 89 70 ff ff ff 	mov    %r9,0xffffffffffffff70(%rcx)
  4039b6:	4c 8b 92 78 ff ff ff 	mov    0xffffffffffffff78(%rdx),%r10
  4039bd:	4c 89 91 78 ff ff ff 	mov    %r10,0xffffffffffffff78(%rcx)
  4039c4:	4c 8b 4a 80          	mov    0xffffffffffffff80(%rdx),%r9
  4039c8:	4c 89 49 80          	mov    %r9,0xffffffffffffff80(%rcx)
  4039cc:	4c 8b 52 88          	mov    0xffffffffffffff88(%rdx),%r10
  4039d0:	4c 89 51 88          	mov    %r10,0xffffffffffffff88(%rcx)
  4039d4:	4c 8b 4a 90          	mov    0xffffffffffffff90(%rdx),%r9
  4039d8:	4c 89 49 90          	mov    %r9,0xffffffffffffff90(%rcx)
  4039dc:	4c 8b 52 98          	mov    0xffffffffffffff98(%rdx),%r10
  4039e0:	4c 89 51 98          	mov    %r10,0xffffffffffffff98(%rcx)
  4039e4:	4c 8b 4a a0          	mov    0xffffffffffffffa0(%rdx),%r9
  4039e8:	4c 89 49 a0          	mov    %r9,0xffffffffffffffa0(%rcx)
  4039ec:	4c 8b 52 a8          	mov    0xffffffffffffffa8(%rdx),%r10
  4039f0:	4c 89 51 a8          	mov    %r10,0xffffffffffffffa8(%rcx)
  4039f4:	4c 8b 4a b0          	mov    0xffffffffffffffb0(%rdx),%r9
  4039f8:	4c 89 49 b0          	mov    %r9,0xffffffffffffffb0(%rcx)
  4039fc:	4c 8b 52 b8          	mov    0xffffffffffffffb8(%rdx),%r10
  403a00:	4c 89 51 b8          	mov    %r10,0xffffffffffffffb8(%rcx)
  403a04:	4c 8b 4a c0          	mov    0xffffffffffffffc0(%rdx),%r9
  403a08:	4c 89 49 c0          	mov    %r9,0xffffffffffffffc0(%rcx)
  403a0c:	4c 8b 52 c8          	mov    0xffffffffffffffc8(%rdx),%r10
  403a10:	4c 89 51 c8          	mov    %r10,0xffffffffffffffc8(%rcx)
  403a14:	4c 8b 4a d0          	mov    0xffffffffffffffd0(%rdx),%r9
  403a18:	4c 89 49 d0          	mov    %r9,0xffffffffffffffd0(%rcx)
  403a1c:	4c 8b 52 d8          	mov    0xffffffffffffffd8(%rdx),%r10
  403a20:	4c 89 51 d8          	mov    %r10,0xffffffffffffffd8(%rcx)
  403a24:	4c 8b 4a e0          	mov    0xffffffffffffffe0(%rdx),%r9
  403a28:	4c 89 49 e0          	mov    %r9,0xffffffffffffffe0(%rcx)
  403a2c:	4c 8b 52 e8          	mov    0xffffffffffffffe8(%rdx),%r10
  403a30:	4c 89 51 e8          	mov    %r10,0xffffffffffffffe8(%rcx)
  403a34:	4c 8b 4a f0          	mov    0xfffffffffffffff0(%rdx),%r9
  403a38:	4c 89 49 f0          	mov    %r9,0xfffffffffffffff0(%rcx)
  403a3c:	4c 8b 52 f8          	mov    0xfffffffffffffff8(%rdx),%r10
  403a40:	4c 89 51 f8          	mov    %r10,0xfffffffffffffff8(%rcx)
  403a44:	c3                   	retq   
  403a45:	4c 8b 8a 4f ff ff ff 	mov    0xffffffffffffff4f(%rdx),%r9
  403a4c:	4c 89 89 4f ff ff ff 	mov    %r9,0xffffffffffffff4f(%rcx)
  403a53:	4c 8b 8a 57 ff ff ff 	mov    0xffffffffffffff57(%rdx),%r9
  403a5a:	4c 89 89 57 ff ff ff 	mov    %r9,0xffffffffffffff57(%rcx)
  403a61:	4c 8b 8a 5f ff ff ff 	mov    0xffffffffffffff5f(%rdx),%r9
  403a68:	4c 89 89 5f ff ff ff 	mov    %r9,0xffffffffffffff5f(%rcx)
  403a6f:	4c 8b 8a 67 ff ff ff 	mov    0xffffffffffffff67(%rdx),%r9
  403a76:	4c 89 89 67 ff ff ff 	mov    %r9,0xffffffffffffff67(%rcx)
  403a7d:	4c 8b 8a 6f ff ff ff 	mov    0xffffffffffffff6f(%rdx),%r9
  403a84:	4c 89 89 6f ff ff ff 	mov    %r9,0xffffffffffffff6f(%rcx)
  403a8b:	4c 8b 8a 77 ff ff ff 	mov    0xffffffffffffff77(%rdx),%r9
  403a92:	4c 89 89 77 ff ff ff 	mov    %r9,0xffffffffffffff77(%rcx)
  403a99:	4c 8b 8a 7f ff ff ff 	mov    0xffffffffffffff7f(%rdx),%r9
  403aa0:	4c 89 89 7f ff ff ff 	mov    %r9,0xffffffffffffff7f(%rcx)
  403aa7:	4c 8b 4a 87          	mov    0xffffffffffffff87(%rdx),%r9
  403aab:	4c 89 49 87          	mov    %r9,0xffffffffffffff87(%rcx)
  403aaf:	4c 8b 4a 8f          	mov    0xffffffffffffff8f(%rdx),%r9
  403ab3:	4c 89 49 8f          	mov    %r9,0xffffffffffffff8f(%rcx)
  403ab7:	4c 8b 4a 97          	mov    0xffffffffffffff97(%rdx),%r9
  403abb:	4c 89 49 97          	mov    %r9,0xffffffffffffff97(%rcx)
  403abf:	4c 8b 4a 9f          	mov    0xffffffffffffff9f(%rdx),%r9
  403ac3:	4c 89 49 9f          	mov    %r9,0xffffffffffffff9f(%rcx)
  403ac7:	4c 8b 5a a7          	mov    0xffffffffffffffa7(%rdx),%r11
  403acb:	4c 89 59 a7          	mov    %r11,0xffffffffffffffa7(%rcx)
  403acf:	4c 8b 52 af          	mov    0xffffffffffffffaf(%rdx),%r10
  403ad3:	4c 89 51 af          	mov    %r10,0xffffffffffffffaf(%rcx)
  403ad7:	4c 8b 4a b7          	mov    0xffffffffffffffb7(%rdx),%r9
  403adb:	4c 89 49 b7          	mov    %r9,0xffffffffffffffb7(%rcx)
  403adf:	4c 8b 5a bf          	mov    0xffffffffffffffbf(%rdx),%r11
  403ae3:	4c 89 59 bf          	mov    %r11,0xffffffffffffffbf(%rcx)
  403ae7:	4c 8b 52 c7          	mov    0xffffffffffffffc7(%rdx),%r10
  403aeb:	4c 89 51 c7          	mov    %r10,0xffffffffffffffc7(%rcx)
  403aef:	4c 8b 4a cf          	mov    0xffffffffffffffcf(%rdx),%r9
  403af3:	4c 89 49 cf          	mov    %r9,0xffffffffffffffcf(%rcx)
  403af7:	4c 8b 5a d7          	mov    0xffffffffffffffd7(%rdx),%r11
  403afb:	4c 89 59 d7          	mov    %r11,0xffffffffffffffd7(%rcx)
  403aff:	4c 8b 52 df          	mov    0xffffffffffffffdf(%rdx),%r10
  403b03:	4c 89 51 df          	mov    %r10,0xffffffffffffffdf(%rcx)
  403b07:	4c 8b 4a e7          	mov    0xffffffffffffffe7(%rdx),%r9
  403b0b:	4c 89 49 e7          	mov    %r9,0xffffffffffffffe7(%rcx)
  403b0f:	4c 8b 5a ef          	mov    0xffffffffffffffef(%rdx),%r11
  403b13:	4c 89 59 ef          	mov    %r11,0xffffffffffffffef(%rcx)
  403b17:	4c 8b 52 f7          	mov    0xfffffffffffffff7(%rdx),%r10
  403b1b:	4c 89 51 f7          	mov    %r10,0xfffffffffffffff7(%rcx)
  403b1f:	44 8a 4a ff          	mov    0xffffffffffffffff(%rdx),%r9b
  403b23:	44 88 49 ff          	mov    %r9b,0xffffffffffffffff(%rcx)
  403b27:	c3                   	retq   
  403b28:	4c 8b 8a 4e ff ff ff 	mov    0xffffffffffffff4e(%rdx),%r9
  403b2f:	4c 89 89 4e ff ff ff 	mov    %r9,0xffffffffffffff4e(%rcx)
  403b36:	4c 8b 8a 56 ff ff ff 	mov    0xffffffffffffff56(%rdx),%r9
  403b3d:	4c 89 89 56 ff ff ff 	mov    %r9,0xffffffffffffff56(%rcx)
  403b44:	4c 8b 8a 5e ff ff ff 	mov    0xffffffffffffff5e(%rdx),%r9
  403b4b:	4c 89 89 5e ff ff ff 	mov    %r9,0xffffffffffffff5e(%rcx)
  403b52:	4c 8b 8a 66 ff ff ff 	mov    0xffffffffffffff66(%rdx),%r9
  403b59:	4c 89 89 66 ff ff ff 	mov    %r9,0xffffffffffffff66(%rcx)
  403b60:	4c 8b 8a 6e ff ff ff 	mov    0xffffffffffffff6e(%rdx),%r9
  403b67:	4c 89 89 6e ff ff ff 	mov    %r9,0xffffffffffffff6e(%rcx)
  403b6e:	4c 8b 8a 76 ff ff ff 	mov    0xffffffffffffff76(%rdx),%r9
  403b75:	4c 89 89 76 ff ff ff 	mov    %r9,0xffffffffffffff76(%rcx)
  403b7c:	4c 8b 8a 7e ff ff ff 	mov    0xffffffffffffff7e(%rdx),%r9
  403b83:	4c 89 89 7e ff ff ff 	mov    %r9,0xffffffffffffff7e(%rcx)
  403b8a:	4c 8b 4a 86          	mov    0xffffffffffffff86(%rdx),%r9
  403b8e:	4c 89 49 86          	mov    %r9,0xffffffffffffff86(%rcx)
  403b92:	4c 8b 4a 8e          	mov    0xffffffffffffff8e(%rdx),%r9
  403b96:	4c 89 49 8e          	mov    %r9,0xffffffffffffff8e(%rcx)
  403b9a:	4c 8b 4a 96          	mov    0xffffffffffffff96(%rdx),%r9
  403b9e:	4c 89 49 96          	mov    %r9,0xffffffffffffff96(%rcx)
  403ba2:	4c 8b 4a 9e          	mov    0xffffffffffffff9e(%rdx),%r9
  403ba6:	4c 89 49 9e          	mov    %r9,0xffffffffffffff9e(%rcx)
  403baa:	4c 8b 4a a6          	mov    0xffffffffffffffa6(%rdx),%r9
  403bae:	4c 89 49 a6          	mov    %r9,0xffffffffffffffa6(%rcx)
  403bb2:	4c 8b 4a ae          	mov    0xffffffffffffffae(%rdx),%r9
  403bb6:	4c 89 49 ae          	mov    %r9,0xffffffffffffffae(%rcx)
  403bba:	4c 8b 4a b6          	mov    0xffffffffffffffb6(%rdx),%r9
  403bbe:	4c 89 49 b6          	mov    %r9,0xffffffffffffffb6(%rcx)
  403bc2:	4c 8b 4a be          	mov    0xffffffffffffffbe(%rdx),%r9
  403bc6:	4c 89 49 be          	mov    %r9,0xffffffffffffffbe(%rcx)
  403bca:	4c 8b 4a c6          	mov    0xffffffffffffffc6(%rdx),%r9
  403bce:	4c 89 49 c6          	mov    %r9,0xffffffffffffffc6(%rcx)
  403bd2:	4c 8b 4a ce          	mov    0xffffffffffffffce(%rdx),%r9
  403bd6:	4c 89 49 ce          	mov    %r9,0xffffffffffffffce(%rcx)
  403bda:	4c 8b 4a d6          	mov    0xffffffffffffffd6(%rdx),%r9
  403bde:	4c 89 49 d6          	mov    %r9,0xffffffffffffffd6(%rcx)
  403be2:	4c 8b 4a de          	mov    0xffffffffffffffde(%rdx),%r9
  403be6:	4c 89 49 de          	mov    %r9,0xffffffffffffffde(%rcx)
  403bea:	4c 8b 4a e6          	mov    0xffffffffffffffe6(%rdx),%r9
  403bee:	4c 89 49 e6          	mov    %r9,0xffffffffffffffe6(%rcx)
  403bf2:	4c 8b 4a ee          	mov    0xffffffffffffffee(%rdx),%r9
  403bf6:	4c 89 49 ee          	mov    %r9,0xffffffffffffffee(%rcx)
  403bfa:	4c 8b 4a f6          	mov    0xfffffffffffffff6(%rdx),%r9
  403bfe:	4c 89 49 f6          	mov    %r9,0xfffffffffffffff6(%rcx)
  403c02:	66 44 8b 4a fe       	mov    0xfffffffffffffffe(%rdx),%r9w
  403c07:	66 44 89 49 fe       	mov    %r9w,0xfffffffffffffffe(%rcx)
  403c0c:	c3                   	retq   
  403c0d:	4c 8b 8a 4d ff ff ff 	mov    0xffffffffffffff4d(%rdx),%r9
  403c14:	4c 89 89 4d ff ff ff 	mov    %r9,0xffffffffffffff4d(%rcx)
  403c1b:	4c 8b 8a 55 ff ff ff 	mov    0xffffffffffffff55(%rdx),%r9
  403c22:	4c 89 89 55 ff ff ff 	mov    %r9,0xffffffffffffff55(%rcx)
  403c29:	4c 8b 8a 5d ff ff ff 	mov    0xffffffffffffff5d(%rdx),%r9
  403c30:	4c 89 89 5d ff ff ff 	mov    %r9,0xffffffffffffff5d(%rcx)
  403c37:	4c 8b 8a 65 ff ff ff 	mov    0xffffffffffffff65(%rdx),%r9
  403c3e:	4c 89 89 65 ff ff ff 	mov    %r9,0xffffffffffffff65(%rcx)
  403c45:	4c 8b 8a 6d ff ff ff 	mov    0xffffffffffffff6d(%rdx),%r9
  403c4c:	4c 89 89 6d ff ff ff 	mov    %r9,0xffffffffffffff6d(%rcx)
  403c53:	4c 8b 8a 75 ff ff ff 	mov    0xffffffffffffff75(%rdx),%r9
  403c5a:	4c 89 89 75 ff ff ff 	mov    %r9,0xffffffffffffff75(%rcx)
  403c61:	4c 8b 8a 7d ff ff ff 	mov    0xffffffffffffff7d(%rdx),%r9
  403c68:	4c 89 89 7d ff ff ff 	mov    %r9,0xffffffffffffff7d(%rcx)
  403c6f:	4c 8b 4a 85          	mov    0xffffffffffffff85(%rdx),%r9
  403c73:	4c 89 49 85          	mov    %r9,0xffffffffffffff85(%rcx)
  403c77:	4c 8b 4a 8d          	mov    0xffffffffffffff8d(%rdx),%r9
  403c7b:	4c 89 49 8d          	mov    %r9,0xffffffffffffff8d(%rcx)
  403c7f:	4c 8b 4a 95          	mov    0xffffffffffffff95(%rdx),%r9
  403c83:	4c 89 49 95          	mov    %r9,0xffffffffffffff95(%rcx)
  403c87:	4c 8b 4a 9d          	mov    0xffffffffffffff9d(%rdx),%r9
  403c8b:	4c 89 49 9d          	mov    %r9,0xffffffffffffff9d(%rcx)
  403c8f:	4c 8b 4a a5          	mov    0xffffffffffffffa5(%rdx),%r9
  403c93:	4c 89 49 a5          	mov    %r9,0xffffffffffffffa5(%rcx)
  403c97:	4c 8b 4a ad          	mov    0xffffffffffffffad(%rdx),%r9
  403c9b:	4c 89 49 ad          	mov    %r9,0xffffffffffffffad(%rcx)
  403c9f:	4c 8b 4a b5          	mov    0xffffffffffffffb5(%rdx),%r9
  403ca3:	4c 89 49 b5          	mov    %r9,0xffffffffffffffb5(%rcx)
  403ca7:	4c 8b 4a bd          	mov    0xffffffffffffffbd(%rdx),%r9
  403cab:	4c 89 49 bd          	mov    %r9,0xffffffffffffffbd(%rcx)
  403caf:	4c 8b 4a c5          	mov    0xffffffffffffffc5(%rdx),%r9
  403cb3:	4c 89 49 c5          	mov    %r9,0xffffffffffffffc5(%rcx)
  403cb7:	4c 8b 4a cd          	mov    0xffffffffffffffcd(%rdx),%r9
  403cbb:	4c 89 49 cd          	mov    %r9,0xffffffffffffffcd(%rcx)
  403cbf:	4c 8b 4a d5          	mov    0xffffffffffffffd5(%rdx),%r9
  403cc3:	4c 89 49 d5          	mov    %r9,0xffffffffffffffd5(%rcx)
  403cc7:	4c 8b 4a dd          	mov    0xffffffffffffffdd(%rdx),%r9
  403ccb:	4c 89 49 dd          	mov    %r9,0xffffffffffffffdd(%rcx)
  403ccf:	4c 8b 4a e5          	mov    0xffffffffffffffe5(%rdx),%r9
  403cd3:	4c 89 49 e5          	mov    %r9,0xffffffffffffffe5(%rcx)
  403cd7:	4c 8b 4a ed          	mov    0xffffffffffffffed(%rdx),%r9
  403cdb:	4c 89 49 ed          	mov    %r9,0xffffffffffffffed(%rcx)
  403cdf:	4c 8b 4a f5          	mov    0xfffffffffffffff5(%rdx),%r9
  403ce3:	4c 89 49 f5          	mov    %r9,0xfffffffffffffff5(%rcx)
  403ce7:	66 44 8b 4a fd       	mov    0xfffffffffffffffd(%rdx),%r9w
  403cec:	44 8a 52 ff          	mov    0xffffffffffffffff(%rdx),%r10b
  403cf0:	66 44 89 49 fd       	mov    %r9w,0xfffffffffffffffd(%rcx)
  403cf5:	44 88 51 ff          	mov    %r10b,0xffffffffffffffff(%rcx)
  403cf9:	c3                   	retq   
  403cfa:	4c 8b 8a 4c ff ff ff 	mov    0xffffffffffffff4c(%rdx),%r9
  403d01:	4c 89 89 4c ff ff ff 	mov    %r9,0xffffffffffffff4c(%rcx)
  403d08:	4c 8b 8a 54 ff ff ff 	mov    0xffffffffffffff54(%rdx),%r9
  403d0f:	4c 89 89 54 ff ff ff 	mov    %r9,0xffffffffffffff54(%rcx)
  403d16:	4c 8b 8a 5c ff ff ff 	mov    0xffffffffffffff5c(%rdx),%r9
  403d1d:	4c 89 89 5c ff ff ff 	mov    %r9,0xffffffffffffff5c(%rcx)
  403d24:	4c 8b 8a 64 ff ff ff 	mov    0xffffffffffffff64(%rdx),%r9
  403d2b:	4c 89 89 64 ff ff ff 	mov    %r9,0xffffffffffffff64(%rcx)
  403d32:	4c 8b 8a 6c ff ff ff 	mov    0xffffffffffffff6c(%rdx),%r9
  403d39:	4c 89 89 6c ff ff ff 	mov    %r9,0xffffffffffffff6c(%rcx)
  403d40:	4c 8b 8a 74 ff ff ff 	mov    0xffffffffffffff74(%rdx),%r9
  403d47:	4c 89 89 74 ff ff ff 	mov    %r9,0xffffffffffffff74(%rcx)
  403d4e:	4c 8b 8a 7c ff ff ff 	mov    0xffffffffffffff7c(%rdx),%r9
  403d55:	4c 89 89 7c ff ff ff 	mov    %r9,0xffffffffffffff7c(%rcx)
  403d5c:	4c 8b 4a 84          	mov    0xffffffffffffff84(%rdx),%r9
  403d60:	4c 89 49 84          	mov    %r9,0xffffffffffffff84(%rcx)
  403d64:	4c 8b 4a 8c          	mov    0xffffffffffffff8c(%rdx),%r9
  403d68:	4c 89 49 8c          	mov    %r9,0xffffffffffffff8c(%rcx)
  403d6c:	4c 8b 4a 94          	mov    0xffffffffffffff94(%rdx),%r9
  403d70:	4c 89 49 94          	mov    %r9,0xffffffffffffff94(%rcx)
  403d74:	4c 8b 4a 9c          	mov    0xffffffffffffff9c(%rdx),%r9
  403d78:	4c 89 49 9c          	mov    %r9,0xffffffffffffff9c(%rcx)
  403d7c:	4c 8b 4a a4          	mov    0xffffffffffffffa4(%rdx),%r9
  403d80:	4c 89 49 a4          	mov    %r9,0xffffffffffffffa4(%rcx)
  403d84:	4c 8b 4a ac          	mov    0xffffffffffffffac(%rdx),%r9
  403d88:	4c 89 49 ac          	mov    %r9,0xffffffffffffffac(%rcx)
  403d8c:	4c 8b 4a b4          	mov    0xffffffffffffffb4(%rdx),%r9
  403d90:	4c 89 49 b4          	mov    %r9,0xffffffffffffffb4(%rcx)
  403d94:	4c 8b 4a bc          	mov    0xffffffffffffffbc(%rdx),%r9
  403d98:	4c 89 49 bc          	mov    %r9,0xffffffffffffffbc(%rcx)
  403d9c:	4c 8b 4a c4          	mov    0xffffffffffffffc4(%rdx),%r9
  403da0:	4c 89 49 c4          	mov    %r9,0xffffffffffffffc4(%rcx)
  403da4:	4c 8b 4a cc          	mov    0xffffffffffffffcc(%rdx),%r9
  403da8:	4c 89 49 cc          	mov    %r9,0xffffffffffffffcc(%rcx)
  403dac:	4c 8b 4a d4          	mov    0xffffffffffffffd4(%rdx),%r9
  403db0:	4c 89 49 d4          	mov    %r9,0xffffffffffffffd4(%rcx)
  403db4:	4c 8b 4a dc          	mov    0xffffffffffffffdc(%rdx),%r9
  403db8:	4c 89 49 dc          	mov    %r9,0xffffffffffffffdc(%rcx)
  403dbc:	4c 8b 4a e4          	mov    0xffffffffffffffe4(%rdx),%r9
  403dc0:	4c 89 49 e4          	mov    %r9,0xffffffffffffffe4(%rcx)
  403dc4:	4c 8b 4a ec          	mov    0xffffffffffffffec(%rdx),%r9
  403dc8:	4c 89 49 ec          	mov    %r9,0xffffffffffffffec(%rcx)
  403dcc:	4c 8b 4a f4          	mov    0xfffffffffffffff4(%rdx),%r9
  403dd0:	4c 89 49 f4          	mov    %r9,0xfffffffffffffff4(%rcx)
  403dd4:	44 8b 4a fc          	mov    0xfffffffffffffffc(%rdx),%r9d
  403dd8:	44 89 49 fc          	mov    %r9d,0xfffffffffffffffc(%rcx)
  403ddc:	c3                   	retq   
  403ddd:	4c 8b 8a 4b ff ff ff 	mov    0xffffffffffffff4b(%rdx),%r9
  403de4:	4c 89 89 4b ff ff ff 	mov    %r9,0xffffffffffffff4b(%rcx)
  403deb:	4c 8b 8a 53 ff ff ff 	mov    0xffffffffffffff53(%rdx),%r9
  403df2:	4c 89 89 53 ff ff ff 	mov    %r9,0xffffffffffffff53(%rcx)
  403df9:	4c 8b 8a 5b ff ff ff 	mov    0xffffffffffffff5b(%rdx),%r9
  403e00:	4c 89 89 5b ff ff ff 	mov    %r9,0xffffffffffffff5b(%rcx)
  403e07:	4c 8b 8a 63 ff ff ff 	mov    0xffffffffffffff63(%rdx),%r9
  403e0e:	4c 89 89 63 ff ff ff 	mov    %r9,0xffffffffffffff63(%rcx)
  403e15:	4c 8b 8a 6b ff ff ff 	mov    0xffffffffffffff6b(%rdx),%r9
  403e1c:	4c 89 89 6b ff ff ff 	mov    %r9,0xffffffffffffff6b(%rcx)
  403e23:	4c 8b 8a 73 ff ff ff 	mov    0xffffffffffffff73(%rdx),%r9
  403e2a:	4c 89 89 73 ff ff ff 	mov    %r9,0xffffffffffffff73(%rcx)
  403e31:	4c 8b 8a 7b ff ff ff 	mov    0xffffffffffffff7b(%rdx),%r9
  403e38:	4c 89 89 7b ff ff ff 	mov    %r9,0xffffffffffffff7b(%rcx)
  403e3f:	4c 8b 4a 83          	mov    0xffffffffffffff83(%rdx),%r9
  403e43:	4c 89 49 83          	mov    %r9,0xffffffffffffff83(%rcx)
  403e47:	4c 8b 4a 8b          	mov    0xffffffffffffff8b(%rdx),%r9
  403e4b:	4c 89 49 8b          	mov    %r9,0xffffffffffffff8b(%rcx)
  403e4f:	4c 8b 4a 93          	mov    0xffffffffffffff93(%rdx),%r9
  403e53:	4c 89 49 93          	mov    %r9,0xffffffffffffff93(%rcx)
  403e57:	4c 8b 4a 9b          	mov    0xffffffffffffff9b(%rdx),%r9
  403e5b:	4c 89 49 9b          	mov    %r9,0xffffffffffffff9b(%rcx)
  403e5f:	4c 8b 4a a3          	mov    0xffffffffffffffa3(%rdx),%r9
  403e63:	4c 89 49 a3          	mov    %r9,0xffffffffffffffa3(%rcx)
  403e67:	4c 8b 4a ab          	mov    0xffffffffffffffab(%rdx),%r9
  403e6b:	4c 89 49 ab          	mov    %r9,0xffffffffffffffab(%rcx)
  403e6f:	4c 8b 4a b3          	mov    0xffffffffffffffb3(%rdx),%r9
  403e73:	4c 89 49 b3          	mov    %r9,0xffffffffffffffb3(%rcx)
  403e77:	4c 8b 4a bb          	mov    0xffffffffffffffbb(%rdx),%r9
  403e7b:	4c 89 49 bb          	mov    %r9,0xffffffffffffffbb(%rcx)
  403e7f:	4c 8b 4a c3          	mov    0xffffffffffffffc3(%rdx),%r9
  403e83:	4c 89 49 c3          	mov    %r9,0xffffffffffffffc3(%rcx)
  403e87:	4c 8b 4a cb          	mov    0xffffffffffffffcb(%rdx),%r9
  403e8b:	4c 89 49 cb          	mov    %r9,0xffffffffffffffcb(%rcx)
  403e8f:	4c 8b 4a d3          	mov    0xffffffffffffffd3(%rdx),%r9
  403e93:	4c 89 49 d3          	mov    %r9,0xffffffffffffffd3(%rcx)
  403e97:	4c 8b 4a db          	mov    0xffffffffffffffdb(%rdx),%r9
  403e9b:	4c 89 49 db          	mov    %r9,0xffffffffffffffdb(%rcx)
  403e9f:	4c 8b 4a e3          	mov    0xffffffffffffffe3(%rdx),%r9
  403ea3:	4c 89 49 e3          	mov    %r9,0xffffffffffffffe3(%rcx)
  403ea7:	4c 8b 4a eb          	mov    0xffffffffffffffeb(%rdx),%r9
  403eab:	4c 89 49 eb          	mov    %r9,0xffffffffffffffeb(%rcx)
  403eaf:	4c 8b 4a f3          	mov    0xfffffffffffffff3(%rdx),%r9
  403eb3:	4c 89 49 f3          	mov    %r9,0xfffffffffffffff3(%rcx)
  403eb7:	44 8b 4a fb          	mov    0xfffffffffffffffb(%rdx),%r9d
  403ebb:	44 8a 52 ff          	mov    0xffffffffffffffff(%rdx),%r10b
  403ebf:	44 89 49 fb          	mov    %r9d,0xfffffffffffffffb(%rcx)
  403ec3:	44 88 51 ff          	mov    %r10b,0xffffffffffffffff(%rcx)
  403ec7:	c3                   	retq   
  403ec8:	4c 8b 8a 4a ff ff ff 	mov    0xffffffffffffff4a(%rdx),%r9
  403ecf:	4c 89 89 4a ff ff ff 	mov    %r9,0xffffffffffffff4a(%rcx)
  403ed6:	4c 8b 8a 52 ff ff ff 	mov    0xffffffffffffff52(%rdx),%r9
  403edd:	4c 89 89 52 ff ff ff 	mov    %r9,0xffffffffffffff52(%rcx)
  403ee4:	4c 8b 8a 5a ff ff ff 	mov    0xffffffffffffff5a(%rdx),%r9
  403eeb:	4c 89 89 5a ff ff ff 	mov    %r9,0xffffffffffffff5a(%rcx)
  403ef2:	4c 8b 8a 62 ff ff ff 	mov    0xffffffffffffff62(%rdx),%r9
  403ef9:	4c 89 89 62 ff ff ff 	mov    %r9,0xffffffffffffff62(%rcx)
  403f00:	4c 8b 8a 6a ff ff ff 	mov    0xffffffffffffff6a(%rdx),%r9
  403f07:	4c 89 89 6a ff ff ff 	mov    %r9,0xffffffffffffff6a(%rcx)
  403f0e:	4c 8b 8a 72 ff ff ff 	mov    0xffffffffffffff72(%rdx),%r9
  403f15:	4c 89 89 72 ff ff ff 	mov    %r9,0xffffffffffffff72(%rcx)
  403f1c:	4c 8b 8a 7a ff ff ff 	mov    0xffffffffffffff7a(%rdx),%r9
  403f23:	4c 89 89 7a ff ff ff 	mov    %r9,0xffffffffffffff7a(%rcx)
  403f2a:	4c 8b 4a 82          	mov    0xffffffffffffff82(%rdx),%r9
  403f2e:	4c 89 49 82          	mov    %r9,0xffffffffffffff82(%rcx)
  403f32:	4c 8b 4a 8a          	mov    0xffffffffffffff8a(%rdx),%r9
  403f36:	4c 89 49 8a          	mov    %r9,0xffffffffffffff8a(%rcx)
  403f3a:	4c 8b 4a 92          	mov    0xffffffffffffff92(%rdx),%r9
  403f3e:	4c 89 49 92          	mov    %r9,0xffffffffffffff92(%rcx)
  403f42:	4c 8b 4a 9a          	mov    0xffffffffffffff9a(%rdx),%r9
  403f46:	4c 89 49 9a          	mov    %r9,0xffffffffffffff9a(%rcx)
  403f4a:	4c 8b 4a a2          	mov    0xffffffffffffffa2(%rdx),%r9
  403f4e:	4c 89 49 a2          	mov    %r9,0xffffffffffffffa2(%rcx)
  403f52:	4c 8b 4a aa          	mov    0xffffffffffffffaa(%rdx),%r9
  403f56:	4c 89 49 aa          	mov    %r9,0xffffffffffffffaa(%rcx)
  403f5a:	4c 8b 4a b2          	mov    0xffffffffffffffb2(%rdx),%r9
  403f5e:	4c 89 49 b2          	mov    %r9,0xffffffffffffffb2(%rcx)
  403f62:	4c 8b 4a ba          	mov    0xffffffffffffffba(%rdx),%r9
  403f66:	4c 89 49 ba          	mov    %r9,0xffffffffffffffba(%rcx)
  403f6a:	4c 8b 4a c2          	mov    0xffffffffffffffc2(%rdx),%r9
  403f6e:	4c 89 49 c2          	mov    %r9,0xffffffffffffffc2(%rcx)
  403f72:	4c 8b 4a ca          	mov    0xffffffffffffffca(%rdx),%r9
  403f76:	4c 89 49 ca          	mov    %r9,0xffffffffffffffca(%rcx)
  403f7a:	4c 8b 4a d2          	mov    0xffffffffffffffd2(%rdx),%r9
  403f7e:	4c 89 49 d2          	mov    %r9,0xffffffffffffffd2(%rcx)
  403f82:	4c 8b 4a da          	mov    0xffffffffffffffda(%rdx),%r9
  403f86:	4c 89 49 da          	mov    %r9,0xffffffffffffffda(%rcx)
  403f8a:	4c 8b 4a e2          	mov    0xffffffffffffffe2(%rdx),%r9
  403f8e:	4c 89 49 e2          	mov    %r9,0xffffffffffffffe2(%rcx)
  403f92:	4c 8b 4a ea          	mov    0xffffffffffffffea(%rdx),%r9
  403f96:	4c 89 49 ea          	mov    %r9,0xffffffffffffffea(%rcx)
  403f9a:	4c 8b 4a f2          	mov    0xfffffffffffffff2(%rdx),%r9
  403f9e:	4c 89 49 f2          	mov    %r9,0xfffffffffffffff2(%rcx)
  403fa2:	44 8b 4a fa          	mov    0xfffffffffffffffa(%rdx),%r9d
  403fa6:	66 44 8b 52 fe       	mov    0xfffffffffffffffe(%rdx),%r10w
  403fab:	44 89 49 fa          	mov    %r9d,0xfffffffffffffffa(%rcx)
  403faf:	66 44 89 51 fe       	mov    %r10w,0xfffffffffffffffe(%rcx)
  403fb4:	c3                   	retq   
  403fb5:	4c 8b 8a 49 ff ff ff 	mov    0xffffffffffffff49(%rdx),%r9
  403fbc:	4c 89 89 49 ff ff ff 	mov    %r9,0xffffffffffffff49(%rcx)
  403fc3:	4c 8b 8a 51 ff ff ff 	mov    0xffffffffffffff51(%rdx),%r9
  403fca:	4c 89 89 51 ff ff ff 	mov    %r9,0xffffffffffffff51(%rcx)
  403fd1:	4c 8b 8a 59 ff ff ff 	mov    0xffffffffffffff59(%rdx),%r9
  403fd8:	4c 89 89 59 ff ff ff 	mov    %r9,0xffffffffffffff59(%rcx)
  403fdf:	4c 8b 8a 61 ff ff ff 	mov    0xffffffffffffff61(%rdx),%r9
  403fe6:	4c 89 89 61 ff ff ff 	mov    %r9,0xffffffffffffff61(%rcx)
  403fed:	4c 8b 8a 69 ff ff ff 	mov    0xffffffffffffff69(%rdx),%r9
  403ff4:	4c 89 89 69 ff ff ff 	mov    %r9,0xffffffffffffff69(%rcx)
  403ffb:	4c 8b 8a 71 ff ff ff 	mov    0xffffffffffffff71(%rdx),%r9
  404002:	4c 89 89 71 ff ff ff 	mov    %r9,0xffffffffffffff71(%rcx)
  404009:	4c 8b 8a 79 ff ff ff 	mov    0xffffffffffffff79(%rdx),%r9
  404010:	4c 89 89 79 ff ff ff 	mov    %r9,0xffffffffffffff79(%rcx)
  404017:	4c 8b 4a 81          	mov    0xffffffffffffff81(%rdx),%r9
  40401b:	4c 89 49 81          	mov    %r9,0xffffffffffffff81(%rcx)
  40401f:	4c 8b 4a 89          	mov    0xffffffffffffff89(%rdx),%r9
  404023:	4c 89 49 89          	mov    %r9,0xffffffffffffff89(%rcx)
  404027:	4c 8b 4a 91          	mov    0xffffffffffffff91(%rdx),%r9
  40402b:	4c 89 49 91          	mov    %r9,0xffffffffffffff91(%rcx)
  40402f:	4c 8b 4a 99          	mov    0xffffffffffffff99(%rdx),%r9
  404033:	4c 89 49 99          	mov    %r9,0xffffffffffffff99(%rcx)
  404037:	4c 8b 4a a1          	mov    0xffffffffffffffa1(%rdx),%r9
  40403b:	4c 89 49 a1          	mov    %r9,0xffffffffffffffa1(%rcx)
  40403f:	4c 8b 4a a9          	mov    0xffffffffffffffa9(%rdx),%r9
  404043:	4c 89 49 a9          	mov    %r9,0xffffffffffffffa9(%rcx)
  404047:	4c 8b 4a b1          	mov    0xffffffffffffffb1(%rdx),%r9
  40404b:	4c 89 49 b1          	mov    %r9,0xffffffffffffffb1(%rcx)
  40404f:	4c 8b 4a b9          	mov    0xffffffffffffffb9(%rdx),%r9
  404053:	4c 89 49 b9          	mov    %r9,0xffffffffffffffb9(%rcx)
  404057:	4c 8b 4a c1          	mov    0xffffffffffffffc1(%rdx),%r9
  40405b:	4c 89 49 c1          	mov    %r9,0xffffffffffffffc1(%rcx)
  40405f:	4c 8b 4a c9          	mov    0xffffffffffffffc9(%rdx),%r9
  404063:	4c 89 49 c9          	mov    %r9,0xffffffffffffffc9(%rcx)
  404067:	4c 8b 4a d1          	mov    0xffffffffffffffd1(%rdx),%r9
  40406b:	4c 89 49 d1          	mov    %r9,0xffffffffffffffd1(%rcx)
  40406f:	4c 8b 4a d9          	mov    0xffffffffffffffd9(%rdx),%r9
  404073:	4c 89 49 d9          	mov    %r9,0xffffffffffffffd9(%rcx)
  404077:	4c 8b 4a e1          	mov    0xffffffffffffffe1(%rdx),%r9
  40407b:	4c 89 49 e1          	mov    %r9,0xffffffffffffffe1(%rcx)
  40407f:	4c 8b 4a e9          	mov    0xffffffffffffffe9(%rdx),%r9
  404083:	4c 89 49 e9          	mov    %r9,0xffffffffffffffe9(%rcx)
  404087:	4c 8b 4a f1          	mov    0xfffffffffffffff1(%rdx),%r9
  40408b:	4c 89 49 f1          	mov    %r9,0xfffffffffffffff1(%rcx)
  40408f:	44 8b 4a f9          	mov    0xfffffffffffffff9(%rdx),%r9d
  404093:	66 44 8b 52 fd       	mov    0xfffffffffffffffd(%rdx),%r10w
  404098:	44 8a 5a ff          	mov    0xffffffffffffffff(%rdx),%r11b
  40409c:	44 89 49 f9          	mov    %r9d,0xfffffffffffffff9(%rcx)
  4040a0:	66 44 89 51 fd       	mov    %r10w,0xfffffffffffffffd(%rcx)
  4040a5:	44 88 59 ff          	mov    %r11b,0xffffffffffffffff(%rcx)
  4040a9:	c3                   	retq   
  4040aa:	66 66 90             	xchg   %ax,%ax
  4040ad:	66 66 90             	xchg   %ax,%ax
  4040b0:	83 3d 1d 6f 10 00 02 	cmpl   $0x2,1077021(%rip)        # 50afd4 <__intel_memcpy_mem_ops_method>
  4040b7:	0f 85 f3 06 00 00    	jne    4047b0 <__intel_new_memcpy+0x1600>
  4040bd:	48 f7 c1 0f 00 00 00 	test   $0xf,%rcx
  4040c4:	0f 85 a6 08 00 00    	jne    404970 <__intel_new_memcpy+0x17c0>
  4040ca:	4d 31 c9             	xor    %r9,%r9
  4040cd:	44 8b 0d 70 76 10 00 	mov    1078896(%rip),%r9d        # 50b744 <__intel_memcpy_largest_cache_size>
  4040d4:	49 d1 e9             	shr    %r9
  4040d7:	49 83 f9 00          	cmp    $0x0,%r9
  4040db:	4d 0f 4e c8          	cmovle %r8,%r9
  4040df:	4d 39 c8             	cmp    %r9,%r8
  4040e2:	0f 8f c8 05 00 00    	jg     4046b0 <__intel_new_memcpy+0x1500>
  4040e8:	48 f7 c2 0f 00 00 00 	test   $0xf,%rdx
  4040ef:	0f 84 2b 06 00 00    	je     404720 <__intel_new_memcpy+0x1570>
  4040f5:	4c 8d 15 34 00 00 00 	lea    52(%rip),%r10        # 404130 <__intel_new_memcpy+0xf80>
  4040fc:	49 89 d3             	mov    %rdx,%r11
  4040ff:	49 83 e3 0f          	and    $0xf,%r11
  404103:	f3 0f 6f 02          	movdqu (%rdx),%xmm0
  404107:	66 0f 7f 01          	movdqa %xmm0,(%rcx)
  40410b:	48 83 c2 10          	add    $0x10,%rdx
  40410f:	4c 29 da             	sub    %r11,%rdx
  404112:	48 83 c1 10          	add    $0x10,%rcx
  404116:	49 83 e8 10          	sub    $0x10,%r8
  40411a:	66 0f 6f 0a          	movdqa (%rdx),%xmm1
  40411e:	4f 8b 0c da          	mov    (%r10,%r11,8),%r9
  404122:	4f 8d 14 11          	lea    (%r9,%r10,1),%r10
  404126:	41 ff e2             	jmpq   *%r10
  404129:	66 66 66 90          	xchg   %ax,%ax
  40412d:	66 66 90             	xchg   %ax,%ax
  404130:	f0 05 00 00 00 00    	lock add $0x0,%eax
  404136:	00 00                	add    %al,(%rax)
  404138:	b0 00                	mov    $0x0,%al
  40413a:	00 00                	add    %al,(%rax)
  40413c:	00 00                	add    %al,(%rax)
  40413e:	00 00                	add    %al,(%rax)
  404140:	00 01                	add    %al,(%rcx)
  404142:	00 00                	add    %al,(%rax)
  404144:	00 00                	add    %al,(%rax)
  404146:	00 00                	add    %al,(%rax)
  404148:	50                   	push   %rax
  404149:	01 00                	add    %eax,(%rax)
  40414b:	00 00                	add    %al,(%rax)
  40414d:	00 00                	add    %al,(%rax)
  40414f:	00 a0 01 00 00 00    	add    %ah,0x1(%rax)
  404155:	00 00                	add    %al,(%rax)
  404157:	00 f0                	add    %dh,%al
  404159:	01 00                	add    %eax,(%rax)
  40415b:	00 00                	add    %al,(%rax)
  40415d:	00 00                	add    %al,(%rax)
  40415f:	00 40 02             	add    %al,0x2(%rax)
  404162:	00 00                	add    %al,(%rax)
  404164:	00 00                	add    %al,(%rax)
  404166:	00 00                	add    %al,(%rax)
  404168:	90                   	nop    
  404169:	02 00                	add    (%rax),%al
  40416b:	00 00                	add    %al,(%rax)
  40416d:	00 00                	add    %al,(%rax)
  40416f:	00 e0                	add    %ah,%al
  404171:	02 00                	add    (%rax),%al
  404173:	00 00                	add    %al,(%rax)
  404175:	00 00                	add    %al,(%rax)
  404177:	00 30                	add    %dh,(%rax)
  404179:	03 00                	add    (%rax),%eax
  40417b:	00 00                	add    %al,(%rax)
  40417d:	00 00                	add    %al,(%rax)
  40417f:	00 80 03 00 00 00    	add    %al,0x3(%rax)
  404185:	00 00                	add    %al,(%rax)
  404187:	00 d0                	add    %dl,%al
  404189:	03 00                	add    (%rax),%eax
  40418b:	00 00                	add    %al,(%rax)
  40418d:	00 00                	add    %al,(%rax)
  40418f:	00 20                	add    %ah,(%rax)
  404191:	04 00                	add    $0x0,%al
  404193:	00 00                	add    %al,(%rax)
  404195:	00 00                	add    %al,(%rax)
  404197:	00 70 04             	add    %dh,0x4(%rax)
  40419a:	00 00                	add    %al,(%rax)
  40419c:	00 00                	add    %al,(%rax)
  40419e:	00 00                	add    %al,(%rax)
  4041a0:	c0 04 00 00          	rolb   $0x0,(%rax,%rax,1)
  4041a4:	00 00                	add    %al,(%rax)
  4041a6:	00 00                	add    %al,(%rax)
  4041a8:	10 05 00 00 00 00    	adc    %al,0(%rip)        # 4041ae <__intel_new_memcpy+0xffe>
  4041ae:	00 00                	add    %al,(%rax)
  4041b0:	4c 8d 15 09 07 00 00 	lea    1801(%rip),%r10        # 4048c0 <__intel_new_memcpy+0x1710>
  4041b7:	4d 89 c1             	mov    %r8,%r9
  4041ba:	49 c1 e9 04          	shr    $0x4,%r9
  4041be:	49 c1 e1 04          	shl    $0x4,%r9
  4041c2:	4c 01 c9             	add    %r9,%rcx
  4041c5:	4c 01 ca             	add    %r9,%rdx
  4041c8:	4d 29 c8             	sub    %r9,%r8
  4041cb:	49 c1 e9 04          	shr    $0x4,%r9
  4041cf:	4f 8b 1c ca          	mov    (%r10,%r9,8),%r11
  4041d3:	4f 8d 14 13          	lea    (%r11,%r10,1),%r10
  4041d7:	41 ff e2             	jmpq   *%r10
  4041da:	66 66 90             	xchg   %ax,%ax
  4041dd:	66 66 90             	xchg   %ax,%ax
  4041e0:	66 0f 6f 5a 10       	movdqa 0x10(%rdx),%xmm3
  4041e5:	66 0f 6f 42 20       	movdqa 0x20(%rdx),%xmm0
  4041ea:	48 8d 52 20          	lea    0x20(%rdx),%rdx
  4041ee:	4d 8d 40 e0          	lea    0xffffffffffffffe0(%r8),%r8
  4041f2:	66 0f 73 d9 01       	psrldq $0x1,%xmm1
  4041f7:	66 0f 6f d3          	movdqa %xmm3,%xmm2
  4041fb:	66 0f 73 fb 0f       	pslldq $0xf,%xmm3
  404200:	66 0f eb d9          	por    %xmm1,%xmm3
  404204:	49 83 f8 20          	cmp    $0x20,%r8
  404208:	66 0f 73 da 01       	psrldq $0x1,%xmm2
  40420d:	66 0f 6f c8          	movdqa %xmm0,%xmm1
  404211:	66 0f 73 f8 0f       	pslldq $0xf,%xmm0
  404216:	66 0f eb c2          	por    %xmm2,%xmm0
  40421a:	66 0f 7f 19          	movdqa %xmm3,(%rcx)
  40421e:	66 0f 7f 41 10       	movdqa %xmm0,0x10(%rcx)
  404223:	48 8d 49 20          	lea    0x20(%rcx),%rcx
  404227:	7d b7                	jge    4041e0 <__intel_new_memcpy+0x1030>
  404229:	e9 5b 04 00 00       	jmpq   404689 <__intel_new_memcpy+0x14d9>
  40422e:	66 90                	xchg   %ax,%ax
  404230:	49 83 e8 20          	sub    $0x20,%r8
  404234:	66 0f 6f 5a 10       	movdqa 0x10(%rdx),%xmm3
  404239:	66 0f 6f 42 20       	movdqa 0x20(%rdx),%xmm0
  40423e:	48 83 c2 20          	add    $0x20,%rdx
  404242:	66 0f 73 d9 02       	psrldq $0x2,%xmm1
  404247:	66 0f 6f d3          	movdqa %xmm3,%xmm2
  40424b:	66 0f 73 fb 0e       	pslldq $0xe,%xmm3
  404250:	66 0f eb d9          	por    %xmm1,%xmm3
  404254:	66 0f 73 da 02       	psrldq $0x2,%xmm2
  404259:	66 0f 6f c8          	movdqa %xmm0,%xmm1
  40425d:	66 0f 73 f8 0e       	pslldq $0xe,%xmm0
  404262:	66 0f eb c2          	por    %xmm2,%xmm0
  404266:	66 0f 7f 19          	movdqa %xmm3,(%rcx)
  40426a:	66 0f 7f 41 10       	movdqa %xmm0,0x10(%rcx)
  40426f:	48 83 c1 20          	add    $0x20,%rcx
  404273:	49 83 f8 20          	cmp    $0x20,%r8
  404277:	7d b7                	jge    404230 <__intel_new_memcpy+0x1080>
  404279:	e9 0b 04 00 00       	jmpq   404689 <__intel_new_memcpy+0x14d9>
  40427e:	66 90                	xchg   %ax,%ax
  404280:	49 83 e8 20          	sub    $0x20,%r8
  404284:	66 0f 6f 5a 10       	movdqa 0x10(%rdx),%xmm3
  404289:	66 0f 6f 42 20       	movdqa 0x20(%rdx),%xmm0
  40428e:	48 83 c2 20          	add    $0x20,%rdx
  404292:	66 0f 73 d9 03       	psrldq $0x3,%xmm1
  404297:	66 0f 6f d3          	movdqa %xmm3,%xmm2
  40429b:	66 0f 73 fb 0d       	pslldq $0xd,%xmm3
  4042a0:	66 0f eb d9          	por    %xmm1,%xmm3
  4042a4:	66 0f 73 da 03       	psrldq $0x3,%xmm2
  4042a9:	66 0f 6f c8          	movdqa %xmm0,%xmm1
  4042ad:	66 0f 73 f8 0d       	pslldq $0xd,%xmm0
  4042b2:	66 0f eb c2          	por    %xmm2,%xmm0
  4042b6:	66 0f 7f 19          	movdqa %xmm3,(%rcx)
  4042ba:	66 0f 7f 41 10       	movdqa %xmm0,0x10(%rcx)
  4042bf:	48 83 c1 20          	add    $0x20,%rcx
  4042c3:	49 83 f8 20          	cmp    $0x20,%r8
  4042c7:	7d b7                	jge    404280 <__intel_new_memcpy+0x10d0>
  4042c9:	e9 bb 03 00 00       	jmpq   404689 <__intel_new_memcpy+0x14d9>
  4042ce:	66 90                	xchg   %ax,%ax
  4042d0:	49 83 e8 20          	sub    $0x20,%r8
  4042d4:	66 0f 6f 5a 10       	movdqa 0x10(%rdx),%xmm3
  4042d9:	66 0f 6f 42 20       	movdqa 0x20(%rdx),%xmm0
  4042de:	48 83 c2 20          	add    $0x20,%rdx
  4042e2:	66 0f 73 d9 04       	psrldq $0x4,%xmm1
  4042e7:	66 0f 6f d3          	movdqa %xmm3,%xmm2
  4042eb:	66 0f 73 fb 0c       	pslldq $0xc,%xmm3
  4042f0:	66 0f eb d9          	por    %xmm1,%xmm3
  4042f4:	66 0f 73 da 04       	psrldq $0x4,%xmm2
  4042f9:	66 0f 6f c8          	movdqa %xmm0,%xmm1
  4042fd:	66 0f 73 f8 0c       	pslldq $0xc,%xmm0
  404302:	66 0f eb c2          	por    %xmm2,%xmm0
  404306:	66 0f 7f 19          	movdqa %xmm3,(%rcx)
  40430a:	66 0f 7f 41 10       	movdqa %xmm0,0x10(%rcx)
  40430f:	48 83 c1 20          	add    $0x20,%rcx
  404313:	49 83 f8 20          	cmp    $0x20,%r8
  404317:	7d b7                	jge    4042d0 <__intel_new_memcpy+0x1120>
  404319:	e9 6b 03 00 00       	jmpq   404689 <__intel_new_memcpy+0x14d9>
  40431e:	66 90                	xchg   %ax,%ax
  404320:	49 83 e8 20          	sub    $0x20,%r8
  404324:	66 0f 6f 5a 10       	movdqa 0x10(%rdx),%xmm3
  404329:	66 0f 6f 42 20       	movdqa 0x20(%rdx),%xmm0
  40432e:	48 83 c2 20          	add    $0x20,%rdx
  404332:	66 0f 73 d9 05       	psrldq $0x5,%xmm1
  404337:	66 0f 6f d3          	movdqa %xmm3,%xmm2
  40433b:	66 0f 73 fb 0b       	pslldq $0xb,%xmm3
  404340:	66 0f eb d9          	por    %xmm1,%xmm3
  404344:	66 0f 73 da 05       	psrldq $0x5,%xmm2
  404349:	66 0f 6f c8          	movdqa %xmm0,%xmm1
  40434d:	66 0f 73 f8 0b       	pslldq $0xb,%xmm0
  404352:	66 0f eb c2          	por    %xmm2,%xmm0
  404356:	66 0f 7f 19          	movdqa %xmm3,(%rcx)
  40435a:	66 0f 7f 41 10       	movdqa %xmm0,0x10(%rcx)
  40435f:	48 83 c1 20          	add    $0x20,%rcx
  404363:	49 83 f8 20          	cmp    $0x20,%r8
  404367:	7d b7                	jge    404320 <__intel_new_memcpy+0x1170>
  404369:	e9 1b 03 00 00       	jmpq   404689 <__intel_new_memcpy+0x14d9>
  40436e:	66 90                	xchg   %ax,%ax
  404370:	49 83 e8 20          	sub    $0x20,%r8
  404374:	66 0f 6f 5a 10       	movdqa 0x10(%rdx),%xmm3
  404379:	66 0f 6f 42 20       	movdqa 0x20(%rdx),%xmm0
  40437e:	48 83 c2 20          	add    $0x20,%rdx
  404382:	66 0f 73 d9 06       	psrldq $0x6,%xmm1
  404387:	66 0f 6f d3          	movdqa %xmm3,%xmm2
  40438b:	66 0f 73 fb 0a       	pslldq $0xa,%xmm3
  404390:	66 0f eb d9          	por    %xmm1,%xmm3
  404394:	66 0f 73 da 06       	psrldq $0x6,%xmm2
  404399:	66 0f 6f c8          	movdqa %xmm0,%xmm1
  40439d:	66 0f 73 f8 0a       	pslldq $0xa,%xmm0
  4043a2:	66 0f eb c2          	por    %xmm2,%xmm0
  4043a6:	66 0f 7f 19          	movdqa %xmm3,(%rcx)
  4043aa:	66 0f 7f 41 10       	movdqa %xmm0,0x10(%rcx)
  4043af:	48 83 c1 20          	add    $0x20,%rcx
  4043b3:	49 83 f8 20          	cmp    $0x20,%r8
  4043b7:	7d b7                	jge    404370 <__intel_new_memcpy+0x11c0>
  4043b9:	e9 cb 02 00 00       	jmpq   404689 <__intel_new_memcpy+0x14d9>
  4043be:	66 90                	xchg   %ax,%ax
  4043c0:	49 83 e8 20          	sub    $0x20,%r8
  4043c4:	66 0f 6f 5a 10       	movdqa 0x10(%rdx),%xmm3
  4043c9:	66 0f 6f 42 20       	movdqa 0x20(%rdx),%xmm0
  4043ce:	48 83 c2 20          	add    $0x20,%rdx
  4043d2:	66 0f 73 d9 07       	psrldq $0x7,%xmm1
  4043d7:	66 0f 6f d3          	movdqa %xmm3,%xmm2
  4043db:	66 0f 73 fb 09       	pslldq $0x9,%xmm3
  4043e0:	66 0f eb d9          	por    %xmm1,%xmm3
  4043e4:	66 0f 73 da 07       	psrldq $0x7,%xmm2
  4043e9:	66 0f 6f c8          	movdqa %xmm0,%xmm1
  4043ed:	66 0f 73 f8 09       	pslldq $0x9,%xmm0
  4043f2:	66 0f eb c2          	por    %xmm2,%xmm0
  4043f6:	66 0f 7f 19          	movdqa %xmm3,(%rcx)
  4043fa:	66 0f 7f 41 10       	movdqa %xmm0,0x10(%rcx)
  4043ff:	48 83 c1 20          	add    $0x20,%rcx
  404403:	49 83 f8 20          	cmp    $0x20,%r8
  404407:	7d b7                	jge    4043c0 <__intel_new_memcpy+0x1210>
  404409:	e9 7b 02 00 00       	jmpq   404689 <__intel_new_memcpy+0x14d9>
  40440e:	66 90                	xchg   %ax,%ax
  404410:	49 83 e8 20          	sub    $0x20,%r8
  404414:	66 0f 6f 5a 10       	movdqa 0x10(%rdx),%xmm3
  404419:	66 0f 6f 42 20       	movdqa 0x20(%rdx),%xmm0
  40441e:	48 83 c2 20          	add    $0x20,%rdx
  404422:	66 0f 73 d9 08       	psrldq $0x8,%xmm1
  404427:	66 0f 6f d3          	movdqa %xmm3,%xmm2
  40442b:	66 0f 73 fb 08       	pslldq $0x8,%xmm3
  404430:	66 0f eb d9          	por    %xmm1,%xmm3
  404434:	66 0f 73 da 08       	psrldq $0x8,%xmm2
  404439:	66 0f 6f c8          	movdqa %xmm0,%xmm1
  40443d:	66 0f 73 f8 08       	pslldq $0x8,%xmm0
  404442:	66 0f eb c2          	por    %xmm2,%xmm0
  404446:	66 0f 7f 19          	movdqa %xmm3,(%rcx)
  40444a:	66 0f 7f 41 10       	movdqa %xmm0,0x10(%rcx)
  40444f:	48 83 c1 20          	add    $0x20,%rcx
  404453:	49 83 f8 20          	cmp    $0x20,%r8
  404457:	7d b7                	jge    404410 <__intel_new_memcpy+0x1260>
  404459:	e9 2b 02 00 00       	jmpq   404689 <__intel_new_memcpy+0x14d9>
  40445e:	66 90                	xchg   %ax,%ax
  404460:	49 83 e8 20          	sub    $0x20,%r8
  404464:	66 0f 6f 5a 10       	movdqa 0x10(%rdx),%xmm3
  404469:	66 0f 6f 42 20       	movdqa 0x20(%rdx),%xmm0
  40446e:	48 83 c2 20          	add    $0x20,%rdx
  404472:	66 0f 73 d9 09       	psrldq $0x9,%xmm1
  404477:	66 0f 6f d3          	movdqa %xmm3,%xmm2
  40447b:	66 0f 73 fb 07       	pslldq $0x7,%xmm3
  404480:	66 0f eb d9          	por    %xmm1,%xmm3
  404484:	66 0f 73 da 09       	psrldq $0x9,%xmm2
  404489:	66 0f 6f c8          	movdqa %xmm0,%xmm1
  40448d:	66 0f 73 f8 07       	pslldq $0x7,%xmm0
  404492:	66 0f eb c2          	por    %xmm2,%xmm0
  404496:	66 0f 7f 19          	movdqa %xmm3,(%rcx)
  40449a:	66 0f 7f 41 10       	movdqa %xmm0,0x10(%rcx)
  40449f:	48 83 c1 20          	add    $0x20,%rcx
  4044a3:	49 83 f8 20          	cmp    $0x20,%r8
  4044a7:	7d b7                	jge    404460 <__intel_new_memcpy+0x12b0>
  4044a9:	e9 db 01 00 00       	jmpq   404689 <__intel_new_memcpy+0x14d9>
  4044ae:	66 90                	xchg   %ax,%ax
  4044b0:	49 83 e8 20          	sub    $0x20,%r8
  4044b4:	66 0f 6f 5a 10       	movdqa 0x10(%rdx),%xmm3
  4044b9:	66 0f 6f 42 20       	movdqa 0x20(%rdx),%xmm0
  4044be:	48 83 c2 20          	add    $0x20,%rdx
  4044c2:	66 0f 73 d9 0a       	psrldq $0xa,%xmm1
  4044c7:	66 0f 6f d3          	movdqa %xmm3,%xmm2
  4044cb:	66 0f 73 fb 06       	pslldq $0x6,%xmm3
  4044d0:	66 0f eb d9          	por    %xmm1,%xmm3
  4044d4:	66 0f 73 da 0a       	psrldq $0xa,%xmm2
  4044d9:	66 0f 6f c8          	movdqa %xmm0,%xmm1
  4044dd:	66 0f 73 f8 06       	pslldq $0x6,%xmm0
  4044e2:	66 0f eb c2          	por    %xmm2,%xmm0
  4044e6:	66 0f 7f 19          	movdqa %xmm3,(%rcx)
  4044ea:	66 0f 7f 41 10       	movdqa %xmm0,0x10(%rcx)
  4044ef:	48 83 c1 20          	add    $0x20,%rcx
  4044f3:	49 83 f8 20          	cmp    $0x20,%r8
  4044f7:	7d b7                	jge    4044b0 <__intel_new_memcpy+0x1300>
  4044f9:	e9 8b 01 00 00       	jmpq   404689 <__intel_new_memcpy+0x14d9>
  4044fe:	66 90                	xchg   %ax,%ax
  404500:	49 83 e8 20          	sub    $0x20,%r8
  404504:	66 0f 6f 5a 10       	movdqa 0x10(%rdx),%xmm3
  404509:	66 0f 6f 42 20       	movdqa 0x20(%rdx),%xmm0
  40450e:	48 83 c2 20          	add    $0x20,%rdx
  404512:	66 0f 73 d9 0b       	psrldq $0xb,%xmm1
  404517:	66 0f 6f d3          	movdqa %xmm3,%xmm2
  40451b:	66 0f 73 fb 05       	pslldq $0x5,%xmm3
  404520:	66 0f eb d9          	por    %xmm1,%xmm3
  404524:	66 0f 73 da 0b       	psrldq $0xb,%xmm2
  404529:	66 0f 6f c8          	movdqa %xmm0,%xmm1
  40452d:	66 0f 73 f8 05       	pslldq $0x5,%xmm0
  404532:	66 0f eb c2          	por    %xmm2,%xmm0
  404536:	66 0f 7f 19          	movdqa %xmm3,(%rcx)
  40453a:	66 0f 7f 41 10       	movdqa %xmm0,0x10(%rcx)
  40453f:	48 83 c1 20          	add    $0x20,%rcx
  404543:	49 83 f8 20          	cmp    $0x20,%r8
  404547:	7d b7                	jge    404500 <__intel_new_memcpy+0x1350>
  404549:	e9 3b 01 00 00       	jmpq   404689 <__intel_new_memcpy+0x14d9>
  40454e:	66 90                	xchg   %ax,%ax
  404550:	49 83 e8 20          	sub    $0x20,%r8
  404554:	66 0f 6f 5a 10       	movdqa 0x10(%rdx),%xmm3
  404559:	66 0f 6f 42 20       	movdqa 0x20(%rdx),%xmm0
  40455e:	48 83 c2 20          	add    $0x20,%rdx
  404562:	66 0f 73 d9 0c       	psrldq $0xc,%xmm1
  404567:	66 0f 6f d3          	movdqa %xmm3,%xmm2
  40456b:	66 0f 73 fb 04       	pslldq $0x4,%xmm3
  404570:	66 0f eb d9          	por    %xmm1,%xmm3
  404574:	66 0f 73 da 0c       	psrldq $0xc,%xmm2
  404579:	66 0f 6f c8          	movdqa %xmm0,%xmm1
  40457d:	66 0f 73 f8 04       	pslldq $0x4,%xmm0
  404582:	66 0f eb c2          	por    %xmm2,%xmm0
  404586:	66 0f 7f 19          	movdqa %xmm3,(%rcx)
  40458a:	66 0f 7f 41 10       	movdqa %xmm0,0x10(%rcx)
  40458f:	48 83 c1 20          	add    $0x20,%rcx
  404593:	49 83 f8 20          	cmp    $0x20,%r8
  404597:	7d b7                	jge    404550 <__intel_new_memcpy+0x13a0>
  404599:	e9 eb 00 00 00       	jmpq   404689 <__intel_new_memcpy+0x14d9>
  40459e:	66 90                	xchg   %ax,%ax
  4045a0:	49 83 e8 20          	sub    $0x20,%r8
  4045a4:	66 0f 6f 5a 10       	movdqa 0x10(%rdx),%xmm3
  4045a9:	66 0f 6f 42 20       	movdqa 0x20(%rdx),%xmm0
  4045ae:	48 83 c2 20          	add    $0x20,%rdx
  4045b2:	66 0f 73 d9 0d       	psrldq $0xd,%xmm1
  4045b7:	66 0f 6f d3          	movdqa %xmm3,%xmm2
  4045bb:	66 0f 73 fb 03       	pslldq $0x3,%xmm3
  4045c0:	66 0f eb d9          	por    %xmm1,%xmm3
  4045c4:	66 0f 73 da 0d       	psrldq $0xd,%xmm2
  4045c9:	66 0f 6f c8          	movdqa %xmm0,%xmm1
  4045cd:	66 0f 73 f8 03       	pslldq $0x3,%xmm0
  4045d2:	66 0f eb c2          	por    %xmm2,%xmm0
  4045d6:	66 0f 7f 19          	movdqa %xmm3,(%rcx)
  4045da:	66 0f 7f 41 10       	movdqa %xmm0,0x10(%rcx)
  4045df:	48 83 c1 20          	add    $0x20,%rcx
  4045e3:	49 83 f8 20          	cmp    $0x20,%r8
  4045e7:	7d b7                	jge    4045a0 <__intel_new_memcpy+0x13f0>
  4045e9:	e9 9b 00 00 00       	jmpq   404689 <__intel_new_memcpy+0x14d9>
  4045ee:	66 90                	xchg   %ax,%ax
  4045f0:	49 83 e8 20          	sub    $0x20,%r8
  4045f4:	66 0f 6f 5a 10       	movdqa 0x10(%rdx),%xmm3
  4045f9:	66 0f 6f 42 20       	movdqa 0x20(%rdx),%xmm0
  4045fe:	48 83 c2 20          	add    $0x20,%rdx
  404602:	66 0f 73 d9 0e       	psrldq $0xe,%xmm1
  404607:	66 0f 6f d3          	movdqa %xmm3,%xmm2
  40460b:	66 0f 73 fb 02       	pslldq $0x2,%xmm3
  404610:	66 0f eb d9          	por    %xmm1,%xmm3
  404614:	66 0f 73 da 0e       	psrldq $0xe,%xmm2
  404619:	66 0f 6f c8          	movdqa %xmm0,%xmm1
  40461d:	66 0f 73 f8 02       	pslldq $0x2,%xmm0
  404622:	66 0f eb c2          	por    %xmm2,%xmm0
  404626:	66 0f 7f 19          	movdqa %xmm3,(%rcx)
  40462a:	66 0f 7f 41 10       	movdqa %xmm0,0x10(%rcx)
  40462f:	48 83 c1 20          	add    $0x20,%rcx
  404633:	49 83 f8 20          	cmp    $0x20,%r8
  404637:	7d b7                	jge    4045f0 <__intel_new_memcpy+0x1440>
  404639:	eb 4e                	jmp    404689 <__intel_new_memcpy+0x14d9>
  40463b:	66 66 90             	xchg   %ax,%ax
  40463e:	66 90                	xchg   %ax,%ax
  404640:	49 83 e8 20          	sub    $0x20,%r8
  404644:	66 0f 6f 5a 10       	movdqa 0x10(%rdx),%xmm3
  404649:	66 0f 6f 42 20       	movdqa 0x20(%rdx),%xmm0
  40464e:	48 83 c2 20          	add    $0x20,%rdx
  404652:	66 0f 73 d9 0f       	psrldq $0xf,%xmm1
  404657:	66 0f 6f d3          	movdqa %xmm3,%xmm2
  40465b:	66 0f 73 fb 01       	pslldq $0x1,%xmm3
  404660:	66 0f eb d9          	por    %xmm1,%xmm3
  404664:	66 0f 73 da 0f       	psrldq $0xf,%xmm2
  404669:	66 0f 6f c8          	movdqa %xmm0,%xmm1
  40466d:	66 0f 73 f8 01       	pslldq $0x1,%xmm0
  404672:	66 0f eb c2          	por    %xmm2,%xmm0
  404676:	66 0f 7f 19          	movdqa %xmm3,(%rcx)
  40467a:	66 0f 7f 41 10       	movdqa %xmm0,0x10(%rcx)
  40467f:	48 83 c1 20          	add    $0x20,%rcx
  404683:	49 83 f8 20          	cmp    $0x20,%r8
  404687:	7d b7                	jge    404640 <__intel_new_memcpy+0x1490>
  404689:	4c 8d 15 c0 ec ff ff 	lea    -4928(%rip),%r10        # 403350 <__intel_new_memcpy+0x1a0>
  404690:	4c 01 da             	add    %r11,%rdx
  404693:	4c 01 c1             	add    %r8,%rcx
  404696:	4c 01 c2             	add    %r8,%rdx
  404699:	4f 8b 0c c2          	mov    (%r10,%r8,8),%r9
  40469d:	4f 8d 14 11          	lea    (%r9,%r10,1),%r10
  4046a1:	41 ff e2             	jmpq   *%r10
  4046a4:	66 66 66 90          	xchg   %ax,%ax
  4046a8:	66 66 66 90          	xchg   %ax,%ax
  4046ac:	66 66 66 90          	xchg   %ax,%ax
  4046b0:	48 8d 49 40          	lea    0x40(%rcx),%rcx
  4046b4:	48 8d 52 40          	lea    0x40(%rdx),%rdx
  4046b8:	4d 8d 40 c0          	lea    0xffffffffffffffc0(%r8),%r8
  4046bc:	0f 18 82 80 01 00 00 	prefetchnta 0x180(%rdx)
  4046c3:	f3 0f 6f 42 c0       	movdqu 0xffffffffffffffc0(%rdx),%xmm0
  4046c8:	f3 0f 6f 4a d0       	movdqu 0xffffffffffffffd0(%rdx),%xmm1
  4046cd:	49 83 f8 40          	cmp    $0x40,%r8
  4046d1:	66 0f e7 41 c0       	movntdq %xmm0,0xffffffffffffffc0(%rcx)
  4046d6:	66 0f e7 49 d0       	movntdq %xmm1,0xffffffffffffffd0(%rcx)
  4046db:	f3 0f 6f 52 e0       	movdqu 0xffffffffffffffe0(%rdx),%xmm2
  4046e0:	f3 0f 6f 5a f0       	movdqu 0xfffffffffffffff0(%rdx),%xmm3
  4046e5:	66 0f e7 51 e0       	movntdq %xmm2,0xffffffffffffffe0(%rcx)
  4046ea:	66 0f e7 59 f0       	movntdq %xmm3,0xfffffffffffffff0(%rcx)
  4046ef:	7d bf                	jge    4046b0 <__intel_new_memcpy+0x1500>
  4046f1:	4c 8d 15 c8 01 00 00 	lea    456(%rip),%r10        # 4048c0 <__intel_new_memcpy+0x1710>
  4046f8:	4d 89 c1             	mov    %r8,%r9
  4046fb:	49 c1 e9 04          	shr    $0x4,%r9
  4046ff:	49 c1 e1 04          	shl    $0x4,%r9
  404703:	4c 01 c9             	add    %r9,%rcx
  404706:	4c 01 ca             	add    %r9,%rdx
  404709:	4d 29 c8             	sub    %r9,%r8
  40470c:	49 c1 e9 04          	shr    $0x4,%r9
  404710:	0f ae f8             	sfence 
  404713:	4f 8b 1c ca          	mov    (%r10,%r9,8),%r11
  404717:	4f 8d 14 13          	lea    (%r11,%r10,1),%r10
  40471b:	41 ff e2             	jmpq   *%r10
  40471e:	66 90                	xchg   %ax,%ax
  404720:	66 0f 6f 02          	movdqa (%rdx),%xmm0
  404724:	66 0f 6f 4a 10       	movdqa 0x10(%rdx),%xmm1
  404729:	66 0f 7f 01          	movdqa %xmm0,(%rcx)
  40472d:	66 0f 7f 49 10       	movdqa %xmm1,0x10(%rcx)
  404732:	4d 8d 40 80          	lea    0xffffffffffffff80(%r8),%r8
  404736:	66 0f 6f 52 20       	movdqa 0x20(%rdx),%xmm2
  40473b:	66 0f 6f 5a 30       	movdqa 0x30(%rdx),%xmm3
  404740:	66 0f 7f 51 20       	movdqa %xmm2,0x20(%rcx)
  404745:	66 0f 7f 59 30       	movdqa %xmm3,0x30(%rcx)
  40474a:	66 0f 6f 42 40       	movdqa 0x40(%rdx),%xmm0
  40474f:	66 0f 6f 4a 50       	movdqa 0x50(%rdx),%xmm1
  404754:	49 81 f8 a8 00 00 00 	cmp    $0xa8,%r8
  40475b:	66 0f 7f 41 40       	movdqa %xmm0,0x40(%rcx)
  404760:	66 0f 7f 49 50       	movdqa %xmm1,0x50(%rcx)
  404765:	66 0f 6f 52 60       	movdqa 0x60(%rdx),%xmm2
  40476a:	66 0f 6f 5a 70       	movdqa 0x70(%rdx),%xmm3
  40476f:	48 8d 92 80 00 00 00 	lea    0x80(%rdx),%rdx
  404776:	66 0f 7f 51 60       	movdqa %xmm2,0x60(%rcx)
  40477b:	66 0f 7f 59 70       	movdqa %xmm3,0x70(%rcx)
  404780:	48 8d 89 80 00 00 00 	lea    0x80(%rcx),%rcx
  404787:	7d 97                	jge    404720 <__intel_new_memcpy+0x1570>
  404789:	4c 8d 15 c0 eb ff ff 	lea    -5184(%rip),%r10        # 403350 <__intel_new_memcpy+0x1a0>
  404790:	4c 01 c1             	add    %r8,%rcx
  404793:	4c 01 c2             	add    %r8,%rdx
  404796:	4f 8b 0c c2          	mov    (%r10,%r8,8),%r9
  40479a:	4f 8d 14 11          	lea    (%r9,%r10,1),%r10
  40479e:	41 ff e2             	jmpq   *%r10
  4047a1:	66 66 66 90          	xchg   %ax,%ax
  4047a5:	66 66 66 90          	xchg   %ax,%ax
  4047a9:	66 66 66 90          	xchg   %ax,%ax
  4047ad:	66 66 90             	xchg   %ax,%ax
  4047b0:	83 3d 1d 68 10 00 ff 	cmpl   $0xffffffffffffffff,1075229(%rip)        # 50afd4 <__intel_memcpy_mem_ops_method>
  4047b7:	0f 84 d3 01 00 00    	je     404990 <__intel_new_memcpy+0x17e0>
  4047bd:	44 8b 0d 80 6f 10 00 	mov    1077120(%rip),%r9d        # 50b744 <__intel_memcpy_largest_cache_size>
  4047c4:	49 d1 e9             	shr    %r9
  4047c7:	49 83 f9 00          	cmp    $0x0,%r9
  4047cb:	4d 0f 4e c8          	cmovle %r8,%r9
  4047cf:	4d 39 c8             	cmp    %r9,%r8
  4047d2:	0f 8f 78 00 00 00    	jg     404850 <__intel_new_memcpy+0x16a0>
  4047d8:	eb 06                	jmp    4047e0 <__intel_new_memcpy+0x1630>
  4047da:	66 66 90             	xchg   %ax,%ax
  4047dd:	66 66 90             	xchg   %ax,%ax
  4047e0:	4c 8b 0a             	mov    (%rdx),%r9
  4047e3:	4c 8b 52 08          	mov    0x8(%rdx),%r10
  4047e7:	4d 8d 40 c0          	lea    0xffffffffffffffc0(%r8),%r8
  4047eb:	4c 89 09             	mov    %r9,(%rcx)
  4047ee:	4c 89 51 08          	mov    %r10,0x8(%rcx)
  4047f2:	4c 8b 5a 10          	mov    0x10(%rdx),%r11
  4047f6:	4c 8b 4a 18          	mov    0x18(%rdx),%r9
  4047fa:	4c 89 59 10          	mov    %r11,0x10(%rcx)
  4047fe:	4c 89 49 18          	mov    %r9,0x18(%rcx)
  404802:	49 83 f8 40          	cmp    $0x40,%r8
  404806:	4c 8b 52 20          	mov    0x20(%rdx),%r10
  40480a:	4c 8b 5a 28          	mov    0x28(%rdx),%r11
  40480e:	4c 89 51 20          	mov    %r10,0x20(%rcx)
  404812:	4c 89 59 28          	mov    %r11,0x28(%rcx)
  404816:	4c 8b 4a 30          	mov    0x30(%rdx),%r9
  40481a:	4c 8b 52 38          	mov    0x38(%rdx),%r10
  40481e:	48 8d 52 40          	lea    0x40(%rdx),%rdx
  404822:	4c 89 49 30          	mov    %r9,0x30(%rcx)
  404826:	4c 89 51 38          	mov    %r10,0x38(%rcx)
  40482a:	48 8d 49 40          	lea    0x40(%rcx),%rcx
  40482e:	7f b0                	jg     4047e0 <__intel_new_memcpy+0x1630>
  404830:	4c 8d 15 19 eb ff ff 	lea    -5351(%rip),%r10        # 403350 <__intel_new_memcpy+0x1a0>
  404837:	4a 8d 14 02          	lea    (%rdx,%r8,1),%rdx
  40483b:	4a 8d 0c 01          	lea    (%rcx,%r8,1),%rcx
  40483f:	4f 8b 0c c2          	mov    (%r10,%r8,8),%r9
  404843:	4f 8d 14 11          	lea    (%r9,%r10,1),%r10
  404847:	41 ff e2             	jmpq   *%r10
  40484a:	66 66 90             	xchg   %ax,%ax
  40484d:	66 66 90             	xchg   %ax,%ax
  404850:	49 83 e8 40          	sub    $0x40,%r8
  404854:	0f 18 82 80 01 00 00 	prefetchnta 0x180(%rdx)
  40485b:	4c 8b 0a             	mov    (%rdx),%r9
  40485e:	4c 0f c3 09          	movnti %r9,(%rcx)
  404862:	4c 8b 52 08          	mov    0x8(%rdx),%r10
  404866:	4c 0f c3 51 08       	movnti %r10,0x8(%rcx)
  40486b:	4c 8b 5a 10          	mov    0x10(%rdx),%r11
  40486f:	4c 0f c3 59 10       	movnti %r11,0x10(%rcx)
  404874:	4c 8b 4a 18          	mov    0x18(%rdx),%r9
  404878:	4c 0f c3 49 18       	movnti %r9,0x18(%rcx)
  40487d:	4c 8b 52 20          	mov    0x20(%rdx),%r10
  404881:	4c 0f c3 51 20       	movnti %r10,0x20(%rcx)
  404886:	4c 8b 5a 28          	mov    0x28(%rdx),%r11
  40488a:	4c 0f c3 59 28       	movnti %r11,0x28(%rcx)
  40488f:	4c 8b 4a 30          	mov    0x30(%rdx),%r9
  404893:	4c 0f c3 49 30       	movnti %r9,0x30(%rcx)
  404898:	4c 8b 52 38          	mov    0x38(%rdx),%r10
  40489c:	4c 0f c3 51 38       	movnti %r10,0x38(%rcx)
  4048a1:	48 8d 52 40          	lea    0x40(%rdx),%rdx
  4048a5:	48 8d 49 40          	lea    0x40(%rcx),%rcx
  4048a9:	49 83 f8 40          	cmp    $0x40,%r8
  4048ad:	7d a1                	jge    404850 <__intel_new_memcpy+0x16a0>
  4048af:	e9 7c ff ff ff       	jmpq   404830 <__intel_new_memcpy+0x1680>
  4048b4:	66 66 66 90          	xchg   %ax,%ax
  4048b8:	66 66 66 90          	xchg   %ax,%ax
  4048bc:	66 66 66 90          	xchg   %ax,%ax
  4048c0:	98                   	cwtl   
  4048c1:	00 00                	add    %al,(%rax)
  4048c3:	00 00                	add    %al,(%rax)
  4048c5:	00 00                	add    %al,(%rax)
  4048c7:	00 8e 00 00 00 00    	add    %cl,0x0(%rsi)
  4048cd:	00 00                	add    %al,(%rax)
  4048cf:	00 84 00 00 00 00 00 	add    %al,0x0(%rax,%rax,1)
  4048d6:	00 00                	add    %al,(%rax)
  4048d8:	7a 00                	jp     4048da <__intel_new_memcpy+0x172a>
  4048da:	00 00                	add    %al,(%rax)
  4048dc:	00 00                	add    %al,(%rax)
  4048de:	00 00                	add    %al,(%rax)
  4048e0:	70 00                	jo     4048e2 <__intel_new_memcpy+0x1732>
  4048e2:	00 00                	add    %al,(%rax)
  4048e4:	00 00                	add    %al,(%rax)
  4048e6:	00 00                	add    %al,(%rax)
  4048e8:	66                   	data16
  4048e9:	00 00                	add    %al,(%rax)
  4048eb:	00 00                	add    %al,(%rax)
  4048ed:	00 00                	add    %al,(%rax)
  4048ef:	00 5c 00 00          	add    %bl,0x0(%rax,%rax,1)
  4048f3:	00 00                	add    %al,(%rax)
  4048f5:	00 00                	add    %al,(%rax)
  4048f7:	00 52 00             	add    %dl,0x0(%rdx)
  4048fa:	00 00                	add    %al,(%rax)
  4048fc:	00 00                	add    %al,(%rax)
  4048fe:	00 00                	add    %al,(%rax)
  404900:	48 00 00             	rex.W add    %al,(%rax)
  404903:	00 00                	add    %al,(%rax)
  404905:	00 00                	add    %al,(%rax)
  404907:	00 f3                	add    %dh,%bl
  404909:	0f 6f 42 80          	movq   0xffffffffffffff80(%rdx),%mm0
  40490d:	66 0f 7f 41 80       	movdqa %xmm0,0xffffffffffffff80(%rcx)
  404912:	f3 0f 6f 4a 90       	movdqu 0xffffffffffffff90(%rdx),%xmm1
  404917:	66 0f 7f 49 90       	movdqa %xmm1,0xffffffffffffff90(%rcx)
  40491c:	f3 0f 6f 52 a0       	movdqu 0xffffffffffffffa0(%rdx),%xmm2
  404921:	66 0f 7f 51 a0       	movdqa %xmm2,0xffffffffffffffa0(%rcx)
  404926:	f3 0f 6f 5a b0       	movdqu 0xffffffffffffffb0(%rdx),%xmm3
  40492b:	66 0f 7f 59 b0       	movdqa %xmm3,0xffffffffffffffb0(%rcx)
  404930:	f3 0f 6f 42 c0       	movdqu 0xffffffffffffffc0(%rdx),%xmm0
  404935:	66 0f 7f 41 c0       	movdqa %xmm0,0xffffffffffffffc0(%rcx)
  40493a:	f3 0f 6f 4a d0       	movdqu 0xffffffffffffffd0(%rdx),%xmm1
  40493f:	66 0f 7f 49 d0       	movdqa %xmm1,0xffffffffffffffd0(%rcx)
  404944:	f3 0f 6f 52 e0       	movdqu 0xffffffffffffffe0(%rdx),%xmm2
  404949:	66 0f 7f 51 e0       	movdqa %xmm2,0xffffffffffffffe0(%rcx)
  40494e:	f3 0f 6f 5a f0       	movdqu 0xfffffffffffffff0(%rdx),%xmm3
  404953:	66 0f 7f 59 f0       	movdqa %xmm3,0xfffffffffffffff0(%rcx)
  404958:	4c 8d 15 f1 e9 ff ff 	lea    -5647(%rip),%r10        # 403350 <__intel_new_memcpy+0x1a0>
  40495f:	4c 01 c2             	add    %r8,%rdx
  404962:	4c 01 c1             	add    %r8,%rcx
  404965:	4f 8b 0c c2          	mov    (%r10,%r8,8),%r9
  404969:	4f 8d 14 11          	lea    (%r9,%r10,1),%r10
  40496d:	41 ff e2             	jmpq   *%r10
  404970:	4c 8b 0a             	mov    (%rdx),%r9
  404973:	4c 89 09             	mov    %r9,(%rcx)
  404976:	48 83 c1 08          	add    $0x8,%rcx
  40497a:	48 83 c2 08          	add    $0x8,%rdx
  40497e:	49 83 e8 08          	sub    $0x8,%r8
  404982:	e9 43 f7 ff ff       	jmpq   4040ca <__intel_new_memcpy+0xf1a>
  404987:	66 66 90             	xchg   %ax,%ax
  40498a:	66 66 90             	xchg   %ax,%ax
  40498d:	66 66 90             	xchg   %ax,%ax
  404990:	50                   	push   %rax
  404991:	52                   	push   %rdx
  404992:	51                   	push   %rcx
  404993:	41 50                	push   %r8
  404995:	48 83 ec 28          	sub    $0x28,%rsp
  404999:	e8 b2 3a 00 00       	callq  408450 <__intel_init_mem_ops_method>
  40499e:	48 83 c4 28          	add    $0x28,%rsp
  4049a2:	41 58                	pop    %r8
  4049a4:	59                   	pop    %rcx
  4049a5:	5a                   	pop    %rdx
  4049a6:	58                   	pop    %rax
  4049a7:	e9 04 f7 ff ff       	jmpq   4040b0 <__intel_new_memcpy+0xf00>
  4049ac:	66 66 66 90          	xchg   %ax,%ax
  4049b0:	4a 8d 0c 01          	lea    (%rcx,%r8,1),%rcx
  4049b4:	48 f7 c1 07 00 00 00 	test   $0x7,%rcx
  4049bb:	4a 8d 14 02          	lea    (%rdx,%r8,1),%rdx
  4049bf:	75 21                	jne    4049e2 <__intel_new_memcpy+0x1832>
  4049c1:	4c 8d 15 08 07 00 00 	lea    1800(%rip),%r10        # 4050d0 <__intel_new_memcpy+0x1f20>
  4049c8:	49 81 f8 90 00 00 00 	cmp    $0x90,%r8
  4049cf:	7f 77                	jg     404a48 <__intel_new_memcpy+0x1898>
  4049d1:	4c 29 c1             	sub    %r8,%rcx
  4049d4:	4c 29 c2             	sub    %r8,%rdx
  4049d7:	4f 8b 0c c2          	mov    (%r10,%r8,8),%r9
  4049db:	4f 8d 14 11          	lea    (%r9,%r10,1),%r10
  4049df:	41 ff e2             	jmpq   *%r10
  4049e2:	48 f7 c1 01 00 00 00 	test   $0x1,%rcx
  4049e9:	74 0f                	je     4049fa <__intel_new_memcpy+0x184a>
  4049eb:	48 ff c9             	dec    %rcx
  4049ee:	48 ff ca             	dec    %rdx
  4049f1:	49 ff c8             	dec    %r8
  4049f4:	44 8a 0a             	mov    (%rdx),%r9b
  4049f7:	44 88 09             	mov    %r9b,(%rcx)
  4049fa:	48 f7 c1 02 00 00 00 	test   $0x2,%rcx
  404a01:	74 14                	je     404a17 <__intel_new_memcpy+0x1867>
  404a03:	48 83 e9 02          	sub    $0x2,%rcx
  404a07:	48 83 ea 02          	sub    $0x2,%rdx
  404a0b:	49 83 e8 02          	sub    $0x2,%r8
  404a0f:	4c 0f b7 0a          	movzwq (%rdx),%r9
  404a13:	66 44 89 09          	mov    %r9w,(%rcx)
  404a17:	48 f7 c1 04 00 00 00 	test   $0x4,%rcx
  404a1e:	74 a1                	je     4049c1 <__intel_new_memcpy+0x1811>
  404a20:	48 83 e9 04          	sub    $0x4,%rcx
  404a24:	48 83 ea 04          	sub    $0x4,%rdx
  404a28:	49 83 e8 04          	sub    $0x4,%r8
  404a2c:	44 8b 0a             	mov    (%rdx),%r9d
  404a2f:	44 89 09             	mov    %r9d,(%rcx)
  404a32:	eb 8d                	jmp    4049c1 <__intel_new_memcpy+0x1811>
  404a34:	48 83 e9 08          	sub    $0x8,%rcx
  404a38:	48 83 ea 08          	sub    $0x8,%rdx
  404a3c:	49 83 e8 08          	sub    $0x8,%r8
  404a40:	4c 8b 0a             	mov    (%rdx),%r9
  404a43:	4c 89 09             	mov    %r9,(%rcx)
  404a46:	eb 18                	jmp    404a60 <__intel_new_memcpy+0x18b0>
  404a48:	83 3d 85 65 10 00 02 	cmpl   $0x2,1074565(%rip)        # 50afd4 <__intel_memcpy_mem_ops_method>
  404a4f:	0f 85 8f 00 00 00    	jne    404ae4 <__intel_new_memcpy+0x1934>
  404a55:	48 f7 c1 0f 00 00 00 	test   $0xf,%rcx
  404a5c:	75 d6                	jne    404a34 <__intel_new_memcpy+0x1884>
  404a5e:	eb 00                	jmp    404a60 <__intel_new_memcpy+0x18b0>
  404a60:	48 81 e9 80 00 00 00 	sub    $0x80,%rcx
  404a67:	48 81 ea 80 00 00 00 	sub    $0x80,%rdx
  404a6e:	f3 0f 6f 5a 70       	movdqu 0x70(%rdx),%xmm3
  404a73:	f3 0f 6f 52 60       	movdqu 0x60(%rdx),%xmm2
  404a78:	66 0f 7f 59 70       	movdqa %xmm3,0x70(%rcx)
  404a7d:	66 0f 7f 51 60       	movdqa %xmm2,0x60(%rcx)
  404a82:	49 81 e8 80 00 00 00 	sub    $0x80,%r8
  404a89:	f3 0f 6f 4a 50       	movdqu 0x50(%rdx),%xmm1
  404a8e:	f3 0f 6f 42 40       	movdqu 0x40(%rdx),%xmm0
  404a93:	66 0f 7f 49 50       	movdqa %xmm1,0x50(%rcx)
  404a98:	66 0f 7f 41 40       	movdqa %xmm0,0x40(%rcx)
  404a9d:	49 81 f8 80 00 00 00 	cmp    $0x80,%r8
  404aa4:	f3 0f 6f 5a 30       	movdqu 0x30(%rdx),%xmm3
  404aa9:	f3 0f 6f 52 20       	movdqu 0x20(%rdx),%xmm2
  404aae:	66 0f 7f 59 30       	movdqa %xmm3,0x30(%rcx)
  404ab3:	66 0f 7f 51 20       	movdqa %xmm2,0x20(%rcx)
  404ab8:	f3 0f 6f 4a 10       	movdqu 0x10(%rdx),%xmm1
  404abd:	f3 0f 6f 02          	movdqu (%rdx),%xmm0
  404ac1:	66 0f 7f 49 10       	movdqa %xmm1,0x10(%rcx)
  404ac6:	66 0f 7f 01          	movdqa %xmm0,(%rcx)
  404aca:	7d 94                	jge    404a60 <__intel_new_memcpy+0x18b0>
  404acc:	4c 8d 15 fd 05 00 00 	lea    1533(%rip),%r10        # 4050d0 <__intel_new_memcpy+0x1f20>
  404ad3:	4c 29 c2             	sub    %r8,%rdx
  404ad6:	4c 29 c1             	sub    %r8,%rcx
  404ad9:	4f 8b 0c c2          	mov    (%r10,%r8,8),%r9
  404add:	4f 8d 14 11          	lea    (%r9,%r10,1),%r10
  404ae1:	41 ff e2             	jmpq   *%r10
  404ae4:	83 3d e9 64 10 00 ff 	cmpl   $0xffffffffffffffff,1074409(%rip)        # 50afd4 <__intel_memcpy_mem_ops_method>
  404aeb:	7e 6d                	jle    404b5a <__intel_new_memcpy+0x19aa>
  404aed:	eb 01                	jmp    404af0 <__intel_new_memcpy+0x1940>
  404aef:	90                   	nop    
  404af0:	4c 8b 4a f8          	mov    0xfffffffffffffff8(%rdx),%r9
  404af4:	4c 8b 52 f0          	mov    0xfffffffffffffff0(%rdx),%r10
  404af8:	4d 8d 40 c0          	lea    0xffffffffffffffc0(%r8),%r8
  404afc:	4c 89 49 f8          	mov    %r9,0xfffffffffffffff8(%rcx)
  404b00:	4c 89 51 f0          	mov    %r10,0xfffffffffffffff0(%rcx)
  404b04:	4c 8b 5a e8          	mov    0xffffffffffffffe8(%rdx),%r11
  404b08:	4c 8b 4a e0          	mov    0xffffffffffffffe0(%rdx),%r9
  404b0c:	4c 89 59 e8          	mov    %r11,0xffffffffffffffe8(%rcx)
  404b10:	4c 89 49 e0          	mov    %r9,0xffffffffffffffe0(%rcx)
  404b14:	49 83 f8 40          	cmp    $0x40,%r8
  404b18:	4c 8b 52 d8          	mov    0xffffffffffffffd8(%rdx),%r10
  404b1c:	4c 8b 5a d0          	mov    0xffffffffffffffd0(%rdx),%r11
  404b20:	4c 89 51 d8          	mov    %r10,0xffffffffffffffd8(%rcx)
  404b24:	4c 89 59 d0          	mov    %r11,0xffffffffffffffd0(%rcx)
