0e080000 <placeholder_main>:
 e080000:	90                   	nop    
 e080001:	90                   	nop    
 e080002:	00 00                	add    %al,(%eax)
 e080004:	00 00                	add    %al,(%eax)
 e080006:	00 00                	add    %al,(%eax)
 e080008:	00 00                	add    %al,(%eax)
 e08000a:	00 00                	add    %al,(%eax)
 e08000c:	00 00                	add    %al,(%eax)
 e08000e:	00 00                	add    %al,(%eax)
 e080010:	00 00                	add    %al,(%eax)
 e080012:	00 00                	add    %al,(%eax)
 e080014:	00 00                	add    %al,(%eax)
 e080016:	00 00                	add    %al,(%eax)
 e080018:	00 00                	add    %al,(%eax)
 e08001a:	00 00                	add    %al,(%eax)
 e08001c:	00 00                	add    %al,(%eax)
 e08001e:	00 00                	add    %al,(%eax)
 e080020:	00 00                	add    %al,(%eax)
 e080022:	00 00                	add    %al,(%eax)
 e080024:	00 00                	add    %al,(%eax)
 e080026:	00 00                	add    %al,(%eax)
 e080028:	00 00                	add    %al,(%eax)
 e08002a:	00 00                	add    %al,(%eax)
 e08002c:	00 00                	add    %al,(%eax)
 e08002e:	00 00                	add    %al,(%eax)
 e080030:	00 00                	add    %al,(%eax)
 e080032:	00 00                	add    %al,(%eax)
 e080034:	00 00                	add    %al,(%eax)
 e080036:	00 00                	add    %al,(%eax)
 e080038:	00 00                	add    %al,(%eax)
 e08003a:	00 00                	add    %al,(%eax)
 e08003c:	00 00                	add    %al,(%eax)
 e08003e:	00 00                	add    %al,(%eax)
 e080040:	00 00                	add    %al,(%eax)
 e080042:	00 00                	add    %al,(%eax)
 e080044:	00 00                	add    %al,(%eax)
 e080046:	00 00                	add    %al,(%eax)
 e080048:	00 00                	add    %al,(%eax)
 e08004a:	00 00                	add    %al,(%eax)
 e08004c:	00 00                	add    %al,(%eax)
 e08004e:	00 00                	add    %al,(%eax)
 e080050:	00 00                	add    %al,(%eax)
 e080052:	00 00                	add    %al,(%eax)
 e080054:	00 00                	add    %al,(%eax)
 e080056:	00 00                	add    %al,(%eax)
 e080058:	00 00                	add    %al,(%eax)
 e08005a:	00 00                	add    %al,(%eax)
 e08005c:	00 00                	add    %al,(%eax)
 e08005e:	00 00                	add    %al,(%eax)
 e080060:	00 00                	add    %al,(%eax)
 e080062:	00 00                	add    %al,(%eax)
 e080064:	00 00                	add    %al,(%eax)
 e080066:	00 00                	add    %al,(%eax)
 e080068:	00 00                	add    %al,(%eax)
 e08006a:	00 00                	add    %al,(%eax)
 e08006c:	00 00                	add    %al,(%eax)
 e08006e:	00 00                	add    %al,(%eax)
 e080070:	00 00                	add    %al,(%eax)
 e080072:	00 00                	add    %al,(%eax)
 e080074:	00 00                	add    %al,(%eax)
 e080076:	00 00                	add    %al,(%eax)
 e080078:	00 00                	add    %al,(%eax)
 e08007a:	00 00                	add    %al,(%eax)
 e08007c:	00 00                	add    %al,(%eax)
 e08007e:	00 00                	add    %al,(%eax)
 e080080:	00 00                	add    %al,(%eax)
 e080082:	00 00                	add    %al,(%eax)
 e080084:	00 00                	add    %al,(%eax)
 e080086:	00 00                	add    %al,(%eax)
 e080088:	00 00                	add    %al,(%eax)
 e08008a:	00 00                	add    %al,(%eax)
 e08008c:	00 00                	add    %al,(%eax)
 e08008e:	00 00                	add    %al,(%eax)
 e080090:	00 00                	add    %al,(%eax)
 e080092:	00 00                	add    %al,(%eax)
 e080094:	00 00                	add    %al,(%eax)
 e080096:	00 00                	add    %al,(%eax)
 e080098:	00 00                	add    %al,(%eax)
 e08009a:	00 00                	add    %al,(%eax)
 e08009c:	00 00                	add    %al,(%eax)
 e08009e:	00 00                	add    %al,(%eax)
 e0800a0:	00 00                	add    %al,(%eax)
 e0800a2:	00 00                	add    %al,(%eax)
 e0800a4:	00 00                	add    %al,(%eax)
 e0800a6:	00 00                	add    %al,(%eax)
 e0800a8:	00 00                	add    %al,(%eax)
 e0800aa:	00 00                	add    %al,(%eax)
 e0800ac:	00 00                	add    %al,(%eax)
 e0800ae:	00 00                	add    %al,(%eax)
 e0800b0:	00 00                	add    %al,(%eax)
 e0800b2:	00 00                	add    %al,(%eax)
 e0800b4:	00 00                	add    %al,(%eax)
 e0800b6:	00 00                	add    %al,(%eax)
 e0800b8:	00 00                	add    %al,(%eax)
 e0800ba:	00 00                	add    %al,(%eax)
 e0800bc:	00 00                	add    %al,(%eax)
 e0800be:	00 00                	add    %al,(%eax)
 e0800c0:	00 00                	add    %al,(%eax)
 e0800c2:	00 00                	add    %al,(%eax)
 e0800c4:	00 00                	add    %al,(%eax)
 e0800c6:	00 00                	add    %al,(%eax)
 e0800c8:	00 00                	add    %al,(%eax)
 e0800ca:	00 00                	add    %al,(%eax)
 e0800cc:	00 00                	add    %al,(%eax)
 e0800ce:	00 00                	add    %al,(%eax)
 e0800d0:	00 00                	add    %al,(%eax)
 e0800d2:	00 00                	add    %al,(%eax)
 e0800d4:	00 00                	add    %al,(%eax)
 e0800d6:	00 00                	add    %al,(%eax)
 e0800d8:	00 00                	add    %al,(%eax)
 e0800da:	00 00                	add    %al,(%eax)
 e0800dc:	00 00                	add    %al,(%eax)
 e0800de:	00 00                	add    %al,(%eax)
 e0800e0:	00 00                	add    %al,(%eax)
 e0800e2:	00 00                	add    %al,(%eax)
 e0800e4:	00 00                	add    %al,(%eax)
 e0800e6:	00 00                	add    %al,(%eax)
 e0800e8:	00 00                	add    %al,(%eax)
 e0800ea:	00 00                	add    %al,(%eax)
 e0800ec:	00 00                	add    %al,(%eax)
 e0800ee:	00 00                	add    %al,(%eax)
 e0800f0:	00 00                	add    %al,(%eax)
 e0800f2:	00 00                	add    %al,(%eax)
 e0800f4:	00 00                	add    %al,(%eax)
 e0800f6:	00 00                	add    %al,(%eax)
 e0800f8:	00 00                	add    %al,(%eax)
 e0800fa:	00 00                	add    %al,(%eax)
 e0800fc:	00 00                	add    %al,(%eax)
 e0800fe:	00 00                	add    %al,(%eax)
 e080100:	00 00                	add    %al,(%eax)
 e080102:	00 00                	add    %al,(%eax)
 e080104:	00 00                	add    %al,(%eax)
 e080106:	00 00                	add    %al,(%eax)
 e080108:	00 00                	add    %al,(%eax)
 e08010a:	00 00                	add    %al,(%eax)
 e08010c:	00 00                	add    %al,(%eax)
 e08010e:	00 00                	add    %al,(%eax)
 e080110:	00 00                	add    %al,(%eax)
 e080112:	00 00                	add    %al,(%eax)
 e080114:	00 00                	add    %al,(%eax)
 e080116:	00 00                	add    %al,(%eax)
 e080118:	00 00                	add    %al,(%eax)
 e08011a:	00 00                	add    %al,(%eax)
 e08011c:	00 00                	add    %al,(%eax)
 e08011e:	00 00                	add    %al,(%eax)
 e080120:	00 00                	add    %al,(%eax)
 e080122:	00 00                	add    %al,(%eax)
 e080124:	00 00                	add    %al,(%eax)
 e080126:	00 00                	add    %al,(%eax)
 e080128:	00 00                	add    %al,(%eax)
 e08012a:	00 00                	add    %al,(%eax)
 e08012c:	00 00                	add    %al,(%eax)
 e08012e:	00 00                	add    %al,(%eax)
 e080130:	00 00                	add    %al,(%eax)
 e080132:	00 00                	add    %al,(%eax)
 e080134:	00 00                	add    %al,(%eax)
 e080136:	00 00                	add    %al,(%eax)
 e080138:	00 00                	add    %al,(%eax)
 e08013a:	00 00                	add    %al,(%eax)
 e08013c:	00 00                	add    %al,(%eax)
 e08013e:	00 00                	add    %al,(%eax)
 e080140:	00 00                	add    %al,(%eax)
 e080142:	00 00                	add    %al,(%eax)
 e080144:	00 00                	add    %al,(%eax)
 e080146:	00 00                	add    %al,(%eax)
 e080148:	00 00                	add    %al,(%eax)
 e08014a:	00 00                	add    %al,(%eax)
 e08014c:	00 00                	add    %al,(%eax)
 e08014e:	00 00                	add    %al,(%eax)
 e080150:	00 00                	add    %al,(%eax)
 e080152:	00 00                	add    %al,(%eax)
 e080154:	00 00                	add    %al,(%eax)
 e080156:	00 00                	add    %al,(%eax)
 e080158:	00 00                	add    %al,(%eax)
 e08015a:	00 00                	add    %al,(%eax)
 e08015c:	00 00                	add    %al,(%eax)
 e08015e:	00 00                	add    %al,(%eax)
 e080160:	00 00                	add    %al,(%eax)
 e080162:	00 00                	add    %al,(%eax)
 e080164:	00 00                	add    %al,(%eax)
 e080166:	00 00                	add    %al,(%eax)
 e080168:	00 00                	add    %al,(%eax)
 e08016a:	00 00                	add    %al,(%eax)
 e08016c:	00 00                	add    %al,(%eax)
 e08016e:	00 00                	add    %al,(%eax)
 e080170:	00 00                	add    %al,(%eax)
 e080172:	00 00                	add    %al,(%eax)
 e080174:	00 00                	add    %al,(%eax)
 e080176:	00 00                	add    %al,(%eax)
 e080178:	00 00                	add    %al,(%eax)
 e08017a:	00 00                	add    %al,(%eax)
 e08017c:	00 00                	add    %al,(%eax)
 e08017e:	00 00                	add    %al,(%eax)
 e080180:	00 00                	add    %al,(%eax)
 e080182:	00 00                	add    %al,(%eax)
 e080184:	00 00                	add    %al,(%eax)
 e080186:	00 00                	add    %al,(%eax)
 e080188:	00 00                	add    %al,(%eax)
 e08018a:	00 00                	add    %al,(%eax)
 e08018c:	00 00                	add    %al,(%eax)
 e08018e:	00 00                	add    %al,(%eax)
 e080190:	00 00                	add    %al,(%eax)
 e080192:	00 00                	add    %al,(%eax)
 e080194:	00 00                	add    %al,(%eax)
 e080196:	00 00                	add    %al,(%eax)
 e080198:	00 00                	add    %al,(%eax)
 e08019a:	00 00                	add    %al,(%eax)
 e08019c:	00 00                	add    %al,(%eax)
 e08019e:	00 00                	add    %al,(%eax)
 e0801a0:	00 00                	add    %al,(%eax)
 e0801a2:	00 00                	add    %al,(%eax)
 e0801a4:	00 00                	add    %al,(%eax)
 e0801a6:	00 00                	add    %al,(%eax)
 e0801a8:	00 00                	add    %al,(%eax)
 e0801aa:	00 00                	add    %al,(%eax)
 e0801ac:	00 00                	add    %al,(%eax)
 e0801ae:	00 00                	add    %al,(%eax)
 e0801b0:	00 00                	add    %al,(%eax)
 e0801b2:	00 00                	add    %al,(%eax)
 e0801b4:	00 00                	add    %al,(%eax)
 e0801b6:	00 00                	add    %al,(%eax)
 e0801b8:	00 00                	add    %al,(%eax)
 e0801ba:	00 00                	add    %al,(%eax)
 e0801bc:	00 00                	add    %al,(%eax)
 e0801be:	00 00                	add    %al,(%eax)
 e0801c0:	00 00                	add    %al,(%eax)
 e0801c2:	00 00                	add    %al,(%eax)
 e0801c4:	00 00                	add    %al,(%eax)
 e0801c6:	00 00                	add    %al,(%eax)
 e0801c8:	00 00                	add    %al,(%eax)
 e0801ca:	00 00                	add    %al,(%eax)
 e0801cc:	00 00                	add    %al,(%eax)
 e0801ce:	00 00                	add    %al,(%eax)
 e0801d0:	00 00                	add    %al,(%eax)
 e0801d2:	00 00                	add    %al,(%eax)
 e0801d4:	00 00                	add    %al,(%eax)
 e0801d6:	00 00                	add    %al,(%eax)
 e0801d8:	00 00                	add    %al,(%eax)
 e0801da:	00 00                	add    %al,(%eax)
 e0801dc:	00 00                	add    %al,(%eax)
 e0801de:	00 00                	add    %al,(%eax)
 e0801e0:	00 00                	add    %al,(%eax)
 e0801e2:	00 00                	add    %al,(%eax)
 e0801e4:	00 00                	add    %al,(%eax)
 e0801e6:	00 00                	add    %al,(%eax)
 e0801e8:	00 00                	add    %al,(%eax)
 e0801ea:	00 00                	add    %al,(%eax)
 e0801ec:	00 00                	add    %al,(%eax)
 e0801ee:	00 00                	add    %al,(%eax)
 e0801f0:	00 00                	add    %al,(%eax)
 e0801f2:	00 00                	add    %al,(%eax)
 e0801f4:	00 00                	add    %al,(%eax)
 e0801f6:	00 00                	add    %al,(%eax)
 e0801f8:	00 00                	add    %al,(%eax)
 e0801fa:	00 00                	add    %al,(%eax)
 e0801fc:	00 00                	add    %al,(%eax)
 e0801fe:	00 00                	add    %al,(%eax)
 e080200:	00 00                	add    %al,(%eax)
 e080202:	00 00                	add    %al,(%eax)
 e080204:	00 00                	add    %al,(%eax)
 e080206:	00 00                	add    %al,(%eax)
 e080208:	00 00                	add    %al,(%eax)
 e08020a:	00 00                	add    %al,(%eax)
 e08020c:	00 00                	add    %al,(%eax)
 e08020e:	00 00                	add    %al,(%eax)
 e080210:	00 00                	add    %al,(%eax)
 e080212:	00 00                	add    %al,(%eax)
 e080214:	00 00                	add    %al,(%eax)
 e080216:	00 00                	add    %al,(%eax)
 e080218:	00 00                	add    %al,(%eax)
 e08021a:	00 00                	add    %al,(%eax)
 e08021c:	00 00                	add    %al,(%eax)
 e08021e:	00 00                	add    %al,(%eax)
 e080220:	00 00                	add    %al,(%eax)
 e080222:	00 00                	add    %al,(%eax)
 e080224:	00 00                	add    %al,(%eax)
 e080226:	00 00                	add    %al,(%eax)
 e080228:	00 00                	add    %al,(%eax)
 e08022a:	00 00                	add    %al,(%eax)
 e08022c:	00 00                	add    %al,(%eax)
 e08022e:	00 00                	add    %al,(%eax)
 e080230:	00 00                	add    %al,(%eax)
 e080232:	00 00                	add    %al,(%eax)
 e080234:	00 00                	add    %al,(%eax)
 e080236:	00 00                	add    %al,(%eax)
 e080238:	00 00                	add    %al,(%eax)
 e08023a:	00 00                	add    %al,(%eax)
 e08023c:	00 00                	add    %al,(%eax)
 e08023e:	00 00                	add    %al,(%eax)
 e080240:	00 00                	add    %al,(%eax)
 e080242:	00 00                	add    %al,(%eax)
 e080244:	00 00                	add    %al,(%eax)
 e080246:	00 00                	add    %al,(%eax)
 e080248:	00 00                	add    %al,(%eax)
 e08024a:	00 00                	add    %al,(%eax)
 e08024c:	00 00                	add    %al,(%eax)
 e08024e:	00 00                	add    %al,(%eax)
 e080250:	00 00                	add    %al,(%eax)
 e080252:	00 00                	add    %al,(%eax)
 e080254:	00 00                	add    %al,(%eax)
 e080256:	00 00                	add    %al,(%eax)
 e080258:	00 00                	add    %al,(%eax)
 e08025a:	00 00                	add    %al,(%eax)
 e08025c:	00 00                	add    %al,(%eax)
 e08025e:	00 00                	add    %al,(%eax)
 e080260:	00 00                	add    %al,(%eax)
 e080262:	00 00                	add    %al,(%eax)
 e080264:	00 00                	add    %al,(%eax)
 e080266:	00 00                	add    %al,(%eax)
 e080268:	00 00                	add    %al,(%eax)
 e08026a:	00 00                	add    %al,(%eax)
 e08026c:	00 00                	add    %al,(%eax)
 e08026e:	00 00                	add    %al,(%eax)
 e080270:	00 00                	add    %al,(%eax)
 e080272:	00 00                	add    %al,(%eax)
 e080274:	00 00                	add    %al,(%eax)
 e080276:	00 00                	add    %al,(%eax)
 e080278:	00 00                	add    %al,(%eax)
 e08027a:	00 00                	add    %al,(%eax)
 e08027c:	00 00                	add    %al,(%eax)
 e08027e:	00 00                	add    %al,(%eax)
 e080280:	00 00                	add    %al,(%eax)
 e080282:	00 00                	add    %al,(%eax)
 e080284:	00 00                	add    %al,(%eax)
 e080286:	00 00                	add    %al,(%eax)
 e080288:	00 00                	add    %al,(%eax)
 e08028a:	00 00                	add    %al,(%eax)
 e08028c:	00 00                	add    %al,(%eax)
 e08028e:	00 00                	add    %al,(%eax)
 e080290:	00 00                	add    %al,(%eax)
 e080292:	00 00                	add    %al,(%eax)
 e080294:	00 00                	add    %al,(%eax)
 e080296:	00 00                	add    %al,(%eax)
 e080298:	00 00                	add    %al,(%eax)
 e08029a:	00 00                	add    %al,(%eax)
 e08029c:	00 00                	add    %al,(%eax)
 e08029e:	00 00                	add    %al,(%eax)
 e0802a0:	00 00                	add    %al,(%eax)
 e0802a2:	00 00                	add    %al,(%eax)
 e0802a4:	00 00                	add    %al,(%eax)
 e0802a6:	00 00                	add    %al,(%eax)
 e0802a8:	00 00                	add    %al,(%eax)
 e0802aa:	00 00                	add    %al,(%eax)
 e0802ac:	00 00                	add    %al,(%eax)
 e0802ae:	00 00                	add    %al,(%eax)
 e0802b0:	00 00                	add    %al,(%eax)
 e0802b2:	00 00                	add    %al,(%eax)
 e0802b4:	00 00                	add    %al,(%eax)
 e0802b6:	00 00                	add    %al,(%eax)
 e0802b8:	00 00                	add    %al,(%eax)
 e0802ba:	00 00                	add    %al,(%eax)
 e0802bc:	00 00                	add    %al,(%eax)
 e0802be:	00 00                	add    %al,(%eax)
 e0802c0:	00 00                	add    %al,(%eax)
 e0802c2:	00 00                	add    %al,(%eax)
 e0802c4:	00 00                	add    %al,(%eax)
 e0802c6:	00 00                	add    %al,(%eax)
 e0802c8:	00 00                	add    %al,(%eax)
 e0802ca:	00 00                	add    %al,(%eax)
 e0802cc:	00 00                	add    %al,(%eax)
 e0802ce:	00 00                	add    %al,(%eax)
 e0802d0:	00 00                	add    %al,(%eax)
 e0802d2:	00 00                	add    %al,(%eax)
 e0802d4:	00 00                	add    %al,(%eax)
 e0802d6:	00 00                	add    %al,(%eax)
 e0802d8:	00 00                	add    %al,(%eax)
 e0802da:	00 00                	add    %al,(%eax)
 e0802dc:	00 00                	add    %al,(%eax)
 e0802de:	00 00                	add    %al,(%eax)
 e0802e0:	00 00                	add    %al,(%eax)
 e0802e2:	00 00                	add    %al,(%eax)
 e0802e4:	00 00                	add    %al,(%eax)
 e0802e6:	00 00                	add    %al,(%eax)
 e0802e8:	00 00                	add    %al,(%eax)
 e0802ea:	00 00                	add    %al,(%eax)
 e0802ec:	00 00                	add    %al,(%eax)
 e0802ee:	00 00                	add    %al,(%eax)
 e0802f0:	00 00                	add    %al,(%eax)
 e0802f2:	00 00                	add    %al,(%eax)
 e0802f4:	00 00                	add    %al,(%eax)
 e0802f6:	00 00                	add    %al,(%eax)
 e0802f8:	00 00                	add    %al,(%eax)
 e0802fa:	00 00                	add    %al,(%eax)
 e0802fc:	00 00                	add    %al,(%eax)
 e0802fe:	00 00                	add    %al,(%eax)
 e080300:	00 00                	add    %al,(%eax)
 e080302:	00 00                	add    %al,(%eax)
 e080304:	00 00                	add    %al,(%eax)
 e080306:	00 00                	add    %al,(%eax)
 e080308:	00 00                	add    %al,(%eax)
 e08030a:	00 00                	add    %al,(%eax)
 e08030c:	00 00                	add    %al,(%eax)
 e08030e:	00 00                	add    %al,(%eax)
 e080310:	00 00                	add    %al,(%eax)
 e080312:	00 00                	add    %al,(%eax)
 e080314:	00 00                	add    %al,(%eax)
 e080316:	00 00                	add    %al,(%eax)
 e080318:	00 00                	add    %al,(%eax)
 e08031a:	00 00                	add    %al,(%eax)
 e08031c:	00 00                	add    %al,(%eax)
 e08031e:	00 00                	add    %al,(%eax)
 e080320:	00 00                	add    %al,(%eax)
 e080322:	00 00                	add    %al,(%eax)
 e080324:	00 00                	add    %al,(%eax)
 e080326:	00 00                	add    %al,(%eax)
 e080328:	00 00                	add    %al,(%eax)
 e08032a:	00 00                	add    %al,(%eax)
 e08032c:	00 00                	add    %al,(%eax)
 e08032e:	00 00                	add    %al,(%eax)
 e080330:	00 00                	add    %al,(%eax)
 e080332:	00 00                	add    %al,(%eax)
 e080334:	00 00                	add    %al,(%eax)
 e080336:	00 00                	add    %al,(%eax)
 e080338:	00 00                	add    %al,(%eax)
 e08033a:	00 00                	add    %al,(%eax)
 e08033c:	00 00                	add    %al,(%eax)
 e08033e:	00 00                	add    %al,(%eax)
 e080340:	00 00                	add    %al,(%eax)
 e080342:	00 00                	add    %al,(%eax)
 e080344:	00 00                	add    %al,(%eax)
 e080346:	00 00                	add    %al,(%eax)
 e080348:	00 00                	add    %al,(%eax)
 e08034a:	00 00                	add    %al,(%eax)
 e08034c:	00 00                	add    %al,(%eax)
 e08034e:	00 00                	add    %al,(%eax)
 e080350:	00 00                	add    %al,(%eax)
 e080352:	00 00                	add    %al,(%eax)
 e080354:	00 00                	add    %al,(%eax)
 e080356:	00 00                	add    %al,(%eax)
 e080358:	00 00                	add    %al,(%eax)
 e08035a:	00 00                	add    %al,(%eax)
 e08035c:	00 00                	add    %al,(%eax)
 e08035e:	00 00                	add    %al,(%eax)
 e080360:	00 00                	add    %al,(%eax)
 e080362:	00 00                	add    %al,(%eax)
 e080364:	00 00                	add    %al,(%eax)
 e080366:	00 00                	add    %al,(%eax)
 e080368:	00 00                	add    %al,(%eax)
 e08036a:	00 00                	add    %al,(%eax)
 e08036c:	00 00                	add    %al,(%eax)
 e08036e:	00 00                	add    %al,(%eax)
 e080370:	00 00                	add    %al,(%eax)
 e080372:	00 00                	add    %al,(%eax)
 e080374:	00 00                	add    %al,(%eax)
 e080376:	00 00                	add    %al,(%eax)
 e080378:	00 00                	add    %al,(%eax)
 e08037a:	00 00                	add    %al,(%eax)
 e08037c:	00 00                	add    %al,(%eax)
 e08037e:	00 00                	add    %al,(%eax)
 e080380:	00 00                	add    %al,(%eax)
 e080382:	00 00                	add    %al,(%eax)
 e080384:	00 00                	add    %al,(%eax)
 e080386:	00 00                	add    %al,(%eax)
 e080388:	00 00                	add    %al,(%eax)
 e08038a:	00 00                	add    %al,(%eax)
 e08038c:	00 00                	add    %al,(%eax)
 e08038e:	00 00                	add    %al,(%eax)
 e080390:	00 00                	add    %al,(%eax)
 e080392:	00 00                	add    %al,(%eax)
 e080394:	00 00                	add    %al,(%eax)
 e080396:	00 00                	add    %al,(%eax)
 e080398:	00 00                	add    %al,(%eax)
 e08039a:	00 00                	add    %al,(%eax)
 e08039c:	00 00                	add    %al,(%eax)
 e08039e:	00 00                	add    %al,(%eax)
 e0803a0:	00 00                	add    %al,(%eax)
 e0803a2:	00 00                	add    %al,(%eax)
 e0803a4:	00 00                	add    %al,(%eax)
 e0803a6:	00 00                	add    %al,(%eax)
 e0803a8:	00 00                	add    %al,(%eax)
 e0803aa:	00 00                	add    %al,(%eax)
 e0803ac:	00 00                	add    %al,(%eax)
 e0803ae:	00 00                	add    %al,(%eax)
 e0803b0:	00 00                	add    %al,(%eax)
 e0803b2:	00 00                	add    %al,(%eax)
 e0803b4:	00 00                	add    %al,(%eax)
 e0803b6:	00 00                	add    %al,(%eax)
 e0803b8:	00 00                	add    %al,(%eax)
 e0803ba:	00 00                	add    %al,(%eax)
 e0803bc:	00 00                	add    %al,(%eax)
 e0803be:	00 00                	add    %al,(%eax)
 e0803c0:	00 00                	add    %al,(%eax)
 e0803c2:	00 00                	add    %al,(%eax)
 e0803c4:	00 00                	add    %al,(%eax)
 e0803c6:	00 00                	add    %al,(%eax)
 e0803c8:	00 00                	add    %al,(%eax)
 e0803ca:	00 00                	add    %al,(%eax)
 e0803cc:	00 00                	add    %al,(%eax)
 e0803ce:	00 00                	add    %al,(%eax)
 e0803d0:	00 00                	add    %al,(%eax)
 e0803d2:	00 00                	add    %al,(%eax)
 e0803d4:	00 00                	add    %al,(%eax)
 e0803d6:	00 00                	add    %al,(%eax)
 e0803d8:	00 00                	add    %al,(%eax)
 e0803da:	00 00                	add    %al,(%eax)
 e0803dc:	00 00                	add    %al,(%eax)
 e0803de:	00 00                	add    %al,(%eax)
 e0803e0:	00 00                	add    %al,(%eax)
 e0803e2:	00 00                	add    %al,(%eax)
 e0803e4:	00 00                	add    %al,(%eax)
 e0803e6:	00 00                	add    %al,(%eax)
 e0803e8:	00 00                	add    %al,(%eax)
 e0803ea:	00 00                	add    %al,(%eax)
 e0803ec:	00 00                	add    %al,(%eax)
 e0803ee:	00 00                	add    %al,(%eax)
 e0803f0:	00 00                	add    %al,(%eax)
 e0803f2:	00 00                	add    %al,(%eax)
 e0803f4:	00 00                	add    %al,(%eax)
 e0803f6:	00 00                	add    %al,(%eax)
 e0803f8:	00 00                	add    %al,(%eax)
 e0803fa:	00 00                	add    %al,(%eax)
 e0803fc:	00 00                	add    %al,(%eax)
 e0803fe:	00 00                	add    %al,(%eax)
 e080400:	00 00                	add    %al,(%eax)
 e080402:	00 00                	add    %al,(%eax)
 e080404:	00 00                	add    %al,(%eax)
 e080406:	00 00                	add    %al,(%eax)
 e080408:	00 00                	add    %al,(%eax)
 e08040a:	00 00                	add    %al,(%eax)
 e08040c:	00 00                	add    %al,(%eax)
 e08040e:	00 00                	add    %al,(%eax)
 e080410:	00 00                	add    %al,(%eax)
 e080412:	00 00                	add    %al,(%eax)
 e080414:	00 00                	add    %al,(%eax)
 e080416:	00 00                	add    %al,(%eax)
 e080418:	00 00                	add    %al,(%eax)
 e08041a:	00 00                	add    %al,(%eax)
 e08041c:	00 00                	add    %al,(%eax)
 e08041e:	00 00                	add    %al,(%eax)
 e080420:	00 00                	add    %al,(%eax)
 e080422:	00 00                	add    %al,(%eax)
 e080424:	00 00                	add    %al,(%eax)
 e080426:	00 00                	add    %al,(%eax)
 e080428:	00 00                	add    %al,(%eax)
 e08042a:	00 00                	add    %al,(%eax)
 e08042c:	00 00                	add    %al,(%eax)
 e08042e:	00 00                	add    %al,(%eax)
 e080430:	00 00                	add    %al,(%eax)
 e080432:	00 00                	add    %al,(%eax)
 e080434:	00 00                	add    %al,(%eax)
 e080436:	00 00                	add    %al,(%eax)
 e080438:	00 00                	add    %al,(%eax)
 e08043a:	00 00                	add    %al,(%eax)
 e08043c:	00 00                	add    %al,(%eax)
 e08043e:	00 00                	add    %al,(%eax)
 e080440:	00 00                	add    %al,(%eax)
 e080442:	00 00                	add    %al,(%eax)
 e080444:	00 00                	add    %al,(%eax)
 e080446:	00 00                	add    %al,(%eax)
 e080448:	00 00                	add    %al,(%eax)
 e08044a:	00 00                	add    %al,(%eax)
 e08044c:	00 00                	add    %al,(%eax)
 e08044e:	00 00                	add    %al,(%eax)
 e080450:	00 00                	add    %al,(%eax)
 e080452:	00 00                	add    %al,(%eax)
 e080454:	00 00                	add    %al,(%eax)
 e080456:	00 00                	add    %al,(%eax)
 e080458:	00 00                	add    %al,(%eax)
 e08045a:	00 00                	add    %al,(%eax)
 e08045c:	00 00                	add    %al,(%eax)
 e08045e:	00 00                	add    %al,(%eax)
 e080460:	00 00                	add    %al,(%eax)
 e080462:	00 00                	add    %al,(%eax)
 e080464:	00 00                	add    %al,(%eax)
 e080466:	00 00                	add    %al,(%eax)
 e080468:	00 00                	add    %al,(%eax)
 e08046a:	00 00                	add    %al,(%eax)
 e08046c:	00 00                	add    %al,(%eax)
 e08046e:	00 00                	add    %al,(%eax)
 e080470:	00 00                	add    %al,(%eax)
 e080472:	00 00                	add    %al,(%eax)
 e080474:	00 00                	add    %al,(%eax)
 e080476:	00 00                	add    %al,(%eax)
 e080478:	00 00                	add    %al,(%eax)
 e08047a:	00 00                	add    %al,(%eax)
 e08047c:	00 00                	add    %al,(%eax)
 e08047e:	00 00                	add    %al,(%eax)
 e080480:	00 00                	add    %al,(%eax)
 e080482:	00 00                	add    %al,(%eax)
 e080484:	00 00                	add    %al,(%eax)
 e080486:	00 00                	add    %al,(%eax)
 e080488:	00 00                	add    %al,(%eax)
 e08048a:	00 00                	add    %al,(%eax)
 e08048c:	00 00                	add    %al,(%eax)
 e08048e:	00 00                	add    %al,(%eax)
 e080490:	00 00                	add    %al,(%eax)
 e080492:	00 00                	add    %al,(%eax)
 e080494:	00 00                	add    %al,(%eax)
 e080496:	00 00                	add    %al,(%eax)
 e080498:	00 00                	add    %al,(%eax)
 e08049a:	00 00                	add    %al,(%eax)
 e08049c:	00 00                	add    %al,(%eax)
 e08049e:	00 00                	add    %al,(%eax)
 e0804a0:	00 00                	add    %al,(%eax)
 e0804a2:	00 00                	add    %al,(%eax)
 e0804a4:	00 00                	add    %al,(%eax)
 e0804a6:	00 00                	add    %al,(%eax)
 e0804a8:	00 00                	add    %al,(%eax)
 e0804aa:	00 00                	add    %al,(%eax)
 e0804ac:	00 00                	add    %al,(%eax)
 e0804ae:	00 00                	add    %al,(%eax)
 e0804b0:	00 00                	add    %al,(%eax)
 e0804b2:	00 00                	add    %al,(%eax)
 e0804b4:	00 00                	add    %al,(%eax)
 e0804b6:	00 00                	add    %al,(%eax)
 e0804b8:	00 00                	add    %al,(%eax)
 e0804ba:	00 00                	add    %al,(%eax)
 e0804bc:	00 00                	add    %al,(%eax)
 e0804be:	00 00                	add    %al,(%eax)
 e0804c0:	00 00                	add    %al,(%eax)
 e0804c2:	00 00                	add    %al,(%eax)
 e0804c4:	00 00                	add    %al,(%eax)
 e0804c6:	00 00                	add    %al,(%eax)
 e0804c8:	00 00                	add    %al,(%eax)
 e0804ca:	00 00                	add    %al,(%eax)
 e0804cc:	00 00                	add    %al,(%eax)
 e0804ce:	00 00                	add    %al,(%eax)
 e0804d0:	00 00                	add    %al,(%eax)
 e0804d2:	00 00                	add    %al,(%eax)
 e0804d4:	00 00                	add    %al,(%eax)
 e0804d6:	00 00                	add    %al,(%eax)
 e0804d8:	00 00                	add    %al,(%eax)
 e0804da:	00 00                	add    %al,(%eax)
 e0804dc:	00 00                	add    %al,(%eax)
 e0804de:	00 00                	add    %al,(%eax)
 e0804e0:	00 00                	add    %al,(%eax)
 e0804e2:	00 00                	add    %al,(%eax)
 e0804e4:	00 00                	add    %al,(%eax)
 e0804e6:	00 00                	add    %al,(%eax)
 e0804e8:	00 00                	add    %al,(%eax)
 e0804ea:	00 00                	add    %al,(%eax)
 e0804ec:	00 00                	add    %al,(%eax)
 e0804ee:	00 00                	add    %al,(%eax)
 e0804f0:	00 00                	add    %al,(%eax)
 e0804f2:	00 00                	add    %al,(%eax)
 e0804f4:	00 00                	add    %al,(%eax)
 e0804f6:	00 00                	add    %al,(%eax)
 e0804f8:	00 00                	add    %al,(%eax)
 e0804fa:	00 00                	add    %al,(%eax)
 e0804fc:	00 00                	add    %al,(%eax)
 e0804fe:	00 00                	add    %al,(%eax)
 e080500:	00 00                	add    %al,(%eax)
 e080502:	00 00                	add    %al,(%eax)
 e080504:	00 00                	add    %al,(%eax)
 e080506:	00 00                	add    %al,(%eax)
 e080508:	00 00                	add    %al,(%eax)
 e08050a:	00 00                	add    %al,(%eax)
 e08050c:	00 00                	add    %al,(%eax)
 e08050e:	00 00                	add    %al,(%eax)
 e080510:	00 00                	add    %al,(%eax)
 e080512:	00 00                	add    %al,(%eax)
 e080514:	00 00                	add    %al,(%eax)
 e080516:	00 00                	add    %al,(%eax)
 e080518:	00 00                	add    %al,(%eax)
 e08051a:	00 00                	add    %al,(%eax)
 e08051c:	00 00                	add    %al,(%eax)
 e08051e:	00 00                	add    %al,(%eax)
 e080520:	00 00                	add    %al,(%eax)
 e080522:	00 00                	add    %al,(%eax)
 e080524:	00 00                	add    %al,(%eax)
 e080526:	00 00                	add    %al,(%eax)
 e080528:	00 00                	add    %al,(%eax)
 e08052a:	00 00                	add    %al,(%eax)
 e08052c:	00 00                	add    %al,(%eax)
 e08052e:	00 00                	add    %al,(%eax)
 e080530:	00 00                	add    %al,(%eax)
 e080532:	00 00                	add    %al,(%eax)
 e080534:	00 00                	add    %al,(%eax)
 e080536:	00 00                	add    %al,(%eax)
 e080538:	00 00                	add    %al,(%eax)
 e08053a:	00 00                	add    %al,(%eax)
 e08053c:	00 00                	add    %al,(%eax)
 e08053e:	00 00                	add    %al,(%eax)
 e080540:	00 00                	add    %al,(%eax)
 e080542:	00 00                	add    %al,(%eax)
 e080544:	00 00                	add    %al,(%eax)
 e080546:	00 00                	add    %al,(%eax)
 e080548:	00 00                	add    %al,(%eax)
 e08054a:	00 00                	add    %al,(%eax)
 e08054c:	00 00                	add    %al,(%eax)
 e08054e:	00 00                	add    %al,(%eax)
 e080550:	00 00                	add    %al,(%eax)
 e080552:	00 00                	add    %al,(%eax)
 e080554:	00 00                	add    %al,(%eax)
 e080556:	00 00                	add    %al,(%eax)
 e080558:	00 00                	add    %al,(%eax)
 e08055a:	00 00                	add    %al,(%eax)
 e08055c:	00 00                	add    %al,(%eax)
 e08055e:	00 00                	add    %al,(%eax)
 e080560:	00 00                	add    %al,(%eax)
 e080562:	00 00                	add    %al,(%eax)
 e080564:	00 00                	add    %al,(%eax)
 e080566:	00 00                	add    %al,(%eax)
 e080568:	00 00                	add    %al,(%eax)
 e08056a:	00 00                	add    %al,(%eax)
 e08056c:	00 00                	add    %al,(%eax)
 e08056e:	00 00                	add    %al,(%eax)
 e080570:	00 00                	add    %al,(%eax)
 e080572:	00 00                	add    %al,(%eax)
 e080574:	00 00                	add    %al,(%eax)
 e080576:	00 00                	add    %al,(%eax)
 e080578:	00 00                	add    %al,(%eax)
 e08057a:	00 00                	add    %al,(%eax)
 e08057c:	00 00                	add    %al,(%eax)
 e08057e:	00 00                	add    %al,(%eax)
 e080580:	00 00                	add    %al,(%eax)
 e080582:	00 00                	add    %al,(%eax)
 e080584:	00 00                	add    %al,(%eax)
 e080586:	00 00                	add    %al,(%eax)
 e080588:	00 00                	add    %al,(%eax)
 e08058a:	00 00                	add    %al,(%eax)
 e08058c:	00 00                	add    %al,(%eax)
 e08058e:	00 00                	add    %al,(%eax)
 e080590:	00 00                	add    %al,(%eax)
 e080592:	00 00                	add    %al,(%eax)
 e080594:	00 00                	add    %al,(%eax)
 e080596:	00 00                	add    %al,(%eax)
 e080598:	00 00                	add    %al,(%eax)
 e08059a:	00 00                	add    %al,(%eax)
 e08059c:	00 00                	add    %al,(%eax)
 e08059e:	00 00                	add    %al,(%eax)
 e0805a0:	00 00                	add    %al,(%eax)
 e0805a2:	00 00                	add    %al,(%eax)
 e0805a4:	00 00                	add    %al,(%eax)
 e0805a6:	00 00                	add    %al,(%eax)
 e0805a8:	00 00                	add    %al,(%eax)
 e0805aa:	00 00                	add    %al,(%eax)
 e0805ac:	00 00                	add    %al,(%eax)
 e0805ae:	00 00                	add    %al,(%eax)
 e0805b0:	00 00                	add    %al,(%eax)
 e0805b2:	00 00                	add    %al,(%eax)
 e0805b4:	00 00                	add    %al,(%eax)
 e0805b6:	00 00                	add    %al,(%eax)
 e0805b8:	00 00                	add    %al,(%eax)
 e0805ba:	00 00                	add    %al,(%eax)
 e0805bc:	00 00                	add    %al,(%eax)
 e0805be:	00 00                	add    %al,(%eax)
 e0805c0:	00 00                	add    %al,(%eax)
 e0805c2:	00 00                	add    %al,(%eax)
 e0805c4:	00 00                	add    %al,(%eax)
 e0805c6:	00 00                	add    %al,(%eax)
 e0805c8:	00 00                	add    %al,(%eax)
 e0805ca:	00 00                	add    %al,(%eax)
 e0805cc:	00 00                	add    %al,(%eax)
 e0805ce:	00 00                	add    %al,(%eax)
 e0805d0:	00 00                	add    %al,(%eax)
 e0805d2:	00 00                	add    %al,(%eax)
 e0805d4:	00 00                	add    %al,(%eax)
 e0805d6:	00 00                	add    %al,(%eax)
 e0805d8:	00 00                	add    %al,(%eax)
 e0805da:	00 00                	add    %al,(%eax)
 e0805dc:	00 00                	add    %al,(%eax)
 e0805de:	00 00                	add    %al,(%eax)
 e0805e0:	00 00                	add    %al,(%eax)
 e0805e2:	00 00                	add    %al,(%eax)
 e0805e4:	00 00                	add    %al,(%eax)
 e0805e6:	00 00                	add    %al,(%eax)
 e0805e8:	00 00                	add    %al,(%eax)
 e0805ea:	00 00                	add    %al,(%eax)
 e0805ec:	00 00                	add    %al,(%eax)
 e0805ee:	00 00                	add    %al,(%eax)
 e0805f0:	00 00                	add    %al,(%eax)
 e0805f2:	00 00                	add    %al,(%eax)
 e0805f4:	00 00                	add    %al,(%eax)
 e0805f6:	00 00                	add    %al,(%eax)
 e0805f8:	00 00                	add    %al,(%eax)
 e0805fa:	00 00                	add    %al,(%eax)
 e0805fc:	00 00                	add    %al,(%eax)
 e0805fe:	00 00                	add    %al,(%eax)
 e080600:	00 00                	add    %al,(%eax)
 e080602:	00 00                	add    %al,(%eax)
 e080604:	00 00                	add    %al,(%eax)
 e080606:	00 00                	add    %al,(%eax)
 e080608:	00 00                	add    %al,(%eax)
 e08060a:	00 00                	add    %al,(%eax)
 e08060c:	00 00                	add    %al,(%eax)
 e08060e:	00 00                	add    %al,(%eax)
 e080610:	00 00                	add    %al,(%eax)
 e080612:	00 00                	add    %al,(%eax)
 e080614:	00 00                	add    %al,(%eax)
 e080616:	00 00                	add    %al,(%eax)
 e080618:	00 00                	add    %al,(%eax)
 e08061a:	00 00                	add    %al,(%eax)
 e08061c:	00 00                	add    %al,(%eax)
 e08061e:	00 00                	add    %al,(%eax)
 e080620:	00 00                	add    %al,(%eax)
 e080622:	00 00                	add    %al,(%eax)
 e080624:	00 00                	add    %al,(%eax)
 e080626:	00 00                	add    %al,(%eax)
 e080628:	00 00                	add    %al,(%eax)
 e08062a:	00 00                	add    %al,(%eax)
 e08062c:	00 00                	add    %al,(%eax)
 e08062e:	00 00                	add    %al,(%eax)
 e080630:	00 00                	add    %al,(%eax)
 e080632:	00 00                	add    %al,(%eax)
 e080634:	00 00                	add    %al,(%eax)
 e080636:	00 00                	add    %al,(%eax)
 e080638:	00 00                	add    %al,(%eax)
 e08063a:	00 00                	add    %al,(%eax)
 e08063c:	00 00                	add    %al,(%eax)
 e08063e:	00 00                	add    %al,(%eax)
 e080640:	00 00                	add    %al,(%eax)
 e080642:	00 00                	add    %al,(%eax)
 e080644:	00 00                	add    %al,(%eax)
 e080646:	00 00                	add    %al,(%eax)
 e080648:	00 00                	add    %al,(%eax)
 e08064a:	00 00                	add    %al,(%eax)
 e08064c:	00 00                	add    %al,(%eax)
 e08064e:	00 00                	add    %al,(%eax)
 e080650:	00 00                	add    %al,(%eax)
 e080652:	00 00                	add    %al,(%eax)
 e080654:	00 00                	add    %al,(%eax)
 e080656:	00 00                	add    %al,(%eax)
 e080658:	00 00                	add    %al,(%eax)
 e08065a:	00 00                	add    %al,(%eax)
 e08065c:	00 00                	add    %al,(%eax)
 e08065e:	00 00                	add    %al,(%eax)
 e080660:	00 00                	add    %al,(%eax)
 e080662:	00 00                	add    %al,(%eax)
 e080664:	00 00                	add    %al,(%eax)
 e080666:	00 00                	add    %al,(%eax)
 e080668:	00 00                	add    %al,(%eax)
 e08066a:	00 00                	add    %al,(%eax)
 e08066c:	00 00                	add    %al,(%eax)
 e08066e:	00 00                	add    %al,(%eax)
 e080670:	00 00                	add    %al,(%eax)
 e080672:	00 00                	add    %al,(%eax)
 e080674:	00 00                	add    %al,(%eax)
 e080676:	00 00                	add    %al,(%eax)
 e080678:	00 00                	add    %al,(%eax)
 e08067a:	00 00                	add    %al,(%eax)
 e08067c:	00 00                	add    %al,(%eax)
 e08067e:	00 00                	add    %al,(%eax)
 e080680:	00 00                	add    %al,(%eax)
 e080682:	00 00                	add    %al,(%eax)
 e080684:	00 00                	add    %al,(%eax)
 e080686:	00 00                	add    %al,(%eax)
 e080688:	00 00                	add    %al,(%eax)
 e08068a:	00 00                	add    %al,(%eax)
 e08068c:	00 00                	add    %al,(%eax)
 e08068e:	00 00                	add    %al,(%eax)
 e080690:	00 00                	add    %al,(%eax)
 e080692:	00 00                	add    %al,(%eax)
 e080694:	00 00                	add    %al,(%eax)
 e080696:	00 00                	add    %al,(%eax)
 e080698:	00 00                	add    %al,(%eax)
 e08069a:	00 00                	add    %al,(%eax)
 e08069c:	00 00                	add    %al,(%eax)
 e08069e:	00 00                	add    %al,(%eax)
 e0806a0:	00 00                	add    %al,(%eax)
 e0806a2:	00 00                	add    %al,(%eax)
 e0806a4:	00 00                	add    %al,(%eax)
 e0806a6:	00 00                	add    %al,(%eax)
 e0806a8:	00 00                	add    %al,(%eax)
 e0806aa:	00 00                	add    %al,(%eax)
 e0806ac:	00 00                	add    %al,(%eax)
 e0806ae:	00 00                	add    %al,(%eax)
 e0806b0:	00 00                	add    %al,(%eax)
 e0806b2:	00 00                	add    %al,(%eax)
 e0806b4:	00 00                	add    %al,(%eax)
 e0806b6:	00 00                	add    %al,(%eax)
 e0806b8:	00 00                	add    %al,(%eax)
 e0806ba:	00 00                	add    %al,(%eax)
 e0806bc:	00 00                	add    %al,(%eax)
 e0806be:	00 00                	add    %al,(%eax)
 e0806c0:	00 00                	add    %al,(%eax)
 e0806c2:	00 00                	add    %al,(%eax)
 e0806c4:	00 00                	add    %al,(%eax)
 e0806c6:	00 00                	add    %al,(%eax)
 e0806c8:	00 00                	add    %al,(%eax)
 e0806ca:	00 00                	add    %al,(%eax)
 e0806cc:	00 00                	add    %al,(%eax)
 e0806ce:	00 00                	add    %al,(%eax)
 e0806d0:	00 00                	add    %al,(%eax)
 e0806d2:	00 00                	add    %al,(%eax)
 e0806d4:	00 00                	add    %al,(%eax)
 e0806d6:	00 00                	add    %al,(%eax)
 e0806d8:	00 00                	add    %al,(%eax)
 e0806da:	00 00                	add    %al,(%eax)
 e0806dc:	00 00                	add    %al,(%eax)
 e0806de:	00 00                	add    %al,(%eax)
 e0806e0:	00 00                	add    %al,(%eax)
 e0806e2:	00 00                	add    %al,(%eax)
 e0806e4:	00 00                	add    %al,(%eax)
 e0806e6:	00 00                	add    %al,(%eax)
 e0806e8:	00 00                	add    %al,(%eax)
 e0806ea:	00 00                	add    %al,(%eax)
 e0806ec:	00 00                	add    %al,(%eax)
 e0806ee:	00 00                	add    %al,(%eax)
 e0806f0:	00 00                	add    %al,(%eax)
 e0806f2:	00 00                	add    %al,(%eax)
 e0806f4:	00 00                	add    %al,(%eax)
 e0806f6:	00 00                	add    %al,(%eax)
 e0806f8:	00 00                	add    %al,(%eax)
 e0806fa:	00 00                	add    %al,(%eax)
 e0806fc:	00 00                	add    %al,(%eax)
 e0806fe:	00 00                	add    %al,(%eax)
 e080700:	00 00                	add    %al,(%eax)
 e080702:	00 00                	add    %al,(%eax)
 e080704:	00 00                	add    %al,(%eax)
 e080706:	00 00                	add    %al,(%eax)
 e080708:	00 00                	add    %al,(%eax)
 e08070a:	00 00                	add    %al,(%eax)
 e08070c:	00 00                	add    %al,(%eax)
 e08070e:	00 00                	add    %al,(%eax)
 e080710:	00 00                	add    %al,(%eax)
 e080712:	00 00                	add    %al,(%eax)
 e080714:	00 00                	add    %al,(%eax)
 e080716:	00 00                	add    %al,(%eax)
 e080718:	00 00                	add    %al,(%eax)
 e08071a:	00 00                	add    %al,(%eax)
 e08071c:	00 00                	add    %al,(%eax)
 e08071e:	00 00                	add    %al,(%eax)
 e080720:	00 00                	add    %al,(%eax)
 e080722:	00 00                	add    %al,(%eax)
 e080724:	00 00                	add    %al,(%eax)
 e080726:	00 00                	add    %al,(%eax)
 e080728:	00 00                	add    %al,(%eax)
 e08072a:	00 00                	add    %al,(%eax)
 e08072c:	00 00                	add    %al,(%eax)
 e08072e:	00 00                	add    %al,(%eax)
 e080730:	00 00                	add    %al,(%eax)
 e080732:	00 00                	add    %al,(%eax)
 e080734:	00 00                	add    %al,(%eax)
 e080736:	00 00                	add    %al,(%eax)
 e080738:	00 00                	add    %al,(%eax)
 e08073a:	00 00                	add    %al,(%eax)
 e08073c:	00 00                	add    %al,(%eax)
 e08073e:	00 00                	add    %al,(%eax)
 e080740:	00 00                	add    %al,(%eax)
 e080742:	00 00                	add    %al,(%eax)
 e080744:	00 00                	add    %al,(%eax)
 e080746:	00 00                	add    %al,(%eax)
 e080748:	00 00                	add    %al,(%eax)
 e08074a:	00 00                	add    %al,(%eax)
 e08074c:	00 00                	add    %al,(%eax)
 e08074e:	00 00                	add    %al,(%eax)
 e080750:	00 00                	add    %al,(%eax)
 e080752:	00 00                	add    %al,(%eax)
 e080754:	00 00                	add    %al,(%eax)
 e080756:	00 00                	add    %al,(%eax)
 e080758:	00 00                	add    %al,(%eax)
 e08075a:	00 00                	add    %al,(%eax)
 e08075c:	00 00                	add    %al,(%eax)
 e08075e:	00 00                	add    %al,(%eax)
 e080760:	00 00                	add    %al,(%eax)
 e080762:	00 00                	add    %al,(%eax)
 e080764:	00 00                	add    %al,(%eax)
 e080766:	00 00                	add    %al,(%eax)
 e080768:	00 00                	add    %al,(%eax)
 e08076a:	00 00                	add    %al,(%eax)
 e08076c:	00 00                	add    %al,(%eax)
 e08076e:	00 00                	add    %al,(%eax)
 e080770:	00 00                	add    %al,(%eax)
 e080772:	00 00                	add    %al,(%eax)
 e080774:	00 00                	add    %al,(%eax)
 e080776:	00 00                	add    %al,(%eax)
 e080778:	00 00                	add    %al,(%eax)
 e08077a:	00 00                	add    %al,(%eax)
 e08077c:	00 00                	add    %al,(%eax)
 e08077e:	00 00                	add    %al,(%eax)
 e080780:	00 00                	add    %al,(%eax)
 e080782:	00 00                	add    %al,(%eax)
 e080784:	00 00                	add    %al,(%eax)
 e080786:	00 00                	add    %al,(%eax)
 e080788:	00 00                	add    %al,(%eax)
 e08078a:	00 00                	add    %al,(%eax)
 e08078c:	00 00                	add    %al,(%eax)
 e08078e:	00 00                	add    %al,(%eax)
 e080790:	00 00                	add    %al,(%eax)
 e080792:	00 00                	add    %al,(%eax)
 e080794:	00 00                	add    %al,(%eax)
 e080796:	00 00                	add    %al,(%eax)
 e080798:	00 00                	add    %al,(%eax)
 e08079a:	00 00                	add    %al,(%eax)
 e08079c:	00 00                	add    %al,(%eax)
 e08079e:	00 00                	add    %al,(%eax)
 e0807a0:	00 00                	add    %al,(%eax)
 e0807a2:	00 00                	add    %al,(%eax)
 e0807a4:	00 00                	add    %al,(%eax)
 e0807a6:	00 00                	add    %al,(%eax)
 e0807a8:	00 00                	add    %al,(%eax)
 e0807aa:	00 00                	add    %al,(%eax)
 e0807ac:	00 00                	add    %al,(%eax)
 e0807ae:	00 00                	add    %al,(%eax)
 e0807b0:	00 00                	add    %al,(%eax)
 e0807b2:	00 00                	add    %al,(%eax)
 e0807b4:	00 00                	add    %al,(%eax)
 e0807b6:	00 00                	add    %al,(%eax)
 e0807b8:	00 00                	add    %al,(%eax)
 e0807ba:	00 00                	add    %al,(%eax)
 e0807bc:	00 00                	add    %al,(%eax)
 e0807be:	00 00                	add    %al,(%eax)
 e0807c0:	00 00                	add    %al,(%eax)
 e0807c2:	00 00                	add    %al,(%eax)
 e0807c4:	00 00                	add    %al,(%eax)
 e0807c6:	00 00                	add    %al,(%eax)
 e0807c8:	00 00                	add    %al,(%eax)
 e0807ca:	00 00                	add    %al,(%eax)
 e0807cc:	00 00                	add    %al,(%eax)
 e0807ce:	00 00                	add    %al,(%eax)
 e0807d0:	00 00                	add    %al,(%eax)
 e0807d2:	00 00                	add    %al,(%eax)
 e0807d4:	00 00                	add    %al,(%eax)
 e0807d6:	00 00                	add    %al,(%eax)
 e0807d8:	00 00                	add    %al,(%eax)
 e0807da:	00 00                	add    %al,(%eax)
 e0807dc:	00 00                	add    %al,(%eax)
 e0807de:	00 00                	add    %al,(%eax)
 e0807e0:	00 00                	add    %al,(%eax)
 e0807e2:	00 00                	add    %al,(%eax)
 e0807e4:	00 00                	add    %al,(%eax)
 e0807e6:	00 00                	add    %al,(%eax)
 e0807e8:	00 00                	add    %al,(%eax)
 e0807ea:	00 00                	add    %al,(%eax)
 e0807ec:	00 00                	add    %al,(%eax)
 e0807ee:	00 00                	add    %al,(%eax)
 e0807f0:	00 00                	add    %al,(%eax)
 e0807f2:	00 00                	add    %al,(%eax)
 e0807f4:	00 00                	add    %al,(%eax)
 e0807f6:	00 00                	add    %al,(%eax)
 e0807f8:	00 00                	add    %al,(%eax)
 e0807fa:	00 00                	add    %al,(%eax)
 e0807fc:	00 00                	add    %al,(%eax)
 e0807fe:	00 00                	add    %al,(%eax)
 e080800:	00 00                	add    %al,(%eax)
 e080802:	00 00                	add    %al,(%eax)
 e080804:	00 00                	add    %al,(%eax)
 e080806:	00 00                	add    %al,(%eax)
 e080808:	00 00                	add    %al,(%eax)
 e08080a:	00 00                	add    %al,(%eax)
 e08080c:	00 00                	add    %al,(%eax)
 e08080e:	00 00                	add    %al,(%eax)
 e080810:	00 00                	add    %al,(%eax)
 e080812:	00 00                	add    %al,(%eax)
 e080814:	00 00                	add    %al,(%eax)
 e080816:	00 00                	add    %al,(%eax)
 e080818:	00 00                	add    %al,(%eax)
 e08081a:	00 00                	add    %al,(%eax)
 e08081c:	00 00                	add    %al,(%eax)
 e08081e:	00 00                	add    %al,(%eax)
 e080820:	00 00                	add    %al,(%eax)
 e080822:	00 00                	add    %al,(%eax)
 e080824:	00 00                	add    %al,(%eax)
 e080826:	00 00                	add    %al,(%eax)
 e080828:	00 00                	add    %al,(%eax)
 e08082a:	00 00                	add    %al,(%eax)
 e08082c:	00 00                	add    %al,(%eax)
 e08082e:	00 00                	add    %al,(%eax)
 e080830:	00 00                	add    %al,(%eax)
 e080832:	00 00                	add    %al,(%eax)
 e080834:	00 00                	add    %al,(%eax)
 e080836:	00 00                	add    %al,(%eax)
 e080838:	00 00                	add    %al,(%eax)
 e08083a:	00 00                	add    %al,(%eax)
 e08083c:	00 00                	add    %al,(%eax)
 e08083e:	00 00                	add    %al,(%eax)
 e080840:	00 00                	add    %al,(%eax)
 e080842:	00 00                	add    %al,(%eax)
 e080844:	00 00                	add    %al,(%eax)
 e080846:	00 00                	add    %al,(%eax)
 e080848:	00 00                	add    %al,(%eax)
 e08084a:	00 00                	add    %al,(%eax)
 e08084c:	00 00                	add    %al,(%eax)
 e08084e:	00 00                	add    %al,(%eax)
 e080850:	00 00                	add    %al,(%eax)
 e080852:	00 00                	add    %al,(%eax)
 e080854:	00 00                	add    %al,(%eax)
 e080856:	00 00                	add    %al,(%eax)
 e080858:	00 00                	add    %al,(%eax)
 e08085a:	00 00                	add    %al,(%eax)
 e08085c:	00 00                	add    %al,(%eax)
 e08085e:	00 00                	add    %al,(%eax)
 e080860:	00 00                	add    %al,(%eax)
 e080862:	00 00                	add    %al,(%eax)
 e080864:	00 00                	add    %al,(%eax)
 e080866:	00 00                	add    %al,(%eax)
 e080868:	00 00                	add    %al,(%eax)
 e08086a:	00 00                	add    %al,(%eax)
 e08086c:	00 00                	add    %al,(%eax)
 e08086e:	00 00                	add    %al,(%eax)
 e080870:	00 00                	add    %al,(%eax)
 e080872:	00 00                	add    %al,(%eax)
 e080874:	00 00                	add    %al,(%eax)
 e080876:	00 00                	add    %al,(%eax)
 e080878:	00 00                	add    %al,(%eax)
 e08087a:	00 00                	add    %al,(%eax)
 e08087c:	00 00                	add    %al,(%eax)
 e08087e:	00 00                	add    %al,(%eax)
 e080880:	00 00                	add    %al,(%eax)
 e080882:	00 00                	add    %al,(%eax)
 e080884:	00 00                	add    %al,(%eax)
 e080886:	00 00                	add    %al,(%eax)
 e080888:	00 00                	add    %al,(%eax)
 e08088a:	00 00                	add    %al,(%eax)
 e08088c:	00 00                	add    %al,(%eax)
 e08088e:	00 00                	add    %al,(%eax)
 e080890:	00 00                	add    %al,(%eax)
 e080892:	00 00                	add    %al,(%eax)
 e080894:	00 00                	add    %al,(%eax)
 e080896:	00 00                	add    %al,(%eax)
 e080898:	00 00                	add    %al,(%eax)
 e08089a:	00 00                	add    %al,(%eax)
 e08089c:	00 00                	add    %al,(%eax)
 e08089e:	00 00                	add    %al,(%eax)
 e0808a0:	00 00                	add    %al,(%eax)
 e0808a2:	00 00                	add    %al,(%eax)
 e0808a4:	00 00                	add    %al,(%eax)
 e0808a6:	00 00                	add    %al,(%eax)
 e0808a8:	00 00                	add    %al,(%eax)
 e0808aa:	00 00                	add    %al,(%eax)
 e0808ac:	00 00                	add    %al,(%eax)
 e0808ae:	00 00                	add    %al,(%eax)
 e0808b0:	00 00                	add    %al,(%eax)
 e0808b2:	00 00                	add    %al,(%eax)
 e0808b4:	00 00                	add    %al,(%eax)
 e0808b6:	00 00                	add    %al,(%eax)
 e0808b8:	00 00                	add    %al,(%eax)
 e0808ba:	00 00                	add    %al,(%eax)
 e0808bc:	00 00                	add    %al,(%eax)
 e0808be:	00 00                	add    %al,(%eax)
 e0808c0:	00 00                	add    %al,(%eax)
 e0808c2:	00 00                	add    %al,(%eax)
 e0808c4:	00 00                	add    %al,(%eax)
 e0808c6:	00 00                	add    %al,(%eax)
 e0808c8:	00 00                	add    %al,(%eax)
 e0808ca:	00 00                	add    %al,(%eax)
 e0808cc:	00 00                	add    %al,(%eax)
 e0808ce:	00 00                	add    %al,(%eax)
 e0808d0:	00 00                	add    %al,(%eax)
 e0808d2:	00 00                	add    %al,(%eax)
 e0808d4:	00 00                	add    %al,(%eax)
 e0808d6:	00 00                	add    %al,(%eax)
 e0808d8:	00 00                	add    %al,(%eax)
 e0808da:	00 00                	add    %al,(%eax)
 e0808dc:	00 00                	add    %al,(%eax)
 e0808de:	00 00                	add    %al,(%eax)
 e0808e0:	00 00                	add    %al,(%eax)
 e0808e2:	00 00                	add    %al,(%eax)
 e0808e4:	00 00                	add    %al,(%eax)
 e0808e6:	00 00                	add    %al,(%eax)
 e0808e8:	00 00                	add    %al,(%eax)
 e0808ea:	00 00                	add    %al,(%eax)
 e0808ec:	00 00                	add    %al,(%eax)
 e0808ee:	00 00                	add    %al,(%eax)
 e0808f0:	00 00                	add    %al,(%eax)
 e0808f2:	00 00                	add    %al,(%eax)
 e0808f4:	00 00                	add    %al,(%eax)
 e0808f6:	00 00                	add    %al,(%eax)
 e0808f8:	00 00                	add    %al,(%eax)
 e0808fa:	00 00                	add    %al,(%eax)
 e0808fc:	00 00                	add    %al,(%eax)
 e0808fe:	00 00                	add    %al,(%eax)
 e080900:	00 00                	add    %al,(%eax)
 e080902:	00 00                	add    %al,(%eax)
 e080904:	00 00                	add    %al,(%eax)
 e080906:	00 00                	add    %al,(%eax)
 e080908:	00 00                	add    %al,(%eax)
 e08090a:	00 00                	add    %al,(%eax)
 e08090c:	00 00                	add    %al,(%eax)
 e08090e:	00 00                	add    %al,(%eax)
 e080910:	00 00                	add    %al,(%eax)
 e080912:	00 00                	add    %al,(%eax)
 e080914:	00 00                	add    %al,(%eax)
 e080916:	00 00                	add    %al,(%eax)
 e080918:	00 00                	add    %al,(%eax)
 e08091a:	00 00                	add    %al,(%eax)
 e08091c:	00 00                	add    %al,(%eax)
 e08091e:	00 00                	add    %al,(%eax)
 e080920:	00 00                	add    %al,(%eax)
 e080922:	00 00                	add    %al,(%eax)
 e080924:	00 00                	add    %al,(%eax)
 e080926:	00 00                	add    %al,(%eax)
 e080928:	00 00                	add    %al,(%eax)
 e08092a:	00 00                	add    %al,(%eax)
 e08092c:	00 00                	add    %al,(%eax)
 e08092e:	00 00                	add    %al,(%eax)
 e080930:	00 00                	add    %al,(%eax)
 e080932:	00 00                	add    %al,(%eax)
 e080934:	00 00                	add    %al,(%eax)
 e080936:	00 00                	add    %al,(%eax)
 e080938:	00 00                	add    %al,(%eax)
 e08093a:	00 00                	add    %al,(%eax)
 e08093c:	00 00                	add    %al,(%eax)
 e08093e:	00 00                	add    %al,(%eax)
 e080940:	00 00                	add    %al,(%eax)
 e080942:	00 00                	add    %al,(%eax)
 e080944:	00 00                	add    %al,(%eax)
 e080946:	00 00                	add    %al,(%eax)
 e080948:	00 00                	add    %al,(%eax)
 e08094a:	00 00                	add    %al,(%eax)
 e08094c:	00 00                	add    %al,(%eax)
 e08094e:	00 00                	add    %al,(%eax)
 e080950:	00 00                	add    %al,(%eax)
 e080952:	00 00                	add    %al,(%eax)
 e080954:	00 00                	add    %al,(%eax)
 e080956:	00 00                	add    %al,(%eax)
 e080958:	00 00                	add    %al,(%eax)
 e08095a:	00 00                	add    %al,(%eax)
 e08095c:	00 00                	add    %al,(%eax)
 e08095e:	00 00                	add    %al,(%eax)
 e080960:	00 00                	add    %al,(%eax)
 e080962:	00 00                	add    %al,(%eax)
 e080964:	00 00                	add    %al,(%eax)
 e080966:	00 00                	add    %al,(%eax)
 e080968:	00 00                	add    %al,(%eax)
 e08096a:	00 00                	add    %al,(%eax)
 e08096c:	00 00                	add    %al,(%eax)
 e08096e:	00 00                	add    %al,(%eax)
 e080970:	00 00                	add    %al,(%eax)
 e080972:	00 00                	add    %al,(%eax)
 e080974:	00 00                	add    %al,(%eax)
 e080976:	00 00                	add    %al,(%eax)
 e080978:	00 00                	add    %al,(%eax)
 e08097a:	00 00                	add    %al,(%eax)
 e08097c:	00 00                	add    %al,(%eax)
 e08097e:	00 00                	add    %al,(%eax)
 e080980:	00 00                	add    %al,(%eax)
 e080982:	00 00                	add    %al,(%eax)
 e080984:	00 00                	add    %al,(%eax)
 e080986:	00 00                	add    %al,(%eax)
 e080988:	00 00                	add    %al,(%eax)
 e08098a:	00 00                	add    %al,(%eax)
 e08098c:	00 00                	add    %al,(%eax)
 e08098e:	00 00                	add    %al,(%eax)
 e080990:	00 00                	add    %al,(%eax)
 e080992:	00 00                	add    %al,(%eax)
 e080994:	00 00                	add    %al,(%eax)
 e080996:	00 00                	add    %al,(%eax)
 e080998:	00 00                	add    %al,(%eax)
 e08099a:	00 00                	add    %al,(%eax)
 e08099c:	00 00                	add    %al,(%eax)
 e08099e:	00 00                	add    %al,(%eax)
 e0809a0:	00 00                	add    %al,(%eax)
 e0809a2:	00 00                	add    %al,(%eax)
 e0809a4:	00 00                	add    %al,(%eax)
 e0809a6:	00 00                	add    %al,(%eax)
 e0809a8:	00 00                	add    %al,(%eax)
 e0809aa:	00 00                	add    %al,(%eax)
 e0809ac:	00 00                	add    %al,(%eax)
 e0809ae:	00 00                	add    %al,(%eax)
 e0809b0:	00 00                	add    %al,(%eax)
 e0809b2:	00 00                	add    %al,(%eax)
 e0809b4:	00 00                	add    %al,(%eax)
 e0809b6:	00 00                	add    %al,(%eax)
 e0809b8:	00 00                	add    %al,(%eax)
 e0809ba:	00 00                	add    %al,(%eax)
 e0809bc:	00 00                	add    %al,(%eax)
 e0809be:	00 00                	add    %al,(%eax)
 e0809c0:	00 00                	add    %al,(%eax)
 e0809c2:	00 00                	add    %al,(%eax)
 e0809c4:	00 00                	add    %al,(%eax)
 e0809c6:	00 00                	add    %al,(%eax)
 e0809c8:	00 00                	add    %al,(%eax)
 e0809ca:	00 00                	add    %al,(%eax)
 e0809cc:	00 00                	add    %al,(%eax)
 e0809ce:	00 00                	add    %al,(%eax)
 e0809d0:	00 00                	add    %al,(%eax)
 e0809d2:	00 00                	add    %al,(%eax)
 e0809d4:	00 00                	add    %al,(%eax)
 e0809d6:	00 00                	add    %al,(%eax)
 e0809d8:	00 00                	add    %al,(%eax)
 e0809da:	00 00                	add    %al,(%eax)
 e0809dc:	00 00                	add    %al,(%eax)
 e0809de:	00 00                	add    %al,(%eax)
 e0809e0:	00 00                	add    %al,(%eax)
 e0809e2:	00 00                	add    %al,(%eax)
 e0809e4:	00 00                	add    %al,(%eax)
 e0809e6:	00 00                	add    %al,(%eax)
 e0809e8:	00 00                	add    %al,(%eax)
 e0809ea:	00 00                	add    %al,(%eax)
 e0809ec:	00 00                	add    %al,(%eax)
 e0809ee:	00 00                	add    %al,(%eax)
 e0809f0:	00 00                	add    %al,(%eax)
 e0809f2:	00 00                	add    %al,(%eax)
 e0809f4:	00 00                	add    %al,(%eax)
 e0809f6:	00 00                	add    %al,(%eax)
 e0809f8:	00 00                	add    %al,(%eax)
 e0809fa:	00 00                	add    %al,(%eax)
 e0809fc:	00 00                	add    %al,(%eax)
 e0809fe:	00 00                	add    %al,(%eax)
 e080a00:	00 00                	add    %al,(%eax)
 e080a02:	00 00                	add    %al,(%eax)
 e080a04:	00 00                	add    %al,(%eax)
 e080a06:	00 00                	add    %al,(%eax)
 e080a08:	00 00                	add    %al,(%eax)
 e080a0a:	00 00                	add    %al,(%eax)
 e080a0c:	00 00                	add    %al,(%eax)
 e080a0e:	00 00                	add    %al,(%eax)
 e080a10:	00 00                	add    %al,(%eax)
 e080a12:	00 00                	add    %al,(%eax)
 e080a14:	00 00                	add    %al,(%eax)
 e080a16:	00 00                	add    %al,(%eax)
 e080a18:	00 00                	add    %al,(%eax)
 e080a1a:	00 00                	add    %al,(%eax)
 e080a1c:	00 00                	add    %al,(%eax)
 e080a1e:	00 00                	add    %al,(%eax)
 e080a20:	00 00                	add    %al,(%eax)
 e080a22:	00 00                	add    %al,(%eax)
 e080a24:	00 00                	add    %al,(%eax)
 e080a26:	00 00                	add    %al,(%eax)
 e080a28:	00 00                	add    %al,(%eax)
 e080a2a:	00 00                	add    %al,(%eax)
 e080a2c:	00 00                	add    %al,(%eax)
 e080a2e:	00 00                	add    %al,(%eax)
 e080a30:	00 00                	add    %al,(%eax)
 e080a32:	00 00                	add    %al,(%eax)
 e080a34:	00 00                	add    %al,(%eax)
 e080a36:	00 00                	add    %al,(%eax)
 e080a38:	00 00                	add    %al,(%eax)
 e080a3a:	00 00                	add    %al,(%eax)
 e080a3c:	00 00                	add    %al,(%eax)
 e080a3e:	00 00                	add    %al,(%eax)
 e080a40:	00 00                	add    %al,(%eax)
 e080a42:	00 00                	add    %al,(%eax)
 e080a44:	00 00                	add    %al,(%eax)
 e080a46:	00 00                	add    %al,(%eax)
 e080a48:	00 00                	add    %al,(%eax)
 e080a4a:	00 00                	add    %al,(%eax)
 e080a4c:	00 00                	add    %al,(%eax)
 e080a4e:	00 00                	add    %al,(%eax)
 e080a50:	00 00                	add    %al,(%eax)
 e080a52:	00 00                	add    %al,(%eax)
 e080a54:	00 00                	add    %al,(%eax)
 e080a56:	00 00                	add    %al,(%eax)
 e080a58:	00 00                	add    %al,(%eax)
 e080a5a:	00 00                	add    %al,(%eax)
 e080a5c:	00 00                	add    %al,(%eax)
 e080a5e:	00 00                	add    %al,(%eax)
 e080a60:	00 00                	add    %al,(%eax)
 e080a62:	00 00                	add    %al,(%eax)
 e080a64:	00 00                	add    %al,(%eax)
 e080a66:	00 00                	add    %al,(%eax)
 e080a68:	00 00                	add    %al,(%eax)
 e080a6a:	00 00                	add    %al,(%eax)
 e080a6c:	00 00                	add    %al,(%eax)
 e080a6e:	00 00                	add    %al,(%eax)
 e080a70:	00 00                	add    %al,(%eax)
 e080a72:	00 00                	add    %al,(%eax)
 e080a74:	00 00                	add    %al,(%eax)
 e080a76:	00 00                	add    %al,(%eax)
 e080a78:	00 00                	add    %al,(%eax)
 e080a7a:	00 00                	add    %al,(%eax)
 e080a7c:	00 00                	add    %al,(%eax)
 e080a7e:	00 00                	add    %al,(%eax)
 e080a80:	00 00                	add    %al,(%eax)
 e080a82:	00 00                	add    %al,(%eax)
 e080a84:	00 00                	add    %al,(%eax)
 e080a86:	00 00                	add    %al,(%eax)
 e080a88:	00 00                	add    %al,(%eax)
 e080a8a:	00 00                	add    %al,(%eax)
 e080a8c:	00 00                	add    %al,(%eax)
 e080a8e:	00 00                	add    %al,(%eax)
 e080a90:	00 00                	add    %al,(%eax)
 e080a92:	00 00                	add    %al,(%eax)
 e080a94:	00 00                	add    %al,(%eax)
 e080a96:	00 00                	add    %al,(%eax)
 e080a98:	00 00                	add    %al,(%eax)
 e080a9a:	00 00                	add    %al,(%eax)
 e080a9c:	00 00                	add    %al,(%eax)
 e080a9e:	00 00                	add    %al,(%eax)
 e080aa0:	00 00                	add    %al,(%eax)
 e080aa2:	00 00                	add    %al,(%eax)
 e080aa4:	00 00                	add    %al,(%eax)
 e080aa6:	00 00                	add    %al,(%eax)
 e080aa8:	00 00                	add    %al,(%eax)
 e080aaa:	00 00                	add    %al,(%eax)
 e080aac:	00 00                	add    %al,(%eax)
 e080aae:	00 00                	add    %al,(%eax)
 e080ab0:	00 00                	add    %al,(%eax)
 e080ab2:	00 00                	add    %al,(%eax)
 e080ab4:	00 00                	add    %al,(%eax)
 e080ab6:	00 00                	add    %al,(%eax)
 e080ab8:	00 00                	add    %al,(%eax)
 e080aba:	00 00                	add    %al,(%eax)
 e080abc:	00 00                	add    %al,(%eax)
 e080abe:	00 00                	add    %al,(%eax)
 e080ac0:	00 00                	add    %al,(%eax)
 e080ac2:	00 00                	add    %al,(%eax)
 e080ac4:	00 00                	add    %al,(%eax)
 e080ac6:	00 00                	add    %al,(%eax)
 e080ac8:	00 00                	add    %al,(%eax)
 e080aca:	00 00                	add    %al,(%eax)
 e080acc:	00 00                	add    %al,(%eax)
 e080ace:	00 00                	add    %al,(%eax)
 e080ad0:	00 00                	add    %al,(%eax)
 e080ad2:	00 00                	add    %al,(%eax)
 e080ad4:	00 00                	add    %al,(%eax)
 e080ad6:	00 00                	add    %al,(%eax)
 e080ad8:	00 00                	add    %al,(%eax)
 e080ada:	00 00                	add    %al,(%eax)
 e080adc:	00 00                	add    %al,(%eax)
 e080ade:	00 00                	add    %al,(%eax)
 e080ae0:	00 00                	add    %al,(%eax)
 e080ae2:	00 00                	add    %al,(%eax)
 e080ae4:	00 00                	add    %al,(%eax)
 e080ae6:	00 00                	add    %al,(%eax)
 e080ae8:	00 00                	add    %al,(%eax)
 e080aea:	00 00                	add    %al,(%eax)
 e080aec:	00 00                	add    %al,(%eax)
 e080aee:	00 00                	add    %al,(%eax)
 e080af0:	00 00                	add    %al,(%eax)
 e080af2:	00 00                	add    %al,(%eax)
 e080af4:	00 00                	add    %al,(%eax)
 e080af6:	00 00                	add    %al,(%eax)
 e080af8:	00 00                	add    %al,(%eax)
 e080afa:	00 00                	add    %al,(%eax)
 e080afc:	00 00                	add    %al,(%eax)
 e080afe:	00 00                	add    %al,(%eax)
 e080b00:	00 00                	add    %al,(%eax)
 e080b02:	00 00                	add    %al,(%eax)
 e080b04:	00 00                	add    %al,(%eax)
 e080b06:	00 00                	add    %al,(%eax)
 e080b08:	00 00                	add    %al,(%eax)
 e080b0a:	00 00                	add    %al,(%eax)
 e080b0c:	00 00                	add    %al,(%eax)
 e080b0e:	00 00                	add    %al,(%eax)
 e080b10:	00 00                	add    %al,(%eax)
 e080b12:	00 00                	add    %al,(%eax)
 e080b14:	00 00                	add    %al,(%eax)
 e080b16:	00 00                	add    %al,(%eax)
 e080b18:	00 00                	add    %al,(%eax)
 e080b1a:	00 00                	add    %al,(%eax)
 e080b1c:	00 00                	add    %al,(%eax)
 e080b1e:	00 00                	add    %al,(%eax)
 e080b20:	00 00                	add    %al,(%eax)
 e080b22:	00 00                	add    %al,(%eax)
 e080b24:	00 00                	add    %al,(%eax)
 e080b26:	00 00                	add    %al,(%eax)
 e080b28:	00 00                	add    %al,(%eax)
 e080b2a:	00 00                	add    %al,(%eax)
 e080b2c:	00 00                	add    %al,(%eax)
 e080b2e:	00 00                	add    %al,(%eax)
 e080b30:	00 00                	add    %al,(%eax)
 e080b32:	00 00                	add    %al,(%eax)
 e080b34:	00 00                	add    %al,(%eax)
 e080b36:	00 00                	add    %al,(%eax)
 e080b38:	00 00                	add    %al,(%eax)
 e080b3a:	00 00                	add    %al,(%eax)
 e080b3c:	00 00                	add    %al,(%eax)
 e080b3e:	00 00                	add    %al,(%eax)
 e080b40:	00 00                	add    %al,(%eax)
 e080b42:	00 00                	add    %al,(%eax)
 e080b44:	00 00                	add    %al,(%eax)
 e080b46:	00 00                	add    %al,(%eax)
 e080b48:	00 00                	add    %al,(%eax)
 e080b4a:	00 00                	add    %al,(%eax)
 e080b4c:	00 00                	add    %al,(%eax)
 e080b4e:	00 00                	add    %al,(%eax)
 e080b50:	00 00                	add    %al,(%eax)
 e080b52:	00 00                	add    %al,(%eax)
 e080b54:	00 00                	add    %al,(%eax)
 e080b56:	00 00                	add    %al,(%eax)
 e080b58:	00 00                	add    %al,(%eax)
 e080b5a:	00 00                	add    %al,(%eax)
 e080b5c:	00 00                	add    %al,(%eax)
 e080b5e:	00 00                	add    %al,(%eax)
 e080b60:	00 00                	add    %al,(%eax)
 e080b62:	00 00                	add    %al,(%eax)
 e080b64:	00 00                	add    %al,(%eax)
 e080b66:	00 00                	add    %al,(%eax)
 e080b68:	00 00                	add    %al,(%eax)
 e080b6a:	00 00                	add    %al,(%eax)
 e080b6c:	00 00                	add    %al,(%eax)
 e080b6e:	00 00                	add    %al,(%eax)
 e080b70:	00 00                	add    %al,(%eax)
 e080b72:	00 00                	add    %al,(%eax)
 e080b74:	00 00                	add    %al,(%eax)
 e080b76:	00 00                	add    %al,(%eax)
 e080b78:	00 00                	add    %al,(%eax)
 e080b7a:	00 00                	add    %al,(%eax)
 e080b7c:	00 00                	add    %al,(%eax)
 e080b7e:	00 00                	add    %al,(%eax)
 e080b80:	00 00                	add    %al,(%eax)
 e080b82:	00 00                	add    %al,(%eax)
 e080b84:	00 00                	add    %al,(%eax)
 e080b86:	00 00                	add    %al,(%eax)
 e080b88:	00 00                	add    %al,(%eax)
 e080b8a:	00 00                	add    %al,(%eax)
 e080b8c:	00 00                	add    %al,(%eax)
 e080b8e:	00 00                	add    %al,(%eax)
 e080b90:	00 00                	add    %al,(%eax)
 e080b92:	00 00                	add    %al,(%eax)
 e080b94:	00 00                	add    %al,(%eax)
 e080b96:	00 00                	add    %al,(%eax)
 e080b98:	00 00                	add    %al,(%eax)
 e080b9a:	00 00                	add    %al,(%eax)
 e080b9c:	00 00                	add    %al,(%eax)
 e080b9e:	00 00                	add    %al,(%eax)
 e080ba0:	00 00                	add    %al,(%eax)
 e080ba2:	00 00                	add    %al,(%eax)
 e080ba4:	00 00                	add    %al,(%eax)
 e080ba6:	00 00                	add    %al,(%eax)
 e080ba8:	00 00                	add    %al,(%eax)
 e080baa:	00 00                	add    %al,(%eax)
 e080bac:	00 00                	add    %al,(%eax)
 e080bae:	00 00                	add    %al,(%eax)
 e080bb0:	00 00                	add    %al,(%eax)
 e080bb2:	00 00                	add    %al,(%eax)
 e080bb4:	00 00                	add    %al,(%eax)
 e080bb6:	00 00                	add    %al,(%eax)
 e080bb8:	00 00                	add    %al,(%eax)
 e080bba:	00 00                	add    %al,(%eax)
 e080bbc:	00 00                	add    %al,(%eax)
 e080bbe:	00 00                	add    %al,(%eax)
 e080bc0:	00 00                	add    %al,(%eax)
 e080bc2:	00 00                	add    %al,(%eax)
 e080bc4:	00 00                	add    %al,(%eax)
 e080bc6:	00 00                	add    %al,(%eax)
 e080bc8:	00 00                	add    %al,(%eax)
 e080bca:	00 00                	add    %al,(%eax)
 e080bcc:	00 00                	add    %al,(%eax)
 e080bce:	00 00                	add    %al,(%eax)
 e080bd0:	00 00                	add    %al,(%eax)
 e080bd2:	00 00                	add    %al,(%eax)
 e080bd4:	00 00                	add    %al,(%eax)
 e080bd6:	00 00                	add    %al,(%eax)
 e080bd8:	00 00                	add    %al,(%eax)
 e080bda:	00 00                	add    %al,(%eax)
 e080bdc:	00 00                	add    %al,(%eax)
 e080bde:	00 00                	add    %al,(%eax)
 e080be0:	00 00                	add    %al,(%eax)
 e080be2:	00 00                	add    %al,(%eax)
 e080be4:	00 00                	add    %al,(%eax)
 e080be6:	00 00                	add    %al,(%eax)
 e080be8:	00 00                	add    %al,(%eax)
 e080bea:	00 00                	add    %al,(%eax)
 e080bec:	00 00                	add    %al,(%eax)
 e080bee:	00 00                	add    %al,(%eax)
 e080bf0:	00 00                	add    %al,(%eax)
 e080bf2:	00 00                	add    %al,(%eax)
 e080bf4:	00 00                	add    %al,(%eax)
 e080bf6:	00 00                	add    %al,(%eax)
 e080bf8:	00 00                	add    %al,(%eax)
 e080bfa:	00 00                	add    %al,(%eax)
 e080bfc:	00 00                	add    %al,(%eax)
 e080bfe:	00 00                	add    %al,(%eax)
 e080c00:	00 00                	add    %al,(%eax)
 e080c02:	00 00                	add    %al,(%eax)
 e080c04:	00 00                	add    %al,(%eax)
 e080c06:	00 00                	add    %al,(%eax)
 e080c08:	00 00                	add    %al,(%eax)
 e080c0a:	00 00                	add    %al,(%eax)
 e080c0c:	00 00                	add    %al,(%eax)
 e080c0e:	00 00                	add    %al,(%eax)
 e080c10:	00 00                	add    %al,(%eax)
 e080c12:	00 00                	add    %al,(%eax)
 e080c14:	00 00                	add    %al,(%eax)
 e080c16:	00 00                	add    %al,(%eax)
 e080c18:	00 00                	add    %al,(%eax)
 e080c1a:	00 00                	add    %al,(%eax)
 e080c1c:	00 00                	add    %al,(%eax)
 e080c1e:	00 00                	add    %al,(%eax)
 e080c20:	00 00                	add    %al,(%eax)
 e080c22:	00 00                	add    %al,(%eax)
 e080c24:	00 00                	add    %al,(%eax)
 e080c26:	00 00                	add    %al,(%eax)
 e080c28:	00 00                	add    %al,(%eax)
 e080c2a:	00 00                	add    %al,(%eax)
 e080c2c:	00 00                	add    %al,(%eax)
 e080c2e:	00 00                	add    %al,(%eax)
 e080c30:	00 00                	add    %al,(%eax)
 e080c32:	00 00                	add    %al,(%eax)
 e080c34:	00 00                	add    %al,(%eax)
 e080c36:	00 00                	add    %al,(%eax)
 e080c38:	00 00                	add    %al,(%eax)
 e080c3a:	00 00                	add    %al,(%eax)
 e080c3c:	00 00                	add    %al,(%eax)
 e080c3e:	00 00                	add    %al,(%eax)
 e080c40:	00 00                	add    %al,(%eax)
 e080c42:	00 00                	add    %al,(%eax)
 e080c44:	00 00                	add    %al,(%eax)
 e080c46:	00 00                	add    %al,(%eax)
 e080c48:	00 00                	add    %al,(%eax)
 e080c4a:	00 00                	add    %al,(%eax)
 e080c4c:	00 00                	add    %al,(%eax)
 e080c4e:	00 00                	add    %al,(%eax)
 e080c50:	00 00                	add    %al,(%eax)
 e080c52:	00 00                	add    %al,(%eax)
 e080c54:	00 00                	add    %al,(%eax)
 e080c56:	00 00                	add    %al,(%eax)
 e080c58:	00 00                	add    %al,(%eax)
 e080c5a:	00 00                	add    %al,(%eax)
 e080c5c:	00 00                	add    %al,(%eax)
 e080c5e:	00 00                	add    %al,(%eax)
 e080c60:	00 00                	add    %al,(%eax)
 e080c62:	00 00                	add    %al,(%eax)
 e080c64:	00 00                	add    %al,(%eax)
 e080c66:	00 00                	add    %al,(%eax)
 e080c68:	00 00                	add    %al,(%eax)
 e080c6a:	00 00                	add    %al,(%eax)
 e080c6c:	00 00                	add    %al,(%eax)
 e080c6e:	00 00                	add    %al,(%eax)
 e080c70:	00 00                	add    %al,(%eax)
 e080c72:	00 00                	add    %al,(%eax)
 e080c74:	00 00                	add    %al,(%eax)
 e080c76:	00 00                	add    %al,(%eax)
 e080c78:	00 00                	add    %al,(%eax)
 e080c7a:	00 00                	add    %al,(%eax)
 e080c7c:	00 00                	add    %al,(%eax)
 e080c7e:	00 00                	add    %al,(%eax)
 e080c80:	00 00                	add    %al,(%eax)
 e080c82:	00 00                	add    %al,(%eax)
 e080c84:	00 00                	add    %al,(%eax)
 e080c86:	00 00                	add    %al,(%eax)
 e080c88:	00 00                	add    %al,(%eax)
 e080c8a:	00 00                	add    %al,(%eax)
 e080c8c:	00 00                	add    %al,(%eax)
 e080c8e:	00 00                	add    %al,(%eax)
 e080c90:	00 00                	add    %al,(%eax)
 e080c92:	00 00                	add    %al,(%eax)
 e080c94:	00 00                	add    %al,(%eax)
 e080c96:	00 00                	add    %al,(%eax)
 e080c98:	00 00                	add    %al,(%eax)
 e080c9a:	00 00                	add    %al,(%eax)
 e080c9c:	00 00                	add    %al,(%eax)
 e080c9e:	00 00                	add    %al,(%eax)
 e080ca0:	00 00                	add    %al,(%eax)
 e080ca2:	00 00                	add    %al,(%eax)
 e080ca4:	00 00                	add    %al,(%eax)
 e080ca6:	00 00                	add    %al,(%eax)
 e080ca8:	00 00                	add    %al,(%eax)
 e080caa:	00 00                	add    %al,(%eax)
 e080cac:	00 00                	add    %al,(%eax)
 e080cae:	00 00                	add    %al,(%eax)
 e080cb0:	00 00                	add    %al,(%eax)
 e080cb2:	00 00                	add    %al,(%eax)
 e080cb4:	00 00                	add    %al,(%eax)
 e080cb6:	00 00                	add    %al,(%eax)
 e080cb8:	00 00                	add    %al,(%eax)
 e080cba:	00 00                	add    %al,(%eax)
 e080cbc:	00 00                	add    %al,(%eax)
 e080cbe:	00 00                	add    %al,(%eax)
 e080cc0:	00 00                	add    %al,(%eax)
 e080cc2:	00 00                	add    %al,(%eax)
 e080cc4:	00 00                	add    %al,(%eax)
 e080cc6:	00 00                	add    %al,(%eax)
 e080cc8:	00 00                	add    %al,(%eax)
 e080cca:	00 00                	add    %al,(%eax)
 e080ccc:	00 00                	add    %al,(%eax)
 e080cce:	00 00                	add    %al,(%eax)
 e080cd0:	00 00                	add    %al,(%eax)
 e080cd2:	00 00                	add    %al,(%eax)
 e080cd4:	00 00                	add    %al,(%eax)
 e080cd6:	00 00                	add    %al,(%eax)
 e080cd8:	00 00                	add    %al,(%eax)
 e080cda:	00 00                	add    %al,(%eax)
 e080cdc:	00 00                	add    %al,(%eax)
 e080cde:	00 00                	add    %al,(%eax)
 e080ce0:	00 00                	add    %al,(%eax)
 e080ce2:	00 00                	add    %al,(%eax)
 e080ce4:	00 00                	add    %al,(%eax)
 e080ce6:	00 00                	add    %al,(%eax)
 e080ce8:	00 00                	add    %al,(%eax)
 e080cea:	00 00                	add    %al,(%eax)
 e080cec:	00 00                	add    %al,(%eax)
 e080cee:	00 00                	add    %al,(%eax)
 e080cf0:	00 00                	add    %al,(%eax)
 e080cf2:	00 00                	add    %al,(%eax)
 e080cf4:	00 00                	add    %al,(%eax)
 e080cf6:	00 00                	add    %al,(%eax)
 e080cf8:	00 00                	add    %al,(%eax)
 e080cfa:	00 00                	add    %al,(%eax)
 e080cfc:	00 00                	add    %al,(%eax)
 e080cfe:	00 00                	add    %al,(%eax)
 e080d00:	00 00                	add    %al,(%eax)
 e080d02:	00 00                	add    %al,(%eax)
 e080d04:	00 00                	add    %al,(%eax)
 e080d06:	00 00                	add    %al,(%eax)
 e080d08:	00 00                	add    %al,(%eax)
 e080d0a:	00 00                	add    %al,(%eax)
 e080d0c:	00 00                	add    %al,(%eax)
 e080d0e:	00 00                	add    %al,(%eax)
 e080d10:	00 00                	add    %al,(%eax)
 e080d12:	00 00                	add    %al,(%eax)
 e080d14:	00 00                	add    %al,(%eax)
 e080d16:	00 00                	add    %al,(%eax)
 e080d18:	00 00                	add    %al,(%eax)
 e080d1a:	00 00                	add    %al,(%eax)
 e080d1c:	00 00                	add    %al,(%eax)
 e080d1e:	00 00                	add    %al,(%eax)
 e080d20:	00 00                	add    %al,(%eax)
 e080d22:	00 00                	add    %al,(%eax)
 e080d24:	00 00                	add    %al,(%eax)
 e080d26:	00 00                	add    %al,(%eax)
 e080d28:	00 00                	add    %al,(%eax)
 e080d2a:	00 00                	add    %al,(%eax)
 e080d2c:	00 00                	add    %al,(%eax)
 e080d2e:	00 00                	add    %al,(%eax)
 e080d30:	00 00                	add    %al,(%eax)
 e080d32:	00 00                	add    %al,(%eax)
 e080d34:	00 00                	add    %al,(%eax)
 e080d36:	00 00                	add    %al,(%eax)
 e080d38:	00 00                	add    %al,(%eax)
 e080d3a:	00 00                	add    %al,(%eax)
 e080d3c:	00 00                	add    %al,(%eax)
 e080d3e:	00 00                	add    %al,(%eax)
 e080d40:	00 00                	add    %al,(%eax)
 e080d42:	00 00                	add    %al,(%eax)
 e080d44:	00 00                	add    %al,(%eax)
 e080d46:	00 00                	add    %al,(%eax)
 e080d48:	00 00                	add    %al,(%eax)
 e080d4a:	00 00                	add    %al,(%eax)
 e080d4c:	00 00                	add    %al,(%eax)
 e080d4e:	00 00                	add    %al,(%eax)
 e080d50:	00 00                	add    %al,(%eax)
 e080d52:	00 00                	add    %al,(%eax)
 e080d54:	00 00                	add    %al,(%eax)
 e080d56:	00 00                	add    %al,(%eax)
 e080d58:	00 00                	add    %al,(%eax)
 e080d5a:	00 00                	add    %al,(%eax)
 e080d5c:	00 00                	add    %al,(%eax)
 e080d5e:	00 00                	add    %al,(%eax)
 e080d60:	00 00                	add    %al,(%eax)
 e080d62:	00 00                	add    %al,(%eax)
 e080d64:	00 00                	add    %al,(%eax)
 e080d66:	00 00                	add    %al,(%eax)
 e080d68:	00 00                	add    %al,(%eax)
 e080d6a:	00 00                	add    %al,(%eax)
 e080d6c:	00 00                	add    %al,(%eax)
 e080d6e:	00 00                	add    %al,(%eax)
 e080d70:	00 00                	add    %al,(%eax)
 e080d72:	00 00                	add    %al,(%eax)
 e080d74:	00 00                	add    %al,(%eax)
 e080d76:	00 00                	add    %al,(%eax)
 e080d78:	00 00                	add    %al,(%eax)
 e080d7a:	00 00                	add    %al,(%eax)
 e080d7c:	00 00                	add    %al,(%eax)
 e080d7e:	00 00                	add    %al,(%eax)
 e080d80:	00 00                	add    %al,(%eax)
 e080d82:	00 00                	add    %al,(%eax)
 e080d84:	00 00                	add    %al,(%eax)
 e080d86:	00 00                	add    %al,(%eax)
 e080d88:	00 00                	add    %al,(%eax)
 e080d8a:	00 00                	add    %al,(%eax)
 e080d8c:	00 00                	add    %al,(%eax)
 e080d8e:	00 00                	add    %al,(%eax)
 e080d90:	00 00                	add    %al,(%eax)
 e080d92:	00 00                	add    %al,(%eax)
 e080d94:	00 00                	add    %al,(%eax)
 e080d96:	00 00                	add    %al,(%eax)
 e080d98:	00 00                	add    %al,(%eax)
 e080d9a:	00 00                	add    %al,(%eax)
 e080d9c:	00 00                	add    %al,(%eax)
 e080d9e:	00 00                	add    %al,(%eax)
 e080da0:	00 00                	add    %al,(%eax)
 e080da2:	00 00                	add    %al,(%eax)
 e080da4:	00 00                	add    %al,(%eax)
 e080da6:	00 00                	add    %al,(%eax)
 e080da8:	00 00                	add    %al,(%eax)
 e080daa:	00 00                	add    %al,(%eax)
 e080dac:	00 00                	add    %al,(%eax)
 e080dae:	00 00                	add    %al,(%eax)
 e080db0:	00 00                	add    %al,(%eax)
 e080db2:	00 00                	add    %al,(%eax)
 e080db4:	00 00                	add    %al,(%eax)
 e080db6:	00 00                	add    %al,(%eax)
 e080db8:	00 00                	add    %al,(%eax)
 e080dba:	00 00                	add    %al,(%eax)
 e080dbc:	00 00                	add    %al,(%eax)
 e080dbe:	00 00                	add    %al,(%eax)
 e080dc0:	00 00                	add    %al,(%eax)
 e080dc2:	00 00                	add    %al,(%eax)
 e080dc4:	00 00                	add    %al,(%eax)
 e080dc6:	00 00                	add    %al,(%eax)
 e080dc8:	00 00                	add    %al,(%eax)
 e080dca:	00 00                	add    %al,(%eax)
 e080dcc:	00 00                	add    %al,(%eax)
 e080dce:	00 00                	add    %al,(%eax)
 e080dd0:	00 00                	add    %al,(%eax)
 e080dd2:	00 00                	add    %al,(%eax)
 e080dd4:	00 00                	add    %al,(%eax)
 e080dd6:	00 00                	add    %al,(%eax)
 e080dd8:	00 00                	add    %al,(%eax)
 e080dda:	00 00                	add    %al,(%eax)
 e080ddc:	00 00                	add    %al,(%eax)
 e080dde:	00 00                	add    %al,(%eax)
 e080de0:	00 00                	add    %al,(%eax)
 e080de2:	00 00                	add    %al,(%eax)
 e080de4:	00 00                	add    %al,(%eax)
 e080de6:	00 00                	add    %al,(%eax)
 e080de8:	00 00                	add    %al,(%eax)
 e080dea:	00 00                	add    %al,(%eax)
 e080dec:	00 00                	add    %al,(%eax)
 e080dee:	00 00                	add    %al,(%eax)
 e080df0:	00 00                	add    %al,(%eax)
 e080df2:	00 00                	add    %al,(%eax)
 e080df4:	00 00                	add    %al,(%eax)
 e080df6:	00 00                	add    %al,(%eax)
 e080df8:	00 00                	add    %al,(%eax)
 e080dfa:	00 00                	add    %al,(%eax)
 e080dfc:	00 00                	add    %al,(%eax)
 e080dfe:	00 00                	add    %al,(%eax)
 e080e00:	00 00                	add    %al,(%eax)
 e080e02:	00 00                	add    %al,(%eax)
 e080e04:	00 00                	add    %al,(%eax)
 e080e06:	00 00                	add    %al,(%eax)
 e080e08:	00 00                	add    %al,(%eax)
 e080e0a:	00 00                	add    %al,(%eax)
 e080e0c:	00 00                	add    %al,(%eax)
 e080e0e:	00 00                	add    %al,(%eax)
 e080e10:	00 00                	add    %al,(%eax)
 e080e12:	00 00                	add    %al,(%eax)
 e080e14:	00 00                	add    %al,(%eax)
 e080e16:	00 00                	add    %al,(%eax)
 e080e18:	00 00                	add    %al,(%eax)
 e080e1a:	00 00                	add    %al,(%eax)
 e080e1c:	00 00                	add    %al,(%eax)
 e080e1e:	00 00                	add    %al,(%eax)
 e080e20:	00 00                	add    %al,(%eax)
 e080e22:	00 00                	add    %al,(%eax)
 e080e24:	00 00                	add    %al,(%eax)
 e080e26:	00 00                	add    %al,(%eax)
 e080e28:	00 00                	add    %al,(%eax)
 e080e2a:	00 00                	add    %al,(%eax)
 e080e2c:	00 00                	add    %al,(%eax)
 e080e2e:	00 00                	add    %al,(%eax)
 e080e30:	00 00                	add    %al,(%eax)
 e080e32:	00 00                	add    %al,(%eax)
 e080e34:	00 00                	add    %al,(%eax)
 e080e36:	00 00                	add    %al,(%eax)
 e080e38:	00 00                	add    %al,(%eax)
 e080e3a:	00 00                	add    %al,(%eax)
 e080e3c:	00 00                	add    %al,(%eax)
 e080e3e:	00 00                	add    %al,(%eax)
 e080e40:	00 00                	add    %al,(%eax)
 e080e42:	00 00                	add    %al,(%eax)
 e080e44:	00 00                	add    %al,(%eax)
 e080e46:	00 00                	add    %al,(%eax)
 e080e48:	00 00                	add    %al,(%eax)
 e080e4a:	00 00                	add    %al,(%eax)
 e080e4c:	00 00                	add    %al,(%eax)
 e080e4e:	00 00                	add    %al,(%eax)
 e080e50:	00 00                	add    %al,(%eax)
 e080e52:	00 00                	add    %al,(%eax)
 e080e54:	00 00                	add    %al,(%eax)
 e080e56:	00 00                	add    %al,(%eax)
 e080e58:	00 00                	add    %al,(%eax)
 e080e5a:	00 00                	add    %al,(%eax)
 e080e5c:	00 00                	add    %al,(%eax)
 e080e5e:	00 00                	add    %al,(%eax)
 e080e60:	00 00                	add    %al,(%eax)
 e080e62:	00 00                	add    %al,(%eax)
 e080e64:	00 00                	add    %al,(%eax)
 e080e66:	00 00                	add    %al,(%eax)
 e080e68:	00 00                	add    %al,(%eax)
 e080e6a:	00 00                	add    %al,(%eax)
 e080e6c:	00 00                	add    %al,(%eax)
 e080e6e:	00 00                	add    %al,(%eax)
 e080e70:	00 00                	add    %al,(%eax)
 e080e72:	00 00                	add    %al,(%eax)
 e080e74:	00 00                	add    %al,(%eax)
 e080e76:	00 00                	add    %al,(%eax)
 e080e78:	00 00                	add    %al,(%eax)
 e080e7a:	00 00                	add    %al,(%eax)
 e080e7c:	00 00                	add    %al,(%eax)
 e080e7e:	00 00                	add    %al,(%eax)
 e080e80:	00 00                	add    %al,(%eax)
 e080e82:	00 00                	add    %al,(%eax)
 e080e84:	00 00                	add    %al,(%eax)
 e080e86:	00 00                	add    %al,(%eax)
 e080e88:	00 00                	add    %al,(%eax)
 e080e8a:	00 00                	add    %al,(%eax)
 e080e8c:	00 00                	add    %al,(%eax)
 e080e8e:	00 00                	add    %al,(%eax)
 e080e90:	00 00                	add    %al,(%eax)
 e080e92:	00 00                	add    %al,(%eax)
 e080e94:	00 00                	add    %al,(%eax)
 e080e96:	00 00                	add    %al,(%eax)
 e080e98:	00 00                	add    %al,(%eax)
 e080e9a:	00 00                	add    %al,(%eax)
 e080e9c:	00 00                	add    %al,(%eax)
 e080e9e:	00 00                	add    %al,(%eax)
 e080ea0:	00 00                	add    %al,(%eax)
 e080ea2:	00 00                	add    %al,(%eax)
 e080ea4:	00 00                	add    %al,(%eax)
 e080ea6:	00 00                	add    %al,(%eax)
 e080ea8:	00 00                	add    %al,(%eax)
 e080eaa:	00 00                	add    %al,(%eax)
 e080eac:	00 00                	add    %al,(%eax)
 e080eae:	00 00                	add    %al,(%eax)
 e080eb0:	00 00                	add    %al,(%eax)
 e080eb2:	00 00                	add    %al,(%eax)
 e080eb4:	00 00                	add    %al,(%eax)
 e080eb6:	00 00                	add    %al,(%eax)
 e080eb8:	00 00                	add    %al,(%eax)
 e080eba:	00 00                	add    %al,(%eax)
 e080ebc:	00 00                	add    %al,(%eax)
 e080ebe:	00 00                	add    %al,(%eax)
 e080ec0:	00 00                	add    %al,(%eax)
 e080ec2:	00 00                	add    %al,(%eax)
 e080ec4:	00 00                	add    %al,(%eax)
 e080ec6:	00 00                	add    %al,(%eax)
 e080ec8:	00 00                	add    %al,(%eax)
 e080eca:	00 00                	add    %al,(%eax)
 e080ecc:	00 00                	add    %al,(%eax)
 e080ece:	00 00                	add    %al,(%eax)
 e080ed0:	00 00                	add    %al,(%eax)
 e080ed2:	00 00                	add    %al,(%eax)
 e080ed4:	00 00                	add    %al,(%eax)
 e080ed6:	00 00                	add    %al,(%eax)
 e080ed8:	00 00                	add    %al,(%eax)
 e080eda:	00 00                	add    %al,(%eax)
 e080edc:	00 00                	add    %al,(%eax)
 e080ede:	00 00                	add    %al,(%eax)
 e080ee0:	00 00                	add    %al,(%eax)
 e080ee2:	00 00                	add    %al,(%eax)
 e080ee4:	00 00                	add    %al,(%eax)
 e080ee6:	00 00                	add    %al,(%eax)
 e080ee8:	00 00                	add    %al,(%eax)
 e080eea:	00 00                	add    %al,(%eax)
 e080eec:	00 00                	add    %al,(%eax)
 e080eee:	00 00                	add    %al,(%eax)
 e080ef0:	00 00                	add    %al,(%eax)
 e080ef2:	00 00                	add    %al,(%eax)
 e080ef4:	00 00                	add    %al,(%eax)
 e080ef6:	00 00                	add    %al,(%eax)
 e080ef8:	00 00                	add    %al,(%eax)
 e080efa:	00 00                	add    %al,(%eax)
 e080efc:	00 00                	add    %al,(%eax)
 e080efe:	00 00                	add    %al,(%eax)
 e080f00:	00 00                	add    %al,(%eax)
 e080f02:	00 00                	add    %al,(%eax)
 e080f04:	00 00                	add    %al,(%eax)
 e080f06:	00 00                	add    %al,(%eax)
 e080f08:	00 00                	add    %al,(%eax)
 e080f0a:	00 00                	add    %al,(%eax)
 e080f0c:	00 00                	add    %al,(%eax)
 e080f0e:	00 00                	add    %al,(%eax)
 e080f10:	00 00                	add    %al,(%eax)
 e080f12:	00 00                	add    %al,(%eax)
 e080f14:	00 00                	add    %al,(%eax)
 e080f16:	00 00                	add    %al,(%eax)
 e080f18:	00 00                	add    %al,(%eax)
 e080f1a:	00 00                	add    %al,(%eax)
 e080f1c:	00 00                	add    %al,(%eax)
 e080f1e:	00 00                	add    %al,(%eax)
 e080f20:	00 00                	add    %al,(%eax)
 e080f22:	00 00                	add    %al,(%eax)
 e080f24:	00 00                	add    %al,(%eax)
 e080f26:	00 00                	add    %al,(%eax)
 e080f28:	00 00                	add    %al,(%eax)
 e080f2a:	00 00                	add    %al,(%eax)
 e080f2c:	00 00                	add    %al,(%eax)
 e080f2e:	00 00                	add    %al,(%eax)
 e080f30:	00 00                	add    %al,(%eax)
 e080f32:	00 00                	add    %al,(%eax)
 e080f34:	00 00                	add    %al,(%eax)
 e080f36:	00 00                	add    %al,(%eax)
 e080f38:	00 00                	add    %al,(%eax)
 e080f3a:	00 00                	add    %al,(%eax)
 e080f3c:	00 00                	add    %al,(%eax)
 e080f3e:	00 00                	add    %al,(%eax)
 e080f40:	00 00                	add    %al,(%eax)
 e080f42:	00 00                	add    %al,(%eax)
 e080f44:	00 00                	add    %al,(%eax)
 e080f46:	00 00                	add    %al,(%eax)
 e080f48:	00 00                	add    %al,(%eax)
 e080f4a:	00 00                	add    %al,(%eax)
 e080f4c:	00 00                	add    %al,(%eax)
 e080f4e:	00 00                	add    %al,(%eax)
 e080f50:	00 00                	add    %al,(%eax)
 e080f52:	00 00                	add    %al,(%eax)
 e080f54:	00 00                	add    %al,(%eax)
 e080f56:	00 00                	add    %al,(%eax)
 e080f58:	00 00                	add    %al,(%eax)
 e080f5a:	00 00                	add    %al,(%eax)
 e080f5c:	00 00                	add    %al,(%eax)
 e080f5e:	00 00                	add    %al,(%eax)
 e080f60:	00 00                	add    %al,(%eax)
 e080f62:	00 00                	add    %al,(%eax)
 e080f64:	00 00                	add    %al,(%eax)
 e080f66:	00 00                	add    %al,(%eax)
 e080f68:	00 00                	add    %al,(%eax)
 e080f6a:	00 00                	add    %al,(%eax)
 e080f6c:	00 00                	add    %al,(%eax)
 e080f6e:	00 00                	add    %al,(%eax)
 e080f70:	00 00                	add    %al,(%eax)
 e080f72:	00 00                	add    %al,(%eax)
 e080f74:	00 00                	add    %al,(%eax)
 e080f76:	00 00                	add    %al,(%eax)
 e080f78:	00 00                	add    %al,(%eax)
 e080f7a:	00 00                	add    %al,(%eax)
 e080f7c:	00 00                	add    %al,(%eax)
 e080f7e:	00 00                	add    %al,(%eax)
 e080f80:	00 00                	add    %al,(%eax)
 e080f82:	00 00                	add    %al,(%eax)
 e080f84:	00 00                	add    %al,(%eax)
 e080f86:	00 00                	add    %al,(%eax)
 e080f88:	00 00                	add    %al,(%eax)
 e080f8a:	00 00                	add    %al,(%eax)
 e080f8c:	00 00                	add    %al,(%eax)
 e080f8e:	00 00                	add    %al,(%eax)
 e080f90:	00 00                	add    %al,(%eax)
 e080f92:	00 00                	add    %al,(%eax)
 e080f94:	00 00                	add    %al,(%eax)
 e080f96:	00 00                	add    %al,(%eax)
 e080f98:	00 00                	add    %al,(%eax)
 e080f9a:	00 00                	add    %al,(%eax)
 e080f9c:	00 00                	add    %al,(%eax)
 e080f9e:	00 00                	add    %al,(%eax)
 e080fa0:	00 00                	add    %al,(%eax)
 e080fa2:	00 00                	add    %al,(%eax)
 e080fa4:	00 00                	add    %al,(%eax)
 e080fa6:	00 00                	add    %al,(%eax)
 e080fa8:	00 00                	add    %al,(%eax)
 e080faa:	00 00                	add    %al,(%eax)
 e080fac:	00 00                	add    %al,(%eax)
 e080fae:	00 00                	add    %al,(%eax)
 e080fb0:	00 00                	add    %al,(%eax)
 e080fb2:	00 00                	add    %al,(%eax)
 e080fb4:	00 00                	add    %al,(%eax)
 e080fb6:	00 00                	add    %al,(%eax)
 e080fb8:	00 00                	add    %al,(%eax)
 e080fba:	00 00                	add    %al,(%eax)
 e080fbc:	00 00                	add    %al,(%eax)
 e080fbe:	00 00                	add    %al,(%eax)
 e080fc0:	00 00                	add    %al,(%eax)
 e080fc2:	00 00                	add    %al,(%eax)
 e080fc4:	00 00                	add    %al,(%eax)
 e080fc6:	00 00                	add    %al,(%eax)
 e080fc8:	00 00                	add    %al,(%eax)
 e080fca:	00 00                	add    %al,(%eax)
 e080fcc:	00 00                	add    %al,(%eax)
 e080fce:	00 00                	add    %al,(%eax)
 e080fd0:	00 00                	add    %al,(%eax)
 e080fd2:	00 00                	add    %al,(%eax)
 e080fd4:	00 00                	add    %al,(%eax)
 e080fd6:	00 00                	add    %al,(%eax)
 e080fd8:	00 00                	add    %al,(%eax)
 e080fda:	00 00                	add    %al,(%eax)
 e080fdc:	00 00                	add    %al,(%eax)
 e080fde:	00 00                	add    %al,(%eax)
 e080fe0:	00 00                	add    %al,(%eax)
 e080fe2:	00 00                	add    %al,(%eax)
 e080fe4:	00 00                	add    %al,(%eax)
 e080fe6:	00 00                	add    %al,(%eax)
 e080fe8:	00 00                	add    %al,(%eax)
 e080fea:	00 00                	add    %al,(%eax)
 e080fec:	00 00                	add    %al,(%eax)
 e080fee:	00 00                	add    %al,(%eax)
 e080ff0:	00 00                	add    %al,(%eax)
 e080ff2:	00 00                	add    %al,(%eax)
 e080ff4:	00 00                	add    %al,(%eax)
 e080ff6:	00 00                	add    %al,(%eax)
 e080ff8:	00 00                	add    %al,(%eax)
 e080ffa:	00 00                	add    %al,(%eax)
 e080ffc:	00 00                	add    %al,(%eax)
 e080ffe:	00 00                	add    %al,(%eax)

0e081000 <pagedir_segbegin>:
 e081000:	01 10                	add    %edx,(%eax)
 e081002:	08 fe                	or     %bh,%dh
 e081004:	00 00                	add    %al,(%eax)
 e081006:	00 00                	add    %al,(%eax)
 e081008:	01 10                	add    %edx,(%eax)
 e08100a:	08 fe                	or     %bh,%dh
 e08100c:	00 00                	add    %al,(%eax)
 e08100e:	00 00                	add    %al,(%eax)
 e081010:	03 10                	add    (%eax),%edx
 e081012:	08 fe                	or     %bh,%dh
 e081014:	00 00                	add    %al,(%eax)
 e081016:	00 00                	add    %al,(%eax)
 e081018:	03 10                	add    (%eax),%edx
 e08101a:	08 fe                	or     %bh,%dh
 e08101c:	00 00                	add    %al,(%eax)
 e08101e:	00 00                	add    %al,(%eax)
 e081020:	03 40 08             	add    0x8(%eax),%eax
 e081023:	fe 00                	incb   (%eax)
 e081025:	00 00                	add    %al,(%eax)
 e081027:	00 03                	add    %al,(%ebx)
 e081029:	50                   	push   %eax
 e08102a:	08 fe                	or     %bh,%dh
 e08102c:	00 00                	add    %al,(%eax)
 e08102e:	00 00                	add    %al,(%eax)
 e081030:	03 60 08             	add    0x8(%eax),%esp
 e081033:	fe 00                	incb   (%eax)
 e081035:	00 00                	add    %al,(%eax)
 e081037:	00 03                	add    %al,(%ebx)
 e081039:	70 08                	jo     e081043 <pagedir_segbegin+0x43>
 e08103b:	fe 00                	incb   (%eax)
 e08103d:	00 00                	add    %al,(%eax)
 e08103f:	00 03                	add    %al,(%ebx)
 e081041:	80 08 fe             	orb    $0xfe,(%eax)
 e081044:	00 00                	add    %al,(%eax)
 e081046:	00 00                	add    %al,(%eax)
 e081048:	03 90 08 fe 00 00    	add    0xfe08(%eax),%edx
 e08104e:	00 00                	add    %al,(%eax)
 e081050:	03 a0 08 fe 00 00    	add    0xfe08(%eax),%esp
 e081056:	00 00                	add    %al,(%eax)
 e081058:	03 b0 08 fe 00 00    	add    0xfe08(%eax),%esi
 e08105e:	00 00                	add    %al,(%eax)
 e081060:	03 c0                	add    %eax,%eax
 e081062:	08 fe                	or     %bh,%dh
 e081064:	00 00                	add    %al,(%eax)
 e081066:	00 00                	add    %al,(%eax)
 e081068:	03 d0                	add    %eax,%edx
 e08106a:	08 fe                	or     %bh,%dh
 e08106c:	00 00                	add    %al,(%eax)
 e08106e:	00 00                	add    %al,(%eax)
 e081070:	03 e0                	add    %eax,%esp
 e081072:	08 fe                	or     %bh,%dh
 e081074:	00 00                	add    %al,(%eax)
 e081076:	00 00                	add    %al,(%eax)
 e081078:	03 f0                	add    %eax,%esi
 e08107a:	08 fe                	or     %bh,%dh
 e08107c:	00 00                	add    %al,(%eax)
 e08107e:	00 00                	add    %al,(%eax)
 e081080:	03 00                	add    (%eax),%eax
 e081082:	09 fe                	or     %edi,%esi
 e081084:	00 00                	add    %al,(%eax)
 e081086:	00 00                	add    %al,(%eax)
 e081088:	03 10                	add    (%eax),%edx
 e08108a:	09 fe                	or     %edi,%esi
 e08108c:	00 00                	add    %al,(%eax)
 e08108e:	00 00                	add    %al,(%eax)
 e081090:	03 20                	add    (%eax),%esp
 e081092:	09 fe                	or     %edi,%esi
 e081094:	00 00                	add    %al,(%eax)
 e081096:	00 00                	add    %al,(%eax)
 e081098:	03 30                	add    (%eax),%esi
 e08109a:	09 fe                	or     %edi,%esi
 e08109c:	00 00                	add    %al,(%eax)
 e08109e:	00 00                	add    %al,(%eax)
 e0810a0:	03 40 09             	add    0x9(%eax),%eax
 e0810a3:	fe 00                	incb   (%eax)
 e0810a5:	00 00                	add    %al,(%eax)
 e0810a7:	00 03                	add    %al,(%ebx)
 e0810a9:	50                   	push   %eax
 e0810aa:	09 fe                	or     %edi,%esi
 e0810ac:	00 00                	add    %al,(%eax)
 e0810ae:	00 00                	add    %al,(%eax)
 e0810b0:	03 60 09             	add    0x9(%eax),%esp
 e0810b3:	fe 00                	incb   (%eax)
 e0810b5:	00 00                	add    %al,(%eax)
 e0810b7:	00 03                	add    %al,(%ebx)
 e0810b9:	70 09                	jo     e0810c4 <pagedir_segbegin+0xc4>
 e0810bb:	fe 00                	incb   (%eax)
 e0810bd:	00 00                	add    %al,(%eax)
 e0810bf:	00 03                	add    %al,(%ebx)
 e0810c1:	80 09 fe             	orb    $0xfe,(%ecx)
 e0810c4:	00 00                	add    %al,(%eax)
 e0810c6:	00 00                	add    %al,(%eax)
 e0810c8:	03 90 09 fe 00 00    	add    0xfe09(%eax),%edx
 e0810ce:	00 00                	add    %al,(%eax)
 e0810d0:	03 a0 09 fe 00 00    	add    0xfe09(%eax),%esp
 e0810d6:	00 00                	add    %al,(%eax)
 e0810d8:	03 b0 09 fe 00 00    	add    0xfe09(%eax),%esi
 e0810de:	00 00                	add    %al,(%eax)
 e0810e0:	03 c0                	add    %eax,%eax
 e0810e2:	09 fe                	or     %edi,%esi
 e0810e4:	00 00                	add    %al,(%eax)
 e0810e6:	00 00                	add    %al,(%eax)
 e0810e8:	03 d0                	add    %eax,%edx
 e0810ea:	09 fe                	or     %edi,%esi
 e0810ec:	00 00                	add    %al,(%eax)
 e0810ee:	00 00                	add    %al,(%eax)
 e0810f0:	03 e0                	add    %eax,%esp
 e0810f2:	09 fe                	or     %edi,%esi
 e0810f4:	00 00                	add    %al,(%eax)
 e0810f6:	00 00                	add    %al,(%eax)
 e0810f8:	03 f0                	add    %eax,%esi
 e0810fa:	09 fe                	or     %edi,%esi
 e0810fc:	00 00                	add    %al,(%eax)
 e0810fe:	00 00                	add    %al,(%eax)
 e081100:	03 00                	add    (%eax),%eax
 e081102:	0a fe                	or     %dh,%bh
 e081104:	00 00                	add    %al,(%eax)
 e081106:	00 00                	add    %al,(%eax)
 e081108:	03 10                	add    (%eax),%edx
 e08110a:	0a fe                	or     %dh,%bh
 e08110c:	00 00                	add    %al,(%eax)
 e08110e:	00 00                	add    %al,(%eax)
 e081110:	03 20                	add    (%eax),%esp
 e081112:	0a fe                	or     %dh,%bh
 e081114:	00 00                	add    %al,(%eax)
 e081116:	00 00                	add    %al,(%eax)
 e081118:	03 30                	add    (%eax),%esi
 e08111a:	0a fe                	or     %dh,%bh
 e08111c:	00 00                	add    %al,(%eax)
 e08111e:	00 00                	add    %al,(%eax)
 e081120:	03 40 0a             	add    0xa(%eax),%eax
 e081123:	fe 00                	incb   (%eax)
 e081125:	00 00                	add    %al,(%eax)
 e081127:	00 03                	add    %al,(%ebx)
 e081129:	50                   	push   %eax
 e08112a:	0a fe                	or     %dh,%bh
 e08112c:	00 00                	add    %al,(%eax)
 e08112e:	00 00                	add    %al,(%eax)
 e081130:	03 60 0a             	add    0xa(%eax),%esp
 e081133:	fe 00                	incb   (%eax)
 e081135:	00 00                	add    %al,(%eax)
 e081137:	00 03                	add    %al,(%ebx)
 e081139:	70 0a                	jo     e081145 <pagedir_segbegin+0x145>
 e08113b:	fe 00                	incb   (%eax)
 e08113d:	00 00                	add    %al,(%eax)
 e08113f:	00 03                	add    %al,(%ebx)
 e081141:	80 0a fe             	orb    $0xfe,(%edx)
 e081144:	00 00                	add    %al,(%eax)
 e081146:	00 00                	add    %al,(%eax)
 e081148:	03 90 0a fe 00 00    	add    0xfe0a(%eax),%edx
 e08114e:	00 00                	add    %al,(%eax)
 e081150:	03 a0 0a fe 00 00    	add    0xfe0a(%eax),%esp
 e081156:	00 00                	add    %al,(%eax)
 e081158:	03 b0 0a fe 00 00    	add    0xfe0a(%eax),%esi
 e08115e:	00 00                	add    %al,(%eax)
 e081160:	03 c0                	add    %eax,%eax
 e081162:	0a fe                	or     %dh,%bh
 e081164:	00 00                	add    %al,(%eax)
 e081166:	00 00                	add    %al,(%eax)
 e081168:	03 d0                	add    %eax,%edx
 e08116a:	0a fe                	or     %dh,%bh
 e08116c:	00 00                	add    %al,(%eax)
 e08116e:	00 00                	add    %al,(%eax)
 e081170:	03 e0                	add    %eax,%esp
 e081172:	0a fe                	or     %dh,%bh
 e081174:	00 00                	add    %al,(%eax)
 e081176:	00 00                	add    %al,(%eax)
 e081178:	03 f0                	add    %eax,%esi
 e08117a:	0a fe                	or     %dh,%bh
 e08117c:	00 00                	add    %al,(%eax)
 e08117e:	00 00                	add    %al,(%eax)
 e081180:	03 00                	add    (%eax),%eax
 e081182:	0b fe                	or     %esi,%edi
 e081184:	00 00                	add    %al,(%eax)
 e081186:	00 00                	add    %al,(%eax)
 e081188:	03 10                	add    (%eax),%edx
 e08118a:	0b fe                	or     %esi,%edi
 e08118c:	00 00                	add    %al,(%eax)
 e08118e:	00 00                	add    %al,(%eax)
 e081190:	03 20                	add    (%eax),%esp
 e081192:	0b fe                	or     %esi,%edi
 e081194:	00 00                	add    %al,(%eax)
 e081196:	00 00                	add    %al,(%eax)
 e081198:	03 30                	add    (%eax),%esi
 e08119a:	0b fe                	or     %esi,%edi
 e08119c:	00 00                	add    %al,(%eax)
 e08119e:	00 00                	add    %al,(%eax)
 e0811a0:	03 40 0b             	add    0xb(%eax),%eax
 e0811a3:	fe 00                	incb   (%eax)
 e0811a5:	00 00                	add    %al,(%eax)
 e0811a7:	00 03                	add    %al,(%ebx)
 e0811a9:	50                   	push   %eax
 e0811aa:	0b fe                	or     %esi,%edi
 e0811ac:	00 00                	add    %al,(%eax)
 e0811ae:	00 00                	add    %al,(%eax)
 e0811b0:	03 60 0b             	add    0xb(%eax),%esp
 e0811b3:	fe 00                	incb   (%eax)
 e0811b5:	00 00                	add    %al,(%eax)
 e0811b7:	00 03                	add    %al,(%ebx)
 e0811b9:	70 0b                	jo     e0811c6 <pagedir_segbegin+0x1c6>
 e0811bb:	fe 00                	incb   (%eax)
 e0811bd:	00 00                	add    %al,(%eax)
 e0811bf:	00 03                	add    %al,(%ebx)
 e0811c1:	80 0b fe             	orb    $0xfe,(%ebx)
 e0811c4:	00 00                	add    %al,(%eax)
 e0811c6:	00 00                	add    %al,(%eax)
 e0811c8:	03 90 0b fe 00 00    	add    0xfe0b(%eax),%edx
 e0811ce:	00 00                	add    %al,(%eax)
 e0811d0:	03 a0 0b fe 00 00    	add    0xfe0b(%eax),%esp
 e0811d6:	00 00                	add    %al,(%eax)
 e0811d8:	03 b0 0b fe 00 00    	add    0xfe0b(%eax),%esi
 e0811de:	00 00                	add    %al,(%eax)
 e0811e0:	03 c0                	add    %eax,%eax
 e0811e2:	0b fe                	or     %esi,%edi
 e0811e4:	00 00                	add    %al,(%eax)
 e0811e6:	00 00                	add    %al,(%eax)
 e0811e8:	03 d0                	add    %eax,%edx
 e0811ea:	0b fe                	or     %esi,%edi
 e0811ec:	00 00                	add    %al,(%eax)
 e0811ee:	00 00                	add    %al,(%eax)
 e0811f0:	03 e0                	add    %eax,%esp
 e0811f2:	0b fe                	or     %esi,%edi
 e0811f4:	00 00                	add    %al,(%eax)
 e0811f6:	00 00                	add    %al,(%eax)
 e0811f8:	03 f0                	add    %eax,%esi
 e0811fa:	0b fe                	or     %esi,%edi
 e0811fc:	00 00                	add    %al,(%eax)
 e0811fe:	00 00                	add    %al,(%eax)
 e081200:	03 00                	add    (%eax),%eax
 e081202:	0c fe                	or     $0xfe,%al
 e081204:	00 00                	add    %al,(%eax)
 e081206:	00 00                	add    %al,(%eax)
 e081208:	03 10                	add    (%eax),%edx
 e08120a:	0c fe                	or     $0xfe,%al
 e08120c:	00 00                	add    %al,(%eax)
 e08120e:	00 00                	add    %al,(%eax)
 e081210:	03 20                	add    (%eax),%esp
 e081212:	0c fe                	or     $0xfe,%al
 e081214:	00 00                	add    %al,(%eax)
 e081216:	00 00                	add    %al,(%eax)
 e081218:	03 30                	add    (%eax),%esi
 e08121a:	0c fe                	or     $0xfe,%al
 e08121c:	00 00                	add    %al,(%eax)
 e08121e:	00 00                	add    %al,(%eax)
 e081220:	03 40 0c             	add    0xc(%eax),%eax
 e081223:	fe 00                	incb   (%eax)
 e081225:	00 00                	add    %al,(%eax)
 e081227:	00 03                	add    %al,(%ebx)
 e081229:	50                   	push   %eax
 e08122a:	0c fe                	or     $0xfe,%al
 e08122c:	00 00                	add    %al,(%eax)
 e08122e:	00 00                	add    %al,(%eax)
 e081230:	03 60 0c             	add    0xc(%eax),%esp
 e081233:	fe 00                	incb   (%eax)
 e081235:	00 00                	add    %al,(%eax)
 e081237:	00 03                	add    %al,(%ebx)
 e081239:	70 0c                	jo     e081247 <pagedir_segbegin+0x247>
 e08123b:	fe 00                	incb   (%eax)
 e08123d:	00 00                	add    %al,(%eax)
 e08123f:	00 03                	add    %al,(%ebx)
 e081241:	80 0c fe 00          	orb    $0x0,(%esi,%edi,8)
 e081245:	00 00                	add    %al,(%eax)
 e081247:	00 03                	add    %al,(%ebx)
 e081249:	90                   	nop    
 e08124a:	0c fe                	or     $0xfe,%al
 e08124c:	00 00                	add    %al,(%eax)
 e08124e:	00 00                	add    %al,(%eax)
 e081250:	03 a0 0c fe 00 00    	add    0xfe0c(%eax),%esp
 e081256:	00 00                	add    %al,(%eax)
 e081258:	03 b0 0c fe 00 00    	add    0xfe0c(%eax),%esi
 e08125e:	00 00                	add    %al,(%eax)
 e081260:	03 c0                	add    %eax,%eax
 e081262:	0c fe                	or     $0xfe,%al
 e081264:	00 00                	add    %al,(%eax)
 e081266:	00 00                	add    %al,(%eax)
 e081268:	03 d0                	add    %eax,%edx
 e08126a:	0c fe                	or     $0xfe,%al
 e08126c:	00 00                	add    %al,(%eax)
 e08126e:	00 00                	add    %al,(%eax)
 e081270:	03 e0                	add    %eax,%esp
 e081272:	0c fe                	or     $0xfe,%al
 e081274:	00 00                	add    %al,(%eax)
 e081276:	00 00                	add    %al,(%eax)
 e081278:	03 f0                	add    %eax,%esi
 e08127a:	0c fe                	or     $0xfe,%al
 e08127c:	00 00                	add    %al,(%eax)
 e08127e:	00 00                	add    %al,(%eax)
 e081280:	03 00                	add    (%eax),%eax
 e081282:	0d fe 00 00 00       	or     $0xfe,%eax
 e081287:	00 03                	add    %al,(%ebx)
 e081289:	10 0d fe 00 00 00    	adc    %cl,0xfe
 e08128f:	00 03                	add    %al,(%ebx)
 e081291:	20 0d fe 00 00 00    	and    %cl,0xfe
 e081297:	00 03                	add    %al,(%ebx)
 e081299:	30 0d fe 00 00 00    	xor    %cl,0xfe
 e08129f:	00 03                	add    %al,(%ebx)
 e0812a1:	40                   	inc    %eax
 e0812a2:	0d fe 00 00 00       	or     $0xfe,%eax
 e0812a7:	00 03                	add    %al,(%ebx)
 e0812a9:	50                   	push   %eax
 e0812aa:	0d fe 00 00 00       	or     $0xfe,%eax
 e0812af:	00 03                	add    %al,(%ebx)
 e0812b1:	60                   	pusha  
 e0812b2:	0d fe 00 00 00       	or     $0xfe,%eax
 e0812b7:	00 03                	add    %al,(%ebx)
 e0812b9:	70 0d                	jo     e0812c8 <pagedir_segbegin+0x2c8>
 e0812bb:	fe 00                	incb   (%eax)
 e0812bd:	00 00                	add    %al,(%eax)
 e0812bf:	00 03                	add    %al,(%ebx)
 e0812c1:	80 0d fe 00 00 00 00 	orb    $0x0,0xfe
 e0812c8:	03 90 0d fe 00 00    	add    0xfe0d(%eax),%edx
 e0812ce:	00 00                	add    %al,(%eax)
 e0812d0:	03 a0 0d fe 00 00    	add    0xfe0d(%eax),%esp
 e0812d6:	00 00                	add    %al,(%eax)
 e0812d8:	03 b0 0d fe 00 00    	add    0xfe0d(%eax),%esi
 e0812de:	00 00                	add    %al,(%eax)
 e0812e0:	03 c0                	add    %eax,%eax
 e0812e2:	0d fe 00 00 00       	or     $0xfe,%eax
 e0812e7:	00 03                	add    %al,(%ebx)
 e0812e9:	d0 0d fe 00 00 00    	rorb   0xfe
 e0812ef:	00 03                	add    %al,(%ebx)
 e0812f1:	e0 0d                	loopne e081300 <pagedir_segbegin+0x300>
 e0812f3:	fe 00                	incb   (%eax)
 e0812f5:	00 00                	add    %al,(%eax)
 e0812f7:	00 03                	add    %al,(%ebx)
 e0812f9:	f0 0d fe 00 00 00    	lock or $0xfe,%eax
 e0812ff:	00 03                	add    %al,(%ebx)
 e081301:	00 0e                	add    %cl,(%esi)
 e081303:	fe 00                	incb   (%eax)
 e081305:	00 00                	add    %al,(%eax)
 e081307:	00 03                	add    %al,(%ebx)
 e081309:	10 0e                	adc    %cl,(%esi)
 e08130b:	fe 00                	incb   (%eax)
 e08130d:	00 00                	add    %al,(%eax)
 e08130f:	00 03                	add    %al,(%ebx)
 e081311:	20 0e                	and    %cl,(%esi)
 e081313:	fe 00                	incb   (%eax)
 e081315:	00 00                	add    %al,(%eax)
 e081317:	00 03                	add    %al,(%ebx)
 e081319:	30 0e                	xor    %cl,(%esi)
 e08131b:	fe 00                	incb   (%eax)
 e08131d:	00 00                	add    %al,(%eax)
 e08131f:	00 03                	add    %al,(%ebx)
 e081321:	40                   	inc    %eax
 e081322:	0e                   	push   %cs
 e081323:	fe 00                	incb   (%eax)
 e081325:	00 00                	add    %al,(%eax)
 e081327:	00 03                	add    %al,(%ebx)
 e081329:	50                   	push   %eax
 e08132a:	0e                   	push   %cs
 e08132b:	fe 00                	incb   (%eax)
 e08132d:	00 00                	add    %al,(%eax)
 e08132f:	00 03                	add    %al,(%ebx)
 e081331:	60                   	pusha  
 e081332:	0e                   	push   %cs
 e081333:	fe 00                	incb   (%eax)
 e081335:	00 00                	add    %al,(%eax)
 e081337:	00 03                	add    %al,(%ebx)
 e081339:	70 0e                	jo     e081349 <pagedir_segbegin+0x349>
 e08133b:	fe 00                	incb   (%eax)
 e08133d:	00 00                	add    %al,(%eax)
 e08133f:	00 03                	add    %al,(%ebx)
 e081341:	80 0e fe             	orb    $0xfe,(%esi)
 e081344:	00 00                	add    %al,(%eax)
 e081346:	00 00                	add    %al,(%eax)
 e081348:	03 90 0e fe 00 00    	add    0xfe0e(%eax),%edx
 e08134e:	00 00                	add    %al,(%eax)
 e081350:	03 a0 0e fe 00 00    	add    0xfe0e(%eax),%esp
 e081356:	00 00                	add    %al,(%eax)
 e081358:	03 b0 0e fe 00 00    	add    0xfe0e(%eax),%esi
 e08135e:	00 00                	add    %al,(%eax)
 e081360:	03 c0                	add    %eax,%eax
 e081362:	0e                   	push   %cs
 e081363:	fe 00                	incb   (%eax)
 e081365:	00 00                	add    %al,(%eax)
 e081367:	00 03                	add    %al,(%ebx)
 e081369:	d0 0e                	rorb   (%esi)
 e08136b:	fe 00                	incb   (%eax)
 e08136d:	00 00                	add    %al,(%eax)
 e08136f:	00 03                	add    %al,(%ebx)
 e081371:	e0 0e                	loopne e081381 <pagedir_segbegin+0x381>
 e081373:	fe 00                	incb   (%eax)
 e081375:	00 00                	add    %al,(%eax)
 e081377:	00 03                	add    %al,(%ebx)
 e081379:	f0 0e                	lock push %cs
 e08137b:	fe 00                	incb   (%eax)
 e08137d:	00 00                	add    %al,(%eax)
 e08137f:	00 03                	add    %al,(%ebx)
 e081381:	00 0f                	add    %cl,(%edi)
 e081383:	fe 00                	incb   (%eax)
 e081385:	00 00                	add    %al,(%eax)
 e081387:	00 03                	add    %al,(%ebx)
 e081389:	10 0f                	adc    %cl,(%edi)
 e08138b:	fe 00                	incb   (%eax)
 e08138d:	00 00                	add    %al,(%eax)
 e08138f:	00 03                	add    %al,(%ebx)
 e081391:	20 0f                	and    %cl,(%edi)
 e081393:	fe 00                	incb   (%eax)
 e081395:	00 00                	add    %al,(%eax)
 e081397:	00 03                	add    %al,(%ebx)
 e081399:	30 0f                	xor    %cl,(%edi)
 e08139b:	fe 00                	incb   (%eax)
 e08139d:	00 00                	add    %al,(%eax)
 e08139f:	00 03                	add    %al,(%ebx)
 e0813a1:	40                   	inc    %eax
 e0813a2:	0f fe 00             	paddd  (%eax),%mm0
 e0813a5:	00 00                	add    %al,(%eax)
 e0813a7:	00 03                	add    %al,(%ebx)
 e0813a9:	50                   	push   %eax
 e0813aa:	0f fe 00             	paddd  (%eax),%mm0
 e0813ad:	00 00                	add    %al,(%eax)
 e0813af:	00 03                	add    %al,(%ebx)
 e0813b1:	60                   	pusha  
 e0813b2:	0f fe 00             	paddd  (%eax),%mm0
 e0813b5:	00 00                	add    %al,(%eax)
 e0813b7:	00 03                	add    %al,(%ebx)
 e0813b9:	70 0f                	jo     e0813ca <pagedir_segbegin+0x3ca>
 e0813bb:	fe 00                	incb   (%eax)
 e0813bd:	00 00                	add    %al,(%eax)
 e0813bf:	00 03                	add    %al,(%ebx)
 e0813c1:	80 0f fe             	orb    $0xfe,(%edi)
 e0813c4:	00 00                	add    %al,(%eax)
 e0813c6:	00 00                	add    %al,(%eax)
 e0813c8:	03 90 0f fe 00 00    	add    0xfe0f(%eax),%edx
 e0813ce:	00 00                	add    %al,(%eax)
 e0813d0:	03 a0 0f fe 00 00    	add    0xfe0f(%eax),%esp
 e0813d6:	00 00                	add    %al,(%eax)
 e0813d8:	03 b0 0f fe 00 00    	add    0xfe0f(%eax),%esi
 e0813de:	00 00                	add    %al,(%eax)
 e0813e0:	03 c0                	add    %eax,%eax
 e0813e2:	0f fe 00             	paddd  (%eax),%mm0
 e0813e5:	00 00                	add    %al,(%eax)
 e0813e7:	00 03                	add    %al,(%ebx)
 e0813e9:	d0 0f                	rorb   (%edi)
 e0813eb:	fe 00                	incb   (%eax)
 e0813ed:	00 00                	add    %al,(%eax)
 e0813ef:	00 03                	add    %al,(%ebx)
 e0813f1:	e0 0f                	loopne e081402 <pagedir_segbegin+0x402>
 e0813f3:	fe 00                	incb   (%eax)
 e0813f5:	00 00                	add    %al,(%eax)
 e0813f7:	00 03                	add    %al,(%ebx)
 e0813f9:	f0 0f fe 00          	lock paddd (%eax),%mm0
 e0813fd:	00 00                	add    %al,(%eax)
 e0813ff:	00 03                	add    %al,(%ebx)
 e081401:	00 08                	add    %cl,(%eax)
 e081403:	fe 00                	incb   (%eax)
 e081405:	00 00                	add    %al,(%eax)
 e081407:	00 03                	add    %al,(%ebx)
 e081409:	10 08                	adc    %cl,(%eax)
 e08140b:	fe 00                	incb   (%eax)
 e08140d:	00 00                	add    %al,(%eax)
 e08140f:	00 03                	add    %al,(%ebx)
 e081411:	20 08                	and    %cl,(%eax)
 e081413:	fe 00                	incb   (%eax)
 e081415:	00 00                	add    %al,(%eax)
 e081417:	00 03                	add    %al,(%ebx)
 e081419:	30 08                	xor    %cl,(%eax)
 e08141b:	fe 00                	incb   (%eax)
 e08141d:	00 00                	add    %al,(%eax)
 e08141f:	00 03                	add    %al,(%ebx)
 e081421:	40                   	inc    %eax
 e081422:	08 fe                	or     %bh,%dh
 e081424:	00 00                	add    %al,(%eax)
 e081426:	00 00                	add    %al,(%eax)
 e081428:	03 50 08             	add    0x8(%eax),%edx
 e08142b:	fe 00                	incb   (%eax)
 e08142d:	00 00                	add    %al,(%eax)
 e08142f:	00 03                	add    %al,(%ebx)
 e081431:	60                   	pusha  
 e081432:	08 fe                	or     %bh,%dh
 e081434:	00 00                	add    %al,(%eax)
 e081436:	00 00                	add    %al,(%eax)
 e081438:	03 70 08             	add    0x8(%eax),%esi
 e08143b:	fe 00                	incb   (%eax)
 e08143d:	00 00                	add    %al,(%eax)
 e08143f:	00 03                	add    %al,(%ebx)
 e081441:	80 08 fe             	orb    $0xfe,(%eax)
 e081444:	00 00                	add    %al,(%eax)
 e081446:	00 00                	add    %al,(%eax)
 e081448:	03 90 08 fe 00 00    	add    0xfe08(%eax),%edx
 e08144e:	00 00                	add    %al,(%eax)
 e081450:	03 a0 08 fe 00 00    	add    0xfe08(%eax),%esp
 e081456:	00 00                	add    %al,(%eax)
 e081458:	03 c0                	add    %eax,%eax
 e08145a:	08 fe                	or     %bh,%dh
 e08145c:	00 00                	add    %al,(%eax)
 e08145e:	00 00                	add    %al,(%eax)
 e081460:	03 d0                	add    %eax,%edx
 e081462:	08 fe                	or     %bh,%dh
 e081464:	00 00                	add    %al,(%eax)
 e081466:	00 00                	add    %al,(%eax)
 e081468:	03 e0                	add    %eax,%esp
 e08146a:	08 fe                	or     %bh,%dh
 e08146c:	00 00                	add    %al,(%eax)
 e08146e:	00 00                	add    %al,(%eax)
 e081470:	03 f0                	add    %eax,%esi
 e081472:	08 fe                	or     %bh,%dh
 e081474:	00 00                	add    %al,(%eax)
 e081476:	00 00                	add    %al,(%eax)
 e081478:	03 a0 08 fe 00 00    	add    0xfe08(%eax),%esp
 e08147e:	00 00                	add    %al,(%eax)
 e081480:	03 b0 08 fe 00 00    	add    0xfe08(%eax),%esi
 e081486:	00 00                	add    %al,(%eax)
 e081488:	03 c0                	add    %eax,%eax
 e08148a:	08 fe                	or     %bh,%dh
 e08148c:	00 00                	add    %al,(%eax)
 e08148e:	00 00                	add    %al,(%eax)
 e081490:	03 d0                	add    %eax,%edx
 e081492:	08 fe                	or     %bh,%dh
 e081494:	00 00                	add    %al,(%eax)
 e081496:	00 00                	add    %al,(%eax)
 e081498:	03 e0                	add    %eax,%esp
 e08149a:	08 fe                	or     %bh,%dh
 e08149c:	00 00                	add    %al,(%eax)
 e08149e:	00 00                	add    %al,(%eax)
 e0814a0:	03 f0                	add    %eax,%esi
 e0814a2:	08 fe                	or     %bh,%dh
 e0814a4:	00 00                	add    %al,(%eax)
 e0814a6:	00 00                	add    %al,(%eax)
 e0814a8:	03 00                	add    (%eax),%eax
 e0814aa:	09 fe                	or     %edi,%esi
 e0814ac:	00 00                	add    %al,(%eax)
 e0814ae:	00 00                	add    %al,(%eax)
 e0814b0:	03 10                	add    (%eax),%edx
 e0814b2:	09 fe                	or     %edi,%esi
 e0814b4:	00 00                	add    %al,(%eax)
 e0814b6:	00 00                	add    %al,(%eax)
 e0814b8:	03 20                	add    (%eax),%esp
 e0814ba:	09 fe                	or     %edi,%esi
 e0814bc:	00 00                	add    %al,(%eax)
 e0814be:	00 00                	add    %al,(%eax)
 e0814c0:	03 30                	add    (%eax),%esi
 e0814c2:	09 fe                	or     %edi,%esi
 e0814c4:	00 00                	add    %al,(%eax)
 e0814c6:	00 00                	add    %al,(%eax)
 e0814c8:	03 40 09             	add    0x9(%eax),%eax
 e0814cb:	fe 00                	incb   (%eax)
 e0814cd:	00 00                	add    %al,(%eax)
 e0814cf:	00 03                	add    %al,(%ebx)
 e0814d1:	50                   	push   %eax
 e0814d2:	09 fe                	or     %edi,%esi
 e0814d4:	00 00                	add    %al,(%eax)
 e0814d6:	00 00                	add    %al,(%eax)
 e0814d8:	03 60 09             	add    0x9(%eax),%esp
 e0814db:	fe 00                	incb   (%eax)
 e0814dd:	00 00                	add    %al,(%eax)
 e0814df:	00 03                	add    %al,(%ebx)
 e0814e1:	70 09                	jo     e0814ec <pagedir_segbegin+0x4ec>
 e0814e3:	fe 00                	incb   (%eax)
 e0814e5:	00 00                	add    %al,(%eax)
 e0814e7:	00 03                	add    %al,(%ebx)
 e0814e9:	80 09 fe             	orb    $0xfe,(%ecx)
 e0814ec:	00 00                	add    %al,(%eax)
 e0814ee:	00 00                	add    %al,(%eax)
 e0814f0:	03 90 09 fe 00 00    	add    0xfe09(%eax),%edx
 e0814f6:	00 00                	add    %al,(%eax)
 e0814f8:	03 a0 09 fe 00 00    	add    0xfe09(%eax),%esp
 e0814fe:	00 00                	add    %al,(%eax)
 e081500:	03 b0 09 fe 00 00    	add    0xfe09(%eax),%esi
 e081506:	00 00                	add    %al,(%eax)
 e081508:	03 c0                	add    %eax,%eax
 e08150a:	09 fe                	or     %edi,%esi
 e08150c:	00 00                	add    %al,(%eax)
 e08150e:	00 00                	add    %al,(%eax)
 e081510:	03 d0                	add    %eax,%edx
 e081512:	09 fe                	or     %edi,%esi
 e081514:	00 00                	add    %al,(%eax)
 e081516:	00 00                	add    %al,(%eax)
 e081518:	03 e0                	add    %eax,%esp
 e08151a:	09 fe                	or     %edi,%esi
 e08151c:	00 00                	add    %al,(%eax)
 e08151e:	00 00                	add    %al,(%eax)
 e081520:	03 f0                	add    %eax,%esi
 e081522:	09 fe                	or     %edi,%esi
 e081524:	00 00                	add    %al,(%eax)
 e081526:	00 00                	add    %al,(%eax)
 e081528:	03 00                	add    (%eax),%eax
 e08152a:	0a fe                	or     %dh,%bh
 e08152c:	00 00                	add    %al,(%eax)
 e08152e:	00 00                	add    %al,(%eax)
 e081530:	03 10                	add    (%eax),%edx
 e081532:	0a fe                	or     %dh,%bh
 e081534:	00 00                	add    %al,(%eax)
 e081536:	00 00                	add    %al,(%eax)
 e081538:	03 20                	add    (%eax),%esp
 e08153a:	0a fe                	or     %dh,%bh
 e08153c:	00 00                	add    %al,(%eax)
 e08153e:	00 00                	add    %al,(%eax)
 e081540:	03 30                	add    (%eax),%esi
 e081542:	0a fe                	or     %dh,%bh
 e081544:	00 00                	add    %al,(%eax)
 e081546:	00 00                	add    %al,(%eax)
 e081548:	03 40 0a             	add    0xa(%eax),%eax
 e08154b:	fe 00                	incb   (%eax)
 e08154d:	00 00                	add    %al,(%eax)
 e08154f:	00 03                	add    %al,(%ebx)
 e081551:	50                   	push   %eax
 e081552:	0a fe                	or     %dh,%bh
 e081554:	00 00                	add    %al,(%eax)
 e081556:	00 00                	add    %al,(%eax)
 e081558:	03 60 0a             	add    0xa(%eax),%esp
 e08155b:	fe 00                	incb   (%eax)
 e08155d:	00 00                	add    %al,(%eax)
 e08155f:	00 03                	add    %al,(%ebx)
 e081561:	70 0a                	jo     e08156d <pagedir_segbegin+0x56d>
 e081563:	fe 00                	incb   (%eax)
 e081565:	00 00                	add    %al,(%eax)
 e081567:	00 03                	add    %al,(%ebx)
 e081569:	80 0a fe             	orb    $0xfe,(%edx)
 e08156c:	00 00                	add    %al,(%eax)
 e08156e:	00 00                	add    %al,(%eax)
 e081570:	03 90 0a fe 00 00    	add    0xfe0a(%eax),%edx
 e081576:	00 00                	add    %al,(%eax)
 e081578:	03 a0 0a fe 00 00    	add    0xfe0a(%eax),%esp
 e08157e:	00 00                	add    %al,(%eax)
 e081580:	03 b0 0a fe 00 00    	add    0xfe0a(%eax),%esi
 e081586:	00 00                	add    %al,(%eax)
 e081588:	03 c0                	add    %eax,%eax
 e08158a:	0a fe                	or     %dh,%bh
 e08158c:	00 00                	add    %al,(%eax)
 e08158e:	00 00                	add    %al,(%eax)
 e081590:	03 d0                	add    %eax,%edx
 e081592:	0a fe                	or     %dh,%bh
 e081594:	00 00                	add    %al,(%eax)
 e081596:	00 00                	add    %al,(%eax)
 e081598:	03 e0                	add    %eax,%esp
 e08159a:	0a fe                	or     %dh,%bh
 e08159c:	00 00                	add    %al,(%eax)
 e08159e:	00 00                	add    %al,(%eax)
 e0815a0:	03 f0                	add    %eax,%esi
 e0815a2:	0a fe                	or     %dh,%bh
 e0815a4:	00 00                	add    %al,(%eax)
 e0815a6:	00 00                	add    %al,(%eax)
 e0815a8:	03 00                	add    (%eax),%eax
 e0815aa:	0a fe                	or     %dh,%bh
 e0815ac:	00 00                	add    %al,(%eax)
 e0815ae:	00 00                	add    %al,(%eax)
 e0815b0:	03 10                	add    (%eax),%edx
 e0815b2:	0b fe                	or     %esi,%edi
 e0815b4:	00 00                	add    %al,(%eax)
 e0815b6:	00 00                	add    %al,(%eax)
 e0815b8:	03 20                	add    (%eax),%esp
 e0815ba:	0b fe                	or     %esi,%edi
 e0815bc:	00 00                	add    %al,(%eax)
 e0815be:	00 00                	add    %al,(%eax)
 e0815c0:	03 30                	add    (%eax),%esi
 e0815c2:	0b fe                	or     %esi,%edi
 e0815c4:	00 00                	add    %al,(%eax)
 e0815c6:	00 00                	add    %al,(%eax)
 e0815c8:	03 40 0b             	add    0xb(%eax),%eax
 e0815cb:	fe 00                	incb   (%eax)
 e0815cd:	00 00                	add    %al,(%eax)
 e0815cf:	00 03                	add    %al,(%ebx)
 e0815d1:	50                   	push   %eax
 e0815d2:	0b fe                	or     %esi,%edi
 e0815d4:	00 00                	add    %al,(%eax)
 e0815d6:	00 00                	add    %al,(%eax)
 e0815d8:	03 60 0b             	add    0xb(%eax),%esp
 e0815db:	fe 00                	incb   (%eax)
 e0815dd:	00 00                	add    %al,(%eax)
 e0815df:	00 03                	add    %al,(%ebx)
 e0815e1:	70 0b                	jo     e0815ee <pagedir_segbegin+0x5ee>
 e0815e3:	fe 00                	incb   (%eax)
 e0815e5:	00 00                	add    %al,(%eax)
 e0815e7:	00 03                	add    %al,(%ebx)
 e0815e9:	80 0b fe             	orb    $0xfe,(%ebx)
 e0815ec:	00 00                	add    %al,(%eax)
 e0815ee:	00 00                	add    %al,(%eax)
 e0815f0:	03 90 0b fe 00 00    	add    0xfe0b(%eax),%edx
 e0815f6:	00 00                	add    %al,(%eax)
 e0815f8:	03 a0 0b fe 00 00    	add    0xfe0b(%eax),%esp
 e0815fe:	00 00                	add    %al,(%eax)
 e081600:	03 b0 0b fe 00 00    	add    0xfe0b(%eax),%esi
 e081606:	00 00                	add    %al,(%eax)
 e081608:	03 c0                	add    %eax,%eax
 e08160a:	0b fe                	or     %esi,%edi
 e08160c:	00 00                	add    %al,(%eax)
 e08160e:	00 00                	add    %al,(%eax)
 e081610:	03 d0                	add    %eax,%edx
 e081612:	0b fe                	or     %esi,%edi
 e081614:	00 00                	add    %al,(%eax)
 e081616:	00 00                	add    %al,(%eax)
 e081618:	03 e0                	add    %eax,%esp
 e08161a:	0b fe                	or     %esi,%edi
 e08161c:	00 00                	add    %al,(%eax)
 e08161e:	00 00                	add    %al,(%eax)
 e081620:	03 f0                	add    %eax,%esi
 e081622:	0b fe                	or     %esi,%edi
 e081624:	00 00                	add    %al,(%eax)
 e081626:	00 00                	add    %al,(%eax)
 e081628:	03 00                	add    (%eax),%eax
 e08162a:	0c fe                	or     $0xfe,%al
 e08162c:	00 00                	add    %al,(%eax)
 e08162e:	00 00                	add    %al,(%eax)
 e081630:	03 10                	add    (%eax),%edx
 e081632:	0c fe                	or     $0xfe,%al
 e081634:	00 00                	add    %al,(%eax)
 e081636:	00 00                	add    %al,(%eax)
 e081638:	03 20                	add    (%eax),%esp
 e08163a:	0c fe                	or     $0xfe,%al
 e08163c:	00 00                	add    %al,(%eax)
 e08163e:	00 00                	add    %al,(%eax)
 e081640:	03 30                	add    (%eax),%esi
 e081642:	0c fe                	or     $0xfe,%al
 e081644:	00 00                	add    %al,(%eax)
 e081646:	00 00                	add    %al,(%eax)
 e081648:	03 40 0c             	add    0xc(%eax),%eax
 e08164b:	fe 00                	incb   (%eax)
 e08164d:	00 00                	add    %al,(%eax)
 e08164f:	00 03                	add    %al,(%ebx)
 e081651:	50                   	push   %eax
 e081652:	0c fe                	or     $0xfe,%al
 e081654:	00 00                	add    %al,(%eax)
 e081656:	00 00                	add    %al,(%eax)
 e081658:	03 60 0c             	add    0xc(%eax),%esp
 e08165b:	fe 00                	incb   (%eax)
 e08165d:	00 00                	add    %al,(%eax)
 e08165f:	00 03                	add    %al,(%ebx)
 e081661:	70 0c                	jo     e08166f <pagedir_segbegin+0x66f>
 e081663:	fe 00                	incb   (%eax)
 e081665:	00 00                	add    %al,(%eax)
 e081667:	00 03                	add    %al,(%ebx)
 e081669:	80 0c fe 00          	orb    $0x0,(%esi,%edi,8)
 e08166d:	00 00                	add    %al,(%eax)
 e08166f:	00 03                	add    %al,(%ebx)
 e081671:	90                   	nop    
 e081672:	0c fe                	or     $0xfe,%al
 e081674:	00 00                	add    %al,(%eax)
 e081676:	00 00                	add    %al,(%eax)
 e081678:	03 a0 0c fe 00 00    	add    0xfe0c(%eax),%esp
 e08167e:	00 00                	add    %al,(%eax)
 e081680:	03 b0 0c fe 00 00    	add    0xfe0c(%eax),%esi
 e081686:	00 00                	add    %al,(%eax)
 e081688:	03 c0                	add    %eax,%eax
 e08168a:	0c fe                	or     $0xfe,%al
 e08168c:	00 00                	add    %al,(%eax)
 e08168e:	00 00                	add    %al,(%eax)
 e081690:	03 d0                	add    %eax,%edx
 e081692:	0c fe                	or     $0xfe,%al
 e081694:	00 00                	add    %al,(%eax)
 e081696:	00 00                	add    %al,(%eax)
 e081698:	03 e0                	add    %eax,%esp
 e08169a:	0c fe                	or     $0xfe,%al
 e08169c:	00 00                	add    %al,(%eax)
 e08169e:	00 00                	add    %al,(%eax)
 e0816a0:	03 f0                	add    %eax,%esi
 e0816a2:	0c fe                	or     $0xfe,%al
 e0816a4:	00 00                	add    %al,(%eax)
 e0816a6:	00 00                	add    %al,(%eax)
 e0816a8:	03 00                	add    (%eax),%eax
 e0816aa:	0d fe 00 00 00       	or     $0xfe,%eax
 e0816af:	00 03                	add    %al,(%ebx)
 e0816b1:	10 0d fe 00 00 00    	adc    %cl,0xfe
 e0816b7:	00 03                	add    %al,(%ebx)
 e0816b9:	20 0d fe 00 00 00    	and    %cl,0xfe
 e0816bf:	00 03                	add    %al,(%ebx)
 e0816c1:	30 0d fe 00 00 00    	xor    %cl,0xfe
 e0816c7:	00 03                	add    %al,(%ebx)
 e0816c9:	40                   	inc    %eax
 e0816ca:	0d fe 00 00 00       	or     $0xfe,%eax
 e0816cf:	00 03                	add    %al,(%ebx)
 e0816d1:	50                   	push   %eax
 e0816d2:	0d fe 00 00 00       	or     $0xfe,%eax
 e0816d7:	00 03                	add    %al,(%ebx)
 e0816d9:	60                   	pusha  
 e0816da:	0d fe 00 00 00       	or     $0xfe,%eax
 e0816df:	00 03                	add    %al,(%ebx)
 e0816e1:	70 0d                	jo     e0816f0 <pagedir_segbegin+0x6f0>
 e0816e3:	fe 00                	incb   (%eax)
 e0816e5:	00 00                	add    %al,(%eax)
 e0816e7:	00 03                	add    %al,(%ebx)
 e0816e9:	80 0d fe 00 00 00 00 	orb    $0x0,0xfe
 e0816f0:	03 90 0d fe 00 00    	add    0xfe0d(%eax),%edx
 e0816f6:	00 00                	add    %al,(%eax)
 e0816f8:	03 a0 0d fe 00 00    	add    0xfe0d(%eax),%esp
 e0816fe:	00 00                	add    %al,(%eax)
 e081700:	03 b0 0d fe 00 00    	add    0xfe0d(%eax),%esi
 e081706:	00 00                	add    %al,(%eax)
 e081708:	03 c0                	add    %eax,%eax
 e08170a:	0d fe 00 00 00       	or     $0xfe,%eax
 e08170f:	00 03                	add    %al,(%ebx)
 e081711:	d0 0d fe 00 00 00    	rorb   0xfe
 e081717:	00 03                	add    %al,(%ebx)
 e081719:	e0 0d                	loopne e081728 <pagedir_segbegin+0x728>
 e08171b:	fe 00                	incb   (%eax)
 e08171d:	00 00                	add    %al,(%eax)
 e08171f:	00 03                	add    %al,(%ebx)
 e081721:	f0 0d fe 00 00 00    	lock or $0xfe,%eax
 e081727:	00 03                	add    %al,(%ebx)
 e081729:	00 0e                	add    %cl,(%esi)
 e08172b:	fe 00                	incb   (%eax)
 e08172d:	00 00                	add    %al,(%eax)
 e08172f:	00 03                	add    %al,(%ebx)
 e081731:	10 0e                	adc    %cl,(%esi)
 e081733:	fe 00                	incb   (%eax)
 e081735:	00 00                	add    %al,(%eax)
 e081737:	00 03                	add    %al,(%ebx)
 e081739:	20 0e                	and    %cl,(%esi)
 e08173b:	fe 00                	incb   (%eax)
 e08173d:	00 00                	add    %al,(%eax)
 e08173f:	00 03                	add    %al,(%ebx)
 e081741:	30 0e                	xor    %cl,(%esi)
 e081743:	fe 00                	incb   (%eax)
 e081745:	00 00                	add    %al,(%eax)
 e081747:	00 03                	add    %al,(%ebx)
 e081749:	40                   	inc    %eax
 e08174a:	0e                   	push   %cs
 e08174b:	fe 00                	incb   (%eax)
 e08174d:	00 00                	add    %al,(%eax)
 e08174f:	00 03                	add    %al,(%ebx)
 e081751:	50                   	push   %eax
 e081752:	0e                   	push   %cs
 e081753:	fe 00                	incb   (%eax)
 e081755:	00 00                	add    %al,(%eax)
 e081757:	00 03                	add    %al,(%ebx)
 e081759:	60                   	pusha  
 e08175a:	0e                   	push   %cs
 e08175b:	fe 00                	incb   (%eax)
 e08175d:	00 00                	add    %al,(%eax)
 e08175f:	00 03                	add    %al,(%ebx)
 e081761:	70 0e                	jo     e081771 <pagedir_segbegin+0x771>
 e081763:	fe 00                	incb   (%eax)
 e081765:	00 00                	add    %al,(%eax)
 e081767:	00 03                	add    %al,(%ebx)
 e081769:	80 0e fe             	orb    $0xfe,(%esi)
 e08176c:	00 00                	add    %al,(%eax)
 e08176e:	00 00                	add    %al,(%eax)
 e081770:	03 90 0e fe 00 00    	add    0xfe0e(%eax),%edx
 e081776:	00 00                	add    %al,(%eax)
 e081778:	03 a0 0e fe 00 00    	add    0xfe0e(%eax),%esp
 e08177e:	00 00                	add    %al,(%eax)
 e081780:	03 b0 0e fe 00 00    	add    0xfe0e(%eax),%esi
 e081786:	00 00                	add    %al,(%eax)
 e081788:	03 c0                	add    %eax,%eax
 e08178a:	0e                   	push   %cs
 e08178b:	fe 00                	incb   (%eax)
 e08178d:	00 00                	add    %al,(%eax)
 e08178f:	00 03                	add    %al,(%ebx)
 e081791:	d0 0e                	rorb   (%esi)
 e081793:	fe 00                	incb   (%eax)
 e081795:	00 00                	add    %al,(%eax)
 e081797:	00 03                	add    %al,(%ebx)
 e081799:	e0 0e                	loopne e0817a9 <pagedir_segbegin+0x7a9>
 e08179b:	fe 00                	incb   (%eax)
 e08179d:	00 00                	add    %al,(%eax)
 e08179f:	00 03                	add    %al,(%ebx)
 e0817a1:	f0 0e                	lock push %cs
 e0817a3:	fe 00                	incb   (%eax)
 e0817a5:	00 00                	add    %al,(%eax)
 e0817a7:	00 03                	add    %al,(%ebx)
 e0817a9:	00 0f                	add    %cl,(%edi)
 e0817ab:	fe 00                	incb   (%eax)
 e0817ad:	00 00                	add    %al,(%eax)
 e0817af:	00 03                	add    %al,(%ebx)
 e0817b1:	10 0f                	adc    %cl,(%edi)
 e0817b3:	fe 00                	incb   (%eax)
 e0817b5:	00 00                	add    %al,(%eax)
 e0817b7:	00 03                	add    %al,(%ebx)
 e0817b9:	20 0f                	and    %cl,(%edi)
 e0817bb:	fe 00                	incb   (%eax)
 e0817bd:	00 00                	add    %al,(%eax)
 e0817bf:	00 03                	add    %al,(%ebx)
 e0817c1:	30 0f                	xor    %cl,(%edi)
 e0817c3:	fe 00                	incb   (%eax)
 e0817c5:	00 00                	add    %al,(%eax)
 e0817c7:	00 03                	add    %al,(%ebx)
 e0817c9:	40                   	inc    %eax
 e0817ca:	0f fe 00             	paddd  (%eax),%mm0
 e0817cd:	00 00                	add    %al,(%eax)
 e0817cf:	00 03                	add    %al,(%ebx)
 e0817d1:	50                   	push   %eax
 e0817d2:	0f fe 00             	paddd  (%eax),%mm0
 e0817d5:	00 00                	add    %al,(%eax)
 e0817d7:	00 03                	add    %al,(%ebx)
 e0817d9:	60                   	pusha  
 e0817da:	0f fe 00             	paddd  (%eax),%mm0
 e0817dd:	00 00                	add    %al,(%eax)
 e0817df:	00 03                	add    %al,(%ebx)
 e0817e1:	70 0f                	jo     e0817f2 <pagedir_segbegin+0x7f2>
 e0817e3:	fe 00                	incb   (%eax)
 e0817e5:	00 00                	add    %al,(%eax)
 e0817e7:	00 03                	add    %al,(%ebx)
 e0817e9:	80 0f fe             	orb    $0xfe,(%edi)
 e0817ec:	00 00                	add    %al,(%eax)
 e0817ee:	00 00                	add    %al,(%eax)
 e0817f0:	03 90 0f fe 00 00    	add    0xfe0f(%eax),%edx
 e0817f6:	00 00                	add    %al,(%eax)
 e0817f8:	03 a0 0f fe 00 00    	add    0xfe0f(%eax),%esp
 e0817fe:	00 00                	add    %al,(%eax)
 e081800:	03 b0 0f fe 00 00    	add    0xfe0f(%eax),%esi
 e081806:	00 00                	add    %al,(%eax)
 e081808:	03 c0                	add    %eax,%eax
 e08180a:	0f fe 00             	paddd  (%eax),%mm0
 e08180d:	00 00                	add    %al,(%eax)
 e08180f:	00 03                	add    %al,(%ebx)
 e081811:	e0 0f                	loopne e081822 <pagedir_segbegin+0x822>
 e081813:	fe 00                	incb   (%eax)
 e081815:	00 00                	add    %al,(%eax)
 e081817:	00 03                	add    %al,(%ebx)
 e081819:	f0 0f fe 00          	lock paddd (%eax),%mm0
 e08181d:	00 00                	add    %al,(%eax)
 e08181f:	00 03                	add    %al,(%ebx)
 e081821:	30 18                	xor    %bl,(%eax)
 e081823:	fe 00                	incb   (%eax)
 e081825:	00 00                	add    %al,(%eax)
 e081827:	00 03                	add    %al,(%ebx)
 e081829:	40                   	inc    %eax
 e08182a:	18 fe                	sbb    %bh,%dh
 e08182c:	00 00                	add    %al,(%eax)
 e08182e:	00 00                	add    %al,(%eax)
 e081830:	03 50 18             	add    0x18(%eax),%edx
 e081833:	fe 00                	incb   (%eax)
 e081835:	00 00                	add    %al,(%eax)
 e081837:	00 03                	add    %al,(%ebx)
 e081839:	60                   	pusha  
 e08183a:	18 fe                	sbb    %bh,%dh
 e08183c:	00 00                	add    %al,(%eax)
 e08183e:	00 00                	add    %al,(%eax)
 e081840:	03 70 18             	add    0x18(%eax),%esi
 e081843:	fe 00                	incb   (%eax)
 e081845:	00 00                	add    %al,(%eax)
 e081847:	00 03                	add    %al,(%ebx)
 e081849:	80 18 fe             	sbbb   $0xfe,(%eax)
 e08184c:	00 00                	add    %al,(%eax)
 e08184e:	00 00                	add    %al,(%eax)
 e081850:	03 90 18 fe 00 00    	add    0xfe18(%eax),%edx
 e081856:	00 00                	add    %al,(%eax)
 e081858:	03 a0 18 fe 00 00    	add    0xfe18(%eax),%esp
 e08185e:	00 00                	add    %al,(%eax)
 e081860:	03 b0 18 fe 00 00    	add    0xfe18(%eax),%esi
 e081866:	00 00                	add    %al,(%eax)
 e081868:	03 c0                	add    %eax,%eax
 e08186a:	18 fe                	sbb    %bh,%dh
 e08186c:	00 00                	add    %al,(%eax)
 e08186e:	00 00                	add    %al,(%eax)
 e081870:	03 d0                	add    %eax,%edx
 e081872:	18 fe                	sbb    %bh,%dh
 e081874:	00 00                	add    %al,(%eax)
 e081876:	00 00                	add    %al,(%eax)
 e081878:	03 e0                	add    %eax,%esp
 e08187a:	18 fe                	sbb    %bh,%dh
 e08187c:	00 00                	add    %al,(%eax)
 e08187e:	00 00                	add    %al,(%eax)
 e081880:	03 f0                	add    %eax,%esi
 e081882:	18 fe                	sbb    %bh,%dh
 e081884:	00 00                	add    %al,(%eax)
 e081886:	00 00                	add    %al,(%eax)
 e081888:	03 00                	add    (%eax),%eax
 e08188a:	19 fe                	sbb    %edi,%esi
 e08188c:	00 00                	add    %al,(%eax)
 e08188e:	00 00                	add    %al,(%eax)
 e081890:	03 10                	add    (%eax),%edx
 e081892:	19 fe                	sbb    %edi,%esi
 e081894:	00 00                	add    %al,(%eax)
 e081896:	00 00                	add    %al,(%eax)
 e081898:	03 20                	add    (%eax),%esp
 e08189a:	19 fe                	sbb    %edi,%esi
 e08189c:	00 00                	add    %al,(%eax)
 e08189e:	00 00                	add    %al,(%eax)
 e0818a0:	03 30                	add    (%eax),%esi
 e0818a2:	19 fe                	sbb    %edi,%esi
 e0818a4:	00 00                	add    %al,(%eax)
 e0818a6:	00 00                	add    %al,(%eax)
 e0818a8:	03 40 19             	add    0x19(%eax),%eax
 e0818ab:	fe 00                	incb   (%eax)
 e0818ad:	00 00                	add    %al,(%eax)
 e0818af:	00 03                	add    %al,(%ebx)
 e0818b1:	50                   	push   %eax
 e0818b2:	19 fe                	sbb    %edi,%esi
 e0818b4:	00 00                	add    %al,(%eax)
 e0818b6:	00 00                	add    %al,(%eax)
 e0818b8:	03 60 19             	add    0x19(%eax),%esp
 e0818bb:	fe 00                	incb   (%eax)
 e0818bd:	00 00                	add    %al,(%eax)
 e0818bf:	00 03                	add    %al,(%ebx)
 e0818c1:	70 19                	jo     e0818dc <pagedir_segbegin+0x8dc>
 e0818c3:	fe 00                	incb   (%eax)
 e0818c5:	00 00                	add    %al,(%eax)
 e0818c7:	00 03                	add    %al,(%ebx)
 e0818c9:	80 19 fe             	sbbb   $0xfe,(%ecx)
 e0818cc:	00 00                	add    %al,(%eax)
 e0818ce:	00 00                	add    %al,(%eax)
 e0818d0:	03 90 19 fe 00 00    	add    0xfe19(%eax),%edx
 e0818d6:	00 00                	add    %al,(%eax)
 e0818d8:	03 a0 19 fe 00 00    	add    0xfe19(%eax),%esp
 e0818de:	00 00                	add    %al,(%eax)
 e0818e0:	03 b0 19 fe 00 00    	add    0xfe19(%eax),%esi
 e0818e6:	00 00                	add    %al,(%eax)
 e0818e8:	03 c0                	add    %eax,%eax
 e0818ea:	19 fe                	sbb    %edi,%esi
 e0818ec:	00 00                	add    %al,(%eax)
 e0818ee:	00 00                	add    %al,(%eax)
 e0818f0:	03 d0                	add    %eax,%edx
 e0818f2:	19 fe                	sbb    %edi,%esi
 e0818f4:	00 00                	add    %al,(%eax)
 e0818f6:	00 00                	add    %al,(%eax)
 e0818f8:	03 e0                	add    %eax,%esp
 e0818fa:	19 fe                	sbb    %edi,%esi
 e0818fc:	00 00                	add    %al,(%eax)
 e0818fe:	00 00                	add    %al,(%eax)
 e081900:	03 f0                	add    %eax,%esi
 e081902:	19 fe                	sbb    %edi,%esi
 e081904:	00 00                	add    %al,(%eax)
 e081906:	00 00                	add    %al,(%eax)
 e081908:	03 00                	add    (%eax),%eax
 e08190a:	1a fe                	sbb    %dh,%bh
 e08190c:	00 00                	add    %al,(%eax)
 e08190e:	00 00                	add    %al,(%eax)
 e081910:	03 10                	add    (%eax),%edx
 e081912:	1a fe                	sbb    %dh,%bh
 e081914:	00 00                	add    %al,(%eax)
 e081916:	00 00                	add    %al,(%eax)
 e081918:	03 20                	add    (%eax),%esp
 e08191a:	1a fe                	sbb    %dh,%bh
 e08191c:	00 00                	add    %al,(%eax)
 e08191e:	00 00                	add    %al,(%eax)
 e081920:	03 30                	add    (%eax),%esi
 e081922:	1a fe                	sbb    %dh,%bh
 e081924:	00 00                	add    %al,(%eax)
 e081926:	00 00                	add    %al,(%eax)
 e081928:	03 40 1a             	add    0x1a(%eax),%eax
 e08192b:	fe 00                	incb   (%eax)
 e08192d:	00 00                	add    %al,(%eax)
 e08192f:	00 03                	add    %al,(%ebx)
 e081931:	50                   	push   %eax
 e081932:	1a fe                	sbb    %dh,%bh
 e081934:	00 00                	add    %al,(%eax)
 e081936:	00 00                	add    %al,(%eax)
 e081938:	03 60 1a             	add    0x1a(%eax),%esp
 e08193b:	fe 00                	incb   (%eax)
 e08193d:	00 00                	add    %al,(%eax)
 e08193f:	00 03                	add    %al,(%ebx)
 e081941:	70 1a                	jo     e08195d <pagedir_segbegin+0x95d>
 e081943:	fe 00                	incb   (%eax)
 e081945:	00 00                	add    %al,(%eax)
 e081947:	00 03                	add    %al,(%ebx)
 e081949:	80 1a fe             	sbbb   $0xfe,(%edx)
 e08194c:	00 00                	add    %al,(%eax)
 e08194e:	00 00                	add    %al,(%eax)
 e081950:	03 90 1a fe 00 00    	add    0xfe1a(%eax),%edx
 e081956:	00 00                	add    %al,(%eax)
 e081958:	03 a0 1a fe 00 00    	add    0xfe1a(%eax),%esp
 e08195e:	00 00                	add    %al,(%eax)
 e081960:	03 b0 1a fe 00 00    	add    0xfe1a(%eax),%esi
 e081966:	00 00                	add    %al,(%eax)
 e081968:	03 c0                	add    %eax,%eax
 e08196a:	1a fe                	sbb    %dh,%bh
 e08196c:	00 00                	add    %al,(%eax)
 e08196e:	00 00                	add    %al,(%eax)
 e081970:	03 d0                	add    %eax,%edx
 e081972:	1a fe                	sbb    %dh,%bh
 e081974:	00 00                	add    %al,(%eax)
 e081976:	00 00                	add    %al,(%eax)
 e081978:	03 e0                	add    %eax,%esp
 e08197a:	1a fe                	sbb    %dh,%bh
 e08197c:	00 00                	add    %al,(%eax)
 e08197e:	00 00                	add    %al,(%eax)
 e081980:	03 f0                	add    %eax,%esi
 e081982:	1a fe                	sbb    %dh,%bh
 e081984:	00 00                	add    %al,(%eax)
 e081986:	00 00                	add    %al,(%eax)
 e081988:	03 00                	add    (%eax),%eax
 e08198a:	1b fe                	sbb    %esi,%edi
 e08198c:	00 00                	add    %al,(%eax)
 e08198e:	00 00                	add    %al,(%eax)
 e081990:	03 10                	add    (%eax),%edx
 e081992:	1b fe                	sbb    %esi,%edi
 e081994:	00 00                	add    %al,(%eax)
 e081996:	00 00                	add    %al,(%eax)
 e081998:	03 20                	add    (%eax),%esp
 e08199a:	1b fe                	sbb    %esi,%edi
 e08199c:	00 00                	add    %al,(%eax)
 e08199e:	00 00                	add    %al,(%eax)
 e0819a0:	03 30                	add    (%eax),%esi
 e0819a2:	1b fe                	sbb    %esi,%edi
 e0819a4:	00 00                	add    %al,(%eax)
 e0819a6:	00 00                	add    %al,(%eax)
 e0819a8:	03 40 1b             	add    0x1b(%eax),%eax
 e0819ab:	fe 00                	incb   (%eax)
 e0819ad:	00 00                	add    %al,(%eax)
 e0819af:	00 03                	add    %al,(%ebx)
 e0819b1:	50                   	push   %eax
 e0819b2:	1b fe                	sbb    %esi,%edi
 e0819b4:	00 00                	add    %al,(%eax)
 e0819b6:	00 00                	add    %al,(%eax)
 e0819b8:	03 60 1b             	add    0x1b(%eax),%esp
 e0819bb:	fe 00                	incb   (%eax)
 e0819bd:	00 00                	add    %al,(%eax)
 e0819bf:	00 03                	add    %al,(%ebx)
 e0819c1:	70 1b                	jo     e0819de <pagedir_segbegin+0x9de>
 e0819c3:	fe 00                	incb   (%eax)
 e0819c5:	00 00                	add    %al,(%eax)
 e0819c7:	00 03                	add    %al,(%ebx)
 e0819c9:	80 1b fe             	sbbb   $0xfe,(%ebx)
 e0819cc:	00 00                	add    %al,(%eax)
 e0819ce:	00 00                	add    %al,(%eax)
 e0819d0:	03 90 1b fe 00 00    	add    0xfe1b(%eax),%edx
 e0819d6:	00 00                	add    %al,(%eax)
 e0819d8:	03 a0 1b fe 00 00    	add    0xfe1b(%eax),%esp
 e0819de:	00 00                	add    %al,(%eax)
 e0819e0:	03 b0 1b fe 00 00    	add    0xfe1b(%eax),%esi
 e0819e6:	00 00                	add    %al,(%eax)
 e0819e8:	03 c0                	add    %eax,%eax
 e0819ea:	1b fe                	sbb    %esi,%edi
 e0819ec:	00 00                	add    %al,(%eax)
 e0819ee:	00 00                	add    %al,(%eax)
 e0819f0:	03 d0                	add    %eax,%edx
 e0819f2:	1b fe                	sbb    %esi,%edi
 e0819f4:	00 00                	add    %al,(%eax)
 e0819f6:	00 00                	add    %al,(%eax)
 e0819f8:	03 e0                	add    %eax,%esp
 e0819fa:	1b fe                	sbb    %esi,%edi
 e0819fc:	00 00                	add    %al,(%eax)
 e0819fe:	00 00                	add    %al,(%eax)
 e081a00:	03 f0                	add    %eax,%esi
 e081a02:	1b fe                	sbb    %esi,%edi
 e081a04:	00 00                	add    %al,(%eax)
 e081a06:	00 00                	add    %al,(%eax)
 e081a08:	03 00                	add    (%eax),%eax
 e081a0a:	1c fe                	sbb    $0xfe,%al
 e081a0c:	00 00                	add    %al,(%eax)
 e081a0e:	00 00                	add    %al,(%eax)
 e081a10:	03 10                	add    (%eax),%edx
 e081a12:	1c fe                	sbb    $0xfe,%al
 e081a14:	00 00                	add    %al,(%eax)
 e081a16:	00 00                	add    %al,(%eax)
 e081a18:	03 20                	add    (%eax),%esp
 e081a1a:	1c fe                	sbb    $0xfe,%al
 e081a1c:	00 00                	add    %al,(%eax)
 e081a1e:	00 00                	add    %al,(%eax)
 e081a20:	03 30                	add    (%eax),%esi
 e081a22:	1c fe                	sbb    $0xfe,%al
 e081a24:	00 00                	add    %al,(%eax)
 e081a26:	00 00                	add    %al,(%eax)
 e081a28:	03 40 1c             	add    0x1c(%eax),%eax
 e081a2b:	fe 00                	incb   (%eax)
 e081a2d:	00 00                	add    %al,(%eax)
 e081a2f:	00 03                	add    %al,(%ebx)
 e081a31:	50                   	push   %eax
 e081a32:	1c fe                	sbb    $0xfe,%al
 e081a34:	00 00                	add    %al,(%eax)
 e081a36:	00 00                	add    %al,(%eax)
 e081a38:	03 60 1c             	add    0x1c(%eax),%esp
 e081a3b:	fe 00                	incb   (%eax)
 e081a3d:	00 00                	add    %al,(%eax)
 e081a3f:	00 03                	add    %al,(%ebx)
 e081a41:	70 1c                	jo     e081a5f <pagedir_segbegin+0xa5f>
 e081a43:	fe 00                	incb   (%eax)
 e081a45:	00 00                	add    %al,(%eax)
 e081a47:	00 03                	add    %al,(%ebx)
 e081a49:	80 1c fe 00          	sbbb   $0x0,(%esi,%edi,8)
 e081a4d:	00 00                	add    %al,(%eax)
 e081a4f:	00 03                	add    %al,(%ebx)
 e081a51:	90                   	nop    
 e081a52:	1c fe                	sbb    $0xfe,%al
 e081a54:	00 00                	add    %al,(%eax)
 e081a56:	00 00                	add    %al,(%eax)
 e081a58:	03 a0 1c fe 00 00    	add    0xfe1c(%eax),%esp
 e081a5e:	00 00                	add    %al,(%eax)
 e081a60:	03 b0 1c fe 00 00    	add    0xfe1c(%eax),%esi
 e081a66:	00 00                	add    %al,(%eax)
 e081a68:	03 c0                	add    %eax,%eax
 e081a6a:	1c fe                	sbb    $0xfe,%al
 e081a6c:	00 00                	add    %al,(%eax)
 e081a6e:	00 00                	add    %al,(%eax)
 e081a70:	03 d0                	add    %eax,%edx
 e081a72:	1c fe                	sbb    $0xfe,%al
 e081a74:	00 00                	add    %al,(%eax)
 e081a76:	00 00                	add    %al,(%eax)
 e081a78:	03 e0                	add    %eax,%esp
 e081a7a:	1c fe                	sbb    $0xfe,%al
 e081a7c:	00 00                	add    %al,(%eax)
 e081a7e:	00 00                	add    %al,(%eax)
 e081a80:	03 f0                	add    %eax,%esi
 e081a82:	1c fe                	sbb    $0xfe,%al
 e081a84:	00 00                	add    %al,(%eax)
 e081a86:	00 00                	add    %al,(%eax)
 e081a88:	03 00                	add    (%eax),%eax
 e081a8a:	1d fe 00 00 00       	sbb    $0xfe,%eax
 e081a8f:	00 03                	add    %al,(%ebx)
 e081a91:	10 1d fe 00 00 00    	adc    %bl,0xfe
 e081a97:	00 03                	add    %al,(%ebx)
 e081a99:	20 1d fe 00 00 00    	and    %bl,0xfe
 e081a9f:	00 03                	add    %al,(%ebx)
 e081aa1:	30 1d fe 00 00 00    	xor    %bl,0xfe
 e081aa7:	00 03                	add    %al,(%ebx)
 e081aa9:	40                   	inc    %eax
 e081aaa:	1d fe 00 00 00       	sbb    $0xfe,%eax
 e081aaf:	00 03                	add    %al,(%ebx)
 e081ab1:	50                   	push   %eax
 e081ab2:	1d fe 00 00 00       	sbb    $0xfe,%eax
 e081ab7:	00 03                	add    %al,(%ebx)
 e081ab9:	60                   	pusha  
 e081aba:	1d fe 00 00 00       	sbb    $0xfe,%eax
 e081abf:	00 03                	add    %al,(%ebx)
 e081ac1:	70 1d                	jo     e081ae0 <pagedir_segbegin+0xae0>
 e081ac3:	fe 00                	incb   (%eax)
 e081ac5:	00 00                	add    %al,(%eax)
 e081ac7:	00 03                	add    %al,(%ebx)
 e081ac9:	80 1d fe 00 00 00 00 	sbbb   $0x0,0xfe
 e081ad0:	03 90 1d fe 00 00    	add    0xfe1d(%eax),%edx
 e081ad6:	00 00                	add    %al,(%eax)
 e081ad8:	03 a0 1d fe 00 00    	add    0xfe1d(%eax),%esp
 e081ade:	00 00                	add    %al,(%eax)
 e081ae0:	03 b0 1d fe 00 00    	add    0xfe1d(%eax),%esi
 e081ae6:	00 00                	add    %al,(%eax)
 e081ae8:	03 c0                	add    %eax,%eax
 e081aea:	1d fe 00 00 00       	sbb    $0xfe,%eax
 e081aef:	00 03                	add    %al,(%ebx)
 e081af1:	d0 1d fe 00 00 00    	rcrb   0xfe
 e081af7:	00 03                	add    %al,(%ebx)
 e081af9:	e0 1d                	loopne e081b18 <pagedir_segbegin+0xb18>
 e081afb:	fe 00                	incb   (%eax)
 e081afd:	00 00                	add    %al,(%eax)
 e081aff:	00 03                	add    %al,(%ebx)
 e081b01:	f0 1d fe 00 00 00    	lock sbb $0xfe,%eax
 e081b07:	00 03                	add    %al,(%ebx)
 e081b09:	00 1e                	add    %bl,(%esi)
 e081b0b:	fe 00                	incb   (%eax)
 e081b0d:	00 00                	add    %al,(%eax)
 e081b0f:	00 03                	add    %al,(%ebx)
 e081b11:	10 1e                	adc    %bl,(%esi)
 e081b13:	fe 00                	incb   (%eax)
 e081b15:	00 00                	add    %al,(%eax)
 e081b17:	00 03                	add    %al,(%ebx)
 e081b19:	20 1e                	and    %bl,(%esi)
 e081b1b:	fe 00                	incb   (%eax)
 e081b1d:	00 00                	add    %al,(%eax)
 e081b1f:	00 03                	add    %al,(%ebx)
 e081b21:	30 1e                	xor    %bl,(%esi)
 e081b23:	fe 00                	incb   (%eax)
 e081b25:	00 00                	add    %al,(%eax)
 e081b27:	00 03                	add    %al,(%ebx)
 e081b29:	40                   	inc    %eax
 e081b2a:	1e                   	push   %ds
 e081b2b:	fe 00                	incb   (%eax)
 e081b2d:	00 00                	add    %al,(%eax)
 e081b2f:	00 03                	add    %al,(%ebx)
 e081b31:	50                   	push   %eax
 e081b32:	1e                   	push   %ds
 e081b33:	fe 00                	incb   (%eax)
 e081b35:	00 00                	add    %al,(%eax)
 e081b37:	00 03                	add    %al,(%ebx)
 e081b39:	60                   	pusha  
 e081b3a:	1e                   	push   %ds
 e081b3b:	fe 00                	incb   (%eax)
 e081b3d:	00 00                	add    %al,(%eax)
 e081b3f:	00 03                	add    %al,(%ebx)
 e081b41:	70 1e                	jo     e081b61 <pagedir_segbegin+0xb61>
 e081b43:	fe 00                	incb   (%eax)
 e081b45:	00 00                	add    %al,(%eax)
 e081b47:	00 03                	add    %al,(%ebx)
 e081b49:	80 1e fe             	sbbb   $0xfe,(%esi)
 e081b4c:	00 00                	add    %al,(%eax)
 e081b4e:	00 00                	add    %al,(%eax)
 e081b50:	03 90 1e fe 00 00    	add    0xfe1e(%eax),%edx
 e081b56:	00 00                	add    %al,(%eax)
 e081b58:	03 a0 1e fe 00 00    	add    0xfe1e(%eax),%esp
 e081b5e:	00 00                	add    %al,(%eax)
 e081b60:	03 b0 1e fe 00 00    	add    0xfe1e(%eax),%esi
 e081b66:	00 00                	add    %al,(%eax)
 e081b68:	03 c0                	add    %eax,%eax
 e081b6a:	1e                   	push   %ds
 e081b6b:	fe 00                	incb   (%eax)
 e081b6d:	00 00                	add    %al,(%eax)
 e081b6f:	00 03                	add    %al,(%ebx)
 e081b71:	d0 1e                	rcrb   (%esi)
 e081b73:	fe 00                	incb   (%eax)
 e081b75:	00 00                	add    %al,(%eax)
 e081b77:	00 03                	add    %al,(%ebx)
 e081b79:	e0 1e                	loopne e081b99 <pagedir_segbegin+0xb99>
 e081b7b:	fe 00                	incb   (%eax)
 e081b7d:	00 00                	add    %al,(%eax)
 e081b7f:	00 03                	add    %al,(%ebx)
 e081b81:	f0 1e                	lock push %ds
 e081b83:	fe 00                	incb   (%eax)
 e081b85:	00 00                	add    %al,(%eax)
 e081b87:	00 03                	add    %al,(%ebx)
 e081b89:	00 1f                	add    %bl,(%edi)
 e081b8b:	fe 00                	incb   (%eax)
 e081b8d:	00 00                	add    %al,(%eax)
 e081b8f:	00 03                	add    %al,(%ebx)
 e081b91:	10 1f                	adc    %bl,(%edi)
 e081b93:	fe 00                	incb   (%eax)
 e081b95:	00 00                	add    %al,(%eax)
 e081b97:	00 03                	add    %al,(%ebx)
 e081b99:	20 1f                	and    %bl,(%edi)
 e081b9b:	fe 00                	incb   (%eax)
 e081b9d:	00 00                	add    %al,(%eax)
 e081b9f:	00 03                	add    %al,(%ebx)
 e081ba1:	30 1f                	xor    %bl,(%edi)
 e081ba3:	fe 00                	incb   (%eax)
 e081ba5:	00 00                	add    %al,(%eax)
 e081ba7:	00 03                	add    %al,(%ebx)
 e081ba9:	40                   	inc    %eax
 e081baa:	1f                   	pop    %ds
 e081bab:	fe 00                	incb   (%eax)
 e081bad:	00 00                	add    %al,(%eax)
 e081baf:	00 03                	add    %al,(%ebx)
 e081bb1:	50                   	push   %eax
 e081bb2:	1f                   	pop    %ds
 e081bb3:	fe 00                	incb   (%eax)
 e081bb5:	00 00                	add    %al,(%eax)
 e081bb7:	00 03                	add    %al,(%ebx)
 e081bb9:	60                   	pusha  
 e081bba:	1f                   	pop    %ds
 e081bbb:	fe 00                	incb   (%eax)
 e081bbd:	00 00                	add    %al,(%eax)
 e081bbf:	00 03                	add    %al,(%ebx)
 e081bc1:	70 1f                	jo     e081be2 <pagedir_segbegin+0xbe2>
 e081bc3:	fe 00                	incb   (%eax)
 e081bc5:	00 00                	add    %al,(%eax)
 e081bc7:	00 03                	add    %al,(%ebx)
 e081bc9:	80 1f fe             	sbbb   $0xfe,(%edi)
 e081bcc:	00 00                	add    %al,(%eax)
 e081bce:	00 00                	add    %al,(%eax)
 e081bd0:	03 90 1f fe 00 00    	add    0xfe1f(%eax),%edx
 e081bd6:	00 00                	add    %al,(%eax)
 e081bd8:	03 a0 1f fe 00 00    	add    0xfe1f(%eax),%esp
 e081bde:	00 00                	add    %al,(%eax)
 e081be0:	03 b0 1f fe 00 00    	add    0xfe1f(%eax),%esi
 e081be6:	00 00                	add    %al,(%eax)
 e081be8:	03 c0                	add    %eax,%eax
 e081bea:	1f                   	pop    %ds
 e081beb:	fe 00                	incb   (%eax)
 e081bed:	00 00                	add    %al,(%eax)
 e081bef:	00 03                	add    %al,(%ebx)
 e081bf1:	d0 1f                	rcrb   (%edi)
 e081bf3:	fe 00                	incb   (%eax)
 e081bf5:	00 00                	add    %al,(%eax)
 e081bf7:	00 03                	add    %al,(%ebx)
 e081bf9:	e0 1f                	loopne e081c1a <pagedir_segbegin+0xc1a>
 e081bfb:	fe 00                	incb   (%eax)
 e081bfd:	00 00                	add    %al,(%eax)
 e081bff:	00 03                	add    %al,(%ebx)
 e081c01:	f0 1f                	lock pop %ds
 e081c03:	fe 00                	incb   (%eax)
 e081c05:	00 00                	add    %al,(%eax)
 e081c07:	00 03                	add    %al,(%ebx)
 e081c09:	00 20                	add    %ah,(%eax)
 e081c0b:	fe 00                	incb   (%eax)
 e081c0d:	00 00                	add    %al,(%eax)
 e081c0f:	00 03                	add    %al,(%ebx)
 e081c11:	10 20                	adc    %ah,(%eax)
 e081c13:	fe 00                	incb   (%eax)
 e081c15:	00 00                	add    %al,(%eax)
 e081c17:	00 03                	add    %al,(%ebx)
 e081c19:	20 20                	and    %ah,(%eax)
 e081c1b:	fe 00                	incb   (%eax)
 e081c1d:	00 00                	add    %al,(%eax)
 e081c1f:	00 03                	add    %al,(%ebx)
 e081c21:	30 20                	xor    %ah,(%eax)
 e081c23:	fe 00                	incb   (%eax)
 e081c25:	00 00                	add    %al,(%eax)
 e081c27:	00 03                	add    %al,(%ebx)
 e081c29:	40                   	inc    %eax
 e081c2a:	20 fe                	and    %bh,%dh
 e081c2c:	00 00                	add    %al,(%eax)
 e081c2e:	00 00                	add    %al,(%eax)
 e081c30:	03 50 20             	add    0x20(%eax),%edx
 e081c33:	fe 00                	incb   (%eax)
 e081c35:	00 00                	add    %al,(%eax)
 e081c37:	00 03                	add    %al,(%ebx)
 e081c39:	60                   	pusha  
 e081c3a:	20 fe                	and    %bh,%dh
 e081c3c:	00 00                	add    %al,(%eax)
 e081c3e:	00 00                	add    %al,(%eax)
 e081c40:	03 70 20             	add    0x20(%eax),%esi
 e081c43:	fe 00                	incb   (%eax)
 e081c45:	00 00                	add    %al,(%eax)
 e081c47:	00 03                	add    %al,(%ebx)
 e081c49:	80 20 fe             	andb   $0xfe,(%eax)
 e081c4c:	00 00                	add    %al,(%eax)
 e081c4e:	00 00                	add    %al,(%eax)
 e081c50:	03 90 20 fe 00 00    	add    0xfe20(%eax),%edx
 e081c56:	00 00                	add    %al,(%eax)
 e081c58:	03 a0 20 fe 00 00    	add    0xfe20(%eax),%esp
 e081c5e:	00 00                	add    %al,(%eax)
 e081c60:	03 b0 20 fe 00 00    	add    0xfe20(%eax),%esi
 e081c66:	00 00                	add    %al,(%eax)
 e081c68:	03 c0                	add    %eax,%eax
 e081c6a:	20 fe                	and    %bh,%dh
 e081c6c:	00 00                	add    %al,(%eax)
 e081c6e:	00 00                	add    %al,(%eax)
 e081c70:	03 d0                	add    %eax,%edx
 e081c72:	20 fe                	and    %bh,%dh
 e081c74:	00 00                	add    %al,(%eax)
 e081c76:	00 00                	add    %al,(%eax)
 e081c78:	03 e0                	add    %eax,%esp
 e081c7a:	20 fe                	and    %bh,%dh
 e081c7c:	00 00                	add    %al,(%eax)
 e081c7e:	00 00                	add    %al,(%eax)
 e081c80:	03 f0                	add    %eax,%esi
 e081c82:	20 fe                	and    %bh,%dh
 e081c84:	00 00                	add    %al,(%eax)
 e081c86:	00 00                	add    %al,(%eax)
 e081c88:	03 00                	add    (%eax),%eax
 e081c8a:	21 fe                	and    %edi,%esi
 e081c8c:	00 00                	add    %al,(%eax)
 e081c8e:	00 00                	add    %al,(%eax)
 e081c90:	03 10                	add    (%eax),%edx
 e081c92:	21 fe                	and    %edi,%esi
 e081c94:	00 00                	add    %al,(%eax)
 e081c96:	00 00                	add    %al,(%eax)
 e081c98:	03 20                	add    (%eax),%esp
 e081c9a:	21 fe                	and    %edi,%esi
 e081c9c:	00 00                	add    %al,(%eax)
 e081c9e:	00 00                	add    %al,(%eax)
 e081ca0:	03 30                	add    (%eax),%esi
 e081ca2:	21 fe                	and    %edi,%esi
 e081ca4:	00 00                	add    %al,(%eax)
 e081ca6:	00 00                	add    %al,(%eax)
 e081ca8:	03 40 21             	add    0x21(%eax),%eax
 e081cab:	fe 00                	incb   (%eax)
 e081cad:	00 00                	add    %al,(%eax)
 e081caf:	00 03                	add    %al,(%ebx)
 e081cb1:	50                   	push   %eax
 e081cb2:	21 fe                	and    %edi,%esi
 e081cb4:	00 00                	add    %al,(%eax)
 e081cb6:	00 00                	add    %al,(%eax)
 e081cb8:	03 60 21             	add    0x21(%eax),%esp
 e081cbb:	fe 00                	incb   (%eax)
 e081cbd:	00 00                	add    %al,(%eax)
 e081cbf:	00 03                	add    %al,(%ebx)
 e081cc1:	70 21                	jo     e081ce4 <pagedir_segbegin+0xce4>
 e081cc3:	fe 00                	incb   (%eax)
 e081cc5:	00 00                	add    %al,(%eax)
 e081cc7:	00 03                	add    %al,(%ebx)
 e081cc9:	80 21 fe             	andb   $0xfe,(%ecx)
 e081ccc:	00 00                	add    %al,(%eax)
 e081cce:	00 00                	add    %al,(%eax)
 e081cd0:	03 90 21 fe 00 00    	add    0xfe21(%eax),%edx
 e081cd6:	00 00                	add    %al,(%eax)
 e081cd8:	03 a0 21 fe 00 00    	add    0xfe21(%eax),%esp
 e081cde:	00 00                	add    %al,(%eax)
 e081ce0:	03 b0 21 fe 00 00    	add    0xfe21(%eax),%esi
 e081ce6:	00 00                	add    %al,(%eax)
 e081ce8:	03 c0                	add    %eax,%eax
 e081cea:	21 fe                	and    %edi,%esi
 e081cec:	00 00                	add    %al,(%eax)
 e081cee:	00 00                	add    %al,(%eax)
 e081cf0:	03 d0                	add    %eax,%edx
 e081cf2:	21 fe                	and    %edi,%esi
 e081cf4:	00 00                	add    %al,(%eax)
 e081cf6:	00 00                	add    %al,(%eax)
 e081cf8:	03 e0                	add    %eax,%esp
 e081cfa:	21 fe                	and    %edi,%esi
 e081cfc:	00 00                	add    %al,(%eax)
 e081cfe:	00 00                	add    %al,(%eax)
 e081d00:	03 f0                	add    %eax,%esi
 e081d02:	21 fe                	and    %edi,%esi
 e081d04:	00 00                	add    %al,(%eax)
 e081d06:	00 00                	add    %al,(%eax)
 e081d08:	03 00                	add    (%eax),%eax
 e081d0a:	22 fe                	and    %dh,%bh
 e081d0c:	00 00                	add    %al,(%eax)
 e081d0e:	00 00                	add    %al,(%eax)
 e081d10:	03 10                	add    (%eax),%edx
 e081d12:	22 fe                	and    %dh,%bh
 e081d14:	00 00                	add    %al,(%eax)
 e081d16:	00 00                	add    %al,(%eax)
 e081d18:	03 20                	add    (%eax),%esp
 e081d1a:	22 fe                	and    %dh,%bh
 e081d1c:	00 00                	add    %al,(%eax)
 e081d1e:	00 00                	add    %al,(%eax)
 e081d20:	03 30                	add    (%eax),%esi
 e081d22:	22 fe                	and    %dh,%bh
 e081d24:	00 00                	add    %al,(%eax)
 e081d26:	00 00                	add    %al,(%eax)
 e081d28:	03 40 22             	add    0x22(%eax),%eax
 e081d2b:	fe 00                	incb   (%eax)
 e081d2d:	00 00                	add    %al,(%eax)
 e081d2f:	00 03                	add    %al,(%ebx)
 e081d31:	50                   	push   %eax
 e081d32:	22 fe                	and    %dh,%bh
 e081d34:	00 00                	add    %al,(%eax)
 e081d36:	00 00                	add    %al,(%eax)
 e081d38:	03 60 22             	add    0x22(%eax),%esp
 e081d3b:	fe 00                	incb   (%eax)
 e081d3d:	00 00                	add    %al,(%eax)
 e081d3f:	00 03                	add    %al,(%ebx)
 e081d41:	70 22                	jo     e081d65 <pagedir_segbegin+0xd65>
 e081d43:	fe 00                	incb   (%eax)
 e081d45:	00 00                	add    %al,(%eax)
 e081d47:	00 03                	add    %al,(%ebx)
 e081d49:	80 22 fe             	andb   $0xfe,(%edx)
 e081d4c:	00 00                	add    %al,(%eax)
 e081d4e:	00 00                	add    %al,(%eax)
 e081d50:	03 90 22 fe 00 00    	add    0xfe22(%eax),%edx
 e081d56:	00 00                	add    %al,(%eax)
 e081d58:	03 a0 22 fe 00 00    	add    0xfe22(%eax),%esp
 e081d5e:	00 00                	add    %al,(%eax)
 e081d60:	03 b0 22 fe 00 00    	add    0xfe22(%eax),%esi
 e081d66:	00 00                	add    %al,(%eax)
 e081d68:	03 c0                	add    %eax,%eax
 e081d6a:	22 fe                	and    %dh,%bh
 e081d6c:	00 00                	add    %al,(%eax)
 e081d6e:	00 00                	add    %al,(%eax)
 e081d70:	03 d0                	add    %eax,%edx
 e081d72:	22 fe                	and    %dh,%bh
 e081d74:	00 00                	add    %al,(%eax)
 e081d76:	00 00                	add    %al,(%eax)
 e081d78:	03 e0                	add    %eax,%esp
 e081d7a:	22 fe                	and    %dh,%bh
 e081d7c:	00 00                	add    %al,(%eax)
 e081d7e:	00 00                	add    %al,(%eax)
 e081d80:	03 f0                	add    %eax,%esi
 e081d82:	22 fe                	and    %dh,%bh
 e081d84:	00 00                	add    %al,(%eax)
 e081d86:	00 00                	add    %al,(%eax)
 e081d88:	03 00                	add    (%eax),%eax
 e081d8a:	23 fe                	and    %esi,%edi
 e081d8c:	00 00                	add    %al,(%eax)
 e081d8e:	00 00                	add    %al,(%eax)
 e081d90:	03 10                	add    (%eax),%edx
 e081d92:	23 fe                	and    %esi,%edi
 e081d94:	00 00                	add    %al,(%eax)
 e081d96:	00 00                	add    %al,(%eax)
 e081d98:	03 20                	add    (%eax),%esp
 e081d9a:	23 fe                	and    %esi,%edi
 e081d9c:	00 00                	add    %al,(%eax)
 e081d9e:	00 00                	add    %al,(%eax)
 e081da0:	03 30                	add    (%eax),%esi
 e081da2:	23 fe                	and    %esi,%edi
 e081da4:	00 00                	add    %al,(%eax)
 e081da6:	00 00                	add    %al,(%eax)
 e081da8:	03 40 23             	add    0x23(%eax),%eax
 e081dab:	fe 00                	incb   (%eax)
 e081dad:	00 00                	add    %al,(%eax)
 e081daf:	00 03                	add    %al,(%ebx)
 e081db1:	50                   	push   %eax
 e081db2:	23 fe                	and    %esi,%edi
 e081db4:	00 00                	add    %al,(%eax)
 e081db6:	00 00                	add    %al,(%eax)
 e081db8:	03 60 23             	add    0x23(%eax),%esp
 e081dbb:	fe 00                	incb   (%eax)
 e081dbd:	00 00                	add    %al,(%eax)
 e081dbf:	00 03                	add    %al,(%ebx)
 e081dc1:	70 23                	jo     e081de6 <pagedir_segbegin+0xde6>
 e081dc3:	fe 00                	incb   (%eax)
 e081dc5:	00 00                	add    %al,(%eax)
 e081dc7:	00 03                	add    %al,(%ebx)
 e081dc9:	80 23 fe             	andb   $0xfe,(%ebx)
 e081dcc:	00 00                	add    %al,(%eax)
 e081dce:	00 00                	add    %al,(%eax)
 e081dd0:	03 90 23 fe 00 00    	add    0xfe23(%eax),%edx
 e081dd6:	00 00                	add    %al,(%eax)
 e081dd8:	03 a0 23 fe 00 00    	add    0xfe23(%eax),%esp
 e081dde:	00 00                	add    %al,(%eax)
 e081de0:	03 b0 23 fe 00 00    	add    0xfe23(%eax),%esi
 e081de6:	00 00                	add    %al,(%eax)
 e081de8:	03 c0                	add    %eax,%eax
 e081dea:	23 fe                	and    %esi,%edi
 e081dec:	00 00                	add    %al,(%eax)
 e081dee:	00 00                	add    %al,(%eax)
 e081df0:	03 d0                	add    %eax,%edx
 e081df2:	23 fe                	and    %esi,%edi
 e081df4:	00 00                	add    %al,(%eax)
 e081df6:	00 00                	add    %al,(%eax)
 e081df8:	03 e0                	add    %eax,%esp
 e081dfa:	23 fe                	and    %esi,%edi
 e081dfc:	00 00                	add    %al,(%eax)
 e081dfe:	00 00                	add    %al,(%eax)
 e081e00:	03 f0                	add    %eax,%esi
 e081e02:	23 fe                	and    %esi,%edi
 e081e04:	00 00                	add    %al,(%eax)
 e081e06:	00 00                	add    %al,(%eax)
 e081e08:	03 00                	add    (%eax),%eax
 e081e0a:	24 fe                	and    $0xfe,%al
 e081e0c:	00 00                	add    %al,(%eax)
 e081e0e:	00 00                	add    %al,(%eax)
 e081e10:	03 10                	add    (%eax),%edx
 e081e12:	24 fe                	and    $0xfe,%al
 e081e14:	00 00                	add    %al,(%eax)
 e081e16:	00 00                	add    %al,(%eax)
 e081e18:	03 20                	add    (%eax),%esp
 e081e1a:	24 fe                	and    $0xfe,%al
 e081e1c:	00 00                	add    %al,(%eax)
 e081e1e:	00 00                	add    %al,(%eax)
 e081e20:	03 30                	add    (%eax),%esi
 e081e22:	24 fe                	and    $0xfe,%al
 e081e24:	00 00                	add    %al,(%eax)
 e081e26:	00 00                	add    %al,(%eax)
 e081e28:	03 40 24             	add    0x24(%eax),%eax
 e081e2b:	fe 00                	incb   (%eax)
 e081e2d:	00 00                	add    %al,(%eax)
 e081e2f:	00 03                	add    %al,(%ebx)
 e081e31:	50                   	push   %eax
 e081e32:	24 fe                	and    $0xfe,%al
 e081e34:	00 00                	add    %al,(%eax)
 e081e36:	00 00                	add    %al,(%eax)
 e081e38:	03 60 24             	add    0x24(%eax),%esp
 e081e3b:	fe 00                	incb   (%eax)
 e081e3d:	00 00                	add    %al,(%eax)
 e081e3f:	00 03                	add    %al,(%ebx)
 e081e41:	70 24                	jo     e081e67 <pagedir_segbegin+0xe67>
 e081e43:	fe 00                	incb   (%eax)
 e081e45:	00 00                	add    %al,(%eax)
 e081e47:	00 03                	add    %al,(%ebx)
 e081e49:	80 24 fe 00          	andb   $0x0,(%esi,%edi,8)
 e081e4d:	00 00                	add    %al,(%eax)
 e081e4f:	00 03                	add    %al,(%ebx)
 e081e51:	90                   	nop    
 e081e52:	24 fe                	and    $0xfe,%al
 e081e54:	00 00                	add    %al,(%eax)
 e081e56:	00 00                	add    %al,(%eax)
 e081e58:	03 a0 24 fe 00 00    	add    0xfe24(%eax),%esp
 e081e5e:	00 00                	add    %al,(%eax)
 e081e60:	03 b0 24 fe 00 00    	add    0xfe24(%eax),%esi
 e081e66:	00 00                	add    %al,(%eax)
 e081e68:	03 c0                	add    %eax,%eax
 e081e6a:	24 fe                	and    $0xfe,%al
 e081e6c:	00 00                	add    %al,(%eax)
 e081e6e:	00 00                	add    %al,(%eax)
 e081e70:	03 d0                	add    %eax,%edx
 e081e72:	24 fe                	and    $0xfe,%al
 e081e74:	00 00                	add    %al,(%eax)
 e081e76:	00 00                	add    %al,(%eax)
 e081e78:	03 e0                	add    %eax,%esp
 e081e7a:	24 fe                	and    $0xfe,%al
 e081e7c:	00 00                	add    %al,(%eax)
 e081e7e:	00 00                	add    %al,(%eax)
 e081e80:	03 f0                	add    %eax,%esi
 e081e82:	24 fe                	and    $0xfe,%al
 e081e84:	00 00                	add    %al,(%eax)
 e081e86:	00 00                	add    %al,(%eax)
 e081e88:	03 00                	add    (%eax),%eax
 e081e8a:	25 fe 00 00 00       	and    $0xfe,%eax
 e081e8f:	00 03                	add    %al,(%ebx)
 e081e91:	10 25 fe 00 00 00    	adc    %ah,0xfe
 e081e97:	00 03                	add    %al,(%ebx)
 e081e99:	20 25 fe 00 00 00    	and    %ah,0xfe
 e081e9f:	00 03                	add    %al,(%ebx)
 e081ea1:	30 25 fe 00 00 00    	xor    %ah,0xfe
 e081ea7:	00 03                	add    %al,(%ebx)
 e081ea9:	40                   	inc    %eax
 e081eaa:	25 fe 00 00 00       	and    $0xfe,%eax
 e081eaf:	00 03                	add    %al,(%ebx)
 e081eb1:	50                   	push   %eax
 e081eb2:	25 fe 00 00 00       	and    $0xfe,%eax
 e081eb7:	00 03                	add    %al,(%ebx)
 e081eb9:	60                   	pusha  
 e081eba:	25 fe 00 00 00       	and    $0xfe,%eax
 e081ebf:	00 03                	add    %al,(%ebx)
 e081ec1:	70 25                	jo     e081ee8 <pagedir_segbegin+0xee8>
 e081ec3:	fe 00                	incb   (%eax)
 e081ec5:	00 00                	add    %al,(%eax)
 e081ec7:	00 03                	add    %al,(%ebx)
 e081ec9:	80 25 fe 00 00 00 00 	andb   $0x0,0xfe
 e081ed0:	03 90 25 fe 00 00    	add    0xfe25(%eax),%edx
 e081ed6:	00 00                	add    %al,(%eax)
 e081ed8:	03 a0 25 fe 00 00    	add    0xfe25(%eax),%esp
 e081ede:	00 00                	add    %al,(%eax)
 e081ee0:	03 b0 25 fe 00 00    	add    0xfe25(%eax),%esi
 e081ee6:	00 00                	add    %al,(%eax)
 e081ee8:	03 c0                	add    %eax,%eax
 e081eea:	25 fe 00 00 00       	and    $0xfe,%eax
 e081eef:	00 03                	add    %al,(%ebx)
 e081ef1:	d0 25 fe 00 00 00    	shlb   0xfe
 e081ef7:	00 03                	add    %al,(%ebx)
 e081ef9:	e0 25                	loopne e081f20 <pagedir_segbegin+0xf20>
 e081efb:	fe 00                	incb   (%eax)
 e081efd:	00 00                	add    %al,(%eax)
 e081eff:	00 03                	add    %al,(%ebx)
 e081f01:	f0 25 fe 00 00 00    	lock and $0xfe,%eax
 e081f07:	00 03                	add    %al,(%ebx)
 e081f09:	00 26                	add    %ah,(%esi)
 e081f0b:	fe 00                	incb   (%eax)
 e081f0d:	00 00                	add    %al,(%eax)
 e081f0f:	00 03                	add    %al,(%ebx)
 e081f11:	10 26                	adc    %ah,(%esi)
 e081f13:	fe 00                	incb   (%eax)
 e081f15:	00 00                	add    %al,(%eax)
 e081f17:	00 03                	add    %al,(%ebx)
 e081f19:	20 26                	and    %ah,(%esi)
 e081f1b:	fe 00                	incb   (%eax)
 e081f1d:	00 00                	add    %al,(%eax)
 e081f1f:	00 03                	add    %al,(%ebx)
 e081f21:	30 26                	xor    %ah,(%esi)
 e081f23:	fe 00                	incb   (%eax)
 e081f25:	00 00                	add    %al,(%eax)
 e081f27:	00 03                	add    %al,(%ebx)
 e081f29:	40                   	inc    %eax
 e081f2a:	26 fe 00             	incb   %es:(%eax)
 e081f2d:	00 00                	add    %al,(%eax)
 e081f2f:	00 03                	add    %al,(%ebx)
 e081f31:	50                   	push   %eax
 e081f32:	26 fe 00             	incb   %es:(%eax)
 e081f35:	00 00                	add    %al,(%eax)
 e081f37:	00 03                	add    %al,(%ebx)
 e081f39:	60                   	pusha  
 e081f3a:	26 fe 00             	incb   %es:(%eax)
 e081f3d:	00 00                	add    %al,(%eax)
 e081f3f:	00 03                	add    %al,(%ebx)
 e081f41:	70 26                	jo     e081f69 <pagedir_segbegin+0xf69>
 e081f43:	fe 00                	incb   (%eax)
 e081f45:	00 00                	add    %al,(%eax)
 e081f47:	00 03                	add    %al,(%ebx)
 e081f49:	80 26 fe             	andb   $0xfe,(%esi)
 e081f4c:	00 00                	add    %al,(%eax)
 e081f4e:	00 00                	add    %al,(%eax)
 e081f50:	03 90 26 fe 00 00    	add    0xfe26(%eax),%edx
 e081f56:	00 00                	add    %al,(%eax)
 e081f58:	03 a0 26 fe 00 00    	add    0xfe26(%eax),%esp
 e081f5e:	00 00                	add    %al,(%eax)
 e081f60:	03 b0 26 fe 00 00    	add    0xfe26(%eax),%esi
 e081f66:	00 00                	add    %al,(%eax)
 e081f68:	03 c0                	add    %eax,%eax
 e081f6a:	26 fe 00             	incb   %es:(%eax)
 e081f6d:	00 00                	add    %al,(%eax)
 e081f6f:	00 03                	add    %al,(%ebx)
 e081f71:	d0 26                	shlb   (%esi)
 e081f73:	fe 00                	incb   (%eax)
 e081f75:	00 00                	add    %al,(%eax)
 e081f77:	00 03                	add    %al,(%ebx)
 e081f79:	e0 26                	loopne e081fa1 <pagedir_segbegin+0xfa1>
 e081f7b:	fe 00                	incb   (%eax)
 e081f7d:	00 00                	add    %al,(%eax)
 e081f7f:	00 03                	add    %al,(%ebx)
 e081f81:	10 08                	adc    %cl,(%eax)
 e081f83:	fe 00                	incb   (%eax)
 e081f85:	00 00                	add    %al,(%eax)
 e081f87:	00 00                	add    %al,(%eax)
 e081f89:	00 00                	add    %al,(%eax)
 e081f8b:	00 00                	add    %al,(%eax)
 e081f8d:	00 00                	add    %al,(%eax)
 e081f8f:	00 00                	add    %al,(%eax)
 e081f91:	00 00                	add    %al,(%eax)
 e081f93:	00 00                	add    %al,(%eax)
 e081f95:	00 00                	add    %al,(%eax)
 e081f97:	00 00                	add    %al,(%eax)
 e081f99:	00 00                	add    %al,(%eax)
 e081f9b:	00 00                	add    %al,(%eax)
 e081f9d:	00 00                	add    %al,(%eax)
 e081f9f:	00 00                	add    %al,(%eax)
 e081fa1:	00 00                	add    %al,(%eax)
 e081fa3:	00 00                	add    %al,(%eax)
 e081fa5:	00 00                	add    %al,(%eax)
 e081fa7:	00 00                	add    %al,(%eax)
 e081fa9:	00 00                	add    %al,(%eax)
 e081fab:	00 00                	add    %al,(%eax)
 e081fad:	00 00                	add    %al,(%eax)
 e081faf:	00 00                	add    %al,(%eax)
 e081fb1:	00 00                	add    %al,(%eax)
 e081fb3:	00 00                	add    %al,(%eax)
 e081fb5:	00 00                	add    %al,(%eax)
 e081fb7:	00 00                	add    %al,(%eax)
 e081fb9:	00 00                	add    %al,(%eax)
 e081fbb:	00 00                	add    %al,(%eax)
 e081fbd:	00 00                	add    %al,(%eax)
 e081fbf:	00 00                	add    %al,(%eax)
 e081fc1:	00 00                	add    %al,(%eax)
 e081fc3:	00 00                	add    %al,(%eax)
 e081fc5:	00 00                	add    %al,(%eax)
 e081fc7:	00 00                	add    %al,(%eax)
 e081fc9:	00 00                	add    %al,(%eax)
 e081fcb:	00 00                	add    %al,(%eax)
 e081fcd:	00 00                	add    %al,(%eax)
 e081fcf:	00 00                	add    %al,(%eax)
 e081fd1:	00 00                	add    %al,(%eax)
 e081fd3:	00 00                	add    %al,(%eax)
 e081fd5:	00 00                	add    %al,(%eax)
 e081fd7:	00 00                	add    %al,(%eax)
 e081fd9:	00 00                	add    %al,(%eax)
 e081fdb:	00 00                	add    %al,(%eax)
 e081fdd:	00 00                	add    %al,(%eax)
 e081fdf:	00 00                	add    %al,(%eax)
 e081fe1:	00 00                	add    %al,(%eax)
 e081fe3:	00 00                	add    %al,(%eax)
 e081fe5:	00 00                	add    %al,(%eax)
 e081fe7:	00 00                	add    %al,(%eax)
 e081fe9:	00 00                	add    %al,(%eax)
 e081feb:	00 00                	add    %al,(%eax)
 e081fed:	00 00                	add    %al,(%eax)
 e081fef:	00 00                	add    %al,(%eax)
 e081ff1:	00 00                	add    %al,(%eax)
 e081ff3:	00 00                	add    %al,(%eax)
 e081ff5:	00 00                	add    %al,(%eax)
 e081ff7:	00 00                	add    %al,(%eax)
 e081ff9:	00 00                	add    %al,(%eax)
 e081ffb:	00 00                	add    %al,(%eax)
 e081ffd:	00 00                	add    %al,(%eax)
 e081fff:	00 00                	add    %al,(%eax)
 e082001:	00 00                	add    %al,(%eax)
 e082003:	00 00                	add    %al,(%eax)
 e082005:	00 00                	add    %al,(%eax)
 e082007:	00 00                	add    %al,(%eax)
 e082009:	00 00                	add    %al,(%eax)
 e08200b:	00 00                	add    %al,(%eax)
 e08200d:	00 00                	add    %al,(%eax)
 e08200f:	00 00                	add    %al,(%eax)
 e082011:	00 00                	add    %al,(%eax)
 e082013:	00 00                	add    %al,(%eax)
 e082015:	00 00                	add    %al,(%eax)
 e082017:	00 00                	add    %al,(%eax)
 e082019:	00 00                	add    %al,(%eax)
 e08201b:	00 00                	add    %al,(%eax)
 e08201d:	00 00                	add    %al,(%eax)
 e08201f:	00 00                	add    %al,(%eax)
 e082021:	00 00                	add    %al,(%eax)
 e082023:	00 00                	add    %al,(%eax)
 e082025:	00 00                	add    %al,(%eax)
 e082027:	00 00                	add    %al,(%eax)
 e082029:	00 00                	add    %al,(%eax)
 e08202b:	00 00                	add    %al,(%eax)
 e08202d:	00 00                	add    %al,(%eax)
 e08202f:	00 00                	add    %al,(%eax)
 e082031:	00 00                	add    %al,(%eax)
 e082033:	00 00                	add    %al,(%eax)
 e082035:	00 00                	add    %al,(%eax)
 e082037:	00 00                	add    %al,(%eax)
 e082039:	00 00                	add    %al,(%eax)
 e08203b:	00 00                	add    %al,(%eax)
 e08203d:	00 00                	add    %al,(%eax)
 e08203f:	00 00                	add    %al,(%eax)
 e082041:	00 00                	add    %al,(%eax)
 e082043:	00 00                	add    %al,(%eax)
 e082045:	00 00                	add    %al,(%eax)
 e082047:	00 00                	add    %al,(%eax)
 e082049:	00 00                	add    %al,(%eax)
 e08204b:	00 00                	add    %al,(%eax)
 e08204d:	00 00                	add    %al,(%eax)
 e08204f:	00 00                	add    %al,(%eax)
 e082051:	00 00                	add    %al,(%eax)
 e082053:	00 00                	add    %al,(%eax)
 e082055:	00 00                	add    %al,(%eax)
 e082057:	00 00                	add    %al,(%eax)
 e082059:	00 00                	add    %al,(%eax)
 e08205b:	00 00                	add    %al,(%eax)
 e08205d:	00 00                	add    %al,(%eax)
 e08205f:	00 00                	add    %al,(%eax)
 e082061:	00 00                	add    %al,(%eax)
 e082063:	00 00                	add    %al,(%eax)
 e082065:	00 00                	add    %al,(%eax)
 e082067:	00 00                	add    %al,(%eax)
 e082069:	00 00                	add    %al,(%eax)
 e08206b:	00 00                	add    %al,(%eax)
 e08206d:	00 00                	add    %al,(%eax)
 e08206f:	00 00                	add    %al,(%eax)
 e082071:	00 00                	add    %al,(%eax)
 e082073:	00 00                	add    %al,(%eax)
 e082075:	00 00                	add    %al,(%eax)
 e082077:	00 00                	add    %al,(%eax)
 e082079:	00 00                	add    %al,(%eax)
 e08207b:	00 00                	add    %al,(%eax)
 e08207d:	00 00                	add    %al,(%eax)
 e08207f:	00 00                	add    %al,(%eax)
 e082081:	00 00                	add    %al,(%eax)
 e082083:	00 00                	add    %al,(%eax)
 e082085:	00 00                	add    %al,(%eax)
 e082087:	00 00                	add    %al,(%eax)
 e082089:	00 00                	add    %al,(%eax)
 e08208b:	00 00                	add    %al,(%eax)
 e08208d:	00 00                	add    %al,(%eax)
 e08208f:	00 00                	add    %al,(%eax)
 e082091:	00 00                	add    %al,(%eax)
 e082093:	00 00                	add    %al,(%eax)
 e082095:	00 00                	add    %al,(%eax)
 e082097:	00 00                	add    %al,(%eax)
 e082099:	00 00                	add    %al,(%eax)
 e08209b:	00 00                	add    %al,(%eax)
 e08209d:	00 00                	add    %al,(%eax)
 e08209f:	00 00                	add    %al,(%eax)
 e0820a1:	00 00                	add    %al,(%eax)
 e0820a3:	00 00                	add    %al,(%eax)
 e0820a5:	00 00                	add    %al,(%eax)
 e0820a7:	00 00                	add    %al,(%eax)
 e0820a9:	00 00                	add    %al,(%eax)
 e0820ab:	00 00                	add    %al,(%eax)
 e0820ad:	00 00                	add    %al,(%eax)
 e0820af:	00 00                	add    %al,(%eax)
 e0820b1:	00 00                	add    %al,(%eax)
 e0820b3:	00 00                	add    %al,(%eax)
 e0820b5:	00 00                	add    %al,(%eax)
 e0820b7:	00 00                	add    %al,(%eax)
 e0820b9:	00 00                	add    %al,(%eax)
 e0820bb:	00 00                	add    %al,(%eax)
 e0820bd:	00 00                	add    %al,(%eax)
 e0820bf:	00 00                	add    %al,(%eax)
 e0820c1:	00 00                	add    %al,(%eax)
 e0820c3:	00 00                	add    %al,(%eax)
 e0820c5:	00 00                	add    %al,(%eax)
 e0820c7:	00 00                	add    %al,(%eax)
 e0820c9:	00 00                	add    %al,(%eax)
 e0820cb:	00 00                	add    %al,(%eax)
 e0820cd:	00 00                	add    %al,(%eax)
 e0820cf:	00 00                	add    %al,(%eax)
 e0820d1:	00 00                	add    %al,(%eax)
 e0820d3:	00 00                	add    %al,(%eax)
 e0820d5:	00 00                	add    %al,(%eax)
 e0820d7:	00 00                	add    %al,(%eax)
 e0820d9:	00 00                	add    %al,(%eax)
 e0820db:	00 00                	add    %al,(%eax)
 e0820dd:	00 00                	add    %al,(%eax)
 e0820df:	00 00                	add    %al,(%eax)
 e0820e1:	00 00                	add    %al,(%eax)
 e0820e3:	00 00                	add    %al,(%eax)
 e0820e5:	00 00                	add    %al,(%eax)
 e0820e7:	00 00                	add    %al,(%eax)
 e0820e9:	00 00                	add    %al,(%eax)
 e0820eb:	00 00                	add    %al,(%eax)
 e0820ed:	00 00                	add    %al,(%eax)
 e0820ef:	00 00                	add    %al,(%eax)
 e0820f1:	00 00                	add    %al,(%eax)
 e0820f3:	00 00                	add    %al,(%eax)
 e0820f5:	00 00                	add    %al,(%eax)
 e0820f7:	00 00                	add    %al,(%eax)
 e0820f9:	00 00                	add    %al,(%eax)
 e0820fb:	00 00                	add    %al,(%eax)
 e0820fd:	00 00                	add    %al,(%eax)
 e0820ff:	00 00                	add    %al,(%eax)
 e082101:	00 00                	add    %al,(%eax)
 e082103:	00 00                	add    %al,(%eax)
 e082105:	00 00                	add    %al,(%eax)
 e082107:	00 00                	add    %al,(%eax)
 e082109:	00 00                	add    %al,(%eax)
 e08210b:	00 00                	add    %al,(%eax)
 e08210d:	00 00                	add    %al,(%eax)
 e08210f:	00 00                	add    %al,(%eax)
 e082111:	00 00                	add    %al,(%eax)
 e082113:	00 00                	add    %al,(%eax)
 e082115:	00 00                	add    %al,(%eax)
 e082117:	00 00                	add    %al,(%eax)
 e082119:	00 00                	add    %al,(%eax)
 e08211b:	00 00                	add    %al,(%eax)
 e08211d:	00 00                	add    %al,(%eax)
 e08211f:	00 00                	add    %al,(%eax)
 e082121:	00 00                	add    %al,(%eax)
 e082123:	00 00                	add    %al,(%eax)
 e082125:	00 00                	add    %al,(%eax)
 e082127:	00 00                	add    %al,(%eax)
 e082129:	00 00                	add    %al,(%eax)
 e08212b:	00 00                	add    %al,(%eax)
 e08212d:	00 00                	add    %al,(%eax)
 e08212f:	00 00                	add    %al,(%eax)
 e082131:	00 00                	add    %al,(%eax)
 e082133:	00 00                	add    %al,(%eax)
 e082135:	00 00                	add    %al,(%eax)
 e082137:	00 00                	add    %al,(%eax)
 e082139:	00 00                	add    %al,(%eax)
 e08213b:	00 00                	add    %al,(%eax)
 e08213d:	00 00                	add    %al,(%eax)
 e08213f:	00 00                	add    %al,(%eax)
 e082141:	00 00                	add    %al,(%eax)
 e082143:	00 00                	add    %al,(%eax)
 e082145:	00 00                	add    %al,(%eax)
 e082147:	00 00                	add    %al,(%eax)
 e082149:	00 00                	add    %al,(%eax)
 e08214b:	00 00                	add    %al,(%eax)
 e08214d:	00 00                	add    %al,(%eax)
 e08214f:	00 00                	add    %al,(%eax)
 e082151:	00 00                	add    %al,(%eax)
 e082153:	00 00                	add    %al,(%eax)
 e082155:	00 00                	add    %al,(%eax)
 e082157:	00 00                	add    %al,(%eax)
 e082159:	00 00                	add    %al,(%eax)
 e08215b:	00 00                	add    %al,(%eax)
 e08215d:	00 00                	add    %al,(%eax)
 e08215f:	00 00                	add    %al,(%eax)
 e082161:	00 00                	add    %al,(%eax)
 e082163:	00 00                	add    %al,(%eax)
 e082165:	00 00                	add    %al,(%eax)
 e082167:	00 00                	add    %al,(%eax)
 e082169:	00 00                	add    %al,(%eax)
 e08216b:	00 00                	add    %al,(%eax)
 e08216d:	00 00                	add    %al,(%eax)
 e08216f:	00 00                	add    %al,(%eax)
 e082171:	00 00                	add    %al,(%eax)
 e082173:	00 00                	add    %al,(%eax)
 e082175:	00 00                	add    %al,(%eax)
 e082177:	00 00                	add    %al,(%eax)
 e082179:	00 00                	add    %al,(%eax)
 e08217b:	00 00                	add    %al,(%eax)
 e08217d:	00 00                	add    %al,(%eax)
 e08217f:	00 00                	add    %al,(%eax)
 e082181:	00 00                	add    %al,(%eax)
 e082183:	00 00                	add    %al,(%eax)
 e082185:	00 00                	add    %al,(%eax)
 e082187:	00 00                	add    %al,(%eax)
 e082189:	00 00                	add    %al,(%eax)
 e08218b:	00 00                	add    %al,(%eax)
 e08218d:	00 00                	add    %al,(%eax)
 e08218f:	00 00                	add    %al,(%eax)
 e082191:	00 00                	add    %al,(%eax)
 e082193:	00 00                	add    %al,(%eax)
 e082195:	00 00                	add    %al,(%eax)
 e082197:	00 00                	add    %al,(%eax)
 e082199:	00 00                	add    %al,(%eax)
 e08219b:	00 00                	add    %al,(%eax)
 e08219d:	00 00                	add    %al,(%eax)
 e08219f:	00 00                	add    %al,(%eax)
 e0821a1:	00 00                	add    %al,(%eax)
 e0821a3:	00 00                	add    %al,(%eax)
 e0821a5:	00 00                	add    %al,(%eax)
 e0821a7:	00 00                	add    %al,(%eax)
 e0821a9:	00 00                	add    %al,(%eax)
 e0821ab:	00 00                	add    %al,(%eax)
 e0821ad:	00 00                	add    %al,(%eax)
 e0821af:	00 00                	add    %al,(%eax)
 e0821b1:	00 00                	add    %al,(%eax)
 e0821b3:	00 00                	add    %al,(%eax)
 e0821b5:	00 00                	add    %al,(%eax)
 e0821b7:	00 00                	add    %al,(%eax)
 e0821b9:	00 00                	add    %al,(%eax)
 e0821bb:	00 00                	add    %al,(%eax)
 e0821bd:	00 00                	add    %al,(%eax)
 e0821bf:	00 00                	add    %al,(%eax)
 e0821c1:	00 00                	add    %al,(%eax)
 e0821c3:	00 00                	add    %al,(%eax)
 e0821c5:	00 00                	add    %al,(%eax)
 e0821c7:	00 00                	add    %al,(%eax)
 e0821c9:	00 00                	add    %al,(%eax)
 e0821cb:	00 00                	add    %al,(%eax)
 e0821cd:	00 00                	add    %al,(%eax)
 e0821cf:	00 00                	add    %al,(%eax)
 e0821d1:	00 00                	add    %al,(%eax)
 e0821d3:	00 00                	add    %al,(%eax)
 e0821d5:	00 00                	add    %al,(%eax)
 e0821d7:	00 00                	add    %al,(%eax)
 e0821d9:	00 00                	add    %al,(%eax)
 e0821db:	00 00                	add    %al,(%eax)
 e0821dd:	00 00                	add    %al,(%eax)
 e0821df:	00 00                	add    %al,(%eax)
 e0821e1:	00 00                	add    %al,(%eax)
 e0821e3:	00 00                	add    %al,(%eax)
 e0821e5:	00 00                	add    %al,(%eax)
 e0821e7:	00 00                	add    %al,(%eax)
 e0821e9:	00 00                	add    %al,(%eax)
 e0821eb:	00 00                	add    %al,(%eax)
 e0821ed:	00 00                	add    %al,(%eax)
 e0821ef:	00 00                	add    %al,(%eax)
 e0821f1:	00 00                	add    %al,(%eax)
 e0821f3:	00 00                	add    %al,(%eax)
 e0821f5:	00 00                	add    %al,(%eax)
 e0821f7:	00 00                	add    %al,(%eax)
 e0821f9:	00 00                	add    %al,(%eax)
 e0821fb:	00 00                	add    %al,(%eax)
 e0821fd:	00 00                	add    %al,(%eax)
 e0821ff:	00 00                	add    %al,(%eax)
 e082201:	00 00                	add    %al,(%eax)
 e082203:	00 00                	add    %al,(%eax)
 e082205:	00 00                	add    %al,(%eax)
 e082207:	00 00                	add    %al,(%eax)
 e082209:	00 00                	add    %al,(%eax)
 e08220b:	00 00                	add    %al,(%eax)
 e08220d:	00 00                	add    %al,(%eax)
 e08220f:	00 00                	add    %al,(%eax)
 e082211:	00 00                	add    %al,(%eax)
 e082213:	00 00                	add    %al,(%eax)
 e082215:	00 00                	add    %al,(%eax)
 e082217:	00 00                	add    %al,(%eax)
 e082219:	00 00                	add    %al,(%eax)
 e08221b:	00 00                	add    %al,(%eax)
 e08221d:	00 00                	add    %al,(%eax)
 e08221f:	00 00                	add    %al,(%eax)
 e082221:	00 00                	add    %al,(%eax)
 e082223:	00 00                	add    %al,(%eax)
 e082225:	00 00                	add    %al,(%eax)
 e082227:	00 00                	add    %al,(%eax)
 e082229:	00 00                	add    %al,(%eax)
 e08222b:	00 00                	add    %al,(%eax)
 e08222d:	00 00                	add    %al,(%eax)
 e08222f:	00 00                	add    %al,(%eax)
 e082231:	00 00                	add    %al,(%eax)
 e082233:	00 00                	add    %al,(%eax)
 e082235:	00 00                	add    %al,(%eax)
 e082237:	00 00                	add    %al,(%eax)
 e082239:	00 00                	add    %al,(%eax)
 e08223b:	00 00                	add    %al,(%eax)
 e08223d:	00 00                	add    %al,(%eax)
 e08223f:	00 00                	add    %al,(%eax)
 e082241:	00 00                	add    %al,(%eax)
 e082243:	00 00                	add    %al,(%eax)
 e082245:	00 00                	add    %al,(%eax)
 e082247:	00 00                	add    %al,(%eax)
 e082249:	00 00                	add    %al,(%eax)
 e08224b:	00 00                	add    %al,(%eax)
 e08224d:	00 00                	add    %al,(%eax)
 e08224f:	00 00                	add    %al,(%eax)
 e082251:	00 00                	add    %al,(%eax)
 e082253:	00 00                	add    %al,(%eax)
 e082255:	00 00                	add    %al,(%eax)
 e082257:	00 00                	add    %al,(%eax)
 e082259:	00 00                	add    %al,(%eax)
 e08225b:	00 00                	add    %al,(%eax)
 e08225d:	00 00                	add    %al,(%eax)
 e08225f:	00 00                	add    %al,(%eax)
 e082261:	00 00                	add    %al,(%eax)
 e082263:	00 00                	add    %al,(%eax)
 e082265:	00 00                	add    %al,(%eax)
 e082267:	00 00                	add    %al,(%eax)
 e082269:	00 00                	add    %al,(%eax)
 e08226b:	00 00                	add    %al,(%eax)
 e08226d:	00 00                	add    %al,(%eax)
 e08226f:	00 00                	add    %al,(%eax)
 e082271:	00 00                	add    %al,(%eax)
 e082273:	00 00                	add    %al,(%eax)
 e082275:	00 00                	add    %al,(%eax)
 e082277:	00 00                	add    %al,(%eax)
 e082279:	00 00                	add    %al,(%eax)
 e08227b:	00 00                	add    %al,(%eax)
 e08227d:	00 00                	add    %al,(%eax)
 e08227f:	00 00                	add    %al,(%eax)
 e082281:	00 00                	add    %al,(%eax)
 e082283:	00 00                	add    %al,(%eax)
 e082285:	00 00                	add    %al,(%eax)
 e082287:	00 00                	add    %al,(%eax)
 e082289:	00 00                	add    %al,(%eax)
 e08228b:	00 00                	add    %al,(%eax)
 e08228d:	00 00                	add    %al,(%eax)
 e08228f:	00 00                	add    %al,(%eax)
 e082291:	00 00                	add    %al,(%eax)
 e082293:	00 00                	add    %al,(%eax)
 e082295:	00 00                	add    %al,(%eax)
 e082297:	00 00                	add    %al,(%eax)
 e082299:	00 00                	add    %al,(%eax)
 e08229b:	00 00                	add    %al,(%eax)
 e08229d:	00 00                	add    %al,(%eax)
 e08229f:	00 00                	add    %al,(%eax)
 e0822a1:	00 00                	add    %al,(%eax)
 e0822a3:	00 00                	add    %al,(%eax)
 e0822a5:	00 00                	add    %al,(%eax)
 e0822a7:	00 00                	add    %al,(%eax)
 e0822a9:	00 00                	add    %al,(%eax)
 e0822ab:	00 00                	add    %al,(%eax)
 e0822ad:	00 00                	add    %al,(%eax)
 e0822af:	00 00                	add    %al,(%eax)
 e0822b1:	00 00                	add    %al,(%eax)
 e0822b3:	00 00                	add    %al,(%eax)
 e0822b5:	00 00                	add    %al,(%eax)
 e0822b7:	00 00                	add    %al,(%eax)
 e0822b9:	00 00                	add    %al,(%eax)
 e0822bb:	00 00                	add    %al,(%eax)
 e0822bd:	00 00                	add    %al,(%eax)
 e0822bf:	00 00                	add    %al,(%eax)
 e0822c1:	00 00                	add    %al,(%eax)
 e0822c3:	00 00                	add    %al,(%eax)
 e0822c5:	00 00                	add    %al,(%eax)
 e0822c7:	00 00                	add    %al,(%eax)
 e0822c9:	00 00                	add    %al,(%eax)
 e0822cb:	00 00                	add    %al,(%eax)
 e0822cd:	00 00                	add    %al,(%eax)
 e0822cf:	00 00                	add    %al,(%eax)
 e0822d1:	00 00                	add    %al,(%eax)
 e0822d3:	00 00                	add    %al,(%eax)
 e0822d5:	00 00                	add    %al,(%eax)
 e0822d7:	00 00                	add    %al,(%eax)
 e0822d9:	00 00                	add    %al,(%eax)
 e0822db:	00 00                	add    %al,(%eax)
 e0822dd:	00 00                	add    %al,(%eax)
 e0822df:	00 00                	add    %al,(%eax)
 e0822e1:	00 00                	add    %al,(%eax)
 e0822e3:	00 00                	add    %al,(%eax)
 e0822e5:	00 00                	add    %al,(%eax)
 e0822e7:	00 00                	add    %al,(%eax)
 e0822e9:	00 00                	add    %al,(%eax)
 e0822eb:	00 00                	add    %al,(%eax)
 e0822ed:	00 00                	add    %al,(%eax)
 e0822ef:	00 00                	add    %al,(%eax)
 e0822f1:	00 00                	add    %al,(%eax)
 e0822f3:	00 00                	add    %al,(%eax)
 e0822f5:	00 00                	add    %al,(%eax)
 e0822f7:	00 00                	add    %al,(%eax)
 e0822f9:	00 00                	add    %al,(%eax)
 e0822fb:	00 00                	add    %al,(%eax)
 e0822fd:	00 00                	add    %al,(%eax)
 e0822ff:	00 00                	add    %al,(%eax)
 e082301:	00 00                	add    %al,(%eax)
 e082303:	00 00                	add    %al,(%eax)
 e082305:	00 00                	add    %al,(%eax)
 e082307:	00 00                	add    %al,(%eax)
 e082309:	00 00                	add    %al,(%eax)
 e08230b:	00 00                	add    %al,(%eax)
 e08230d:	00 00                	add    %al,(%eax)
 e08230f:	00 00                	add    %al,(%eax)
 e082311:	00 00                	add    %al,(%eax)
 e082313:	00 00                	add    %al,(%eax)
 e082315:	00 00                	add    %al,(%eax)
 e082317:	00 00                	add    %al,(%eax)
 e082319:	00 00                	add    %al,(%eax)
 e08231b:	00 00                	add    %al,(%eax)
 e08231d:	00 00                	add    %al,(%eax)
 e08231f:	00 00                	add    %al,(%eax)
 e082321:	00 00                	add    %al,(%eax)
 e082323:	00 00                	add    %al,(%eax)
 e082325:	00 00                	add    %al,(%eax)
 e082327:	00 00                	add    %al,(%eax)
 e082329:	00 00                	add    %al,(%eax)
 e08232b:	00 00                	add    %al,(%eax)
 e08232d:	00 00                	add    %al,(%eax)
 e08232f:	00 00                	add    %al,(%eax)
 e082331:	00 00                	add    %al,(%eax)
 e082333:	00 00                	add    %al,(%eax)
 e082335:	00 00                	add    %al,(%eax)
 e082337:	00 00                	add    %al,(%eax)
 e082339:	00 00                	add    %al,(%eax)
 e08233b:	00 00                	add    %al,(%eax)
 e08233d:	00 00                	add    %al,(%eax)
 e08233f:	00 00                	add    %al,(%eax)
 e082341:	00 00                	add    %al,(%eax)
 e082343:	00 00                	add    %al,(%eax)
 e082345:	00 00                	add    %al,(%eax)
 e082347:	00 00                	add    %al,(%eax)
 e082349:	00 00                	add    %al,(%eax)
 e08234b:	00 00                	add    %al,(%eax)
 e08234d:	00 00                	add    %al,(%eax)
 e08234f:	00 00                	add    %al,(%eax)
 e082351:	00 00                	add    %al,(%eax)
 e082353:	00 00                	add    %al,(%eax)
 e082355:	00 00                	add    %al,(%eax)
 e082357:	00 00                	add    %al,(%eax)
 e082359:	00 00                	add    %al,(%eax)
 e08235b:	00 00                	add    %al,(%eax)
 e08235d:	00 00                	add    %al,(%eax)
 e08235f:	00 00                	add    %al,(%eax)
 e082361:	00 00                	add    %al,(%eax)
 e082363:	00 00                	add    %al,(%eax)
 e082365:	00 00                	add    %al,(%eax)
 e082367:	00 00                	add    %al,(%eax)
 e082369:	00 00                	add    %al,(%eax)
 e08236b:	00 00                	add    %al,(%eax)
 e08236d:	00 00                	add    %al,(%eax)
 e08236f:	00 00                	add    %al,(%eax)
 e082371:	00 00                	add    %al,(%eax)
 e082373:	00 00                	add    %al,(%eax)
 e082375:	00 00                	add    %al,(%eax)
 e082377:	00 00                	add    %al,(%eax)
 e082379:	00 00                	add    %al,(%eax)
 e08237b:	00 00                	add    %al,(%eax)
 e08237d:	00 00                	add    %al,(%eax)
 e08237f:	00 00                	add    %al,(%eax)
 e082381:	00 00                	add    %al,(%eax)
 e082383:	00 00                	add    %al,(%eax)
 e082385:	00 00                	add    %al,(%eax)
 e082387:	00 00                	add    %al,(%eax)
 e082389:	00 00                	add    %al,(%eax)
 e08238b:	00 00                	add    %al,(%eax)
 e08238d:	00 00                	add    %al,(%eax)
 e08238f:	00 00                	add    %al,(%eax)
 e082391:	00 00                	add    %al,(%eax)
 e082393:	00 00                	add    %al,(%eax)
 e082395:	00 00                	add    %al,(%eax)
 e082397:	00 00                	add    %al,(%eax)
 e082399:	00 00                	add    %al,(%eax)
 e08239b:	00 00                	add    %al,(%eax)
 e08239d:	00 00                	add    %al,(%eax)
 e08239f:	00 00                	add    %al,(%eax)
 e0823a1:	00 00                	add    %al,(%eax)
 e0823a3:	00 00                	add    %al,(%eax)
 e0823a5:	00 00                	add    %al,(%eax)
 e0823a7:	00 00                	add    %al,(%eax)
 e0823a9:	00 00                	add    %al,(%eax)
 e0823ab:	00 00                	add    %al,(%eax)
 e0823ad:	00 00                	add    %al,(%eax)
 e0823af:	00 00                	add    %al,(%eax)
 e0823b1:	00 00                	add    %al,(%eax)
 e0823b3:	00 00                	add    %al,(%eax)
 e0823b5:	00 00                	add    %al,(%eax)
 e0823b7:	00 00                	add    %al,(%eax)
 e0823b9:	00 00                	add    %al,(%eax)
 e0823bb:	00 00                	add    %al,(%eax)
 e0823bd:	00 00                	add    %al,(%eax)
 e0823bf:	00 00                	add    %al,(%eax)
 e0823c1:	00 00                	add    %al,(%eax)
 e0823c3:	00 00                	add    %al,(%eax)
 e0823c5:	00 00                	add    %al,(%eax)
 e0823c7:	00 00                	add    %al,(%eax)
 e0823c9:	00 00                	add    %al,(%eax)
 e0823cb:	00 00                	add    %al,(%eax)
 e0823cd:	00 00                	add    %al,(%eax)
 e0823cf:	00 00                	add    %al,(%eax)
 e0823d1:	00 00                	add    %al,(%eax)
 e0823d3:	00 00                	add    %al,(%eax)
 e0823d5:	00 00                	add    %al,(%eax)
 e0823d7:	00 00                	add    %al,(%eax)
 e0823d9:	00 00                	add    %al,(%eax)
 e0823db:	00 00                	add    %al,(%eax)
 e0823dd:	00 00                	add    %al,(%eax)
 e0823df:	00 00                	add    %al,(%eax)
 e0823e1:	00 00                	add    %al,(%eax)
 e0823e3:	00 00                	add    %al,(%eax)
 e0823e5:	00 00                	add    %al,(%eax)
 e0823e7:	00 00                	add    %al,(%eax)
 e0823e9:	00 00                	add    %al,(%eax)
 e0823eb:	00 00                	add    %al,(%eax)
 e0823ed:	00 00                	add    %al,(%eax)
 e0823ef:	00 00                	add    %al,(%eax)
 e0823f1:	00 00                	add    %al,(%eax)
 e0823f3:	00 00                	add    %al,(%eax)
 e0823f5:	00 00                	add    %al,(%eax)
 e0823f7:	00 00                	add    %al,(%eax)
 e0823f9:	00 00                	add    %al,(%eax)
 e0823fb:	00 00                	add    %al,(%eax)
 e0823fd:	00 00                	add    %al,(%eax)
 e0823ff:	00 00                	add    %al,(%eax)
 e082401:	00 00                	add    %al,(%eax)
 e082403:	00 00                	add    %al,(%eax)
 e082405:	00 00                	add    %al,(%eax)
 e082407:	00 00                	add    %al,(%eax)
 e082409:	00 00                	add    %al,(%eax)
 e08240b:	00 00                	add    %al,(%eax)
 e08240d:	00 00                	add    %al,(%eax)
 e08240f:	00 00                	add    %al,(%eax)
 e082411:	00 00                	add    %al,(%eax)
 e082413:	00 00                	add    %al,(%eax)
 e082415:	00 00                	add    %al,(%eax)
 e082417:	00 00                	add    %al,(%eax)
 e082419:	00 00                	add    %al,(%eax)
 e08241b:	00 00                	add    %al,(%eax)
 e08241d:	00 00                	add    %al,(%eax)
 e08241f:	00 00                	add    %al,(%eax)
 e082421:	00 00                	add    %al,(%eax)
 e082423:	00 00                	add    %al,(%eax)
 e082425:	00 00                	add    %al,(%eax)
 e082427:	00 00                	add    %al,(%eax)
 e082429:	00 00                	add    %al,(%eax)
 e08242b:	00 00                	add    %al,(%eax)
 e08242d:	00 00                	add    %al,(%eax)
 e08242f:	00 00                	add    %al,(%eax)
 e082431:	00 00                	add    %al,(%eax)
 e082433:	00 00                	add    %al,(%eax)
 e082435:	00 00                	add    %al,(%eax)
 e082437:	00 00                	add    %al,(%eax)
 e082439:	00 00                	add    %al,(%eax)
 e08243b:	00 00                	add    %al,(%eax)
 e08243d:	00 00                	add    %al,(%eax)
 e08243f:	00 00                	add    %al,(%eax)
 e082441:	00 00                	add    %al,(%eax)
 e082443:	00 00                	add    %al,(%eax)
 e082445:	00 00                	add    %al,(%eax)
 e082447:	00 00                	add    %al,(%eax)
 e082449:	00 00                	add    %al,(%eax)
 e08244b:	00 00                	add    %al,(%eax)
 e08244d:	00 00                	add    %al,(%eax)
 e08244f:	00 00                	add    %al,(%eax)
 e082451:	00 00                	add    %al,(%eax)
 e082453:	00 00                	add    %al,(%eax)
 e082455:	00 00                	add    %al,(%eax)
 e082457:	00 00                	add    %al,(%eax)
 e082459:	00 00                	add    %al,(%eax)
 e08245b:	00 00                	add    %al,(%eax)
 e08245d:	00 00                	add    %al,(%eax)
 e08245f:	00 00                	add    %al,(%eax)
 e082461:	00 00                	add    %al,(%eax)
 e082463:	00 00                	add    %al,(%eax)
 e082465:	00 00                	add    %al,(%eax)
 e082467:	00 00                	add    %al,(%eax)
 e082469:	00 00                	add    %al,(%eax)
 e08246b:	00 00                	add    %al,(%eax)
 e08246d:	00 00                	add    %al,(%eax)
 e08246f:	00 00                	add    %al,(%eax)
 e082471:	00 00                	add    %al,(%eax)
 e082473:	00 00                	add    %al,(%eax)
 e082475:	00 00                	add    %al,(%eax)
 e082477:	00 00                	add    %al,(%eax)
 e082479:	00 00                	add    %al,(%eax)
 e08247b:	00 00                	add    %al,(%eax)
 e08247d:	00 00                	add    %al,(%eax)
 e08247f:	00 00                	add    %al,(%eax)
 e082481:	00 00                	add    %al,(%eax)
 e082483:	00 00                	add    %al,(%eax)
 e082485:	00 00                	add    %al,(%eax)
 e082487:	00 00                	add    %al,(%eax)
 e082489:	00 00                	add    %al,(%eax)
 e08248b:	00 00                	add    %al,(%eax)
 e08248d:	00 00                	add    %al,(%eax)
 e08248f:	00 00                	add    %al,(%eax)
 e082491:	00 00                	add    %al,(%eax)
 e082493:	00 00                	add    %al,(%eax)
 e082495:	00 00                	add    %al,(%eax)
 e082497:	00 00                	add    %al,(%eax)
 e082499:	00 00                	add    %al,(%eax)
 e08249b:	00 00                	add    %al,(%eax)
 e08249d:	00 00                	add    %al,(%eax)
 e08249f:	00 00                	add    %al,(%eax)
 e0824a1:	00 00                	add    %al,(%eax)
 e0824a3:	00 00                	add    %al,(%eax)
 e0824a5:	00 00                	add    %al,(%eax)
 e0824a7:	00 00                	add    %al,(%eax)
 e0824a9:	00 00                	add    %al,(%eax)
 e0824ab:	00 00                	add    %al,(%eax)
 e0824ad:	00 00                	add    %al,(%eax)
 e0824af:	00 00                	add    %al,(%eax)
 e0824b1:	00 00                	add    %al,(%eax)
 e0824b3:	00 00                	add    %al,(%eax)
 e0824b5:	00 00                	add    %al,(%eax)
 e0824b7:	00 00                	add    %al,(%eax)
 e0824b9:	00 00                	add    %al,(%eax)
 e0824bb:	00 00                	add    %al,(%eax)
 e0824bd:	00 00                	add    %al,(%eax)
 e0824bf:	00 00                	add    %al,(%eax)
 e0824c1:	00 00                	add    %al,(%eax)
 e0824c3:	00 00                	add    %al,(%eax)
 e0824c5:	00 00                	add    %al,(%eax)
 e0824c7:	00 00                	add    %al,(%eax)
 e0824c9:	00 00                	add    %al,(%eax)
 e0824cb:	00 00                	add    %al,(%eax)
 e0824cd:	00 00                	add    %al,(%eax)
 e0824cf:	00 00                	add    %al,(%eax)
 e0824d1:	00 00                	add    %al,(%eax)
 e0824d3:	00 00                	add    %al,(%eax)
 e0824d5:	00 00                	add    %al,(%eax)
 e0824d7:	00 00                	add    %al,(%eax)
 e0824d9:	00 00                	add    %al,(%eax)
 e0824db:	00 00                	add    %al,(%eax)
 e0824dd:	00 00                	add    %al,(%eax)
 e0824df:	00 00                	add    %al,(%eax)
 e0824e1:	00 00                	add    %al,(%eax)
 e0824e3:	00 00                	add    %al,(%eax)
 e0824e5:	00 00                	add    %al,(%eax)
 e0824e7:	00 00                	add    %al,(%eax)
 e0824e9:	00 00                	add    %al,(%eax)
 e0824eb:	00 00                	add    %al,(%eax)
 e0824ed:	00 00                	add    %al,(%eax)
 e0824ef:	00 00                	add    %al,(%eax)
 e0824f1:	00 00                	add    %al,(%eax)
 e0824f3:	00 00                	add    %al,(%eax)
 e0824f5:	00 00                	add    %al,(%eax)
 e0824f7:	00 00                	add    %al,(%eax)
 e0824f9:	00 00                	add    %al,(%eax)
 e0824fb:	00 00                	add    %al,(%eax)
 e0824fd:	00 00                	add    %al,(%eax)
 e0824ff:	00 00                	add    %al,(%eax)
 e082501:	00 00                	add    %al,(%eax)
 e082503:	00 00                	add    %al,(%eax)
 e082505:	00 00                	add    %al,(%eax)
 e082507:	00 00                	add    %al,(%eax)
 e082509:	00 00                	add    %al,(%eax)
 e08250b:	00 00                	add    %al,(%eax)
 e08250d:	00 00                	add    %al,(%eax)
 e08250f:	00 00                	add    %al,(%eax)
 e082511:	00 00                	add    %al,(%eax)
 e082513:	00 00                	add    %al,(%eax)
 e082515:	00 00                	add    %al,(%eax)
 e082517:	00 00                	add    %al,(%eax)
 e082519:	00 00                	add    %al,(%eax)
 e08251b:	00 00                	add    %al,(%eax)
 e08251d:	00 00                	add    %al,(%eax)
 e08251f:	00 00                	add    %al,(%eax)
 e082521:	00 00                	add    %al,(%eax)
 e082523:	00 00                	add    %al,(%eax)
 e082525:	00 00                	add    %al,(%eax)
 e082527:	00 00                	add    %al,(%eax)
 e082529:	00 00                	add    %al,(%eax)
 e08252b:	00 00                	add    %al,(%eax)
 e08252d:	00 00                	add    %al,(%eax)
 e08252f:	00 00                	add    %al,(%eax)
 e082531:	00 00                	add    %al,(%eax)
 e082533:	00 00                	add    %al,(%eax)
 e082535:	00 00                	add    %al,(%eax)
 e082537:	00 00                	add    %al,(%eax)
 e082539:	00 00                	add    %al,(%eax)
 e08253b:	00 00                	add    %al,(%eax)
 e08253d:	00 00                	add    %al,(%eax)
 e08253f:	00 00                	add    %al,(%eax)
 e082541:	00 00                	add    %al,(%eax)
 e082543:	00 00                	add    %al,(%eax)
 e082545:	00 00                	add    %al,(%eax)
 e082547:	00 00                	add    %al,(%eax)
 e082549:	00 00                	add    %al,(%eax)
 e08254b:	00 00                	add    %al,(%eax)
 e08254d:	00 00                	add    %al,(%eax)
 e08254f:	00 00                	add    %al,(%eax)
 e082551:	00 00                	add    %al,(%eax)
 e082553:	00 00                	add    %al,(%eax)
 e082555:	00 00                	add    %al,(%eax)
 e082557:	00 00                	add    %al,(%eax)
 e082559:	00 00                	add    %al,(%eax)
 e08255b:	00 00                	add    %al,(%eax)
 e08255d:	00 00                	add    %al,(%eax)
 e08255f:	00 00                	add    %al,(%eax)
 e082561:	00 00                	add    %al,(%eax)
 e082563:	00 00                	add    %al,(%eax)
 e082565:	00 00                	add    %al,(%eax)
 e082567:	00 00                	add    %al,(%eax)
 e082569:	00 00                	add    %al,(%eax)
 e08256b:	00 00                	add    %al,(%eax)
 e08256d:	00 00                	add    %al,(%eax)
 e08256f:	00 00                	add    %al,(%eax)
 e082571:	00 00                	add    %al,(%eax)
 e082573:	00 00                	add    %al,(%eax)
 e082575:	00 00                	add    %al,(%eax)
 e082577:	00 00                	add    %al,(%eax)
 e082579:	00 00                	add    %al,(%eax)
 e08257b:	00 00                	add    %al,(%eax)
 e08257d:	00 00                	add    %al,(%eax)
 e08257f:	00 00                	add    %al,(%eax)
 e082581:	00 00                	add    %al,(%eax)
 e082583:	00 00                	add    %al,(%eax)
 e082585:	00 00                	add    %al,(%eax)
 e082587:	00 00                	add    %al,(%eax)
 e082589:	00 00                	add    %al,(%eax)
 e08258b:	00 00                	add    %al,(%eax)
 e08258d:	00 00                	add    %al,(%eax)
 e08258f:	00 00                	add    %al,(%eax)
 e082591:	00 00                	add    %al,(%eax)
 e082593:	00 00                	add    %al,(%eax)
 e082595:	00 00                	add    %al,(%eax)
 e082597:	00 00                	add    %al,(%eax)
 e082599:	00 00                	add    %al,(%eax)
 e08259b:	00 00                	add    %al,(%eax)
 e08259d:	00 00                	add    %al,(%eax)
 e08259f:	00 00                	add    %al,(%eax)
 e0825a1:	00 00                	add    %al,(%eax)
 e0825a3:	00 00                	add    %al,(%eax)
 e0825a5:	00 00                	add    %al,(%eax)
 e0825a7:	00 00                	add    %al,(%eax)
 e0825a9:	00 00                	add    %al,(%eax)
 e0825ab:	00 00                	add    %al,(%eax)
 e0825ad:	00 00                	add    %al,(%eax)
 e0825af:	00 00                	add    %al,(%eax)
 e0825b1:	00 00                	add    %al,(%eax)
 e0825b3:	00 00                	add    %al,(%eax)
 e0825b5:	00 00                	add    %al,(%eax)
 e0825b7:	00 00                	add    %al,(%eax)
 e0825b9:	00 00                	add    %al,(%eax)
 e0825bb:	00 00                	add    %al,(%eax)
 e0825bd:	00 00                	add    %al,(%eax)
 e0825bf:	00 00                	add    %al,(%eax)
 e0825c1:	00 00                	add    %al,(%eax)
 e0825c3:	00 00                	add    %al,(%eax)
 e0825c5:	00 00                	add    %al,(%eax)
 e0825c7:	00 00                	add    %al,(%eax)
 e0825c9:	00 00                	add    %al,(%eax)
 e0825cb:	00 00                	add    %al,(%eax)
 e0825cd:	00 00                	add    %al,(%eax)
 e0825cf:	00 00                	add    %al,(%eax)
 e0825d1:	00 00                	add    %al,(%eax)
 e0825d3:	00 00                	add    %al,(%eax)
 e0825d5:	00 00                	add    %al,(%eax)
 e0825d7:	00 00                	add    %al,(%eax)
 e0825d9:	00 00                	add    %al,(%eax)
 e0825db:	00 00                	add    %al,(%eax)
 e0825dd:	00 00                	add    %al,(%eax)
 e0825df:	00 00                	add    %al,(%eax)
 e0825e1:	00 00                	add    %al,(%eax)
 e0825e3:	00 00                	add    %al,(%eax)
 e0825e5:	00 00                	add    %al,(%eax)
 e0825e7:	00 00                	add    %al,(%eax)
 e0825e9:	00 00                	add    %al,(%eax)
 e0825eb:	00 00                	add    %al,(%eax)
 e0825ed:	00 00                	add    %al,(%eax)
 e0825ef:	00 00                	add    %al,(%eax)
 e0825f1:	00 00                	add    %al,(%eax)
 e0825f3:	00 00                	add    %al,(%eax)
 e0825f5:	00 00                	add    %al,(%eax)
 e0825f7:	00 00                	add    %al,(%eax)
 e0825f9:	00 00                	add    %al,(%eax)
 e0825fb:	00 00                	add    %al,(%eax)
 e0825fd:	00 00                	add    %al,(%eax)
 e0825ff:	00 00                	add    %al,(%eax)
 e082601:	00 00                	add    %al,(%eax)
 e082603:	00 00                	add    %al,(%eax)
 e082605:	00 00                	add    %al,(%eax)
 e082607:	00 00                	add    %al,(%eax)
 e082609:	00 00                	add    %al,(%eax)
 e08260b:	00 00                	add    %al,(%eax)
 e08260d:	00 00                	add    %al,(%eax)
 e08260f:	00 00                	add    %al,(%eax)
 e082611:	00 00                	add    %al,(%eax)
 e082613:	00 00                	add    %al,(%eax)
 e082615:	00 00                	add    %al,(%eax)
 e082617:	00 00                	add    %al,(%eax)
 e082619:	00 00                	add    %al,(%eax)
 e08261b:	00 00                	add    %al,(%eax)
 e08261d:	00 00                	add    %al,(%eax)
 e08261f:	00 00                	add    %al,(%eax)
 e082621:	00 00                	add    %al,(%eax)
 e082623:	00 00                	add    %al,(%eax)
 e082625:	00 00                	add    %al,(%eax)
 e082627:	00 00                	add    %al,(%eax)
 e082629:	00 00                	add    %al,(%eax)
 e08262b:	00 00                	add    %al,(%eax)
 e08262d:	00 00                	add    %al,(%eax)
 e08262f:	00 00                	add    %al,(%eax)
 e082631:	00 00                	add    %al,(%eax)
 e082633:	00 00                	add    %al,(%eax)
 e082635:	00 00                	add    %al,(%eax)
 e082637:	00 00                	add    %al,(%eax)
 e082639:	00 00                	add    %al,(%eax)
 e08263b:	00 00                	add    %al,(%eax)
 e08263d:	00 00                	add    %al,(%eax)
 e08263f:	00 00                	add    %al,(%eax)
 e082641:	00 00                	add    %al,(%eax)
 e082643:	00 00                	add    %al,(%eax)
 e082645:	00 00                	add    %al,(%eax)
 e082647:	00 00                	add    %al,(%eax)
 e082649:	00 00                	add    %al,(%eax)
 e08264b:	00 00                	add    %al,(%eax)
 e08264d:	00 00                	add    %al,(%eax)
 e08264f:	00 00                	add    %al,(%eax)
 e082651:	00 00                	add    %al,(%eax)
 e082653:	00 00                	add    %al,(%eax)
 e082655:	00 00                	add    %al,(%eax)
 e082657:	00 00                	add    %al,(%eax)
 e082659:	00 00                	add    %al,(%eax)
 e08265b:	00 00                	add    %al,(%eax)
 e08265d:	00 00                	add    %al,(%eax)
 e08265f:	00 00                	add    %al,(%eax)
 e082661:	00 00                	add    %al,(%eax)
 e082663:	00 00                	add    %al,(%eax)
 e082665:	00 00                	add    %al,(%eax)
 e082667:	00 00                	add    %al,(%eax)
 e082669:	00 00                	add    %al,(%eax)
 e08266b:	00 00                	add    %al,(%eax)
 e08266d:	00 00                	add    %al,(%eax)
 e08266f:	00 00                	add    %al,(%eax)
 e082671:	00 00                	add    %al,(%eax)
 e082673:	00 00                	add    %al,(%eax)
 e082675:	00 00                	add    %al,(%eax)
 e082677:	00 00                	add    %al,(%eax)
 e082679:	00 00                	add    %al,(%eax)
 e08267b:	00 00                	add    %al,(%eax)
 e08267d:	00 00                	add    %al,(%eax)
 e08267f:	00 00                	add    %al,(%eax)
 e082681:	00 00                	add    %al,(%eax)
 e082683:	00 00                	add    %al,(%eax)
 e082685:	00 00                	add    %al,(%eax)
 e082687:	00 00                	add    %al,(%eax)
 e082689:	00 00                	add    %al,(%eax)
 e08268b:	00 00                	add    %al,(%eax)
 e08268d:	00 00                	add    %al,(%eax)
 e08268f:	00 00                	add    %al,(%eax)
 e082691:	00 00                	add    %al,(%eax)
 e082693:	00 00                	add    %al,(%eax)
 e082695:	00 00                	add    %al,(%eax)
 e082697:	00 00                	add    %al,(%eax)
 e082699:	00 00                	add    %al,(%eax)
 e08269b:	00 00                	add    %al,(%eax)
 e08269d:	00 00                	add    %al,(%eax)
 e08269f:	00 00                	add    %al,(%eax)
 e0826a1:	00 00                	add    %al,(%eax)
 e0826a3:	00 00                	add    %al,(%eax)
 e0826a5:	00 00                	add    %al,(%eax)
 e0826a7:	00 00                	add    %al,(%eax)
 e0826a9:	00 00                	add    %al,(%eax)
 e0826ab:	00 00                	add    %al,(%eax)
 e0826ad:	00 00                	add    %al,(%eax)
 e0826af:	00 00                	add    %al,(%eax)
 e0826b1:	00 00                	add    %al,(%eax)
 e0826b3:	00 00                	add    %al,(%eax)
 e0826b5:	00 00                	add    %al,(%eax)
 e0826b7:	00 00                	add    %al,(%eax)
 e0826b9:	00 00                	add    %al,(%eax)
 e0826bb:	00 00                	add    %al,(%eax)
 e0826bd:	00 00                	add    %al,(%eax)
 e0826bf:	00 00                	add    %al,(%eax)
 e0826c1:	00 00                	add    %al,(%eax)
 e0826c3:	00 00                	add    %al,(%eax)
 e0826c5:	00 00                	add    %al,(%eax)
 e0826c7:	00 00                	add    %al,(%eax)
 e0826c9:	00 00                	add    %al,(%eax)
 e0826cb:	00 00                	add    %al,(%eax)
 e0826cd:	00 00                	add    %al,(%eax)
 e0826cf:	00 00                	add    %al,(%eax)
 e0826d1:	00 00                	add    %al,(%eax)
 e0826d3:	00 00                	add    %al,(%eax)
 e0826d5:	00 00                	add    %al,(%eax)
 e0826d7:	00 00                	add    %al,(%eax)
 e0826d9:	00 00                	add    %al,(%eax)
 e0826db:	00 00                	add    %al,(%eax)
 e0826dd:	00 00                	add    %al,(%eax)
 e0826df:	00 00                	add    %al,(%eax)
 e0826e1:	00 00                	add    %al,(%eax)
 e0826e3:	00 00                	add    %al,(%eax)
 e0826e5:	00 00                	add    %al,(%eax)
 e0826e7:	00 00                	add    %al,(%eax)
 e0826e9:	00 00                	add    %al,(%eax)
 e0826eb:	00 00                	add    %al,(%eax)
 e0826ed:	00 00                	add    %al,(%eax)
 e0826ef:	00 00                	add    %al,(%eax)
 e0826f1:	00 00                	add    %al,(%eax)
 e0826f3:	00 00                	add    %al,(%eax)
 e0826f5:	00 00                	add    %al,(%eax)
 e0826f7:	00 00                	add    %al,(%eax)
 e0826f9:	00 00                	add    %al,(%eax)
 e0826fb:	00 00                	add    %al,(%eax)
 e0826fd:	00 00                	add    %al,(%eax)
 e0826ff:	00 00                	add    %al,(%eax)
 e082701:	00 00                	add    %al,(%eax)
 e082703:	00 00                	add    %al,(%eax)
 e082705:	00 00                	add    %al,(%eax)
 e082707:	00 00                	add    %al,(%eax)
 e082709:	00 00                	add    %al,(%eax)
 e08270b:	00 00                	add    %al,(%eax)
 e08270d:	00 00                	add    %al,(%eax)
 e08270f:	00 00                	add    %al,(%eax)
 e082711:	00 00                	add    %al,(%eax)
 e082713:	00 00                	add    %al,(%eax)
 e082715:	00 00                	add    %al,(%eax)
 e082717:	00 00                	add    %al,(%eax)
 e082719:	00 00                	add    %al,(%eax)
 e08271b:	00 00                	add    %al,(%eax)
 e08271d:	00 00                	add    %al,(%eax)
 e08271f:	00 00                	add    %al,(%eax)
 e082721:	00 00                	add    %al,(%eax)
 e082723:	00 00                	add    %al,(%eax)
 e082725:	00 00                	add    %al,(%eax)
 e082727:	00 00                	add    %al,(%eax)
 e082729:	00 00                	add    %al,(%eax)
 e08272b:	00 00                	add    %al,(%eax)
 e08272d:	00 00                	add    %al,(%eax)
 e08272f:	00 00                	add    %al,(%eax)
 e082731:	00 00                	add    %al,(%eax)
 e082733:	00 00                	add    %al,(%eax)
 e082735:	00 00                	add    %al,(%eax)
 e082737:	00 00                	add    %al,(%eax)
 e082739:	00 00                	add    %al,(%eax)
 e08273b:	00 00                	add    %al,(%eax)
 e08273d:	00 00                	add    %al,(%eax)
 e08273f:	00 00                	add    %al,(%eax)
 e082741:	00 00                	add    %al,(%eax)
 e082743:	00 00                	add    %al,(%eax)
 e082745:	00 00                	add    %al,(%eax)
 e082747:	00 00                	add    %al,(%eax)
 e082749:	00 00                	add    %al,(%eax)
 e08274b:	00 00                	add    %al,(%eax)
 e08274d:	00 00                	add    %al,(%eax)
 e08274f:	00 00                	add    %al,(%eax)
 e082751:	00 00                	add    %al,(%eax)
 e082753:	00 00                	add    %al,(%eax)
 e082755:	00 00                	add    %al,(%eax)
 e082757:	00 00                	add    %al,(%eax)
 e082759:	00 00                	add    %al,(%eax)
 e08275b:	00 00                	add    %al,(%eax)
 e08275d:	00 00                	add    %al,(%eax)
 e08275f:	00 00                	add    %al,(%eax)
 e082761:	00 00                	add    %al,(%eax)
 e082763:	00 00                	add    %al,(%eax)
 e082765:	00 00                	add    %al,(%eax)
 e082767:	00 00                	add    %al,(%eax)
 e082769:	00 00                	add    %al,(%eax)
 e08276b:	00 00                	add    %al,(%eax)
 e08276d:	00 00                	add    %al,(%eax)
 e08276f:	00 00                	add    %al,(%eax)
 e082771:	00 00                	add    %al,(%eax)
 e082773:	00 00                	add    %al,(%eax)
 e082775:	00 00                	add    %al,(%eax)
 e082777:	00 00                	add    %al,(%eax)
 e082779:	00 00                	add    %al,(%eax)
 e08277b:	00 00                	add    %al,(%eax)
 e08277d:	00 00                	add    %al,(%eax)
 e08277f:	00 00                	add    %al,(%eax)
 e082781:	00 00                	add    %al,(%eax)
 e082783:	00 00                	add    %al,(%eax)
 e082785:	00 00                	add    %al,(%eax)
 e082787:	00 00                	add    %al,(%eax)
 e082789:	00 00                	add    %al,(%eax)
 e08278b:	00 00                	add    %al,(%eax)
 e08278d:	00 00                	add    %al,(%eax)
 e08278f:	00 00                	add    %al,(%eax)
 e082791:	00 00                	add    %al,(%eax)
 e082793:	00 00                	add    %al,(%eax)
 e082795:	00 00                	add    %al,(%eax)
 e082797:	00 00                	add    %al,(%eax)
 e082799:	00 00                	add    %al,(%eax)
 e08279b:	00 00                	add    %al,(%eax)
 e08279d:	00 00                	add    %al,(%eax)
 e08279f:	00 00                	add    %al,(%eax)
 e0827a1:	00 00                	add    %al,(%eax)
 e0827a3:	00 00                	add    %al,(%eax)
 e0827a5:	00 00                	add    %al,(%eax)
 e0827a7:	00 00                	add    %al,(%eax)
 e0827a9:	00 00                	add    %al,(%eax)
 e0827ab:	00 00                	add    %al,(%eax)
 e0827ad:	00 00                	add    %al,(%eax)
 e0827af:	00 00                	add    %al,(%eax)
 e0827b1:	00 00                	add    %al,(%eax)
 e0827b3:	00 00                	add    %al,(%eax)
 e0827b5:	00 00                	add    %al,(%eax)
 e0827b7:	00 00                	add    %al,(%eax)
 e0827b9:	00 00                	add    %al,(%eax)
 e0827bb:	00 00                	add    %al,(%eax)
 e0827bd:	00 00                	add    %al,(%eax)
 e0827bf:	00 00                	add    %al,(%eax)
 e0827c1:	00 00                	add    %al,(%eax)
 e0827c3:	00 00                	add    %al,(%eax)
 e0827c5:	00 00                	add    %al,(%eax)
 e0827c7:	00 00                	add    %al,(%eax)
 e0827c9:	00 00                	add    %al,(%eax)
 e0827cb:	00 00                	add    %al,(%eax)
 e0827cd:	00 00                	add    %al,(%eax)
 e0827cf:	00 00                	add    %al,(%eax)
 e0827d1:	00 00                	add    %al,(%eax)
 e0827d3:	00 00                	add    %al,(%eax)
 e0827d5:	00 00                	add    %al,(%eax)
 e0827d7:	00 00                	add    %al,(%eax)
 e0827d9:	00 00                	add    %al,(%eax)
 e0827db:	00 00                	add    %al,(%eax)
 e0827dd:	00 00                	add    %al,(%eax)
 e0827df:	00 00                	add    %al,(%eax)
 e0827e1:	00 00                	add    %al,(%eax)
 e0827e3:	00 00                	add    %al,(%eax)
 e0827e5:	00 00                	add    %al,(%eax)
 e0827e7:	00 00                	add    %al,(%eax)
 e0827e9:	00 00                	add    %al,(%eax)
 e0827eb:	00 00                	add    %al,(%eax)
 e0827ed:	00 00                	add    %al,(%eax)
 e0827ef:	00 00                	add    %al,(%eax)
 e0827f1:	00 00                	add    %al,(%eax)
 e0827f3:	00 00                	add    %al,(%eax)
 e0827f5:	00 00                	add    %al,(%eax)
 e0827f7:	00 00                	add    %al,(%eax)
 e0827f9:	00 00                	add    %al,(%eax)
 e0827fb:	00 00                	add    %al,(%eax)
 e0827fd:	00 00                	add    %al,(%eax)
 e0827ff:	00 00                	add    %al,(%eax)
 e082801:	00 00                	add    %al,(%eax)
 e082803:	00 00                	add    %al,(%eax)
 e082805:	00 00                	add    %al,(%eax)
 e082807:	00 00                	add    %al,(%eax)
 e082809:	00 00                	add    %al,(%eax)
 e08280b:	00 00                	add    %al,(%eax)
 e08280d:	00 00                	add    %al,(%eax)
 e08280f:	00 00                	add    %al,(%eax)
 e082811:	00 00                	add    %al,(%eax)
 e082813:	00 00                	add    %al,(%eax)
 e082815:	00 00                	add    %al,(%eax)
 e082817:	00 00                	add    %al,(%eax)
 e082819:	00 00                	add    %al,(%eax)
 e08281b:	00 00                	add    %al,(%eax)
 e08281d:	00 00                	add    %al,(%eax)
 e08281f:	00 00                	add    %al,(%eax)
 e082821:	00 00                	add    %al,(%eax)
 e082823:	00 00                	add    %al,(%eax)
 e082825:	00 00                	add    %al,(%eax)
 e082827:	00 00                	add    %al,(%eax)
 e082829:	00 00                	add    %al,(%eax)
 e08282b:	00 00                	add    %al,(%eax)
 e08282d:	00 00                	add    %al,(%eax)
 e08282f:	00 00                	add    %al,(%eax)
 e082831:	00 00                	add    %al,(%eax)
 e082833:	00 00                	add    %al,(%eax)
 e082835:	00 00                	add    %al,(%eax)
 e082837:	00 00                	add    %al,(%eax)
 e082839:	00 00                	add    %al,(%eax)
 e08283b:	00 00                	add    %al,(%eax)
 e08283d:	00 00                	add    %al,(%eax)
 e08283f:	00 00                	add    %al,(%eax)
 e082841:	00 00                	add    %al,(%eax)
 e082843:	00 00                	add    %al,(%eax)
 e082845:	00 00                	add    %al,(%eax)
 e082847:	00 00                	add    %al,(%eax)
 e082849:	00 00                	add    %al,(%eax)
 e08284b:	00 00                	add    %al,(%eax)
 e08284d:	00 00                	add    %al,(%eax)
 e08284f:	00 00                	add    %al,(%eax)
 e082851:	00 00                	add    %al,(%eax)
 e082853:	00 00                	add    %al,(%eax)
 e082855:	00 00                	add    %al,(%eax)
 e082857:	00 00                	add    %al,(%eax)
 e082859:	00 00                	add    %al,(%eax)
 e08285b:	00 00                	add    %al,(%eax)
 e08285d:	00 00                	add    %al,(%eax)
 e08285f:	00 00                	add    %al,(%eax)
 e082861:	00 00                	add    %al,(%eax)
 e082863:	00 00                	add    %al,(%eax)
 e082865:	00 00                	add    %al,(%eax)
 e082867:	00 00                	add    %al,(%eax)
 e082869:	00 00                	add    %al,(%eax)
 e08286b:	00 00                	add    %al,(%eax)
 e08286d:	00 00                	add    %al,(%eax)
 e08286f:	00 00                	add    %al,(%eax)
 e082871:	00 00                	add    %al,(%eax)
 e082873:	00 00                	add    %al,(%eax)
 e082875:	00 00                	add    %al,(%eax)
 e082877:	00 00                	add    %al,(%eax)
 e082879:	00 00                	add    %al,(%eax)
 e08287b:	00 00                	add    %al,(%eax)
 e08287d:	00 00                	add    %al,(%eax)
 e08287f:	00 00                	add    %al,(%eax)
 e082881:	00 00                	add    %al,(%eax)
 e082883:	00 00                	add    %al,(%eax)
 e082885:	00 00                	add    %al,(%eax)
 e082887:	00 00                	add    %al,(%eax)
 e082889:	00 00                	add    %al,(%eax)
 e08288b:	00 00                	add    %al,(%eax)
 e08288d:	00 00                	add    %al,(%eax)
 e08288f:	00 00                	add    %al,(%eax)
 e082891:	00 00                	add    %al,(%eax)
 e082893:	00 00                	add    %al,(%eax)
 e082895:	00 00                	add    %al,(%eax)
 e082897:	00 00                	add    %al,(%eax)
 e082899:	00 00                	add    %al,(%eax)
 e08289b:	00 00                	add    %al,(%eax)
 e08289d:	00 00                	add    %al,(%eax)
 e08289f:	00 00                	add    %al,(%eax)
 e0828a1:	00 00                	add    %al,(%eax)
 e0828a3:	00 00                	add    %al,(%eax)
 e0828a5:	00 00                	add    %al,(%eax)
 e0828a7:	00 00                	add    %al,(%eax)
 e0828a9:	00 00                	add    %al,(%eax)
 e0828ab:	00 00                	add    %al,(%eax)
 e0828ad:	00 00                	add    %al,(%eax)
 e0828af:	00 00                	add    %al,(%eax)
 e0828b1:	00 00                	add    %al,(%eax)
 e0828b3:	00 00                	add    %al,(%eax)
 e0828b5:	00 00                	add    %al,(%eax)
 e0828b7:	00 00                	add    %al,(%eax)
 e0828b9:	00 00                	add    %al,(%eax)
 e0828bb:	00 00                	add    %al,(%eax)
 e0828bd:	00 00                	add    %al,(%eax)
 e0828bf:	00 00                	add    %al,(%eax)
 e0828c1:	00 00                	add    %al,(%eax)
 e0828c3:	00 00                	add    %al,(%eax)
 e0828c5:	00 00                	add    %al,(%eax)
 e0828c7:	00 00                	add    %al,(%eax)
 e0828c9:	00 00                	add    %al,(%eax)
 e0828cb:	00 00                	add    %al,(%eax)
 e0828cd:	00 00                	add    %al,(%eax)
 e0828cf:	00 00                	add    %al,(%eax)
 e0828d1:	00 00                	add    %al,(%eax)
 e0828d3:	00 00                	add    %al,(%eax)
 e0828d5:	00 00                	add    %al,(%eax)
 e0828d7:	00 00                	add    %al,(%eax)
 e0828d9:	00 00                	add    %al,(%eax)
 e0828db:	00 00                	add    %al,(%eax)
 e0828dd:	00 00                	add    %al,(%eax)
 e0828df:	00 00                	add    %al,(%eax)
 e0828e1:	00 00                	add    %al,(%eax)
 e0828e3:	00 00                	add    %al,(%eax)
 e0828e5:	00 00                	add    %al,(%eax)
 e0828e7:	00 00                	add    %al,(%eax)
 e0828e9:	00 00                	add    %al,(%eax)
 e0828eb:	00 00                	add    %al,(%eax)
 e0828ed:	00 00                	add    %al,(%eax)
 e0828ef:	00 00                	add    %al,(%eax)
 e0828f1:	00 00                	add    %al,(%eax)
 e0828f3:	00 00                	add    %al,(%eax)
 e0828f5:	00 00                	add    %al,(%eax)
 e0828f7:	00 00                	add    %al,(%eax)
 e0828f9:	00 00                	add    %al,(%eax)
 e0828fb:	00 00                	add    %al,(%eax)
 e0828fd:	00 00                	add    %al,(%eax)
 e0828ff:	00 00                	add    %al,(%eax)
 e082901:	00 00                	add    %al,(%eax)
 e082903:	00 00                	add    %al,(%eax)
 e082905:	00 00                	add    %al,(%eax)
 e082907:	00 00                	add    %al,(%eax)
 e082909:	00 00                	add    %al,(%eax)
 e08290b:	00 00                	add    %al,(%eax)
 e08290d:	00 00                	add    %al,(%eax)
 e08290f:	00 00                	add    %al,(%eax)
 e082911:	00 00                	add    %al,(%eax)
 e082913:	00 00                	add    %al,(%eax)
 e082915:	00 00                	add    %al,(%eax)
 e082917:	00 00                	add    %al,(%eax)
 e082919:	00 00                	add    %al,(%eax)
 e08291b:	00 00                	add    %al,(%eax)
 e08291d:	00 00                	add    %al,(%eax)
 e08291f:	00 00                	add    %al,(%eax)
 e082921:	00 00                	add    %al,(%eax)
 e082923:	00 00                	add    %al,(%eax)
 e082925:	00 00                	add    %al,(%eax)
 e082927:	00 00                	add    %al,(%eax)
 e082929:	00 00                	add    %al,(%eax)
 e08292b:	00 00                	add    %al,(%eax)
 e08292d:	00 00                	add    %al,(%eax)
 e08292f:	00 00                	add    %al,(%eax)
 e082931:	00 00                	add    %al,(%eax)
 e082933:	00 00                	add    %al,(%eax)
 e082935:	00 00                	add    %al,(%eax)
 e082937:	00 00                	add    %al,(%eax)
 e082939:	00 00                	add    %al,(%eax)
 e08293b:	00 00                	add    %al,(%eax)
 e08293d:	00 00                	add    %al,(%eax)
 e08293f:	00 00                	add    %al,(%eax)
 e082941:	00 00                	add    %al,(%eax)
 e082943:	00 00                	add    %al,(%eax)
 e082945:	00 00                	add    %al,(%eax)
 e082947:	00 00                	add    %al,(%eax)
 e082949:	00 00                	add    %al,(%eax)
 e08294b:	00 00                	add    %al,(%eax)
 e08294d:	00 00                	add    %al,(%eax)
 e08294f:	00 00                	add    %al,(%eax)
 e082951:	00 00                	add    %al,(%eax)
 e082953:	00 00                	add    %al,(%eax)
 e082955:	00 00                	add    %al,(%eax)
 e082957:	00 00                	add    %al,(%eax)
 e082959:	00 00                	add    %al,(%eax)
 e08295b:	00 00                	add    %al,(%eax)
 e08295d:	00 00                	add    %al,(%eax)
 e08295f:	00 00                	add    %al,(%eax)
 e082961:	00 00                	add    %al,(%eax)
 e082963:	00 00                	add    %al,(%eax)
 e082965:	00 00                	add    %al,(%eax)
 e082967:	00 00                	add    %al,(%eax)
 e082969:	00 00                	add    %al,(%eax)
 e08296b:	00 00                	add    %al,(%eax)
 e08296d:	00 00                	add    %al,(%eax)
 e08296f:	00 00                	add    %al,(%eax)
 e082971:	00 00                	add    %al,(%eax)
 e082973:	00 00                	add    %al,(%eax)
 e082975:	00 00                	add    %al,(%eax)
 e082977:	00 00                	add    %al,(%eax)
 e082979:	00 00                	add    %al,(%eax)
 e08297b:	00 00                	add    %al,(%eax)
 e08297d:	00 00                	add    %al,(%eax)
 e08297f:	00 00                	add    %al,(%eax)
 e082981:	00 00                	add    %al,(%eax)
 e082983:	00 00                	add    %al,(%eax)
 e082985:	00 00                	add    %al,(%eax)
 e082987:	00 00                	add    %al,(%eax)
 e082989:	00 00                	add    %al,(%eax)
 e08298b:	00 00                	add    %al,(%eax)
 e08298d:	00 00                	add    %al,(%eax)
 e08298f:	00 00                	add    %al,(%eax)
 e082991:	00 00                	add    %al,(%eax)
 e082993:	00 00                	add    %al,(%eax)
 e082995:	00 00                	add    %al,(%eax)
 e082997:	00 00                	add    %al,(%eax)
 e082999:	00 00                	add    %al,(%eax)
 e08299b:	00 00                	add    %al,(%eax)
 e08299d:	00 00                	add    %al,(%eax)
 e08299f:	00 00                	add    %al,(%eax)
 e0829a1:	00 00                	add    %al,(%eax)
 e0829a3:	00 00                	add    %al,(%eax)
 e0829a5:	00 00                	add    %al,(%eax)
 e0829a7:	00 00                	add    %al,(%eax)
 e0829a9:	00 00                	add    %al,(%eax)
 e0829ab:	00 00                	add    %al,(%eax)
 e0829ad:	00 00                	add    %al,(%eax)
 e0829af:	00 00                	add    %al,(%eax)
 e0829b1:	00 00                	add    %al,(%eax)
 e0829b3:	00 00                	add    %al,(%eax)
 e0829b5:	00 00                	add    %al,(%eax)
 e0829b7:	00 00                	add    %al,(%eax)
 e0829b9:	00 00                	add    %al,(%eax)
 e0829bb:	00 00                	add    %al,(%eax)
 e0829bd:	00 00                	add    %al,(%eax)
 e0829bf:	00 00                	add    %al,(%eax)
 e0829c1:	00 00                	add    %al,(%eax)
 e0829c3:	00 00                	add    %al,(%eax)
 e0829c5:	00 00                	add    %al,(%eax)
 e0829c7:	00 00                	add    %al,(%eax)
 e0829c9:	00 00                	add    %al,(%eax)
 e0829cb:	00 00                	add    %al,(%eax)
 e0829cd:	00 00                	add    %al,(%eax)
 e0829cf:	00 00                	add    %al,(%eax)
 e0829d1:	00 00                	add    %al,(%eax)
 e0829d3:	00 00                	add    %al,(%eax)
 e0829d5:	00 00                	add    %al,(%eax)
 e0829d7:	00 00                	add    %al,(%eax)
 e0829d9:	00 00                	add    %al,(%eax)
 e0829db:	00 00                	add    %al,(%eax)
 e0829dd:	00 00                	add    %al,(%eax)
 e0829df:	00 00                	add    %al,(%eax)
 e0829e1:	00 00                	add    %al,(%eax)
 e0829e3:	00 00                	add    %al,(%eax)
 e0829e5:	00 00                	add    %al,(%eax)
 e0829e7:	00 00                	add    %al,(%eax)
 e0829e9:	00 00                	add    %al,(%eax)
 e0829eb:	00 00                	add    %al,(%eax)
 e0829ed:	00 00                	add    %al,(%eax)
 e0829ef:	00 00                	add    %al,(%eax)
 e0829f1:	00 00                	add    %al,(%eax)
 e0829f3:	00 00                	add    %al,(%eax)
 e0829f5:	00 00                	add    %al,(%eax)
 e0829f7:	00 00                	add    %al,(%eax)
 e0829f9:	00 00                	add    %al,(%eax)
 e0829fb:	00 00                	add    %al,(%eax)
 e0829fd:	00 00                	add    %al,(%eax)
 e0829ff:	00 00                	add    %al,(%eax)
 e082a01:	00 00                	add    %al,(%eax)
 e082a03:	00 00                	add    %al,(%eax)
 e082a05:	00 00                	add    %al,(%eax)
 e082a07:	00 00                	add    %al,(%eax)
 e082a09:	00 00                	add    %al,(%eax)
 e082a0b:	00 00                	add    %al,(%eax)
 e082a0d:	00 00                	add    %al,(%eax)
 e082a0f:	00 00                	add    %al,(%eax)
 e082a11:	00 00                	add    %al,(%eax)
 e082a13:	00 00                	add    %al,(%eax)
 e082a15:	00 00                	add    %al,(%eax)
 e082a17:	00 00                	add    %al,(%eax)
 e082a19:	00 00                	add    %al,(%eax)
 e082a1b:	00 00                	add    %al,(%eax)
 e082a1d:	00 00                	add    %al,(%eax)
 e082a1f:	00 00                	add    %al,(%eax)
 e082a21:	00 00                	add    %al,(%eax)
 e082a23:	00 00                	add    %al,(%eax)
 e082a25:	00 00                	add    %al,(%eax)
 e082a27:	00 00                	add    %al,(%eax)
 e082a29:	00 00                	add    %al,(%eax)
 e082a2b:	00 00                	add    %al,(%eax)
 e082a2d:	00 00                	add    %al,(%eax)
 e082a2f:	00 00                	add    %al,(%eax)
 e082a31:	00 00                	add    %al,(%eax)
 e082a33:	00 00                	add    %al,(%eax)
 e082a35:	00 00                	add    %al,(%eax)
 e082a37:	00 00                	add    %al,(%eax)
 e082a39:	00 00                	add    %al,(%eax)
 e082a3b:	00 00                	add    %al,(%eax)
 e082a3d:	00 00                	add    %al,(%eax)
 e082a3f:	00 00                	add    %al,(%eax)
 e082a41:	00 00                	add    %al,(%eax)
 e082a43:	00 00                	add    %al,(%eax)
 e082a45:	00 00                	add    %al,(%eax)
 e082a47:	00 00                	add    %al,(%eax)
 e082a49:	00 00                	add    %al,(%eax)
 e082a4b:	00 00                	add    %al,(%eax)
 e082a4d:	00 00                	add    %al,(%eax)
 e082a4f:	00 00                	add    %al,(%eax)
 e082a51:	00 00                	add    %al,(%eax)
 e082a53:	00 00                	add    %al,(%eax)
 e082a55:	00 00                	add    %al,(%eax)
 e082a57:	00 00                	add    %al,(%eax)
 e082a59:	00 00                	add    %al,(%eax)
 e082a5b:	00 00                	add    %al,(%eax)
 e082a5d:	00 00                	add    %al,(%eax)
 e082a5f:	00 00                	add    %al,(%eax)
 e082a61:	00 00                	add    %al,(%eax)
 e082a63:	00 00                	add    %al,(%eax)
 e082a65:	00 00                	add    %al,(%eax)
 e082a67:	00 00                	add    %al,(%eax)
 e082a69:	00 00                	add    %al,(%eax)
 e082a6b:	00 00                	add    %al,(%eax)
 e082a6d:	00 00                	add    %al,(%eax)
 e082a6f:	00 00                	add    %al,(%eax)
 e082a71:	00 00                	add    %al,(%eax)
 e082a73:	00 00                	add    %al,(%eax)
 e082a75:	00 00                	add    %al,(%eax)
 e082a77:	00 00                	add    %al,(%eax)
 e082a79:	00 00                	add    %al,(%eax)
 e082a7b:	00 00                	add    %al,(%eax)
 e082a7d:	00 00                	add    %al,(%eax)
 e082a7f:	00 00                	add    %al,(%eax)
 e082a81:	00 00                	add    %al,(%eax)
 e082a83:	00 00                	add    %al,(%eax)
 e082a85:	00 00                	add    %al,(%eax)
 e082a87:	00 00                	add    %al,(%eax)
 e082a89:	00 00                	add    %al,(%eax)
 e082a8b:	00 00                	add    %al,(%eax)
 e082a8d:	00 00                	add    %al,(%eax)
 e082a8f:	00 00                	add    %al,(%eax)
 e082a91:	00 00                	add    %al,(%eax)
 e082a93:	00 00                	add    %al,(%eax)
 e082a95:	00 00                	add    %al,(%eax)
 e082a97:	00 00                	add    %al,(%eax)
 e082a99:	00 00                	add    %al,(%eax)
 e082a9b:	00 00                	add    %al,(%eax)
 e082a9d:	00 00                	add    %al,(%eax)
 e082a9f:	00 00                	add    %al,(%eax)
 e082aa1:	00 00                	add    %al,(%eax)
 e082aa3:	00 00                	add    %al,(%eax)
 e082aa5:	00 00                	add    %al,(%eax)
 e082aa7:	00 00                	add    %al,(%eax)
 e082aa9:	00 00                	add    %al,(%eax)
 e082aab:	00 00                	add    %al,(%eax)
 e082aad:	00 00                	add    %al,(%eax)
 e082aaf:	00 00                	add    %al,(%eax)
 e082ab1:	00 00                	add    %al,(%eax)
 e082ab3:	00 00                	add    %al,(%eax)
 e082ab5:	00 00                	add    %al,(%eax)
 e082ab7:	00 00                	add    %al,(%eax)
 e082ab9:	00 00                	add    %al,(%eax)
 e082abb:	00 00                	add    %al,(%eax)
 e082abd:	00 00                	add    %al,(%eax)
 e082abf:	00 00                	add    %al,(%eax)
 e082ac1:	00 00                	add    %al,(%eax)
 e082ac3:	00 00                	add    %al,(%eax)
 e082ac5:	00 00                	add    %al,(%eax)
 e082ac7:	00 00                	add    %al,(%eax)
 e082ac9:	00 00                	add    %al,(%eax)
 e082acb:	00 00                	add    %al,(%eax)
 e082acd:	00 00                	add    %al,(%eax)
 e082acf:	00 00                	add    %al,(%eax)
 e082ad1:	00 00                	add    %al,(%eax)
 e082ad3:	00 00                	add    %al,(%eax)
 e082ad5:	00 00                	add    %al,(%eax)
 e082ad7:	00 00                	add    %al,(%eax)
 e082ad9:	00 00                	add    %al,(%eax)
 e082adb:	00 00                	add    %al,(%eax)
 e082add:	00 00                	add    %al,(%eax)
 e082adf:	00 00                	add    %al,(%eax)
 e082ae1:	00 00                	add    %al,(%eax)
 e082ae3:	00 00                	add    %al,(%eax)
 e082ae5:	00 00                	add    %al,(%eax)
 e082ae7:	00 00                	add    %al,(%eax)
 e082ae9:	00 00                	add    %al,(%eax)
 e082aeb:	00 00                	add    %al,(%eax)
 e082aed:	00 00                	add    %al,(%eax)
 e082aef:	00 00                	add    %al,(%eax)
 e082af1:	00 00                	add    %al,(%eax)
 e082af3:	00 00                	add    %al,(%eax)
 e082af5:	00 00                	add    %al,(%eax)
 e082af7:	00 00                	add    %al,(%eax)
 e082af9:	00 00                	add    %al,(%eax)
 e082afb:	00 00                	add    %al,(%eax)
 e082afd:	00 00                	add    %al,(%eax)
 e082aff:	00 00                	add    %al,(%eax)
 e082b01:	00 00                	add    %al,(%eax)
 e082b03:	00 00                	add    %al,(%eax)
 e082b05:	00 00                	add    %al,(%eax)
 e082b07:	00 00                	add    %al,(%eax)
 e082b09:	00 00                	add    %al,(%eax)
 e082b0b:	00 00                	add    %al,(%eax)
 e082b0d:	00 00                	add    %al,(%eax)
 e082b0f:	00 00                	add    %al,(%eax)
 e082b11:	00 00                	add    %al,(%eax)
 e082b13:	00 00                	add    %al,(%eax)
 e082b15:	00 00                	add    %al,(%eax)
 e082b17:	00 00                	add    %al,(%eax)
 e082b19:	00 00                	add    %al,(%eax)
 e082b1b:	00 00                	add    %al,(%eax)
 e082b1d:	00 00                	add    %al,(%eax)
 e082b1f:	00 00                	add    %al,(%eax)
 e082b21:	00 00                	add    %al,(%eax)
 e082b23:	00 00                	add    %al,(%eax)
 e082b25:	00 00                	add    %al,(%eax)
 e082b27:	00 00                	add    %al,(%eax)
 e082b29:	00 00                	add    %al,(%eax)
 e082b2b:	00 00                	add    %al,(%eax)
 e082b2d:	00 00                	add    %al,(%eax)
 e082b2f:	00 00                	add    %al,(%eax)
 e082b31:	00 00                	add    %al,(%eax)
 e082b33:	00 00                	add    %al,(%eax)
 e082b35:	00 00                	add    %al,(%eax)
 e082b37:	00 00                	add    %al,(%eax)
 e082b39:	00 00                	add    %al,(%eax)
 e082b3b:	00 00                	add    %al,(%eax)
 e082b3d:	00 00                	add    %al,(%eax)
 e082b3f:	00 00                	add    %al,(%eax)
 e082b41:	00 00                	add    %al,(%eax)
 e082b43:	00 00                	add    %al,(%eax)
 e082b45:	00 00                	add    %al,(%eax)
 e082b47:	00 00                	add    %al,(%eax)
 e082b49:	00 00                	add    %al,(%eax)
 e082b4b:	00 00                	add    %al,(%eax)
 e082b4d:	00 00                	add    %al,(%eax)
 e082b4f:	00 00                	add    %al,(%eax)
 e082b51:	00 00                	add    %al,(%eax)
 e082b53:	00 00                	add    %al,(%eax)
 e082b55:	00 00                	add    %al,(%eax)
 e082b57:	00 00                	add    %al,(%eax)
 e082b59:	00 00                	add    %al,(%eax)
 e082b5b:	00 00                	add    %al,(%eax)
 e082b5d:	00 00                	add    %al,(%eax)
 e082b5f:	00 00                	add    %al,(%eax)
 e082b61:	00 00                	add    %al,(%eax)
 e082b63:	00 00                	add    %al,(%eax)
 e082b65:	00 00                	add    %al,(%eax)
 e082b67:	00 00                	add    %al,(%eax)
 e082b69:	00 00                	add    %al,(%eax)
 e082b6b:	00 00                	add    %al,(%eax)
 e082b6d:	00 00                	add    %al,(%eax)
 e082b6f:	00 00                	add    %al,(%eax)
 e082b71:	00 00                	add    %al,(%eax)
 e082b73:	00 00                	add    %al,(%eax)
 e082b75:	00 00                	add    %al,(%eax)
 e082b77:	00 00                	add    %al,(%eax)
 e082b79:	00 00                	add    %al,(%eax)
 e082b7b:	00 00                	add    %al,(%eax)
 e082b7d:	00 00                	add    %al,(%eax)
 e082b7f:	00 00                	add    %al,(%eax)
 e082b81:	00 00                	add    %al,(%eax)
 e082b83:	00 00                	add    %al,(%eax)
 e082b85:	00 00                	add    %al,(%eax)
 e082b87:	00 00                	add    %al,(%eax)
 e082b89:	00 00                	add    %al,(%eax)
 e082b8b:	00 00                	add    %al,(%eax)
 e082b8d:	00 00                	add    %al,(%eax)
 e082b8f:	00 00                	add    %al,(%eax)
 e082b91:	00 00                	add    %al,(%eax)
 e082b93:	00 00                	add    %al,(%eax)
 e082b95:	00 00                	add    %al,(%eax)
 e082b97:	00 00                	add    %al,(%eax)
 e082b99:	00 00                	add    %al,(%eax)
 e082b9b:	00 00                	add    %al,(%eax)
 e082b9d:	00 00                	add    %al,(%eax)
 e082b9f:	00 00                	add    %al,(%eax)
 e082ba1:	00 00                	add    %al,(%eax)
 e082ba3:	00 00                	add    %al,(%eax)
 e082ba5:	00 00                	add    %al,(%eax)
 e082ba7:	00 00                	add    %al,(%eax)
 e082ba9:	00 00                	add    %al,(%eax)
 e082bab:	00 00                	add    %al,(%eax)
 e082bad:	00 00                	add    %al,(%eax)
 e082baf:	00 00                	add    %al,(%eax)
 e082bb1:	00 00                	add    %al,(%eax)
 e082bb3:	00 00                	add    %al,(%eax)
 e082bb5:	00 00                	add    %al,(%eax)
 e082bb7:	00 00                	add    %al,(%eax)
 e082bb9:	00 00                	add    %al,(%eax)
 e082bbb:	00 00                	add    %al,(%eax)
 e082bbd:	00 00                	add    %al,(%eax)
 e082bbf:	00 00                	add    %al,(%eax)
 e082bc1:	00 00                	add    %al,(%eax)
 e082bc3:	00 00                	add    %al,(%eax)
 e082bc5:	00 00                	add    %al,(%eax)
 e082bc7:	00 00                	add    %al,(%eax)
 e082bc9:	00 00                	add    %al,(%eax)
 e082bcb:	00 00                	add    %al,(%eax)
 e082bcd:	00 00                	add    %al,(%eax)
 e082bcf:	00 00                	add    %al,(%eax)
 e082bd1:	00 00                	add    %al,(%eax)
 e082bd3:	00 00                	add    %al,(%eax)
 e082bd5:	00 00                	add    %al,(%eax)
 e082bd7:	00 00                	add    %al,(%eax)
 e082bd9:	00 00                	add    %al,(%eax)
 e082bdb:	00 00                	add    %al,(%eax)
 e082bdd:	00 00                	add    %al,(%eax)
 e082bdf:	00 00                	add    %al,(%eax)
 e082be1:	00 00                	add    %al,(%eax)
 e082be3:	00 00                	add    %al,(%eax)
 e082be5:	00 00                	add    %al,(%eax)
 e082be7:	00 00                	add    %al,(%eax)
 e082be9:	00 00                	add    %al,(%eax)
 e082beb:	00 00                	add    %al,(%eax)
 e082bed:	00 00                	add    %al,(%eax)
 e082bef:	00 00                	add    %al,(%eax)
 e082bf1:	00 00                	add    %al,(%eax)
 e082bf3:	00 00                	add    %al,(%eax)
 e082bf5:	00 00                	add    %al,(%eax)
 e082bf7:	00 00                	add    %al,(%eax)
 e082bf9:	00 00                	add    %al,(%eax)
 e082bfb:	00 00                	add    %al,(%eax)
 e082bfd:	00 00                	add    %al,(%eax)
 e082bff:	00 00                	add    %al,(%eax)
 e082c01:	00 00                	add    %al,(%eax)
 e082c03:	00 00                	add    %al,(%eax)
 e082c05:	00 00                	add    %al,(%eax)
 e082c07:	00 00                	add    %al,(%eax)
 e082c09:	00 00                	add    %al,(%eax)
 e082c0b:	00 00                	add    %al,(%eax)
 e082c0d:	00 00                	add    %al,(%eax)
 e082c0f:	00 00                	add    %al,(%eax)
 e082c11:	00 00                	add    %al,(%eax)
 e082c13:	00 00                	add    %al,(%eax)
 e082c15:	00 00                	add    %al,(%eax)
 e082c17:	00 00                	add    %al,(%eax)
 e082c19:	00 00                	add    %al,(%eax)
 e082c1b:	00 00                	add    %al,(%eax)
 e082c1d:	00 00                	add    %al,(%eax)
 e082c1f:	00 00                	add    %al,(%eax)
 e082c21:	00 00                	add    %al,(%eax)
 e082c23:	00 00                	add    %al,(%eax)
 e082c25:	00 00                	add    %al,(%eax)
 e082c27:	00 00                	add    %al,(%eax)
 e082c29:	00 00                	add    %al,(%eax)
 e082c2b:	00 00                	add    %al,(%eax)
 e082c2d:	00 00                	add    %al,(%eax)
 e082c2f:	00 00                	add    %al,(%eax)
 e082c31:	00 00                	add    %al,(%eax)
 e082c33:	00 00                	add    %al,(%eax)
 e082c35:	00 00                	add    %al,(%eax)
 e082c37:	00 00                	add    %al,(%eax)
 e082c39:	00 00                	add    %al,(%eax)
 e082c3b:	00 00                	add    %al,(%eax)
 e082c3d:	00 00                	add    %al,(%eax)
 e082c3f:	00 00                	add    %al,(%eax)
 e082c41:	00 00                	add    %al,(%eax)
 e082c43:	00 00                	add    %al,(%eax)
 e082c45:	00 00                	add    %al,(%eax)
 e082c47:	00 00                	add    %al,(%eax)
 e082c49:	00 00                	add    %al,(%eax)
 e082c4b:	00 00                	add    %al,(%eax)
 e082c4d:	00 00                	add    %al,(%eax)
 e082c4f:	00 00                	add    %al,(%eax)
 e082c51:	00 00                	add    %al,(%eax)
 e082c53:	00 00                	add    %al,(%eax)
 e082c55:	00 00                	add    %al,(%eax)
 e082c57:	00 00                	add    %al,(%eax)
 e082c59:	00 00                	add    %al,(%eax)
 e082c5b:	00 00                	add    %al,(%eax)
 e082c5d:	00 00                	add    %al,(%eax)
 e082c5f:	00 00                	add    %al,(%eax)
 e082c61:	00 00                	add    %al,(%eax)
 e082c63:	00 00                	add    %al,(%eax)
 e082c65:	00 00                	add    %al,(%eax)
 e082c67:	00 00                	add    %al,(%eax)
 e082c69:	00 00                	add    %al,(%eax)
 e082c6b:	00 00                	add    %al,(%eax)
 e082c6d:	00 00                	add    %al,(%eax)
 e082c6f:	00 00                	add    %al,(%eax)
 e082c71:	00 00                	add    %al,(%eax)
 e082c73:	00 00                	add    %al,(%eax)
 e082c75:	00 00                	add    %al,(%eax)
 e082c77:	00 00                	add    %al,(%eax)
 e082c79:	00 00                	add    %al,(%eax)
 e082c7b:	00 00                	add    %al,(%eax)
 e082c7d:	00 00                	add    %al,(%eax)
 e082c7f:	00 00                	add    %al,(%eax)
 e082c81:	00 00                	add    %al,(%eax)
 e082c83:	00 00                	add    %al,(%eax)
 e082c85:	00 00                	add    %al,(%eax)
 e082c87:	00 00                	add    %al,(%eax)
 e082c89:	00 00                	add    %al,(%eax)
 e082c8b:	00 00                	add    %al,(%eax)
 e082c8d:	00 00                	add    %al,(%eax)
 e082c8f:	00 00                	add    %al,(%eax)
 e082c91:	00 00                	add    %al,(%eax)
 e082c93:	00 00                	add    %al,(%eax)
 e082c95:	00 00                	add    %al,(%eax)
 e082c97:	00 00                	add    %al,(%eax)
 e082c99:	00 00                	add    %al,(%eax)
 e082c9b:	00 00                	add    %al,(%eax)
 e082c9d:	00 00                	add    %al,(%eax)
 e082c9f:	00 00                	add    %al,(%eax)
 e082ca1:	00 00                	add    %al,(%eax)
 e082ca3:	00 00                	add    %al,(%eax)
 e082ca5:	00 00                	add    %al,(%eax)
 e082ca7:	00 00                	add    %al,(%eax)
 e082ca9:	00 00                	add    %al,(%eax)
 e082cab:	00 00                	add    %al,(%eax)
 e082cad:	00 00                	add    %al,(%eax)
 e082caf:	00 00                	add    %al,(%eax)
 e082cb1:	00 00                	add    %al,(%eax)
 e082cb3:	00 00                	add    %al,(%eax)
 e082cb5:	00 00                	add    %al,(%eax)
 e082cb7:	00 00                	add    %al,(%eax)
 e082cb9:	00 00                	add    %al,(%eax)
 e082cbb:	00 00                	add    %al,(%eax)
 e082cbd:	00 00                	add    %al,(%eax)
 e082cbf:	00 00                	add    %al,(%eax)
 e082cc1:	00 00                	add    %al,(%eax)
 e082cc3:	00 00                	add    %al,(%eax)
 e082cc5:	00 00                	add    %al,(%eax)
 e082cc7:	00 00                	add    %al,(%eax)
 e082cc9:	00 00                	add    %al,(%eax)
 e082ccb:	00 00                	add    %al,(%eax)
 e082ccd:	00 00                	add    %al,(%eax)
 e082ccf:	00 00                	add    %al,(%eax)
 e082cd1:	00 00                	add    %al,(%eax)
 e082cd3:	00 00                	add    %al,(%eax)
 e082cd5:	00 00                	add    %al,(%eax)
 e082cd7:	00 00                	add    %al,(%eax)
 e082cd9:	00 00                	add    %al,(%eax)
 e082cdb:	00 00                	add    %al,(%eax)
 e082cdd:	00 00                	add    %al,(%eax)
 e082cdf:	00 00                	add    %al,(%eax)
 e082ce1:	00 00                	add    %al,(%eax)
 e082ce3:	00 00                	add    %al,(%eax)
 e082ce5:	00 00                	add    %al,(%eax)
 e082ce7:	00 00                	add    %al,(%eax)
 e082ce9:	00 00                	add    %al,(%eax)
 e082ceb:	00 00                	add    %al,(%eax)
 e082ced:	00 00                	add    %al,(%eax)
 e082cef:	00 00                	add    %al,(%eax)
 e082cf1:	00 00                	add    %al,(%eax)
 e082cf3:	00 00                	add    %al,(%eax)
 e082cf5:	00 00                	add    %al,(%eax)
 e082cf7:	00 00                	add    %al,(%eax)
 e082cf9:	00 00                	add    %al,(%eax)
 e082cfb:	00 00                	add    %al,(%eax)
 e082cfd:	00 00                	add    %al,(%eax)
 e082cff:	00 00                	add    %al,(%eax)
 e082d01:	00 00                	add    %al,(%eax)
 e082d03:	00 00                	add    %al,(%eax)
 e082d05:	00 00                	add    %al,(%eax)
 e082d07:	00 00                	add    %al,(%eax)
 e082d09:	00 00                	add    %al,(%eax)
 e082d0b:	00 00                	add    %al,(%eax)
 e082d0d:	00 00                	add    %al,(%eax)
 e082d0f:	00 00                	add    %al,(%eax)
 e082d11:	00 00                	add    %al,(%eax)
 e082d13:	00 00                	add    %al,(%eax)
 e082d15:	00 00                	add    %al,(%eax)
 e082d17:	00 00                	add    %al,(%eax)
 e082d19:	00 00                	add    %al,(%eax)
 e082d1b:	00 00                	add    %al,(%eax)
 e082d1d:	00 00                	add    %al,(%eax)
 e082d1f:	00 00                	add    %al,(%eax)
 e082d21:	00 00                	add    %al,(%eax)
 e082d23:	00 00                	add    %al,(%eax)
 e082d25:	00 00                	add    %al,(%eax)
 e082d27:	00 00                	add    %al,(%eax)
 e082d29:	00 00                	add    %al,(%eax)
 e082d2b:	00 00                	add    %al,(%eax)
 e082d2d:	00 00                	add    %al,(%eax)
 e082d2f:	00 00                	add    %al,(%eax)
 e082d31:	00 00                	add    %al,(%eax)
 e082d33:	00 00                	add    %al,(%eax)
 e082d35:	00 00                	add    %al,(%eax)
 e082d37:	00 00                	add    %al,(%eax)
 e082d39:	00 00                	add    %al,(%eax)
 e082d3b:	00 00                	add    %al,(%eax)
 e082d3d:	00 00                	add    %al,(%eax)
 e082d3f:	00 00                	add    %al,(%eax)
 e082d41:	00 00                	add    %al,(%eax)
 e082d43:	00 00                	add    %al,(%eax)
 e082d45:	00 00                	add    %al,(%eax)
 e082d47:	00 00                	add    %al,(%eax)
 e082d49:	00 00                	add    %al,(%eax)
 e082d4b:	00 00                	add    %al,(%eax)
 e082d4d:	00 00                	add    %al,(%eax)
 e082d4f:	00 00                	add    %al,(%eax)
 e082d51:	00 00                	add    %al,(%eax)
 e082d53:	00 00                	add    %al,(%eax)
 e082d55:	00 00                	add    %al,(%eax)
 e082d57:	00 00                	add    %al,(%eax)
 e082d59:	00 00                	add    %al,(%eax)
 e082d5b:	00 00                	add    %al,(%eax)
 e082d5d:	00 00                	add    %al,(%eax)
 e082d5f:	00 00                	add    %al,(%eax)
 e082d61:	00 00                	add    %al,(%eax)
 e082d63:	00 00                	add    %al,(%eax)
 e082d65:	00 00                	add    %al,(%eax)
 e082d67:	00 00                	add    %al,(%eax)
 e082d69:	00 00                	add    %al,(%eax)
 e082d6b:	00 00                	add    %al,(%eax)
 e082d6d:	00 00                	add    %al,(%eax)
 e082d6f:	00 00                	add    %al,(%eax)
 e082d71:	00 00                	add    %al,(%eax)
 e082d73:	00 00                	add    %al,(%eax)
 e082d75:	00 00                	add    %al,(%eax)
 e082d77:	00 00                	add    %al,(%eax)
 e082d79:	00 00                	add    %al,(%eax)
 e082d7b:	00 00                	add    %al,(%eax)
 e082d7d:	00 00                	add    %al,(%eax)
 e082d7f:	00 00                	add    %al,(%eax)
 e082d81:	00 00                	add    %al,(%eax)
 e082d83:	00 00                	add    %al,(%eax)
 e082d85:	00 00                	add    %al,(%eax)
 e082d87:	00 00                	add    %al,(%eax)
 e082d89:	00 00                	add    %al,(%eax)
 e082d8b:	00 00                	add    %al,(%eax)
 e082d8d:	00 00                	add    %al,(%eax)
 e082d8f:	00 00                	add    %al,(%eax)
 e082d91:	00 00                	add    %al,(%eax)
 e082d93:	00 00                	add    %al,(%eax)
 e082d95:	00 00                	add    %al,(%eax)
 e082d97:	00 00                	add    %al,(%eax)
 e082d99:	00 00                	add    %al,(%eax)
 e082d9b:	00 00                	add    %al,(%eax)
 e082d9d:	00 00                	add    %al,(%eax)
 e082d9f:	00 00                	add    %al,(%eax)
 e082da1:	00 00                	add    %al,(%eax)
 e082da3:	00 00                	add    %al,(%eax)
 e082da5:	00 00                	add    %al,(%eax)
 e082da7:	00 00                	add    %al,(%eax)
 e082da9:	00 00                	add    %al,(%eax)
 e082dab:	00 00                	add    %al,(%eax)
 e082dad:	00 00                	add    %al,(%eax)
 e082daf:	00 00                	add    %al,(%eax)
 e082db1:	00 00                	add    %al,(%eax)
 e082db3:	00 00                	add    %al,(%eax)
 e082db5:	00 00                	add    %al,(%eax)
 e082db7:	00 00                	add    %al,(%eax)
 e082db9:	00 00                	add    %al,(%eax)
 e082dbb:	00 00                	add    %al,(%eax)
 e082dbd:	00 00                	add    %al,(%eax)
 e082dbf:	00 00                	add    %al,(%eax)
 e082dc1:	00 00                	add    %al,(%eax)
 e082dc3:	00 00                	add    %al,(%eax)
 e082dc5:	00 00                	add    %al,(%eax)
 e082dc7:	00 00                	add    %al,(%eax)
 e082dc9:	00 00                	add    %al,(%eax)
 e082dcb:	00 00                	add    %al,(%eax)
 e082dcd:	00 00                	add    %al,(%eax)
 e082dcf:	00 00                	add    %al,(%eax)
 e082dd1:	00 00                	add    %al,(%eax)
 e082dd3:	00 00                	add    %al,(%eax)
 e082dd5:	00 00                	add    %al,(%eax)
 e082dd7:	00 00                	add    %al,(%eax)
 e082dd9:	00 00                	add    %al,(%eax)
 e082ddb:	00 00                	add    %al,(%eax)
 e082ddd:	00 00                	add    %al,(%eax)
 e082ddf:	00 00                	add    %al,(%eax)
 e082de1:	00 00                	add    %al,(%eax)
 e082de3:	00 00                	add    %al,(%eax)
 e082de5:	00 00                	add    %al,(%eax)
 e082de7:	00 00                	add    %al,(%eax)
 e082de9:	00 00                	add    %al,(%eax)
 e082deb:	00 00                	add    %al,(%eax)
 e082ded:	00 00                	add    %al,(%eax)
 e082def:	00 00                	add    %al,(%eax)
 e082df1:	00 00                	add    %al,(%eax)
 e082df3:	00 00                	add    %al,(%eax)
 e082df5:	00 00                	add    %al,(%eax)
 e082df7:	00 00                	add    %al,(%eax)
 e082df9:	00 00                	add    %al,(%eax)
 e082dfb:	00 00                	add    %al,(%eax)
 e082dfd:	00 00                	add    %al,(%eax)
 e082dff:	00 00                	add    %al,(%eax)
 e082e01:	00 00                	add    %al,(%eax)
 e082e03:	00 00                	add    %al,(%eax)
 e082e05:	00 00                	add    %al,(%eax)
 e082e07:	00 00                	add    %al,(%eax)
 e082e09:	00 00                	add    %al,(%eax)
 e082e0b:	00 00                	add    %al,(%eax)
 e082e0d:	00 00                	add    %al,(%eax)
 e082e0f:	00 00                	add    %al,(%eax)
 e082e11:	00 00                	add    %al,(%eax)
 e082e13:	00 00                	add    %al,(%eax)
 e082e15:	00 00                	add    %al,(%eax)
 e082e17:	00 00                	add    %al,(%eax)
 e082e19:	00 00                	add    %al,(%eax)
 e082e1b:	00 00                	add    %al,(%eax)
 e082e1d:	00 00                	add    %al,(%eax)
 e082e1f:	00 00                	add    %al,(%eax)
 e082e21:	00 00                	add    %al,(%eax)
 e082e23:	00 00                	add    %al,(%eax)
 e082e25:	00 00                	add    %al,(%eax)
 e082e27:	00 00                	add    %al,(%eax)
 e082e29:	00 00                	add    %al,(%eax)
 e082e2b:	00 00                	add    %al,(%eax)
 e082e2d:	00 00                	add    %al,(%eax)
 e082e2f:	00 00                	add    %al,(%eax)
 e082e31:	00 00                	add    %al,(%eax)
 e082e33:	00 00                	add    %al,(%eax)
 e082e35:	00 00                	add    %al,(%eax)
 e082e37:	00 00                	add    %al,(%eax)
 e082e39:	00 00                	add    %al,(%eax)
 e082e3b:	00 00                	add    %al,(%eax)
 e082e3d:	00 00                	add    %al,(%eax)
 e082e3f:	00 00                	add    %al,(%eax)
 e082e41:	00 00                	add    %al,(%eax)
 e082e43:	00 00                	add    %al,(%eax)
 e082e45:	00 00                	add    %al,(%eax)
 e082e47:	00 00                	add    %al,(%eax)
 e082e49:	00 00                	add    %al,(%eax)
 e082e4b:	00 00                	add    %al,(%eax)
 e082e4d:	00 00                	add    %al,(%eax)
 e082e4f:	00 00                	add    %al,(%eax)
 e082e51:	00 00                	add    %al,(%eax)
 e082e53:	00 00                	add    %al,(%eax)
 e082e55:	00 00                	add    %al,(%eax)
 e082e57:	00 00                	add    %al,(%eax)
 e082e59:	00 00                	add    %al,(%eax)
 e082e5b:	00 00                	add    %al,(%eax)
 e082e5d:	00 00                	add    %al,(%eax)
 e082e5f:	00 00                	add    %al,(%eax)
 e082e61:	00 00                	add    %al,(%eax)
 e082e63:	00 00                	add    %al,(%eax)
 e082e65:	00 00                	add    %al,(%eax)
 e082e67:	00 00                	add    %al,(%eax)
 e082e69:	00 00                	add    %al,(%eax)
 e082e6b:	00 00                	add    %al,(%eax)
 e082e6d:	00 00                	add    %al,(%eax)
 e082e6f:	00 00                	add    %al,(%eax)
 e082e71:	00 00                	add    %al,(%eax)
 e082e73:	00 00                	add    %al,(%eax)
 e082e75:	00 00                	add    %al,(%eax)
 e082e77:	00 00                	add    %al,(%eax)
 e082e79:	00 00                	add    %al,(%eax)
 e082e7b:	00 00                	add    %al,(%eax)
 e082e7d:	00 00                	add    %al,(%eax)
 e082e7f:	00 00                	add    %al,(%eax)
 e082e81:	00 00                	add    %al,(%eax)
 e082e83:	00 00                	add    %al,(%eax)
 e082e85:	00 00                	add    %al,(%eax)
 e082e87:	00 00                	add    %al,(%eax)
 e082e89:	00 00                	add    %al,(%eax)
 e082e8b:	00 00                	add    %al,(%eax)
 e082e8d:	00 00                	add    %al,(%eax)
 e082e8f:	00 00                	add    %al,(%eax)
 e082e91:	00 00                	add    %al,(%eax)
 e082e93:	00 00                	add    %al,(%eax)
 e082e95:	00 00                	add    %al,(%eax)
 e082e97:	00 00                	add    %al,(%eax)
 e082e99:	00 00                	add    %al,(%eax)
 e082e9b:	00 00                	add    %al,(%eax)
 e082e9d:	00 00                	add    %al,(%eax)
 e082e9f:	00 00                	add    %al,(%eax)
 e082ea1:	00 00                	add    %al,(%eax)
 e082ea3:	00 00                	add    %al,(%eax)
 e082ea5:	00 00                	add    %al,(%eax)
 e082ea7:	00 00                	add    %al,(%eax)
 e082ea9:	00 00                	add    %al,(%eax)
 e082eab:	00 00                	add    %al,(%eax)
 e082ead:	00 00                	add    %al,(%eax)
 e082eaf:	00 00                	add    %al,(%eax)
 e082eb1:	00 00                	add    %al,(%eax)
 e082eb3:	00 00                	add    %al,(%eax)
 e082eb5:	00 00                	add    %al,(%eax)
 e082eb7:	00 00                	add    %al,(%eax)
 e082eb9:	00 00                	add    %al,(%eax)
 e082ebb:	00 00                	add    %al,(%eax)
 e082ebd:	00 00                	add    %al,(%eax)
 e082ebf:	00 00                	add    %al,(%eax)
 e082ec1:	00 00                	add    %al,(%eax)
 e082ec3:	00 00                	add    %al,(%eax)
 e082ec5:	00 00                	add    %al,(%eax)
 e082ec7:	00 00                	add    %al,(%eax)
 e082ec9:	00 00                	add    %al,(%eax)
 e082ecb:	00 00                	add    %al,(%eax)
 e082ecd:	00 00                	add    %al,(%eax)
 e082ecf:	00 00                	add    %al,(%eax)
 e082ed1:	00 00                	add    %al,(%eax)
 e082ed3:	00 00                	add    %al,(%eax)
 e082ed5:	00 00                	add    %al,(%eax)
 e082ed7:	00 00                	add    %al,(%eax)
 e082ed9:	00 00                	add    %al,(%eax)
 e082edb:	00 00                	add    %al,(%eax)
 e082edd:	00 00                	add    %al,(%eax)
 e082edf:	00 00                	add    %al,(%eax)
 e082ee1:	00 00                	add    %al,(%eax)
 e082ee3:	00 00                	add    %al,(%eax)
 e082ee5:	00 00                	add    %al,(%eax)
 e082ee7:	00 00                	add    %al,(%eax)
 e082ee9:	00 00                	add    %al,(%eax)
 e082eeb:	00 00                	add    %al,(%eax)
 e082eed:	00 00                	add    %al,(%eax)
 e082eef:	00 00                	add    %al,(%eax)
 e082ef1:	00 00                	add    %al,(%eax)
 e082ef3:	00 00                	add    %al,(%eax)
 e082ef5:	00 00                	add    %al,(%eax)
 e082ef7:	00 00                	add    %al,(%eax)
 e082ef9:	00 00                	add    %al,(%eax)
 e082efb:	00 00                	add    %al,(%eax)
 e082efd:	00 00                	add    %al,(%eax)
 e082eff:	00 00                	add    %al,(%eax)
 e082f01:	00 00                	add    %al,(%eax)
 e082f03:	00 00                	add    %al,(%eax)
 e082f05:	00 00                	add    %al,(%eax)
 e082f07:	00 00                	add    %al,(%eax)
 e082f09:	00 00                	add    %al,(%eax)
 e082f0b:	00 00                	add    %al,(%eax)
 e082f0d:	00 00                	add    %al,(%eax)
 e082f0f:	00 00                	add    %al,(%eax)
 e082f11:	00 00                	add    %al,(%eax)
 e082f13:	00 00                	add    %al,(%eax)
 e082f15:	00 00                	add    %al,(%eax)
 e082f17:	00 00                	add    %al,(%eax)
 e082f19:	00 00                	add    %al,(%eax)
 e082f1b:	00 00                	add    %al,(%eax)
 e082f1d:	00 00                	add    %al,(%eax)
 e082f1f:	00 00                	add    %al,(%eax)
 e082f21:	00 00                	add    %al,(%eax)
 e082f23:	00 00                	add    %al,(%eax)
 e082f25:	00 00                	add    %al,(%eax)
 e082f27:	00 00                	add    %al,(%eax)
 e082f29:	00 00                	add    %al,(%eax)
 e082f2b:	00 00                	add    %al,(%eax)
 e082f2d:	00 00                	add    %al,(%eax)
 e082f2f:	00 00                	add    %al,(%eax)
 e082f31:	00 00                	add    %al,(%eax)
 e082f33:	00 00                	add    %al,(%eax)
 e082f35:	00 00                	add    %al,(%eax)
 e082f37:	00 00                	add    %al,(%eax)
 e082f39:	00 00                	add    %al,(%eax)
 e082f3b:	00 00                	add    %al,(%eax)
 e082f3d:	00 00                	add    %al,(%eax)
 e082f3f:	00 00                	add    %al,(%eax)
 e082f41:	00 00                	add    %al,(%eax)
 e082f43:	00 00                	add    %al,(%eax)
 e082f45:	00 00                	add    %al,(%eax)
 e082f47:	00 00                	add    %al,(%eax)
 e082f49:	00 00                	add    %al,(%eax)
 e082f4b:	00 00                	add    %al,(%eax)
 e082f4d:	00 00                	add    %al,(%eax)
 e082f4f:	00 00                	add    %al,(%eax)
 e082f51:	00 00                	add    %al,(%eax)
 e082f53:	00 00                	add    %al,(%eax)
 e082f55:	00 00                	add    %al,(%eax)
 e082f57:	00 00                	add    %al,(%eax)
 e082f59:	00 00                	add    %al,(%eax)
 e082f5b:	00 00                	add    %al,(%eax)
 e082f5d:	00 00                	add    %al,(%eax)
 e082f5f:	00 00                	add    %al,(%eax)
 e082f61:	00 00                	add    %al,(%eax)
 e082f63:	00 00                	add    %al,(%eax)
 e082f65:	00 00                	add    %al,(%eax)
 e082f67:	00 00                	add    %al,(%eax)
 e082f69:	00 00                	add    %al,(%eax)
 e082f6b:	00 00                	add    %al,(%eax)
 e082f6d:	00 00                	add    %al,(%eax)
 e082f6f:	00 00                	add    %al,(%eax)
 e082f71:	00 00                	add    %al,(%eax)
 e082f73:	00 00                	add    %al,(%eax)
 e082f75:	00 00                	add    %al,(%eax)
 e082f77:	00 00                	add    %al,(%eax)
 e082f79:	00 00                	add    %al,(%eax)
 e082f7b:	00 00                	add    %al,(%eax)
 e082f7d:	00 00                	add    %al,(%eax)
 e082f7f:	00 00                	add    %al,(%eax)
 e082f81:	00 00                	add    %al,(%eax)
 e082f83:	00 00                	add    %al,(%eax)
 e082f85:	00 00                	add    %al,(%eax)
 e082f87:	00 00                	add    %al,(%eax)
 e082f89:	00 00                	add    %al,(%eax)
 e082f8b:	00 00                	add    %al,(%eax)
 e082f8d:	00 00                	add    %al,(%eax)
 e082f8f:	00 00                	add    %al,(%eax)
 e082f91:	00 00                	add    %al,(%eax)
 e082f93:	00 00                	add    %al,(%eax)
 e082f95:	00 00                	add    %al,(%eax)
 e082f97:	00 00                	add    %al,(%eax)
 e082f99:	00 00                	add    %al,(%eax)
 e082f9b:	00 00                	add    %al,(%eax)
 e082f9d:	00 00                	add    %al,(%eax)
 e082f9f:	00 00                	add    %al,(%eax)
 e082fa1:	00 00                	add    %al,(%eax)
 e082fa3:	00 00                	add    %al,(%eax)
 e082fa5:	00 00                	add    %al,(%eax)
 e082fa7:	00 00                	add    %al,(%eax)
 e082fa9:	00 00                	add    %al,(%eax)
 e082fab:	00 00                	add    %al,(%eax)
 e082fad:	00 00                	add    %al,(%eax)
 e082faf:	00 00                	add    %al,(%eax)
 e082fb1:	00 00                	add    %al,(%eax)
 e082fb3:	00 00                	add    %al,(%eax)
 e082fb5:	00 00                	add    %al,(%eax)
 e082fb7:	00 00                	add    %al,(%eax)
 e082fb9:	00 00                	add    %al,(%eax)
 e082fbb:	00 00                	add    %al,(%eax)
 e082fbd:	00 00                	add    %al,(%eax)
 e082fbf:	00 00                	add    %al,(%eax)
 e082fc1:	00 00                	add    %al,(%eax)
 e082fc3:	00 00                	add    %al,(%eax)
 e082fc5:	00 00                	add    %al,(%eax)
 e082fc7:	00 00                	add    %al,(%eax)
 e082fc9:	00 00                	add    %al,(%eax)
 e082fcb:	00 00                	add    %al,(%eax)
 e082fcd:	00 00                	add    %al,(%eax)
 e082fcf:	00 00                	add    %al,(%eax)
 e082fd1:	00 00                	add    %al,(%eax)
 e082fd3:	00 00                	add    %al,(%eax)
 e082fd5:	00 00                	add    %al,(%eax)
 e082fd7:	00 00                	add    %al,(%eax)
 e082fd9:	00 00                	add    %al,(%eax)
 e082fdb:	00 00                	add    %al,(%eax)
 e082fdd:	00 00                	add    %al,(%eax)
 e082fdf:	00 00                	add    %al,(%eax)
 e082fe1:	00 00                	add    %al,(%eax)
 e082fe3:	00 00                	add    %al,(%eax)
 e082fe5:	00 00                	add    %al,(%eax)
 e082fe7:	00 00                	add    %al,(%eax)
 e082fe9:	00 00                	add    %al,(%eax)
 e082feb:	00 00                	add    %al,(%eax)
 e082fed:	00 00                	add    %al,(%eax)
 e082fef:	00 00                	add    %al,(%eax)
 e082ff1:	00 00                	add    %al,(%eax)
 e082ff3:	00 00                	add    %al,(%eax)
 e082ff5:	00 00                	add    %al,(%eax)
 e082ff7:	00 00                	add    %al,(%eax)
 e082ff9:	00 00                	add    %al,(%eax)
 e082ffb:	00 00                	add    %al,(%eax)
 e082ffd:	00 00                	add    %al,(%eax)
 e082fff:	00 00                	add    %al,(%eax)

0e083000 <old_GDT>:
 e083000:	00 00                	add    %al,(%eax)
 e083002:	00 00                	add    %al,(%eax)
 e083004:	00 00                	add    %al,(%eax)
 e083006:	00 00                	add    %al,(%eax)
 e083008:	00 40 00             	add    %al,0x0(%eax)
 e08300b:	30 00                	xor    %al,(%eax)
 e08300d:	c2 00 00             	ret    $0x0

0e083010 <GDT>:
 e083010:	00 00                	add    %al,(%eax)
 e083012:	00 00                	add    %al,(%eax)
 e083014:	00 00                	add    %al,(%eax)
 e083016:	00 00                	add    %al,(%eax)
 e083018:	00 00                	add    %al,(%eax)
 e08301a:	00 00                	add    %al,(%eax)
 e08301c:	00 00                	add    %al,(%eax)
 e08301e:	00 00                	add    %al,(%eax)
 e083020:	00 00                	add    %al,(%eax)
 e083022:	00 00                	add    %al,(%eax)
 e083024:	00 00                	add    %al,(%eax)
 e083026:	00 00                	add    %al,(%eax)
 e083028:	00 00                	add    %al,(%eax)
 e08302a:	00 00                	add    %al,(%eax)
 e08302c:	00 00                	add    %al,(%eax)
 e08302e:	00 00                	add    %al,(%eax)
 e083030:	00 00                	add    %al,(%eax)
 e083032:	00 00                	add    %al,(%eax)
 e083034:	00 00                	add    %al,(%eax)
 e083036:	00 00                	add    %al,(%eax)
 e083038:	00 00                	add    %al,(%eax)
 e08303a:	00 00                	add    %al,(%eax)
 e08303c:	00 00                	add    %al,(%eax)
 e08303e:	00 00                	add    %al,(%eax)
 e083040:	00 00                	add    %al,(%eax)
 e083042:	00 00                	add    %al,(%eax)
 e083044:	00 00                	add    %al,(%eax)
 e083046:	00 00                	add    %al,(%eax)
 e083048:	00 00                	add    %al,(%eax)
 e08304a:	00 00                	add    %al,(%eax)
 e08304c:	00 00                	add    %al,(%eax)
 e08304e:	00 00                	add    %al,(%eax)
 e083050:	00 00                	add    %al,(%eax)
 e083052:	00 00                	add    %al,(%eax)
 e083054:	00 00                	add    %al,(%eax)
 e083056:	00 00                	add    %al,(%eax)
 e083058:	00 00                	add    %al,(%eax)
 e08305a:	00 00                	add    %al,(%eax)
 e08305c:	00 00                	add    %al,(%eax)
 e08305e:	00 00                	add    %al,(%eax)
 e083060:	00 00                	add    %al,(%eax)
 e083062:	00 00                	add    %al,(%eax)
 e083064:	00 00                	add    %al,(%eax)
 e083066:	00 00                	add    %al,(%eax)
 e083068:	00 00                	add    %al,(%eax)
 e08306a:	00 00                	add    %al,(%eax)
 e08306c:	00 00                	add    %al,(%eax)
 e08306e:	00 00                	add    %al,(%eax)
 e083070:	00 00                	add    %al,(%eax)
 e083072:	00 00                	add    %al,(%eax)
 e083074:	00 00                	add    %al,(%eax)
 e083076:	00 00                	add    %al,(%eax)
 e083078:	00 00                	add    %al,(%eax)
 e08307a:	00 00                	add    %al,(%eax)
 e08307c:	00 00                	add    %al,(%eax)
 e08307e:	00 00                	add    %al,(%eax)
 e083080:	00 00                	add    %al,(%eax)
 e083082:	00 00                	add    %al,(%eax)
 e083084:	00 00                	add    %al,(%eax)
 e083086:	00 00                	add    %al,(%eax)
 e083088:	00 00                	add    %al,(%eax)
 e08308a:	00 00                	add    %al,(%eax)
 e08308c:	00 00                	add    %al,(%eax)
 e08308e:	00 00                	add    %al,(%eax)
 e083090:	00 00                	add    %al,(%eax)
 e083092:	00 00                	add    %al,(%eax)
 e083094:	00 00                	add    %al,(%eax)
 e083096:	00 00                	add    %al,(%eax)
 e083098:	00 00                	add    %al,(%eax)
 e08309a:	00 00                	add    %al,(%eax)
 e08309c:	00 00                	add    %al,(%eax)
 e08309e:	00 00                	add    %al,(%eax)
 e0830a0:	00 00                	add    %al,(%eax)
 e0830a2:	00 00                	add    %al,(%eax)
 e0830a4:	00 00                	add    %al,(%eax)
 e0830a6:	00 00                	add    %al,(%eax)
 e0830a8:	00 00                	add    %al,(%eax)
 e0830aa:	00 00                	add    %al,(%eax)
 e0830ac:	00 00                	add    %al,(%eax)
 e0830ae:	00 00                	add    %al,(%eax)
 e0830b0:	00 00                	add    %al,(%eax)
 e0830b2:	00 00                	add    %al,(%eax)
 e0830b4:	00 00                	add    %al,(%eax)
 e0830b6:	00 00                	add    %al,(%eax)
 e0830b8:	00 00                	add    %al,(%eax)
 e0830ba:	00 00                	add    %al,(%eax)
 e0830bc:	00 00                	add    %al,(%eax)
 e0830be:	00 00                	add    %al,(%eax)
 e0830c0:	00 00                	add    %al,(%eax)
 e0830c2:	00 00                	add    %al,(%eax)
 e0830c4:	00 00                	add    %al,(%eax)
 e0830c6:	00 00                	add    %al,(%eax)
 e0830c8:	00 00                	add    %al,(%eax)
 e0830ca:	00 00                	add    %al,(%eax)
 e0830cc:	00 00                	add    %al,(%eax)
 e0830ce:	00 00                	add    %al,(%eax)
 e0830d0:	00 00                	add    %al,(%eax)
 e0830d2:	00 00                	add    %al,(%eax)
 e0830d4:	00 00                	add    %al,(%eax)
 e0830d6:	00 00                	add    %al,(%eax)
 e0830d8:	00 00                	add    %al,(%eax)
 e0830da:	00 00                	add    %al,(%eax)
 e0830dc:	00 00                	add    %al,(%eax)
 e0830de:	00 00                	add    %al,(%eax)
 e0830e0:	00 00                	add    %al,(%eax)
 e0830e2:	00 00                	add    %al,(%eax)
 e0830e4:	00 00                	add    %al,(%eax)
 e0830e6:	00 00                	add    %al,(%eax)
 e0830e8:	00 00                	add    %al,(%eax)
 e0830ea:	00 00                	add    %al,(%eax)
 e0830ec:	00 00                	add    %al,(%eax)
 e0830ee:	00 00                	add    %al,(%eax)
 e0830f0:	00 00                	add    %al,(%eax)
 e0830f2:	00 00                	add    %al,(%eax)
 e0830f4:	00 00                	add    %al,(%eax)
 e0830f6:	00 00                	add    %al,(%eax)
 e0830f8:	00 00                	add    %al,(%eax)
 e0830fa:	00 00                	add    %al,(%eax)
 e0830fc:	00 00                	add    %al,(%eax)
 e0830fe:	00 00                	add    %al,(%eax)
 e083100:	00 00                	add    %al,(%eax)
 e083102:	00 00                	add    %al,(%eax)
 e083104:	00 00                	add    %al,(%eax)
 e083106:	00 00                	add    %al,(%eax)
 e083108:	00 00                	add    %al,(%eax)
 e08310a:	00 00                	add    %al,(%eax)
 e08310c:	00 00                	add    %al,(%eax)
 e08310e:	00 00                	add    %al,(%eax)
 e083110:	00 00                	add    %al,(%eax)
 e083112:	00 00                	add    %al,(%eax)
 e083114:	00 00                	add    %al,(%eax)
 e083116:	00 00                	add    %al,(%eax)
 e083118:	00 00                	add    %al,(%eax)
 e08311a:	00 00                	add    %al,(%eax)
 e08311c:	00 00                	add    %al,(%eax)
 e08311e:	00 00                	add    %al,(%eax)
 e083120:	00 00                	add    %al,(%eax)
 e083122:	00 00                	add    %al,(%eax)
 e083124:	00 00                	add    %al,(%eax)
 e083126:	00 00                	add    %al,(%eax)
 e083128:	00 00                	add    %al,(%eax)
 e08312a:	00 00                	add    %al,(%eax)
 e08312c:	00 00                	add    %al,(%eax)
 e08312e:	00 00                	add    %al,(%eax)
 e083130:	00 00                	add    %al,(%eax)
 e083132:	00 00                	add    %al,(%eax)
 e083134:	00 00                	add    %al,(%eax)
 e083136:	00 00                	add    %al,(%eax)
 e083138:	00 00                	add    %al,(%eax)
 e08313a:	00 00                	add    %al,(%eax)
 e08313c:	00 00                	add    %al,(%eax)
 e08313e:	00 00                	add    %al,(%eax)
 e083140:	00 00                	add    %al,(%eax)
 e083142:	00 00                	add    %al,(%eax)
 e083144:	00 00                	add    %al,(%eax)
 e083146:	00 00                	add    %al,(%eax)
 e083148:	00 00                	add    %al,(%eax)
 e08314a:	00 00                	add    %al,(%eax)
 e08314c:	00 00                	add    %al,(%eax)
 e08314e:	00 00                	add    %al,(%eax)
 e083150:	00 00                	add    %al,(%eax)
 e083152:	00 00                	add    %al,(%eax)
 e083154:	00 00                	add    %al,(%eax)
 e083156:	00 00                	add    %al,(%eax)
 e083158:	00 00                	add    %al,(%eax)
 e08315a:	00 00                	add    %al,(%eax)
 e08315c:	00 00                	add    %al,(%eax)
 e08315e:	00 00                	add    %al,(%eax)
 e083160:	00 00                	add    %al,(%eax)
 e083162:	00 00                	add    %al,(%eax)
 e083164:	00 00                	add    %al,(%eax)
 e083166:	00 00                	add    %al,(%eax)
 e083168:	00 00                	add    %al,(%eax)
 e08316a:	00 00                	add    %al,(%eax)
 e08316c:	00 00                	add    %al,(%eax)
 e08316e:	00 00                	add    %al,(%eax)
 e083170:	00 00                	add    %al,(%eax)
 e083172:	00 00                	add    %al,(%eax)
 e083174:	00 00                	add    %al,(%eax)
 e083176:	00 00                	add    %al,(%eax)
 e083178:	00 00                	add    %al,(%eax)
 e08317a:	00 00                	add    %al,(%eax)
 e08317c:	00 00                	add    %al,(%eax)
 e08317e:	00 00                	add    %al,(%eax)
 e083180:	00 00                	add    %al,(%eax)
 e083182:	00 00                	add    %al,(%eax)
 e083184:	00 00                	add    %al,(%eax)
 e083186:	00 00                	add    %al,(%eax)
 e083188:	00 00                	add    %al,(%eax)
 e08318a:	00 00                	add    %al,(%eax)
 e08318c:	00 00                	add    %al,(%eax)
 e08318e:	00 00                	add    %al,(%eax)
 e083190:	00 00                	add    %al,(%eax)
 e083192:	00 00                	add    %al,(%eax)
 e083194:	00 00                	add    %al,(%eax)
 e083196:	00 00                	add    %al,(%eax)
 e083198:	00 00                	add    %al,(%eax)
 e08319a:	00 00                	add    %al,(%eax)
 e08319c:	00 00                	add    %al,(%eax)
 e08319e:	00 00                	add    %al,(%eax)
 e0831a0:	00 00                	add    %al,(%eax)
 e0831a2:	00 00                	add    %al,(%eax)
 e0831a4:	00 00                	add    %al,(%eax)
 e0831a6:	00 00                	add    %al,(%eax)
 e0831a8:	00 00                	add    %al,(%eax)
 e0831aa:	00 00                	add    %al,(%eax)
 e0831ac:	00 00                	add    %al,(%eax)
 e0831ae:	00 00                	add    %al,(%eax)
 e0831b0:	00 00                	add    %al,(%eax)
 e0831b2:	00 00                	add    %al,(%eax)
 e0831b4:	00 00                	add    %al,(%eax)
 e0831b6:	00 00                	add    %al,(%eax)
 e0831b8:	00 00                	add    %al,(%eax)
 e0831ba:	00 00                	add    %al,(%eax)
 e0831bc:	00 00                	add    %al,(%eax)
 e0831be:	00 00                	add    %al,(%eax)
 e0831c0:	00 00                	add    %al,(%eax)
 e0831c2:	00 00                	add    %al,(%eax)
 e0831c4:	00 00                	add    %al,(%eax)
 e0831c6:	00 00                	add    %al,(%eax)
 e0831c8:	00 00                	add    %al,(%eax)
 e0831ca:	00 00                	add    %al,(%eax)
 e0831cc:	00 00                	add    %al,(%eax)
 e0831ce:	00 00                	add    %al,(%eax)
 e0831d0:	00 00                	add    %al,(%eax)
 e0831d2:	00 00                	add    %al,(%eax)
 e0831d4:	00 00                	add    %al,(%eax)
 e0831d6:	00 00                	add    %al,(%eax)
 e0831d8:	00 00                	add    %al,(%eax)
 e0831da:	00 00                	add    %al,(%eax)
 e0831dc:	00 00                	add    %al,(%eax)
 e0831de:	00 00                	add    %al,(%eax)
 e0831e0:	00 00                	add    %al,(%eax)
 e0831e2:	00 00                	add    %al,(%eax)
 e0831e4:	00 00                	add    %al,(%eax)
 e0831e6:	00 00                	add    %al,(%eax)
 e0831e8:	00 00                	add    %al,(%eax)
 e0831ea:	00 00                	add    %al,(%eax)
 e0831ec:	00 00                	add    %al,(%eax)
 e0831ee:	00 00                	add    %al,(%eax)
 e0831f0:	00 00                	add    %al,(%eax)
 e0831f2:	00 00                	add    %al,(%eax)
 e0831f4:	00 00                	add    %al,(%eax)
 e0831f6:	00 00                	add    %al,(%eax)
 e0831f8:	00 00                	add    %al,(%eax)
 e0831fa:	00 00                	add    %al,(%eax)
 e0831fc:	00 00                	add    %al,(%eax)
 e0831fe:	00 00                	add    %al,(%eax)
 e083200:	00 00                	add    %al,(%eax)
 e083202:	00 00                	add    %al,(%eax)
 e083204:	00 00                	add    %al,(%eax)
 e083206:	00 00                	add    %al,(%eax)
 e083208:	00 00                	add    %al,(%eax)
 e08320a:	00 00                	add    %al,(%eax)
 e08320c:	00 00                	add    %al,(%eax)
 e08320e:	00 00                	add    %al,(%eax)
 e083210:	00 00                	add    %al,(%eax)
 e083212:	00 00                	add    %al,(%eax)
 e083214:	00 00                	add    %al,(%eax)
 e083216:	00 00                	add    %al,(%eax)
 e083218:	00 00                	add    %al,(%eax)
 e08321a:	00 00                	add    %al,(%eax)
 e08321c:	00 00                	add    %al,(%eax)
 e08321e:	00 00                	add    %al,(%eax)
 e083220:	00 00                	add    %al,(%eax)
 e083222:	00 00                	add    %al,(%eax)
 e083224:	00 00                	add    %al,(%eax)
 e083226:	00 00                	add    %al,(%eax)
 e083228:	00 00                	add    %al,(%eax)
 e08322a:	00 00                	add    %al,(%eax)
 e08322c:	00 00                	add    %al,(%eax)
 e08322e:	00 00                	add    %al,(%eax)
 e083230:	00 00                	add    %al,(%eax)
 e083232:	00 00                	add    %al,(%eax)
 e083234:	00 00                	add    %al,(%eax)
 e083236:	00 00                	add    %al,(%eax)
 e083238:	00 00                	add    %al,(%eax)
 e08323a:	00 00                	add    %al,(%eax)
 e08323c:	00 00                	add    %al,(%eax)
 e08323e:	00 00                	add    %al,(%eax)
 e083240:	00 00                	add    %al,(%eax)
 e083242:	00 00                	add    %al,(%eax)
 e083244:	00 00                	add    %al,(%eax)
 e083246:	00 00                	add    %al,(%eax)
 e083248:	00 00                	add    %al,(%eax)
 e08324a:	00 00                	add    %al,(%eax)
 e08324c:	00 00                	add    %al,(%eax)
 e08324e:	00 00                	add    %al,(%eax)
 e083250:	00 00                	add    %al,(%eax)
 e083252:	00 00                	add    %al,(%eax)
 e083254:	00 00                	add    %al,(%eax)
 e083256:	00 00                	add    %al,(%eax)
 e083258:	00 00                	add    %al,(%eax)
 e08325a:	00 00                	add    %al,(%eax)
 e08325c:	00 00                	add    %al,(%eax)
 e08325e:	00 00                	add    %al,(%eax)
 e083260:	00 00                	add    %al,(%eax)
 e083262:	00 00                	add    %al,(%eax)
 e083264:	00 00                	add    %al,(%eax)
 e083266:	00 00                	add    %al,(%eax)
 e083268:	00 00                	add    %al,(%eax)
 e08326a:	00 00                	add    %al,(%eax)
 e08326c:	00 00                	add    %al,(%eax)
 e08326e:	00 00                	add    %al,(%eax)
 e083270:	00 00                	add    %al,(%eax)
 e083272:	00 00                	add    %al,(%eax)
 e083274:	00 00                	add    %al,(%eax)
 e083276:	00 00                	add    %al,(%eax)
 e083278:	00 00                	add    %al,(%eax)
 e08327a:	00 00                	add    %al,(%eax)
 e08327c:	00 00                	add    %al,(%eax)
 e08327e:	00 00                	add    %al,(%eax)
 e083280:	00 00                	add    %al,(%eax)
 e083282:	00 00                	add    %al,(%eax)
 e083284:	00 00                	add    %al,(%eax)
 e083286:	00 00                	add    %al,(%eax)
 e083288:	00 00                	add    %al,(%eax)
 e08328a:	00 00                	add    %al,(%eax)
 e08328c:	00 00                	add    %al,(%eax)
 e08328e:	00 00                	add    %al,(%eax)
 e083290:	00 00                	add    %al,(%eax)
 e083292:	00 00                	add    %al,(%eax)
 e083294:	00 00                	add    %al,(%eax)
 e083296:	00 00                	add    %al,(%eax)
 e083298:	00 00                	add    %al,(%eax)
 e08329a:	00 00                	add    %al,(%eax)
 e08329c:	00 00                	add    %al,(%eax)
 e08329e:	00 00                	add    %al,(%eax)
 e0832a0:	00 00                	add    %al,(%eax)
 e0832a2:	00 00                	add    %al,(%eax)
 e0832a4:	00 00                	add    %al,(%eax)
 e0832a6:	00 00                	add    %al,(%eax)
 e0832a8:	00 00                	add    %al,(%eax)
 e0832aa:	00 00                	add    %al,(%eax)
 e0832ac:	00 00                	add    %al,(%eax)
 e0832ae:	00 00                	add    %al,(%eax)
 e0832b0:	00 00                	add    %al,(%eax)
 e0832b2:	00 00                	add    %al,(%eax)
 e0832b4:	00 00                	add    %al,(%eax)
 e0832b6:	00 00                	add    %al,(%eax)
 e0832b8:	00 00                	add    %al,(%eax)
 e0832ba:	00 00                	add    %al,(%eax)
 e0832bc:	00 00                	add    %al,(%eax)
 e0832be:	00 00                	add    %al,(%eax)
 e0832c0:	00 00                	add    %al,(%eax)
 e0832c2:	00 00                	add    %al,(%eax)
 e0832c4:	00 00                	add    %al,(%eax)
 e0832c6:	00 00                	add    %al,(%eax)
 e0832c8:	00 00                	add    %al,(%eax)
 e0832ca:	00 00                	add    %al,(%eax)
 e0832cc:	00 00                	add    %al,(%eax)
 e0832ce:	00 00                	add    %al,(%eax)
 e0832d0:	00 00                	add    %al,(%eax)
 e0832d2:	00 00                	add    %al,(%eax)
 e0832d4:	00 00                	add    %al,(%eax)
 e0832d6:	00 00                	add    %al,(%eax)
 e0832d8:	00 00                	add    %al,(%eax)
 e0832da:	00 00                	add    %al,(%eax)
 e0832dc:	00 00                	add    %al,(%eax)
 e0832de:	00 00                	add    %al,(%eax)
 e0832e0:	00 00                	add    %al,(%eax)
 e0832e2:	00 00                	add    %al,(%eax)
 e0832e4:	00 00                	add    %al,(%eax)
 e0832e6:	00 00                	add    %al,(%eax)
 e0832e8:	00 00                	add    %al,(%eax)
 e0832ea:	00 00                	add    %al,(%eax)
 e0832ec:	00 00                	add    %al,(%eax)
 e0832ee:	00 00                	add    %al,(%eax)
 e0832f0:	00 00                	add    %al,(%eax)
 e0832f2:	00 00                	add    %al,(%eax)
 e0832f4:	00 00                	add    %al,(%eax)
 e0832f6:	00 00                	add    %al,(%eax)
 e0832f8:	00 00                	add    %al,(%eax)
 e0832fa:	00 00                	add    %al,(%eax)
 e0832fc:	00 00                	add    %al,(%eax)
 e0832fe:	00 00                	add    %al,(%eax)
 e083300:	00 00                	add    %al,(%eax)
 e083302:	00 00                	add    %al,(%eax)
 e083304:	00 00                	add    %al,(%eax)
 e083306:	00 00                	add    %al,(%eax)
 e083308:	00 00                	add    %al,(%eax)
 e08330a:	00 00                	add    %al,(%eax)
 e08330c:	00 00                	add    %al,(%eax)
 e08330e:	00 00                	add    %al,(%eax)
 e083310:	00 00                	add    %al,(%eax)
 e083312:	00 00                	add    %al,(%eax)
 e083314:	00 00                	add    %al,(%eax)
 e083316:	00 00                	add    %al,(%eax)
 e083318:	00 00                	add    %al,(%eax)
 e08331a:	00 00                	add    %al,(%eax)
 e08331c:	00 00                	add    %al,(%eax)
 e08331e:	00 00                	add    %al,(%eax)
 e083320:	00 00                	add    %al,(%eax)
 e083322:	00 00                	add    %al,(%eax)
 e083324:	00 00                	add    %al,(%eax)
 e083326:	00 00                	add    %al,(%eax)
 e083328:	00 00                	add    %al,(%eax)
 e08332a:	00 00                	add    %al,(%eax)
 e08332c:	00 00                	add    %al,(%eax)
 e08332e:	00 00                	add    %al,(%eax)
 e083330:	00 00                	add    %al,(%eax)
 e083332:	00 00                	add    %al,(%eax)
 e083334:	00 00                	add    %al,(%eax)
 e083336:	00 00                	add    %al,(%eax)
 e083338:	00 00                	add    %al,(%eax)
 e08333a:	00 00                	add    %al,(%eax)
 e08333c:	00 00                	add    %al,(%eax)
 e08333e:	00 00                	add    %al,(%eax)
 e083340:	00 00                	add    %al,(%eax)
 e083342:	00 00                	add    %al,(%eax)
 e083344:	00 00                	add    %al,(%eax)
 e083346:	00 00                	add    %al,(%eax)
 e083348:	00 00                	add    %al,(%eax)
 e08334a:	00 00                	add    %al,(%eax)
 e08334c:	00 00                	add    %al,(%eax)
 e08334e:	00 00                	add    %al,(%eax)
 e083350:	00 00                	add    %al,(%eax)
 e083352:	00 00                	add    %al,(%eax)
 e083354:	00 00                	add    %al,(%eax)
 e083356:	00 00                	add    %al,(%eax)
 e083358:	00 00                	add    %al,(%eax)
 e08335a:	00 00                	add    %al,(%eax)
 e08335c:	00 00                	add    %al,(%eax)
 e08335e:	00 00                	add    %al,(%eax)
 e083360:	00 00                	add    %al,(%eax)
 e083362:	00 00                	add    %al,(%eax)
 e083364:	00 00                	add    %al,(%eax)
 e083366:	00 00                	add    %al,(%eax)
 e083368:	00 00                	add    %al,(%eax)
 e08336a:	00 00                	add    %al,(%eax)
 e08336c:	00 00                	add    %al,(%eax)
 e08336e:	00 00                	add    %al,(%eax)
 e083370:	00 00                	add    %al,(%eax)
 e083372:	00 00                	add    %al,(%eax)
 e083374:	00 00                	add    %al,(%eax)
 e083376:	00 00                	add    %al,(%eax)
 e083378:	00 00                	add    %al,(%eax)
 e08337a:	00 00                	add    %al,(%eax)
 e08337c:	00 00                	add    %al,(%eax)
 e08337e:	00 00                	add    %al,(%eax)
 e083380:	00 00                	add    %al,(%eax)
 e083382:	00 00                	add    %al,(%eax)
 e083384:	00 00                	add    %al,(%eax)
 e083386:	00 00                	add    %al,(%eax)
 e083388:	00 00                	add    %al,(%eax)
 e08338a:	00 00                	add    %al,(%eax)
 e08338c:	00 00                	add    %al,(%eax)
 e08338e:	00 00                	add    %al,(%eax)
 e083390:	00 00                	add    %al,(%eax)
 e083392:	00 00                	add    %al,(%eax)
 e083394:	00 00                	add    %al,(%eax)
 e083396:	00 00                	add    %al,(%eax)
 e083398:	00 00                	add    %al,(%eax)
 e08339a:	00 00                	add    %al,(%eax)
 e08339c:	00 00                	add    %al,(%eax)
 e08339e:	00 00                	add    %al,(%eax)
 e0833a0:	00 00                	add    %al,(%eax)
 e0833a2:	00 00                	add    %al,(%eax)
 e0833a4:	00 00                	add    %al,(%eax)
 e0833a6:	00 00                	add    %al,(%eax)
 e0833a8:	00 00                	add    %al,(%eax)
 e0833aa:	00 00                	add    %al,(%eax)
 e0833ac:	00 00                	add    %al,(%eax)
 e0833ae:	00 00                	add    %al,(%eax)
 e0833b0:	00 00                	add    %al,(%eax)
 e0833b2:	00 00                	add    %al,(%eax)
 e0833b4:	00 00                	add    %al,(%eax)
 e0833b6:	00 00                	add    %al,(%eax)
 e0833b8:	00 00                	add    %al,(%eax)
 e0833ba:	00 00                	add    %al,(%eax)
 e0833bc:	00 00                	add    %al,(%eax)
 e0833be:	00 00                	add    %al,(%eax)
 e0833c0:	00 00                	add    %al,(%eax)
 e0833c2:	00 00                	add    %al,(%eax)
 e0833c4:	00 00                	add    %al,(%eax)
 e0833c6:	00 00                	add    %al,(%eax)
 e0833c8:	00 00                	add    %al,(%eax)
 e0833ca:	00 00                	add    %al,(%eax)
 e0833cc:	00 00                	add    %al,(%eax)
 e0833ce:	00 00                	add    %al,(%eax)
 e0833d0:	00 00                	add    %al,(%eax)
 e0833d2:	00 00                	add    %al,(%eax)
 e0833d4:	00 00                	add    %al,(%eax)
 e0833d6:	00 00                	add    %al,(%eax)
 e0833d8:	00 00                	add    %al,(%eax)
 e0833da:	00 00                	add    %al,(%eax)
 e0833dc:	00 00                	add    %al,(%eax)
 e0833de:	00 00                	add    %al,(%eax)
 e0833e0:	00 00                	add    %al,(%eax)
 e0833e2:	00 00                	add    %al,(%eax)
 e0833e4:	00 00                	add    %al,(%eax)
 e0833e6:	00 00                	add    %al,(%eax)
 e0833e8:	00 00                	add    %al,(%eax)
 e0833ea:	00 00                	add    %al,(%eax)
 e0833ec:	00 00                	add    %al,(%eax)
 e0833ee:	00 00                	add    %al,(%eax)
 e0833f0:	00 00                	add    %al,(%eax)
 e0833f2:	00 00                	add    %al,(%eax)
 e0833f4:	00 00                	add    %al,(%eax)
 e0833f6:	00 00                	add    %al,(%eax)
 e0833f8:	00 00                	add    %al,(%eax)
 e0833fa:	00 00                	add    %al,(%eax)
 e0833fc:	00 00                	add    %al,(%eax)
 e0833fe:	00 00                	add    %al,(%eax)
 e083400:	00 00                	add    %al,(%eax)
 e083402:	00 00                	add    %al,(%eax)
 e083404:	00 00                	add    %al,(%eax)
 e083406:	00 00                	add    %al,(%eax)
 e083408:	00 00                	add    %al,(%eax)
 e08340a:	00 00                	add    %al,(%eax)
 e08340c:	00 00                	add    %al,(%eax)
 e08340e:	00 00                	add    %al,(%eax)
 e083410:	00 00                	add    %al,(%eax)
 e083412:	00 00                	add    %al,(%eax)
 e083414:	00 00                	add    %al,(%eax)
 e083416:	00 00                	add    %al,(%eax)
 e083418:	00 00                	add    %al,(%eax)
 e08341a:	00 00                	add    %al,(%eax)
 e08341c:	00 00                	add    %al,(%eax)
 e08341e:	00 00                	add    %al,(%eax)
 e083420:	00 00                	add    %al,(%eax)
 e083422:	00 00                	add    %al,(%eax)
 e083424:	00 00                	add    %al,(%eax)
 e083426:	00 00                	add    %al,(%eax)
 e083428:	00 00                	add    %al,(%eax)
 e08342a:	00 00                	add    %al,(%eax)
 e08342c:	00 00                	add    %al,(%eax)
 e08342e:	00 00                	add    %al,(%eax)
 e083430:	00 00                	add    %al,(%eax)
 e083432:	00 00                	add    %al,(%eax)
 e083434:	00 00                	add    %al,(%eax)
 e083436:	00 00                	add    %al,(%eax)
 e083438:	00 00                	add    %al,(%eax)
 e08343a:	00 00                	add    %al,(%eax)
 e08343c:	00 00                	add    %al,(%eax)
 e08343e:	00 00                	add    %al,(%eax)
 e083440:	00 00                	add    %al,(%eax)
 e083442:	00 00                	add    %al,(%eax)
 e083444:	00 00                	add    %al,(%eax)
 e083446:	00 00                	add    %al,(%eax)
 e083448:	00 00                	add    %al,(%eax)
 e08344a:	00 00                	add    %al,(%eax)
 e08344c:	00 00                	add    %al,(%eax)
 e08344e:	00 00                	add    %al,(%eax)
 e083450:	00 00                	add    %al,(%eax)
 e083452:	00 00                	add    %al,(%eax)
 e083454:	00 00                	add    %al,(%eax)
 e083456:	00 00                	add    %al,(%eax)
 e083458:	00 00                	add    %al,(%eax)
 e08345a:	00 00                	add    %al,(%eax)
 e08345c:	00 00                	add    %al,(%eax)
 e08345e:	00 00                	add    %al,(%eax)
 e083460:	00 00                	add    %al,(%eax)
 e083462:	00 00                	add    %al,(%eax)
 e083464:	00 00                	add    %al,(%eax)
 e083466:	00 00                	add    %al,(%eax)
 e083468:	00 00                	add    %al,(%eax)
 e08346a:	00 00                	add    %al,(%eax)
 e08346c:	00 00                	add    %al,(%eax)
 e08346e:	00 00                	add    %al,(%eax)
 e083470:	00 00                	add    %al,(%eax)
 e083472:	00 00                	add    %al,(%eax)
 e083474:	00 00                	add    %al,(%eax)
 e083476:	00 00                	add    %al,(%eax)
 e083478:	00 00                	add    %al,(%eax)
 e08347a:	00 00                	add    %al,(%eax)
 e08347c:	00 00                	add    %al,(%eax)
 e08347e:	00 00                	add    %al,(%eax)
 e083480:	00 00                	add    %al,(%eax)
 e083482:	00 00                	add    %al,(%eax)
 e083484:	00 00                	add    %al,(%eax)
 e083486:	00 00                	add    %al,(%eax)
 e083488:	00 00                	add    %al,(%eax)
 e08348a:	00 00                	add    %al,(%eax)
 e08348c:	00 00                	add    %al,(%eax)
 e08348e:	00 00                	add    %al,(%eax)
 e083490:	00 00                	add    %al,(%eax)
 e083492:	00 00                	add    %al,(%eax)
 e083494:	00 00                	add    %al,(%eax)
 e083496:	00 00                	add    %al,(%eax)
 e083498:	00 00                	add    %al,(%eax)
 e08349a:	00 00                	add    %al,(%eax)
 e08349c:	00 00                	add    %al,(%eax)
 e08349e:	00 00                	add    %al,(%eax)
 e0834a0:	00 00                	add    %al,(%eax)
 e0834a2:	00 00                	add    %al,(%eax)
 e0834a4:	00 00                	add    %al,(%eax)
 e0834a6:	00 00                	add    %al,(%eax)
 e0834a8:	00 00                	add    %al,(%eax)
 e0834aa:	00 00                	add    %al,(%eax)
 e0834ac:	00 00                	add    %al,(%eax)
 e0834ae:	00 00                	add    %al,(%eax)
 e0834b0:	00 00                	add    %al,(%eax)
 e0834b2:	00 00                	add    %al,(%eax)
 e0834b4:	00 00                	add    %al,(%eax)
 e0834b6:	00 00                	add    %al,(%eax)
 e0834b8:	00 00                	add    %al,(%eax)
 e0834ba:	00 00                	add    %al,(%eax)
 e0834bc:	00 00                	add    %al,(%eax)
 e0834be:	00 00                	add    %al,(%eax)
 e0834c0:	00 00                	add    %al,(%eax)
 e0834c2:	00 00                	add    %al,(%eax)
 e0834c4:	00 00                	add    %al,(%eax)
 e0834c6:	00 00                	add    %al,(%eax)
 e0834c8:	00 00                	add    %al,(%eax)
 e0834ca:	00 00                	add    %al,(%eax)
 e0834cc:	00 00                	add    %al,(%eax)
 e0834ce:	00 00                	add    %al,(%eax)
 e0834d0:	00 00                	add    %al,(%eax)
 e0834d2:	00 00                	add    %al,(%eax)
 e0834d4:	00 00                	add    %al,(%eax)
 e0834d6:	00 00                	add    %al,(%eax)
 e0834d8:	00 00                	add    %al,(%eax)
 e0834da:	00 00                	add    %al,(%eax)
 e0834dc:	00 00                	add    %al,(%eax)
 e0834de:	00 00                	add    %al,(%eax)
 e0834e0:	00 00                	add    %al,(%eax)
 e0834e2:	00 00                	add    %al,(%eax)
 e0834e4:	00 00                	add    %al,(%eax)
 e0834e6:	00 00                	add    %al,(%eax)
 e0834e8:	00 00                	add    %al,(%eax)
 e0834ea:	00 00                	add    %al,(%eax)
 e0834ec:	00 00                	add    %al,(%eax)
 e0834ee:	00 00                	add    %al,(%eax)
 e0834f0:	00 00                	add    %al,(%eax)
 e0834f2:	00 00                	add    %al,(%eax)
 e0834f4:	00 00                	add    %al,(%eax)
 e0834f6:	00 00                	add    %al,(%eax)
 e0834f8:	00 00                	add    %al,(%eax)
 e0834fa:	00 00                	add    %al,(%eax)
 e0834fc:	00 00                	add    %al,(%eax)
 e0834fe:	00 00                	add    %al,(%eax)
 e083500:	00 00                	add    %al,(%eax)
 e083502:	00 00                	add    %al,(%eax)
 e083504:	00 00                	add    %al,(%eax)
 e083506:	00 00                	add    %al,(%eax)
 e083508:	00 00                	add    %al,(%eax)
 e08350a:	00 00                	add    %al,(%eax)
 e08350c:	00 00                	add    %al,(%eax)
 e08350e:	00 00                	add    %al,(%eax)
 e083510:	00 00                	add    %al,(%eax)
 e083512:	00 00                	add    %al,(%eax)
 e083514:	00 00                	add    %al,(%eax)
 e083516:	00 00                	add    %al,(%eax)
 e083518:	00 00                	add    %al,(%eax)
 e08351a:	00 00                	add    %al,(%eax)
 e08351c:	00 00                	add    %al,(%eax)
 e08351e:	00 00                	add    %al,(%eax)
 e083520:	00 00                	add    %al,(%eax)
 e083522:	00 00                	add    %al,(%eax)
 e083524:	00 00                	add    %al,(%eax)
 e083526:	00 00                	add    %al,(%eax)
 e083528:	00 00                	add    %al,(%eax)
 e08352a:	00 00                	add    %al,(%eax)
 e08352c:	00 00                	add    %al,(%eax)
 e08352e:	00 00                	add    %al,(%eax)
 e083530:	00 00                	add    %al,(%eax)
 e083532:	00 00                	add    %al,(%eax)
 e083534:	00 00                	add    %al,(%eax)
 e083536:	00 00                	add    %al,(%eax)
 e083538:	00 00                	add    %al,(%eax)
 e08353a:	00 00                	add    %al,(%eax)
 e08353c:	00 00                	add    %al,(%eax)
 e08353e:	00 00                	add    %al,(%eax)
 e083540:	00 00                	add    %al,(%eax)
 e083542:	00 00                	add    %al,(%eax)
 e083544:	00 00                	add    %al,(%eax)
 e083546:	00 00                	add    %al,(%eax)
 e083548:	00 00                	add    %al,(%eax)
 e08354a:	00 00                	add    %al,(%eax)
 e08354c:	00 00                	add    %al,(%eax)
 e08354e:	00 00                	add    %al,(%eax)
 e083550:	00 00                	add    %al,(%eax)
 e083552:	00 00                	add    %al,(%eax)
 e083554:	00 00                	add    %al,(%eax)
 e083556:	00 00                	add    %al,(%eax)
 e083558:	00 00                	add    %al,(%eax)
 e08355a:	00 00                	add    %al,(%eax)
 e08355c:	00 00                	add    %al,(%eax)
 e08355e:	00 00                	add    %al,(%eax)
 e083560:	00 00                	add    %al,(%eax)
 e083562:	00 00                	add    %al,(%eax)
 e083564:	00 00                	add    %al,(%eax)
 e083566:	00 00                	add    %al,(%eax)
 e083568:	00 00                	add    %al,(%eax)
 e08356a:	00 00                	add    %al,(%eax)
 e08356c:	00 00                	add    %al,(%eax)
 e08356e:	00 00                	add    %al,(%eax)
 e083570:	00 00                	add    %al,(%eax)
 e083572:	00 00                	add    %al,(%eax)
 e083574:	00 00                	add    %al,(%eax)
 e083576:	00 00                	add    %al,(%eax)
 e083578:	00 00                	add    %al,(%eax)
 e08357a:	00 00                	add    %al,(%eax)
 e08357c:	00 00                	add    %al,(%eax)
 e08357e:	00 00                	add    %al,(%eax)
 e083580:	00 00                	add    %al,(%eax)
 e083582:	00 00                	add    %al,(%eax)
 e083584:	00 00                	add    %al,(%eax)
 e083586:	00 00                	add    %al,(%eax)
 e083588:	00 00                	add    %al,(%eax)
 e08358a:	00 00                	add    %al,(%eax)
 e08358c:	00 00                	add    %al,(%eax)
 e08358e:	00 00                	add    %al,(%eax)
 e083590:	00 00                	add    %al,(%eax)
 e083592:	00 00                	add    %al,(%eax)
 e083594:	00 00                	add    %al,(%eax)
 e083596:	00 00                	add    %al,(%eax)
 e083598:	00 00                	add    %al,(%eax)
 e08359a:	00 00                	add    %al,(%eax)
 e08359c:	00 00                	add    %al,(%eax)
 e08359e:	00 00                	add    %al,(%eax)
 e0835a0:	00 00                	add    %al,(%eax)
 e0835a2:	00 00                	add    %al,(%eax)
 e0835a4:	00 00                	add    %al,(%eax)
 e0835a6:	00 00                	add    %al,(%eax)
 e0835a8:	00 00                	add    %al,(%eax)
 e0835aa:	00 00                	add    %al,(%eax)
 e0835ac:	00 00                	add    %al,(%eax)
 e0835ae:	00 00                	add    %al,(%eax)
 e0835b0:	00 00                	add    %al,(%eax)
 e0835b2:	00 00                	add    %al,(%eax)
 e0835b4:	00 00                	add    %al,(%eax)
 e0835b6:	00 00                	add    %al,(%eax)
 e0835b8:	00 00                	add    %al,(%eax)
 e0835ba:	00 00                	add    %al,(%eax)
 e0835bc:	00 00                	add    %al,(%eax)
 e0835be:	00 00                	add    %al,(%eax)
 e0835c0:	00 00                	add    %al,(%eax)
 e0835c2:	00 00                	add    %al,(%eax)
 e0835c4:	00 00                	add    %al,(%eax)
 e0835c6:	00 00                	add    %al,(%eax)
 e0835c8:	00 00                	add    %al,(%eax)
 e0835ca:	00 00                	add    %al,(%eax)
 e0835cc:	00 00                	add    %al,(%eax)
 e0835ce:	00 00                	add    %al,(%eax)
 e0835d0:	00 00                	add    %al,(%eax)
 e0835d2:	00 00                	add    %al,(%eax)
 e0835d4:	00 00                	add    %al,(%eax)
 e0835d6:	00 00                	add    %al,(%eax)
 e0835d8:	00 00                	add    %al,(%eax)
 e0835da:	00 00                	add    %al,(%eax)
 e0835dc:	00 00                	add    %al,(%eax)
 e0835de:	00 00                	add    %al,(%eax)
 e0835e0:	00 00                	add    %al,(%eax)
 e0835e2:	00 00                	add    %al,(%eax)
 e0835e4:	00 00                	add    %al,(%eax)
 e0835e6:	00 00                	add    %al,(%eax)
 e0835e8:	00 00                	add    %al,(%eax)
 e0835ea:	00 00                	add    %al,(%eax)
 e0835ec:	00 00                	add    %al,(%eax)
 e0835ee:	00 00                	add    %al,(%eax)
 e0835f0:	00 00                	add    %al,(%eax)
 e0835f2:	00 00                	add    %al,(%eax)
 e0835f4:	00 00                	add    %al,(%eax)
 e0835f6:	00 00                	add    %al,(%eax)
 e0835f8:	00 00                	add    %al,(%eax)
 e0835fa:	00 00                	add    %al,(%eax)
 e0835fc:	00 00                	add    %al,(%eax)
 e0835fe:	00 00                	add    %al,(%eax)
 e083600:	00 00                	add    %al,(%eax)
 e083602:	00 00                	add    %al,(%eax)
 e083604:	00 00                	add    %al,(%eax)
 e083606:	00 00                	add    %al,(%eax)
 e083608:	00 00                	add    %al,(%eax)
 e08360a:	00 00                	add    %al,(%eax)
 e08360c:	00 00                	add    %al,(%eax)
 e08360e:	00 00                	add    %al,(%eax)
 e083610:	00 00                	add    %al,(%eax)
 e083612:	00 00                	add    %al,(%eax)
 e083614:	00 00                	add    %al,(%eax)
 e083616:	00 00                	add    %al,(%eax)
 e083618:	00 00                	add    %al,(%eax)
 e08361a:	00 00                	add    %al,(%eax)
 e08361c:	00 00                	add    %al,(%eax)
 e08361e:	00 00                	add    %al,(%eax)
 e083620:	00 00                	add    %al,(%eax)
 e083622:	00 00                	add    %al,(%eax)
 e083624:	00 00                	add    %al,(%eax)
 e083626:	00 00                	add    %al,(%eax)
 e083628:	00 00                	add    %al,(%eax)
 e08362a:	00 00                	add    %al,(%eax)
 e08362c:	00 00                	add    %al,(%eax)
 e08362e:	00 00                	add    %al,(%eax)
 e083630:	00 00                	add    %al,(%eax)
 e083632:	00 00                	add    %al,(%eax)
 e083634:	00 00                	add    %al,(%eax)
 e083636:	00 00                	add    %al,(%eax)
 e083638:	00 00                	add    %al,(%eax)
 e08363a:	00 00                	add    %al,(%eax)
 e08363c:	00 00                	add    %al,(%eax)
 e08363e:	00 00                	add    %al,(%eax)
 e083640:	00 00                	add    %al,(%eax)
 e083642:	00 00                	add    %al,(%eax)
 e083644:	00 00                	add    %al,(%eax)
 e083646:	00 00                	add    %al,(%eax)
 e083648:	00 00                	add    %al,(%eax)
 e08364a:	00 00                	add    %al,(%eax)
 e08364c:	00 00                	add    %al,(%eax)
 e08364e:	00 00                	add    %al,(%eax)
 e083650:	00 00                	add    %al,(%eax)
 e083652:	00 00                	add    %al,(%eax)
 e083654:	00 00                	add    %al,(%eax)
 e083656:	00 00                	add    %al,(%eax)
 e083658:	00 00                	add    %al,(%eax)
 e08365a:	00 00                	add    %al,(%eax)
 e08365c:	00 00                	add    %al,(%eax)
 e08365e:	00 00                	add    %al,(%eax)
 e083660:	00 00                	add    %al,(%eax)
 e083662:	00 00                	add    %al,(%eax)
 e083664:	00 00                	add    %al,(%eax)
 e083666:	00 00                	add    %al,(%eax)
 e083668:	00 00                	add    %al,(%eax)
 e08366a:	00 00                	add    %al,(%eax)
 e08366c:	00 00                	add    %al,(%eax)
 e08366e:	00 00                	add    %al,(%eax)
 e083670:	00 00                	add    %al,(%eax)
 e083672:	00 00                	add    %al,(%eax)
 e083674:	00 00                	add    %al,(%eax)
 e083676:	00 00                	add    %al,(%eax)
 e083678:	00 00                	add    %al,(%eax)
 e08367a:	00 00                	add    %al,(%eax)
 e08367c:	00 00                	add    %al,(%eax)
 e08367e:	00 00                	add    %al,(%eax)
 e083680:	00 00                	add    %al,(%eax)
 e083682:	00 00                	add    %al,(%eax)
 e083684:	00 00                	add    %al,(%eax)
 e083686:	00 00                	add    %al,(%eax)
 e083688:	00 00                	add    %al,(%eax)
 e08368a:	00 00                	add    %al,(%eax)
 e08368c:	00 00                	add    %al,(%eax)
 e08368e:	00 00                	add    %al,(%eax)
 e083690:	00 00                	add    %al,(%eax)
 e083692:	00 00                	add    %al,(%eax)
 e083694:	00 00                	add    %al,(%eax)
 e083696:	00 00                	add    %al,(%eax)
 e083698:	00 00                	add    %al,(%eax)
 e08369a:	00 00                	add    %al,(%eax)
 e08369c:	00 00                	add    %al,(%eax)
 e08369e:	00 00                	add    %al,(%eax)
 e0836a0:	00 00                	add    %al,(%eax)
 e0836a2:	00 00                	add    %al,(%eax)
 e0836a4:	00 00                	add    %al,(%eax)
 e0836a6:	00 00                	add    %al,(%eax)
 e0836a8:	00 00                	add    %al,(%eax)
 e0836aa:	00 00                	add    %al,(%eax)
 e0836ac:	00 00                	add    %al,(%eax)
 e0836ae:	00 00                	add    %al,(%eax)
 e0836b0:	00 00                	add    %al,(%eax)
 e0836b2:	00 00                	add    %al,(%eax)
 e0836b4:	00 00                	add    %al,(%eax)
 e0836b6:	00 00                	add    %al,(%eax)
 e0836b8:	00 00                	add    %al,(%eax)
 e0836ba:	00 00                	add    %al,(%eax)
 e0836bc:	00 00                	add    %al,(%eax)
 e0836be:	00 00                	add    %al,(%eax)
 e0836c0:	00 00                	add    %al,(%eax)
 e0836c2:	00 00                	add    %al,(%eax)
 e0836c4:	00 00                	add    %al,(%eax)
 e0836c6:	00 00                	add    %al,(%eax)
 e0836c8:	00 00                	add    %al,(%eax)
 e0836ca:	00 00                	add    %al,(%eax)
 e0836cc:	00 00                	add    %al,(%eax)
 e0836ce:	00 00                	add    %al,(%eax)
 e0836d0:	00 00                	add    %al,(%eax)
 e0836d2:	00 00                	add    %al,(%eax)
 e0836d4:	00 00                	add    %al,(%eax)
 e0836d6:	00 00                	add    %al,(%eax)
 e0836d8:	00 00                	add    %al,(%eax)
 e0836da:	00 00                	add    %al,(%eax)
 e0836dc:	00 00                	add    %al,(%eax)
 e0836de:	00 00                	add    %al,(%eax)
 e0836e0:	00 00                	add    %al,(%eax)
 e0836e2:	00 00                	add    %al,(%eax)
 e0836e4:	00 00                	add    %al,(%eax)
 e0836e6:	00 00                	add    %al,(%eax)
 e0836e8:	00 00                	add    %al,(%eax)
 e0836ea:	00 00                	add    %al,(%eax)
 e0836ec:	00 00                	add    %al,(%eax)
 e0836ee:	00 00                	add    %al,(%eax)
 e0836f0:	00 00                	add    %al,(%eax)
 e0836f2:	00 00                	add    %al,(%eax)
 e0836f4:	00 00                	add    %al,(%eax)
 e0836f6:	00 00                	add    %al,(%eax)
 e0836f8:	00 00                	add    %al,(%eax)
 e0836fa:	00 00                	add    %al,(%eax)
 e0836fc:	00 00                	add    %al,(%eax)
 e0836fe:	00 00                	add    %al,(%eax)
 e083700:	00 00                	add    %al,(%eax)
 e083702:	00 00                	add    %al,(%eax)
 e083704:	00 00                	add    %al,(%eax)
 e083706:	00 00                	add    %al,(%eax)
 e083708:	00 00                	add    %al,(%eax)
 e08370a:	00 00                	add    %al,(%eax)
 e08370c:	00 00                	add    %al,(%eax)
 e08370e:	00 00                	add    %al,(%eax)
 e083710:	00 00                	add    %al,(%eax)
 e083712:	00 00                	add    %al,(%eax)
 e083714:	00 00                	add    %al,(%eax)
 e083716:	00 00                	add    %al,(%eax)
 e083718:	00 00                	add    %al,(%eax)
 e08371a:	00 00                	add    %al,(%eax)
 e08371c:	00 00                	add    %al,(%eax)
 e08371e:	00 00                	add    %al,(%eax)
 e083720:	00 00                	add    %al,(%eax)
 e083722:	00 00                	add    %al,(%eax)
 e083724:	00 00                	add    %al,(%eax)
 e083726:	00 00                	add    %al,(%eax)
 e083728:	00 00                	add    %al,(%eax)
 e08372a:	00 00                	add    %al,(%eax)
 e08372c:	00 00                	add    %al,(%eax)
 e08372e:	00 00                	add    %al,(%eax)
 e083730:	00 00                	add    %al,(%eax)
 e083732:	00 00                	add    %al,(%eax)
 e083734:	00 00                	add    %al,(%eax)
 e083736:	00 00                	add    %al,(%eax)
 e083738:	00 00                	add    %al,(%eax)
 e08373a:	00 00                	add    %al,(%eax)
 e08373c:	00 00                	add    %al,(%eax)
 e08373e:	00 00                	add    %al,(%eax)
 e083740:	00 00                	add    %al,(%eax)
 e083742:	00 00                	add    %al,(%eax)
 e083744:	00 00                	add    %al,(%eax)
 e083746:	00 00                	add    %al,(%eax)
 e083748:	00 00                	add    %al,(%eax)
 e08374a:	00 00                	add    %al,(%eax)
 e08374c:	00 00                	add    %al,(%eax)
 e08374e:	00 00                	add    %al,(%eax)
 e083750:	00 00                	add    %al,(%eax)
 e083752:	00 00                	add    %al,(%eax)
 e083754:	00 00                	add    %al,(%eax)
 e083756:	00 00                	add    %al,(%eax)
 e083758:	00 00                	add    %al,(%eax)
 e08375a:	00 00                	add    %al,(%eax)
 e08375c:	00 00                	add    %al,(%eax)
 e08375e:	00 00                	add    %al,(%eax)
 e083760:	00 00                	add    %al,(%eax)
 e083762:	00 00                	add    %al,(%eax)
 e083764:	00 00                	add    %al,(%eax)
 e083766:	00 00                	add    %al,(%eax)
 e083768:	00 00                	add    %al,(%eax)
 e08376a:	00 00                	add    %al,(%eax)
 e08376c:	00 00                	add    %al,(%eax)
 e08376e:	00 00                	add    %al,(%eax)
 e083770:	00 00                	add    %al,(%eax)
 e083772:	00 00                	add    %al,(%eax)
 e083774:	00 00                	add    %al,(%eax)
 e083776:	00 00                	add    %al,(%eax)
 e083778:	00 00                	add    %al,(%eax)
 e08377a:	00 00                	add    %al,(%eax)
 e08377c:	00 00                	add    %al,(%eax)
 e08377e:	00 00                	add    %al,(%eax)
 e083780:	00 00                	add    %al,(%eax)
 e083782:	00 00                	add    %al,(%eax)
 e083784:	00 00                	add    %al,(%eax)
 e083786:	00 00                	add    %al,(%eax)
 e083788:	00 00                	add    %al,(%eax)
 e08378a:	00 00                	add    %al,(%eax)
 e08378c:	00 00                	add    %al,(%eax)
 e08378e:	00 00                	add    %al,(%eax)
 e083790:	00 00                	add    %al,(%eax)
 e083792:	00 00                	add    %al,(%eax)
 e083794:	00 00                	add    %al,(%eax)
 e083796:	00 00                	add    %al,(%eax)
 e083798:	00 00                	add    %al,(%eax)
 e08379a:	00 00                	add    %al,(%eax)
 e08379c:	00 00                	add    %al,(%eax)
 e08379e:	00 00                	add    %al,(%eax)
 e0837a0:	00 00                	add    %al,(%eax)
 e0837a2:	00 00                	add    %al,(%eax)
 e0837a4:	00 00                	add    %al,(%eax)
 e0837a6:	00 00                	add    %al,(%eax)
 e0837a8:	00 00                	add    %al,(%eax)
 e0837aa:	00 00                	add    %al,(%eax)
 e0837ac:	00 00                	add    %al,(%eax)
 e0837ae:	00 00                	add    %al,(%eax)
 e0837b0:	00 00                	add    %al,(%eax)
 e0837b2:	00 00                	add    %al,(%eax)
 e0837b4:	00 00                	add    %al,(%eax)
 e0837b6:	00 00                	add    %al,(%eax)
 e0837b8:	00 00                	add    %al,(%eax)
 e0837ba:	00 00                	add    %al,(%eax)
 e0837bc:	00 00                	add    %al,(%eax)
 e0837be:	00 00                	add    %al,(%eax)
 e0837c0:	00 00                	add    %al,(%eax)
 e0837c2:	00 00                	add    %al,(%eax)
 e0837c4:	00 00                	add    %al,(%eax)
 e0837c6:	00 00                	add    %al,(%eax)
 e0837c8:	00 00                	add    %al,(%eax)
 e0837ca:	00 00                	add    %al,(%eax)
 e0837cc:	00 00                	add    %al,(%eax)
 e0837ce:	00 00                	add    %al,(%eax)
 e0837d0:	00 00                	add    %al,(%eax)
 e0837d2:	00 00                	add    %al,(%eax)
 e0837d4:	00 00                	add    %al,(%eax)
 e0837d6:	00 00                	add    %al,(%eax)
 e0837d8:	00 00                	add    %al,(%eax)
 e0837da:	00 00                	add    %al,(%eax)
 e0837dc:	00 00                	add    %al,(%eax)
 e0837de:	00 00                	add    %al,(%eax)
 e0837e0:	00 00                	add    %al,(%eax)
 e0837e2:	00 00                	add    %al,(%eax)
 e0837e4:	00 00                	add    %al,(%eax)
 e0837e6:	00 00                	add    %al,(%eax)
 e0837e8:	00 00                	add    %al,(%eax)
 e0837ea:	00 00                	add    %al,(%eax)
 e0837ec:	00 00                	add    %al,(%eax)
 e0837ee:	00 00                	add    %al,(%eax)
 e0837f0:	00 00                	add    %al,(%eax)
 e0837f2:	00 00                	add    %al,(%eax)
 e0837f4:	00 00                	add    %al,(%eax)
 e0837f6:	00 00                	add    %al,(%eax)
 e0837f8:	00 00                	add    %al,(%eax)
 e0837fa:	00 00                	add    %al,(%eax)
 e0837fc:	00 00                	add    %al,(%eax)
 e0837fe:	00 00                	add    %al,(%eax)
 e083800:	00 00                	add    %al,(%eax)
 e083802:	00 00                	add    %al,(%eax)
 e083804:	00 00                	add    %al,(%eax)
 e083806:	00 00                	add    %al,(%eax)
 e083808:	00 00                	add    %al,(%eax)
 e08380a:	00 00                	add    %al,(%eax)
 e08380c:	00 00                	add    %al,(%eax)
 e08380e:	00 00                	add    %al,(%eax)
 e083810:	00 00                	add    %al,(%eax)
 e083812:	00 00                	add    %al,(%eax)
 e083814:	00 00                	add    %al,(%eax)
 e083816:	00 00                	add    %al,(%eax)
 e083818:	00 00                	add    %al,(%eax)
 e08381a:	00 00                	add    %al,(%eax)
 e08381c:	00 00                	add    %al,(%eax)
 e08381e:	00 00                	add    %al,(%eax)
 e083820:	00 00                	add    %al,(%eax)
 e083822:	00 00                	add    %al,(%eax)
 e083824:	00 00                	add    %al,(%eax)
 e083826:	00 00                	add    %al,(%eax)
 e083828:	00 00                	add    %al,(%eax)
 e08382a:	00 00                	add    %al,(%eax)
 e08382c:	00 00                	add    %al,(%eax)
 e08382e:	00 00                	add    %al,(%eax)
 e083830:	00 00                	add    %al,(%eax)
 e083832:	00 00                	add    %al,(%eax)
 e083834:	00 00                	add    %al,(%eax)
 e083836:	00 00                	add    %al,(%eax)
 e083838:	00 00                	add    %al,(%eax)
 e08383a:	00 00                	add    %al,(%eax)
 e08383c:	00 00                	add    %al,(%eax)
 e08383e:	00 00                	add    %al,(%eax)
 e083840:	00 00                	add    %al,(%eax)
 e083842:	00 00                	add    %al,(%eax)
 e083844:	00 00                	add    %al,(%eax)
 e083846:	00 00                	add    %al,(%eax)
 e083848:	00 00                	add    %al,(%eax)
 e08384a:	00 00                	add    %al,(%eax)
 e08384c:	00 00                	add    %al,(%eax)
 e08384e:	00 00                	add    %al,(%eax)
 e083850:	00 00                	add    %al,(%eax)
 e083852:	00 00                	add    %al,(%eax)
 e083854:	00 00                	add    %al,(%eax)
 e083856:	00 00                	add    %al,(%eax)
 e083858:	00 00                	add    %al,(%eax)
 e08385a:	00 00                	add    %al,(%eax)
 e08385c:	00 00                	add    %al,(%eax)
 e08385e:	00 00                	add    %al,(%eax)
 e083860:	00 00                	add    %al,(%eax)
 e083862:	00 00                	add    %al,(%eax)
 e083864:	00 00                	add    %al,(%eax)
 e083866:	00 00                	add    %al,(%eax)
 e083868:	00 00                	add    %al,(%eax)
 e08386a:	00 00                	add    %al,(%eax)
 e08386c:	00 00                	add    %al,(%eax)
 e08386e:	00 00                	add    %al,(%eax)
 e083870:	00 00                	add    %al,(%eax)
 e083872:	00 00                	add    %al,(%eax)
 e083874:	00 00                	add    %al,(%eax)
 e083876:	00 00                	add    %al,(%eax)
 e083878:	00 00                	add    %al,(%eax)
 e08387a:	00 00                	add    %al,(%eax)
 e08387c:	00 00                	add    %al,(%eax)
 e08387e:	00 00                	add    %al,(%eax)
 e083880:	00 00                	add    %al,(%eax)
 e083882:	00 00                	add    %al,(%eax)
 e083884:	00 00                	add    %al,(%eax)
 e083886:	00 00                	add    %al,(%eax)
 e083888:	00 00                	add    %al,(%eax)
 e08388a:	00 00                	add    %al,(%eax)
 e08388c:	00 00                	add    %al,(%eax)
 e08388e:	00 00                	add    %al,(%eax)
 e083890:	00 00                	add    %al,(%eax)
 e083892:	00 00                	add    %al,(%eax)
 e083894:	00 00                	add    %al,(%eax)
 e083896:	00 00                	add    %al,(%eax)
 e083898:	00 00                	add    %al,(%eax)
 e08389a:	00 00                	add    %al,(%eax)
 e08389c:	00 00                	add    %al,(%eax)
 e08389e:	00 00                	add    %al,(%eax)
 e0838a0:	00 00                	add    %al,(%eax)
 e0838a2:	00 00                	add    %al,(%eax)
 e0838a4:	00 00                	add    %al,(%eax)
 e0838a6:	00 00                	add    %al,(%eax)
 e0838a8:	00 00                	add    %al,(%eax)
 e0838aa:	00 00                	add    %al,(%eax)
 e0838ac:	00 00                	add    %al,(%eax)
 e0838ae:	00 00                	add    %al,(%eax)
 e0838b0:	00 00                	add    %al,(%eax)
 e0838b2:	00 00                	add    %al,(%eax)
 e0838b4:	00 00                	add    %al,(%eax)
 e0838b6:	00 00                	add    %al,(%eax)
 e0838b8:	00 00                	add    %al,(%eax)
 e0838ba:	00 00                	add    %al,(%eax)
 e0838bc:	00 00                	add    %al,(%eax)
 e0838be:	00 00                	add    %al,(%eax)
 e0838c0:	00 00                	add    %al,(%eax)
 e0838c2:	00 00                	add    %al,(%eax)
 e0838c4:	00 00                	add    %al,(%eax)
 e0838c6:	00 00                	add    %al,(%eax)
 e0838c8:	00 00                	add    %al,(%eax)
 e0838ca:	00 00                	add    %al,(%eax)
 e0838cc:	00 00                	add    %al,(%eax)
 e0838ce:	00 00                	add    %al,(%eax)
 e0838d0:	00 00                	add    %al,(%eax)
 e0838d2:	00 00                	add    %al,(%eax)
 e0838d4:	00 00                	add    %al,(%eax)
 e0838d6:	00 00                	add    %al,(%eax)
 e0838d8:	00 00                	add    %al,(%eax)
 e0838da:	00 00                	add    %al,(%eax)
 e0838dc:	00 00                	add    %al,(%eax)
 e0838de:	00 00                	add    %al,(%eax)
 e0838e0:	00 00                	add    %al,(%eax)
 e0838e2:	00 00                	add    %al,(%eax)
 e0838e4:	00 00                	add    %al,(%eax)
 e0838e6:	00 00                	add    %al,(%eax)
 e0838e8:	00 00                	add    %al,(%eax)
 e0838ea:	00 00                	add    %al,(%eax)
 e0838ec:	00 00                	add    %al,(%eax)
 e0838ee:	00 00                	add    %al,(%eax)
 e0838f0:	00 00                	add    %al,(%eax)
 e0838f2:	00 00                	add    %al,(%eax)
 e0838f4:	00 00                	add    %al,(%eax)
 e0838f6:	00 00                	add    %al,(%eax)
 e0838f8:	00 00                	add    %al,(%eax)
 e0838fa:	00 00                	add    %al,(%eax)
 e0838fc:	00 00                	add    %al,(%eax)
 e0838fe:	00 00                	add    %al,(%eax)
 e083900:	00 00                	add    %al,(%eax)
 e083902:	00 00                	add    %al,(%eax)
 e083904:	00 00                	add    %al,(%eax)
 e083906:	00 00                	add    %al,(%eax)
 e083908:	00 00                	add    %al,(%eax)
 e08390a:	00 00                	add    %al,(%eax)
 e08390c:	00 00                	add    %al,(%eax)
 e08390e:	00 00                	add    %al,(%eax)
 e083910:	00 00                	add    %al,(%eax)
 e083912:	00 00                	add    %al,(%eax)
 e083914:	00 00                	add    %al,(%eax)
 e083916:	00 00                	add    %al,(%eax)
 e083918:	00 00                	add    %al,(%eax)
 e08391a:	00 00                	add    %al,(%eax)
 e08391c:	00 00                	add    %al,(%eax)
 e08391e:	00 00                	add    %al,(%eax)
 e083920:	00 00                	add    %al,(%eax)
 e083922:	00 00                	add    %al,(%eax)
 e083924:	00 00                	add    %al,(%eax)
 e083926:	00 00                	add    %al,(%eax)
 e083928:	00 00                	add    %al,(%eax)
 e08392a:	00 00                	add    %al,(%eax)
 e08392c:	00 00                	add    %al,(%eax)
 e08392e:	00 00                	add    %al,(%eax)
 e083930:	00 00                	add    %al,(%eax)
 e083932:	00 00                	add    %al,(%eax)
 e083934:	00 00                	add    %al,(%eax)
 e083936:	00 00                	add    %al,(%eax)
 e083938:	00 00                	add    %al,(%eax)
 e08393a:	00 00                	add    %al,(%eax)
 e08393c:	00 00                	add    %al,(%eax)
 e08393e:	00 00                	add    %al,(%eax)
 e083940:	00 00                	add    %al,(%eax)
 e083942:	00 00                	add    %al,(%eax)
 e083944:	00 00                	add    %al,(%eax)
 e083946:	00 00                	add    %al,(%eax)
 e083948:	00 00                	add    %al,(%eax)
 e08394a:	00 00                	add    %al,(%eax)
 e08394c:	00 00                	add    %al,(%eax)
 e08394e:	00 00                	add    %al,(%eax)
 e083950:	00 00                	add    %al,(%eax)
 e083952:	00 00                	add    %al,(%eax)
 e083954:	00 00                	add    %al,(%eax)
 e083956:	00 00                	add    %al,(%eax)
 e083958:	00 00                	add    %al,(%eax)
 e08395a:	00 00                	add    %al,(%eax)
 e08395c:	00 00                	add    %al,(%eax)
 e08395e:	00 00                	add    %al,(%eax)
 e083960:	00 00                	add    %al,(%eax)
 e083962:	00 00                	add    %al,(%eax)
 e083964:	00 00                	add    %al,(%eax)
 e083966:	00 00                	add    %al,(%eax)
 e083968:	00 00                	add    %al,(%eax)
 e08396a:	00 00                	add    %al,(%eax)
 e08396c:	00 00                	add    %al,(%eax)
 e08396e:	00 00                	add    %al,(%eax)
 e083970:	00 00                	add    %al,(%eax)
 e083972:	00 00                	add    %al,(%eax)
 e083974:	00 00                	add    %al,(%eax)
 e083976:	00 00                	add    %al,(%eax)
 e083978:	00 00                	add    %al,(%eax)
 e08397a:	00 00                	add    %al,(%eax)
 e08397c:	00 00                	add    %al,(%eax)
 e08397e:	00 00                	add    %al,(%eax)
 e083980:	00 00                	add    %al,(%eax)
 e083982:	00 00                	add    %al,(%eax)
 e083984:	00 00                	add    %al,(%eax)
 e083986:	00 00                	add    %al,(%eax)
 e083988:	00 00                	add    %al,(%eax)
 e08398a:	00 00                	add    %al,(%eax)
 e08398c:	00 00                	add    %al,(%eax)
 e08398e:	00 00                	add    %al,(%eax)
 e083990:	00 00                	add    %al,(%eax)
 e083992:	00 00                	add    %al,(%eax)
 e083994:	00 00                	add    %al,(%eax)
 e083996:	00 00                	add    %al,(%eax)
 e083998:	00 00                	add    %al,(%eax)
 e08399a:	00 00                	add    %al,(%eax)
 e08399c:	00 00                	add    %al,(%eax)
 e08399e:	00 00                	add    %al,(%eax)
 e0839a0:	00 00                	add    %al,(%eax)
 e0839a2:	00 00                	add    %al,(%eax)
 e0839a4:	00 00                	add    %al,(%eax)
 e0839a6:	00 00                	add    %al,(%eax)
 e0839a8:	00 00                	add    %al,(%eax)
 e0839aa:	00 00                	add    %al,(%eax)
 e0839ac:	00 00                	add    %al,(%eax)
 e0839ae:	00 00                	add    %al,(%eax)
 e0839b0:	00 00                	add    %al,(%eax)
 e0839b2:	00 00                	add    %al,(%eax)
 e0839b4:	00 00                	add    %al,(%eax)
 e0839b6:	00 00                	add    %al,(%eax)
 e0839b8:	00 00                	add    %al,(%eax)
 e0839ba:	00 00                	add    %al,(%eax)
 e0839bc:	00 00                	add    %al,(%eax)
 e0839be:	00 00                	add    %al,(%eax)
 e0839c0:	00 00                	add    %al,(%eax)
 e0839c2:	00 00                	add    %al,(%eax)
 e0839c4:	00 00                	add    %al,(%eax)
 e0839c6:	00 00                	add    %al,(%eax)
 e0839c8:	00 00                	add    %al,(%eax)
 e0839ca:	00 00                	add    %al,(%eax)
 e0839cc:	00 00                	add    %al,(%eax)
 e0839ce:	00 00                	add    %al,(%eax)
 e0839d0:	00 00                	add    %al,(%eax)
 e0839d2:	00 00                	add    %al,(%eax)
 e0839d4:	00 00                	add    %al,(%eax)
 e0839d6:	00 00                	add    %al,(%eax)
 e0839d8:	00 00                	add    %al,(%eax)
 e0839da:	00 00                	add    %al,(%eax)
 e0839dc:	00 00                	add    %al,(%eax)
 e0839de:	00 00                	add    %al,(%eax)
 e0839e0:	00 00                	add    %al,(%eax)
 e0839e2:	00 00                	add    %al,(%eax)
 e0839e4:	00 00                	add    %al,(%eax)
 e0839e6:	00 00                	add    %al,(%eax)
 e0839e8:	00 00                	add    %al,(%eax)
 e0839ea:	00 00                	add    %al,(%eax)
 e0839ec:	00 00                	add    %al,(%eax)
 e0839ee:	00 00                	add    %al,(%eax)
 e0839f0:	00 00                	add    %al,(%eax)
 e0839f2:	00 00                	add    %al,(%eax)
 e0839f4:	00 00                	add    %al,(%eax)
 e0839f6:	00 00                	add    %al,(%eax)
 e0839f8:	00 00                	add    %al,(%eax)
 e0839fa:	00 00                	add    %al,(%eax)
 e0839fc:	00 00                	add    %al,(%eax)
 e0839fe:	00 00                	add    %al,(%eax)
 e083a00:	00 00                	add    %al,(%eax)
 e083a02:	00 00                	add    %al,(%eax)
 e083a04:	00 00                	add    %al,(%eax)
 e083a06:	00 00                	add    %al,(%eax)
 e083a08:	00 00                	add    %al,(%eax)
 e083a0a:	00 00                	add    %al,(%eax)
 e083a0c:	00 00                	add    %al,(%eax)
 e083a0e:	00 00                	add    %al,(%eax)
 e083a10:	00 00                	add    %al,(%eax)
 e083a12:	00 00                	add    %al,(%eax)
 e083a14:	00 00                	add    %al,(%eax)
 e083a16:	00 00                	add    %al,(%eax)
 e083a18:	00 00                	add    %al,(%eax)
 e083a1a:	00 00                	add    %al,(%eax)
 e083a1c:	00 00                	add    %al,(%eax)
 e083a1e:	00 00                	add    %al,(%eax)
 e083a20:	00 00                	add    %al,(%eax)
 e083a22:	00 00                	add    %al,(%eax)
 e083a24:	00 00                	add    %al,(%eax)
 e083a26:	00 00                	add    %al,(%eax)
 e083a28:	00 00                	add    %al,(%eax)
 e083a2a:	00 00                	add    %al,(%eax)
 e083a2c:	00 00                	add    %al,(%eax)
 e083a2e:	00 00                	add    %al,(%eax)
 e083a30:	00 00                	add    %al,(%eax)
 e083a32:	00 00                	add    %al,(%eax)
 e083a34:	00 00                	add    %al,(%eax)
 e083a36:	00 00                	add    %al,(%eax)
 e083a38:	00 00                	add    %al,(%eax)
 e083a3a:	00 00                	add    %al,(%eax)
 e083a3c:	00 00                	add    %al,(%eax)
 e083a3e:	00 00                	add    %al,(%eax)
 e083a40:	00 00                	add    %al,(%eax)
 e083a42:	00 00                	add    %al,(%eax)
 e083a44:	00 00                	add    %al,(%eax)
 e083a46:	00 00                	add    %al,(%eax)
 e083a48:	00 00                	add    %al,(%eax)
 e083a4a:	00 00                	add    %al,(%eax)
 e083a4c:	00 00                	add    %al,(%eax)
 e083a4e:	00 00                	add    %al,(%eax)
 e083a50:	00 00                	add    %al,(%eax)
 e083a52:	00 00                	add    %al,(%eax)
 e083a54:	00 00                	add    %al,(%eax)
 e083a56:	00 00                	add    %al,(%eax)
 e083a58:	00 00                	add    %al,(%eax)
 e083a5a:	00 00                	add    %al,(%eax)
 e083a5c:	00 00                	add    %al,(%eax)
 e083a5e:	00 00                	add    %al,(%eax)
 e083a60:	00 00                	add    %al,(%eax)
 e083a62:	00 00                	add    %al,(%eax)
 e083a64:	00 00                	add    %al,(%eax)
 e083a66:	00 00                	add    %al,(%eax)
 e083a68:	00 00                	add    %al,(%eax)
 e083a6a:	00 00                	add    %al,(%eax)
 e083a6c:	00 00                	add    %al,(%eax)
 e083a6e:	00 00                	add    %al,(%eax)
 e083a70:	00 00                	add    %al,(%eax)
 e083a72:	00 00                	add    %al,(%eax)
 e083a74:	00 00                	add    %al,(%eax)
 e083a76:	00 00                	add    %al,(%eax)
 e083a78:	00 00                	add    %al,(%eax)
 e083a7a:	00 00                	add    %al,(%eax)
 e083a7c:	00 00                	add    %al,(%eax)
 e083a7e:	00 00                	add    %al,(%eax)
 e083a80:	00 00                	add    %al,(%eax)
 e083a82:	00 00                	add    %al,(%eax)
 e083a84:	00 00                	add    %al,(%eax)
 e083a86:	00 00                	add    %al,(%eax)
 e083a88:	00 00                	add    %al,(%eax)
 e083a8a:	00 00                	add    %al,(%eax)
 e083a8c:	00 00                	add    %al,(%eax)
 e083a8e:	00 00                	add    %al,(%eax)
 e083a90:	00 00                	add    %al,(%eax)
 e083a92:	00 00                	add    %al,(%eax)
 e083a94:	00 00                	add    %al,(%eax)
 e083a96:	00 00                	add    %al,(%eax)
 e083a98:	00 00                	add    %al,(%eax)
 e083a9a:	00 00                	add    %al,(%eax)
 e083a9c:	00 00                	add    %al,(%eax)
 e083a9e:	00 00                	add    %al,(%eax)
 e083aa0:	00 00                	add    %al,(%eax)
 e083aa2:	00 00                	add    %al,(%eax)
 e083aa4:	00 00                	add    %al,(%eax)
 e083aa6:	00 00                	add    %al,(%eax)
 e083aa8:	00 00                	add    %al,(%eax)
 e083aaa:	00 00                	add    %al,(%eax)
 e083aac:	00 00                	add    %al,(%eax)
 e083aae:	00 00                	add    %al,(%eax)
 e083ab0:	00 00                	add    %al,(%eax)
 e083ab2:	00 00                	add    %al,(%eax)
 e083ab4:	00 00                	add    %al,(%eax)
 e083ab6:	00 00                	add    %al,(%eax)
 e083ab8:	00 00                	add    %al,(%eax)
 e083aba:	00 00                	add    %al,(%eax)
 e083abc:	00 00                	add    %al,(%eax)
 e083abe:	00 00                	add    %al,(%eax)
 e083ac0:	00 00                	add    %al,(%eax)
 e083ac2:	00 00                	add    %al,(%eax)
 e083ac4:	00 00                	add    %al,(%eax)
 e083ac6:	00 00                	add    %al,(%eax)
 e083ac8:	00 00                	add    %al,(%eax)
 e083aca:	00 00                	add    %al,(%eax)
 e083acc:	00 00                	add    %al,(%eax)
 e083ace:	00 00                	add    %al,(%eax)
 e083ad0:	00 00                	add    %al,(%eax)
 e083ad2:	00 00                	add    %al,(%eax)
 e083ad4:	00 00                	add    %al,(%eax)
 e083ad6:	00 00                	add    %al,(%eax)
 e083ad8:	00 00                	add    %al,(%eax)
 e083ada:	00 00                	add    %al,(%eax)
 e083adc:	00 00                	add    %al,(%eax)
 e083ade:	00 00                	add    %al,(%eax)
 e083ae0:	00 00                	add    %al,(%eax)
 e083ae2:	00 00                	add    %al,(%eax)
 e083ae4:	00 00                	add    %al,(%eax)
 e083ae6:	00 00                	add    %al,(%eax)
 e083ae8:	00 00                	add    %al,(%eax)
 e083aea:	00 00                	add    %al,(%eax)
 e083aec:	00 00                	add    %al,(%eax)
 e083aee:	00 00                	add    %al,(%eax)
 e083af0:	00 00                	add    %al,(%eax)
 e083af2:	00 00                	add    %al,(%eax)
 e083af4:	00 00                	add    %al,(%eax)
 e083af6:	00 00                	add    %al,(%eax)
 e083af8:	00 00                	add    %al,(%eax)
 e083afa:	00 00                	add    %al,(%eax)
 e083afc:	00 00                	add    %al,(%eax)
 e083afe:	00 00                	add    %al,(%eax)
 e083b00:	00 00                	add    %al,(%eax)
 e083b02:	00 00                	add    %al,(%eax)
 e083b04:	00 00                	add    %al,(%eax)
 e083b06:	00 00                	add    %al,(%eax)
 e083b08:	00 00                	add    %al,(%eax)
 e083b0a:	00 00                	add    %al,(%eax)
 e083b0c:	00 00                	add    %al,(%eax)
 e083b0e:	00 00                	add    %al,(%eax)
 e083b10:	00 00                	add    %al,(%eax)
 e083b12:	00 00                	add    %al,(%eax)
 e083b14:	00 00                	add    %al,(%eax)
 e083b16:	00 00                	add    %al,(%eax)
 e083b18:	00 00                	add    %al,(%eax)
 e083b1a:	00 00                	add    %al,(%eax)
 e083b1c:	00 00                	add    %al,(%eax)
 e083b1e:	00 00                	add    %al,(%eax)
 e083b20:	00 00                	add    %al,(%eax)
 e083b22:	00 00                	add    %al,(%eax)
 e083b24:	00 00                	add    %al,(%eax)
 e083b26:	00 00                	add    %al,(%eax)
 e083b28:	00 00                	add    %al,(%eax)
 e083b2a:	00 00                	add    %al,(%eax)
 e083b2c:	00 00                	add    %al,(%eax)
 e083b2e:	00 00                	add    %al,(%eax)
 e083b30:	00 00                	add    %al,(%eax)
 e083b32:	00 00                	add    %al,(%eax)
 e083b34:	00 00                	add    %al,(%eax)
 e083b36:	00 00                	add    %al,(%eax)
 e083b38:	00 00                	add    %al,(%eax)
 e083b3a:	00 00                	add    %al,(%eax)
 e083b3c:	00 00                	add    %al,(%eax)
 e083b3e:	00 00                	add    %al,(%eax)
 e083b40:	00 00                	add    %al,(%eax)
 e083b42:	00 00                	add    %al,(%eax)
 e083b44:	00 00                	add    %al,(%eax)
 e083b46:	00 00                	add    %al,(%eax)
 e083b48:	00 00                	add    %al,(%eax)
 e083b4a:	00 00                	add    %al,(%eax)
 e083b4c:	00 00                	add    %al,(%eax)
 e083b4e:	00 00                	add    %al,(%eax)
 e083b50:	00 00                	add    %al,(%eax)
 e083b52:	00 00                	add    %al,(%eax)
 e083b54:	00 00                	add    %al,(%eax)
 e083b56:	00 00                	add    %al,(%eax)
 e083b58:	00 00                	add    %al,(%eax)
 e083b5a:	00 00                	add    %al,(%eax)
 e083b5c:	00 00                	add    %al,(%eax)
 e083b5e:	00 00                	add    %al,(%eax)
 e083b60:	00 00                	add    %al,(%eax)
 e083b62:	00 00                	add    %al,(%eax)
 e083b64:	00 00                	add    %al,(%eax)
 e083b66:	00 00                	add    %al,(%eax)
 e083b68:	00 00                	add    %al,(%eax)
 e083b6a:	00 00                	add    %al,(%eax)
 e083b6c:	00 00                	add    %al,(%eax)
 e083b6e:	00 00                	add    %al,(%eax)
 e083b70:	00 00                	add    %al,(%eax)
 e083b72:	00 00                	add    %al,(%eax)
 e083b74:	00 00                	add    %al,(%eax)
 e083b76:	00 00                	add    %al,(%eax)
 e083b78:	00 00                	add    %al,(%eax)
 e083b7a:	00 00                	add    %al,(%eax)
 e083b7c:	00 00                	add    %al,(%eax)
 e083b7e:	00 00                	add    %al,(%eax)
 e083b80:	00 00                	add    %al,(%eax)
 e083b82:	00 00                	add    %al,(%eax)
 e083b84:	00 00                	add    %al,(%eax)
 e083b86:	00 00                	add    %al,(%eax)
 e083b88:	00 00                	add    %al,(%eax)
 e083b8a:	00 00                	add    %al,(%eax)
 e083b8c:	00 00                	add    %al,(%eax)
 e083b8e:	00 00                	add    %al,(%eax)
 e083b90:	00 00                	add    %al,(%eax)
 e083b92:	00 00                	add    %al,(%eax)
 e083b94:	00 00                	add    %al,(%eax)
 e083b96:	00 00                	add    %al,(%eax)
 e083b98:	00 00                	add    %al,(%eax)
 e083b9a:	00 00                	add    %al,(%eax)
 e083b9c:	00 00                	add    %al,(%eax)
 e083b9e:	00 00                	add    %al,(%eax)
 e083ba0:	00 00                	add    %al,(%eax)
 e083ba2:	00 00                	add    %al,(%eax)
 e083ba4:	00 00                	add    %al,(%eax)
 e083ba6:	00 00                	add    %al,(%eax)
 e083ba8:	00 00                	add    %al,(%eax)
 e083baa:	00 00                	add    %al,(%eax)
 e083bac:	00 00                	add    %al,(%eax)
 e083bae:	00 00                	add    %al,(%eax)
 e083bb0:	00 00                	add    %al,(%eax)
 e083bb2:	00 00                	add    %al,(%eax)
 e083bb4:	00 00                	add    %al,(%eax)
 e083bb6:	00 00                	add    %al,(%eax)
 e083bb8:	00 00                	add    %al,(%eax)
 e083bba:	00 00                	add    %al,(%eax)
 e083bbc:	00 00                	add    %al,(%eax)
 e083bbe:	00 00                	add    %al,(%eax)
 e083bc0:	00 00                	add    %al,(%eax)
 e083bc2:	00 00                	add    %al,(%eax)
 e083bc4:	00 00                	add    %al,(%eax)
 e083bc6:	00 00                	add    %al,(%eax)
 e083bc8:	00 00                	add    %al,(%eax)
 e083bca:	00 00                	add    %al,(%eax)
 e083bcc:	00 00                	add    %al,(%eax)
 e083bce:	00 00                	add    %al,(%eax)
 e083bd0:	00 00                	add    %al,(%eax)
 e083bd2:	00 00                	add    %al,(%eax)
 e083bd4:	00 00                	add    %al,(%eax)
 e083bd6:	00 00                	add    %al,(%eax)
 e083bd8:	00 00                	add    %al,(%eax)
 e083bda:	00 00                	add    %al,(%eax)
 e083bdc:	00 00                	add    %al,(%eax)
 e083bde:	00 00                	add    %al,(%eax)
 e083be0:	00 00                	add    %al,(%eax)
 e083be2:	00 00                	add    %al,(%eax)
 e083be4:	00 00                	add    %al,(%eax)
 e083be6:	00 00                	add    %al,(%eax)
 e083be8:	00 00                	add    %al,(%eax)
 e083bea:	00 00                	add    %al,(%eax)
 e083bec:	00 00                	add    %al,(%eax)
 e083bee:	00 00                	add    %al,(%eax)
 e083bf0:	00 00                	add    %al,(%eax)
 e083bf2:	00 00                	add    %al,(%eax)
 e083bf4:	00 00                	add    %al,(%eax)
 e083bf6:	00 00                	add    %al,(%eax)
 e083bf8:	00 00                	add    %al,(%eax)
 e083bfa:	00 00                	add    %al,(%eax)
 e083bfc:	00 00                	add    %al,(%eax)
 e083bfe:	00 00                	add    %al,(%eax)
 e083c00:	00 00                	add    %al,(%eax)
 e083c02:	00 00                	add    %al,(%eax)
 e083c04:	00 00                	add    %al,(%eax)
 e083c06:	00 00                	add    %al,(%eax)
 e083c08:	00 00                	add    %al,(%eax)
 e083c0a:	00 00                	add    %al,(%eax)
 e083c0c:	00 00                	add    %al,(%eax)
 e083c0e:	00 00                	add    %al,(%eax)
 e083c10:	00 00                	add    %al,(%eax)
 e083c12:	00 00                	add    %al,(%eax)
 e083c14:	00 00                	add    %al,(%eax)
 e083c16:	00 00                	add    %al,(%eax)
 e083c18:	00 00                	add    %al,(%eax)
 e083c1a:	00 00                	add    %al,(%eax)
 e083c1c:	00 00                	add    %al,(%eax)
 e083c1e:	00 00                	add    %al,(%eax)
 e083c20:	00 00                	add    %al,(%eax)
 e083c22:	00 00                	add    %al,(%eax)
 e083c24:	00 00                	add    %al,(%eax)
 e083c26:	00 00                	add    %al,(%eax)
 e083c28:	00 00                	add    %al,(%eax)
 e083c2a:	00 00                	add    %al,(%eax)
 e083c2c:	00 00                	add    %al,(%eax)
 e083c2e:	00 00                	add    %al,(%eax)
 e083c30:	00 00                	add    %al,(%eax)
 e083c32:	00 00                	add    %al,(%eax)
 e083c34:	00 00                	add    %al,(%eax)
 e083c36:	00 00                	add    %al,(%eax)
 e083c38:	00 00                	add    %al,(%eax)
 e083c3a:	00 00                	add    %al,(%eax)
 e083c3c:	00 00                	add    %al,(%eax)
 e083c3e:	00 00                	add    %al,(%eax)
 e083c40:	00 00                	add    %al,(%eax)
 e083c42:	00 00                	add    %al,(%eax)
 e083c44:	00 00                	add    %al,(%eax)
 e083c46:	00 00                	add    %al,(%eax)
 e083c48:	00 00                	add    %al,(%eax)
 e083c4a:	00 00                	add    %al,(%eax)
 e083c4c:	00 00                	add    %al,(%eax)
 e083c4e:	00 00                	add    %al,(%eax)
 e083c50:	00 00                	add    %al,(%eax)
 e083c52:	00 00                	add    %al,(%eax)
 e083c54:	00 00                	add    %al,(%eax)
 e083c56:	00 00                	add    %al,(%eax)
 e083c58:	00 00                	add    %al,(%eax)
 e083c5a:	00 00                	add    %al,(%eax)
 e083c5c:	00 00                	add    %al,(%eax)
 e083c5e:	00 00                	add    %al,(%eax)
 e083c60:	00 00                	add    %al,(%eax)
 e083c62:	00 00                	add    %al,(%eax)
 e083c64:	00 00                	add    %al,(%eax)
 e083c66:	00 00                	add    %al,(%eax)
 e083c68:	00 00                	add    %al,(%eax)
 e083c6a:	00 00                	add    %al,(%eax)
 e083c6c:	00 00                	add    %al,(%eax)
 e083c6e:	00 00                	add    %al,(%eax)
 e083c70:	00 00                	add    %al,(%eax)
 e083c72:	00 00                	add    %al,(%eax)
 e083c74:	00 00                	add    %al,(%eax)
 e083c76:	00 00                	add    %al,(%eax)
 e083c78:	00 00                	add    %al,(%eax)
 e083c7a:	00 00                	add    %al,(%eax)
 e083c7c:	00 00                	add    %al,(%eax)
 e083c7e:	00 00                	add    %al,(%eax)
 e083c80:	00 00                	add    %al,(%eax)
 e083c82:	00 00                	add    %al,(%eax)
 e083c84:	00 00                	add    %al,(%eax)
 e083c86:	00 00                	add    %al,(%eax)
 e083c88:	00 00                	add    %al,(%eax)
 e083c8a:	00 00                	add    %al,(%eax)
 e083c8c:	00 00                	add    %al,(%eax)
 e083c8e:	00 00                	add    %al,(%eax)
 e083c90:	00 00                	add    %al,(%eax)
 e083c92:	00 00                	add    %al,(%eax)
 e083c94:	00 00                	add    %al,(%eax)
 e083c96:	00 00                	add    %al,(%eax)
 e083c98:	00 00                	add    %al,(%eax)
 e083c9a:	00 00                	add    %al,(%eax)
 e083c9c:	00 00                	add    %al,(%eax)
 e083c9e:	00 00                	add    %al,(%eax)
 e083ca0:	00 00                	add    %al,(%eax)
 e083ca2:	00 00                	add    %al,(%eax)
 e083ca4:	00 00                	add    %al,(%eax)
 e083ca6:	00 00                	add    %al,(%eax)
 e083ca8:	00 00                	add    %al,(%eax)
 e083caa:	00 00                	add    %al,(%eax)
 e083cac:	00 00                	add    %al,(%eax)
 e083cae:	00 00                	add    %al,(%eax)
 e083cb0:	00 00                	add    %al,(%eax)
 e083cb2:	00 00                	add    %al,(%eax)
 e083cb4:	00 00                	add    %al,(%eax)
 e083cb6:	00 00                	add    %al,(%eax)
 e083cb8:	00 00                	add    %al,(%eax)
 e083cba:	00 00                	add    %al,(%eax)
 e083cbc:	00 00                	add    %al,(%eax)
 e083cbe:	00 00                	add    %al,(%eax)
 e083cc0:	00 00                	add    %al,(%eax)
 e083cc2:	00 00                	add    %al,(%eax)
 e083cc4:	00 00                	add    %al,(%eax)
 e083cc6:	00 00                	add    %al,(%eax)
 e083cc8:	00 00                	add    %al,(%eax)
 e083cca:	00 00                	add    %al,(%eax)
 e083ccc:	00 00                	add    %al,(%eax)
 e083cce:	00 00                	add    %al,(%eax)
 e083cd0:	00 00                	add    %al,(%eax)
 e083cd2:	00 00                	add    %al,(%eax)
 e083cd4:	00 00                	add    %al,(%eax)
 e083cd6:	00 00                	add    %al,(%eax)
 e083cd8:	00 00                	add    %al,(%eax)
 e083cda:	00 00                	add    %al,(%eax)
 e083cdc:	00 00                	add    %al,(%eax)
 e083cde:	00 00                	add    %al,(%eax)
 e083ce0:	00 00                	add    %al,(%eax)
 e083ce2:	00 00                	add    %al,(%eax)
 e083ce4:	00 00                	add    %al,(%eax)
 e083ce6:	00 00                	add    %al,(%eax)
 e083ce8:	00 00                	add    %al,(%eax)
 e083cea:	00 00                	add    %al,(%eax)
 e083cec:	00 00                	add    %al,(%eax)
 e083cee:	00 00                	add    %al,(%eax)
 e083cf0:	00 00                	add    %al,(%eax)
 e083cf2:	00 00                	add    %al,(%eax)
 e083cf4:	00 00                	add    %al,(%eax)
 e083cf6:	00 00                	add    %al,(%eax)
 e083cf8:	00 00                	add    %al,(%eax)
 e083cfa:	00 00                	add    %al,(%eax)
 e083cfc:	00 00                	add    %al,(%eax)
 e083cfe:	00 00                	add    %al,(%eax)
 e083d00:	00 00                	add    %al,(%eax)
 e083d02:	00 00                	add    %al,(%eax)
 e083d04:	00 00                	add    %al,(%eax)
 e083d06:	00 00                	add    %al,(%eax)
 e083d08:	00 00                	add    %al,(%eax)
 e083d0a:	00 00                	add    %al,(%eax)
 e083d0c:	00 00                	add    %al,(%eax)
 e083d0e:	00 00                	add    %al,(%eax)
 e083d10:	00 00                	add    %al,(%eax)
 e083d12:	00 00                	add    %al,(%eax)
 e083d14:	00 00                	add    %al,(%eax)
 e083d16:	00 00                	add    %al,(%eax)
 e083d18:	00 00                	add    %al,(%eax)
 e083d1a:	00 00                	add    %al,(%eax)
 e083d1c:	00 00                	add    %al,(%eax)
 e083d1e:	00 00                	add    %al,(%eax)
 e083d20:	00 00                	add    %al,(%eax)
 e083d22:	00 00                	add    %al,(%eax)
 e083d24:	00 00                	add    %al,(%eax)
 e083d26:	00 00                	add    %al,(%eax)
 e083d28:	00 00                	add    %al,(%eax)
 e083d2a:	00 00                	add    %al,(%eax)
 e083d2c:	00 00                	add    %al,(%eax)
 e083d2e:	00 00                	add    %al,(%eax)
 e083d30:	00 00                	add    %al,(%eax)
 e083d32:	00 00                	add    %al,(%eax)
 e083d34:	00 00                	add    %al,(%eax)
 e083d36:	00 00                	add    %al,(%eax)
 e083d38:	00 00                	add    %al,(%eax)
 e083d3a:	00 00                	add    %al,(%eax)
 e083d3c:	00 00                	add    %al,(%eax)
 e083d3e:	00 00                	add    %al,(%eax)
 e083d40:	00 00                	add    %al,(%eax)
 e083d42:	00 00                	add    %al,(%eax)
 e083d44:	00 00                	add    %al,(%eax)
 e083d46:	00 00                	add    %al,(%eax)
 e083d48:	00 00                	add    %al,(%eax)
 e083d4a:	00 00                	add    %al,(%eax)
 e083d4c:	00 00                	add    %al,(%eax)
 e083d4e:	00 00                	add    %al,(%eax)
 e083d50:	00 00                	add    %al,(%eax)
 e083d52:	00 00                	add    %al,(%eax)
 e083d54:	00 00                	add    %al,(%eax)
 e083d56:	00 00                	add    %al,(%eax)
 e083d58:	00 00                	add    %al,(%eax)
 e083d5a:	00 00                	add    %al,(%eax)
 e083d5c:	00 00                	add    %al,(%eax)
 e083d5e:	00 00                	add    %al,(%eax)
 e083d60:	00 00                	add    %al,(%eax)
 e083d62:	00 00                	add    %al,(%eax)
 e083d64:	00 00                	add    %al,(%eax)
 e083d66:	00 00                	add    %al,(%eax)
 e083d68:	00 00                	add    %al,(%eax)
 e083d6a:	00 00                	add    %al,(%eax)
 e083d6c:	00 00                	add    %al,(%eax)
 e083d6e:	00 00                	add    %al,(%eax)
 e083d70:	00 00                	add    %al,(%eax)
 e083d72:	00 00                	add    %al,(%eax)
 e083d74:	00 00                	add    %al,(%eax)
 e083d76:	00 00                	add    %al,(%eax)
 e083d78:	00 00                	add    %al,(%eax)
 e083d7a:	00 00                	add    %al,(%eax)
 e083d7c:	00 00                	add    %al,(%eax)
 e083d7e:	00 00                	add    %al,(%eax)
 e083d80:	00 00                	add    %al,(%eax)
 e083d82:	00 00                	add    %al,(%eax)
 e083d84:	00 00                	add    %al,(%eax)
 e083d86:	00 00                	add    %al,(%eax)
 e083d88:	00 00                	add    %al,(%eax)
 e083d8a:	00 00                	add    %al,(%eax)
 e083d8c:	00 00                	add    %al,(%eax)
 e083d8e:	00 00                	add    %al,(%eax)
 e083d90:	00 00                	add    %al,(%eax)
 e083d92:	00 00                	add    %al,(%eax)
 e083d94:	00 00                	add    %al,(%eax)
 e083d96:	00 00                	add    %al,(%eax)
 e083d98:	00 00                	add    %al,(%eax)
 e083d9a:	00 00                	add    %al,(%eax)
 e083d9c:	00 00                	add    %al,(%eax)
 e083d9e:	00 00                	add    %al,(%eax)
 e083da0:	00 00                	add    %al,(%eax)
 e083da2:	00 00                	add    %al,(%eax)
 e083da4:	00 00                	add    %al,(%eax)
 e083da6:	00 00                	add    %al,(%eax)
 e083da8:	00 00                	add    %al,(%eax)
 e083daa:	00 00                	add    %al,(%eax)
 e083dac:	00 00                	add    %al,(%eax)
 e083dae:	00 00                	add    %al,(%eax)
 e083db0:	00 00                	add    %al,(%eax)
 e083db2:	00 00                	add    %al,(%eax)
 e083db4:	00 00                	add    %al,(%eax)
 e083db6:	00 00                	add    %al,(%eax)
 e083db8:	00 00                	add    %al,(%eax)
 e083dba:	00 00                	add    %al,(%eax)
 e083dbc:	00 00                	add    %al,(%eax)
 e083dbe:	00 00                	add    %al,(%eax)
 e083dc0:	00 00                	add    %al,(%eax)
 e083dc2:	00 00                	add    %al,(%eax)
 e083dc4:	00 00                	add    %al,(%eax)
 e083dc6:	00 00                	add    %al,(%eax)
 e083dc8:	00 00                	add    %al,(%eax)
 e083dca:	00 00                	add    %al,(%eax)
 e083dcc:	00 00                	add    %al,(%eax)
 e083dce:	00 00                	add    %al,(%eax)
 e083dd0:	00 00                	add    %al,(%eax)
 e083dd2:	00 00                	add    %al,(%eax)
 e083dd4:	00 00                	add    %al,(%eax)
 e083dd6:	00 00                	add    %al,(%eax)
 e083dd8:	00 00                	add    %al,(%eax)
 e083dda:	00 00                	add    %al,(%eax)
 e083ddc:	00 00                	add    %al,(%eax)
 e083dde:	00 00                	add    %al,(%eax)
 e083de0:	00 00                	add    %al,(%eax)
 e083de2:	00 00                	add    %al,(%eax)
 e083de4:	00 00                	add    %al,(%eax)
 e083de6:	00 00                	add    %al,(%eax)
 e083de8:	00 00                	add    %al,(%eax)
 e083dea:	00 00                	add    %al,(%eax)
 e083dec:	00 00                	add    %al,(%eax)
 e083dee:	00 00                	add    %al,(%eax)
 e083df0:	00 00                	add    %al,(%eax)
 e083df2:	00 00                	add    %al,(%eax)
 e083df4:	00 00                	add    %al,(%eax)
 e083df6:	00 00                	add    %al,(%eax)
 e083df8:	00 00                	add    %al,(%eax)
 e083dfa:	00 00                	add    %al,(%eax)
 e083dfc:	00 00                	add    %al,(%eax)
 e083dfe:	00 00                	add    %al,(%eax)
 e083e00:	00 00                	add    %al,(%eax)
 e083e02:	00 00                	add    %al,(%eax)
 e083e04:	00 00                	add    %al,(%eax)
 e083e06:	00 00                	add    %al,(%eax)
 e083e08:	00 00                	add    %al,(%eax)
 e083e0a:	00 00                	add    %al,(%eax)
 e083e0c:	00 00                	add    %al,(%eax)
 e083e0e:	00 00                	add    %al,(%eax)
 e083e10:	00 00                	add    %al,(%eax)
 e083e12:	00 00                	add    %al,(%eax)
 e083e14:	00 00                	add    %al,(%eax)
 e083e16:	00 00                	add    %al,(%eax)
 e083e18:	00 00                	add    %al,(%eax)
 e083e1a:	00 00                	add    %al,(%eax)
 e083e1c:	00 00                	add    %al,(%eax)
 e083e1e:	00 00                	add    %al,(%eax)
 e083e20:	00 00                	add    %al,(%eax)
 e083e22:	00 00                	add    %al,(%eax)
 e083e24:	00 00                	add    %al,(%eax)
 e083e26:	00 00                	add    %al,(%eax)
 e083e28:	00 00                	add    %al,(%eax)
 e083e2a:	00 00                	add    %al,(%eax)
 e083e2c:	00 00                	add    %al,(%eax)
 e083e2e:	00 00                	add    %al,(%eax)
 e083e30:	00 00                	add    %al,(%eax)
 e083e32:	00 00                	add    %al,(%eax)
 e083e34:	00 00                	add    %al,(%eax)
 e083e36:	00 00                	add    %al,(%eax)
 e083e38:	00 00                	add    %al,(%eax)
 e083e3a:	00 00                	add    %al,(%eax)
 e083e3c:	00 00                	add    %al,(%eax)
 e083e3e:	00 00                	add    %al,(%eax)
 e083e40:	00 00                	add    %al,(%eax)
 e083e42:	00 00                	add    %al,(%eax)
 e083e44:	00 00                	add    %al,(%eax)
 e083e46:	00 00                	add    %al,(%eax)
 e083e48:	00 00                	add    %al,(%eax)
 e083e4a:	00 00                	add    %al,(%eax)
 e083e4c:	00 00                	add    %al,(%eax)
 e083e4e:	00 00                	add    %al,(%eax)
 e083e50:	00 00                	add    %al,(%eax)
 e083e52:	00 00                	add    %al,(%eax)
 e083e54:	00 00                	add    %al,(%eax)
 e083e56:	00 00                	add    %al,(%eax)
 e083e58:	00 00                	add    %al,(%eax)
 e083e5a:	00 00                	add    %al,(%eax)
 e083e5c:	00 00                	add    %al,(%eax)
 e083e5e:	00 00                	add    %al,(%eax)
 e083e60:	00 00                	add    %al,(%eax)
 e083e62:	00 00                	add    %al,(%eax)
 e083e64:	00 00                	add    %al,(%eax)
 e083e66:	00 00                	add    %al,(%eax)
 e083e68:	00 00                	add    %al,(%eax)
 e083e6a:	00 00                	add    %al,(%eax)
 e083e6c:	00 00                	add    %al,(%eax)
 e083e6e:	00 00                	add    %al,(%eax)
 e083e70:	00 00                	add    %al,(%eax)
 e083e72:	00 00                	add    %al,(%eax)
 e083e74:	00 00                	add    %al,(%eax)
 e083e76:	00 00                	add    %al,(%eax)
 e083e78:	00 00                	add    %al,(%eax)
 e083e7a:	00 00                	add    %al,(%eax)
 e083e7c:	00 00                	add    %al,(%eax)
 e083e7e:	00 00                	add    %al,(%eax)
 e083e80:	00 00                	add    %al,(%eax)
 e083e82:	00 00                	add    %al,(%eax)
 e083e84:	00 00                	add    %al,(%eax)
 e083e86:	00 00                	add    %al,(%eax)
 e083e88:	00 00                	add    %al,(%eax)
 e083e8a:	00 00                	add    %al,(%eax)
 e083e8c:	00 00                	add    %al,(%eax)
 e083e8e:	00 00                	add    %al,(%eax)
 e083e90:	00 00                	add    %al,(%eax)
 e083e92:	00 00                	add    %al,(%eax)
 e083e94:	00 00                	add    %al,(%eax)
 e083e96:	00 00                	add    %al,(%eax)
 e083e98:	00 00                	add    %al,(%eax)
 e083e9a:	00 00                	add    %al,(%eax)
 e083e9c:	00 00                	add    %al,(%eax)
 e083e9e:	00 00                	add    %al,(%eax)
 e083ea0:	00 00                	add    %al,(%eax)
 e083ea2:	00 00                	add    %al,(%eax)
 e083ea4:	00 00                	add    %al,(%eax)
 e083ea6:	00 00                	add    %al,(%eax)
 e083ea8:	00 00                	add    %al,(%eax)
 e083eaa:	00 00                	add    %al,(%eax)
 e083eac:	00 00                	add    %al,(%eax)
 e083eae:	00 00                	add    %al,(%eax)
 e083eb0:	00 00                	add    %al,(%eax)
 e083eb2:	00 00                	add    %al,(%eax)
 e083eb4:	00 00                	add    %al,(%eax)
 e083eb6:	00 00                	add    %al,(%eax)
 e083eb8:	00 00                	add    %al,(%eax)
 e083eba:	00 00                	add    %al,(%eax)
 e083ebc:	00 00                	add    %al,(%eax)
 e083ebe:	00 00                	add    %al,(%eax)
 e083ec0:	00 00                	add    %al,(%eax)
 e083ec2:	00 00                	add    %al,(%eax)
 e083ec4:	00 00                	add    %al,(%eax)
 e083ec6:	00 00                	add    %al,(%eax)
 e083ec8:	00 00                	add    %al,(%eax)
 e083eca:	00 00                	add    %al,(%eax)
 e083ecc:	00 00                	add    %al,(%eax)
 e083ece:	00 00                	add    %al,(%eax)
 e083ed0:	00 00                	add    %al,(%eax)
 e083ed2:	00 00                	add    %al,(%eax)
 e083ed4:	00 00                	add    %al,(%eax)
 e083ed6:	00 00                	add    %al,(%eax)
 e083ed8:	00 00                	add    %al,(%eax)
 e083eda:	00 00                	add    %al,(%eax)
 e083edc:	00 00                	add    %al,(%eax)
 e083ede:	00 00                	add    %al,(%eax)
 e083ee0:	00 00                	add    %al,(%eax)
 e083ee2:	00 00                	add    %al,(%eax)
 e083ee4:	00 00                	add    %al,(%eax)
 e083ee6:	00 00                	add    %al,(%eax)
 e083ee8:	00 00                	add    %al,(%eax)
 e083eea:	00 00                	add    %al,(%eax)
 e083eec:	00 00                	add    %al,(%eax)
 e083eee:	00 00                	add    %al,(%eax)
 e083ef0:	00 00                	add    %al,(%eax)
 e083ef2:	00 00                	add    %al,(%eax)
 e083ef4:	00 00                	add    %al,(%eax)
 e083ef6:	00 00                	add    %al,(%eax)
 e083ef8:	00 00                	add    %al,(%eax)
 e083efa:	00 00                	add    %al,(%eax)
 e083efc:	00 00                	add    %al,(%eax)
 e083efe:	00 00                	add    %al,(%eax)
 e083f00:	00 00                	add    %al,(%eax)
 e083f02:	00 00                	add    %al,(%eax)
 e083f04:	00 00                	add    %al,(%eax)
 e083f06:	00 00                	add    %al,(%eax)
 e083f08:	00 00                	add    %al,(%eax)
 e083f0a:	00 00                	add    %al,(%eax)
 e083f0c:	00 00                	add    %al,(%eax)
 e083f0e:	00 00                	add    %al,(%eax)
 e083f10:	00 00                	add    %al,(%eax)
 e083f12:	00 00                	add    %al,(%eax)
 e083f14:	00 00                	add    %al,(%eax)
 e083f16:	00 00                	add    %al,(%eax)
 e083f18:	00 00                	add    %al,(%eax)
 e083f1a:	00 00                	add    %al,(%eax)
 e083f1c:	00 00                	add    %al,(%eax)
 e083f1e:	00 00                	add    %al,(%eax)
 e083f20:	00 00                	add    %al,(%eax)
 e083f22:	00 00                	add    %al,(%eax)
 e083f24:	00 00                	add    %al,(%eax)
 e083f26:	00 00                	add    %al,(%eax)
 e083f28:	00 00                	add    %al,(%eax)
 e083f2a:	00 00                	add    %al,(%eax)
 e083f2c:	00 00                	add    %al,(%eax)
 e083f2e:	00 00                	add    %al,(%eax)
 e083f30:	00 00                	add    %al,(%eax)
 e083f32:	00 00                	add    %al,(%eax)
 e083f34:	00 00                	add    %al,(%eax)
 e083f36:	00 00                	add    %al,(%eax)
 e083f38:	00 00                	add    %al,(%eax)
 e083f3a:	00 00                	add    %al,(%eax)
 e083f3c:	00 00                	add    %al,(%eax)
 e083f3e:	00 00                	add    %al,(%eax)
 e083f40:	00 00                	add    %al,(%eax)
 e083f42:	00 00                	add    %al,(%eax)
 e083f44:	00 00                	add    %al,(%eax)
 e083f46:	00 00                	add    %al,(%eax)
 e083f48:	00 00                	add    %al,(%eax)
 e083f4a:	00 00                	add    %al,(%eax)
 e083f4c:	00 00                	add    %al,(%eax)
 e083f4e:	00 00                	add    %al,(%eax)
 e083f50:	00 00                	add    %al,(%eax)
 e083f52:	00 00                	add    %al,(%eax)
 e083f54:	00 00                	add    %al,(%eax)
 e083f56:	00 00                	add    %al,(%eax)
 e083f58:	00 00                	add    %al,(%eax)
 e083f5a:	00 00                	add    %al,(%eax)
 e083f5c:	00 00                	add    %al,(%eax)
 e083f5e:	00 00                	add    %al,(%eax)
 e083f60:	00 00                	add    %al,(%eax)
 e083f62:	00 00                	add    %al,(%eax)
 e083f64:	00 00                	add    %al,(%eax)
 e083f66:	00 00                	add    %al,(%eax)
 e083f68:	00 00                	add    %al,(%eax)
 e083f6a:	00 00                	add    %al,(%eax)
 e083f6c:	00 00                	add    %al,(%eax)
 e083f6e:	00 00                	add    %al,(%eax)
 e083f70:	00 00                	add    %al,(%eax)
 e083f72:	00 00                	add    %al,(%eax)
 e083f74:	00 00                	add    %al,(%eax)
 e083f76:	00 00                	add    %al,(%eax)
 e083f78:	00 00                	add    %al,(%eax)
 e083f7a:	00 00                	add    %al,(%eax)
 e083f7c:	00 00                	add    %al,(%eax)
 e083f7e:	00 00                	add    %al,(%eax)
 e083f80:	00 00                	add    %al,(%eax)
 e083f82:	00 00                	add    %al,(%eax)
 e083f84:	00 00                	add    %al,(%eax)
 e083f86:	00 00                	add    %al,(%eax)
 e083f88:	00 00                	add    %al,(%eax)
 e083f8a:	00 00                	add    %al,(%eax)
 e083f8c:	00 00                	add    %al,(%eax)
 e083f8e:	00 00                	add    %al,(%eax)
 e083f90:	00 00                	add    %al,(%eax)
 e083f92:	00 00                	add    %al,(%eax)
 e083f94:	00 00                	add    %al,(%eax)
 e083f96:	00 00                	add    %al,(%eax)
 e083f98:	00 00                	add    %al,(%eax)
 e083f9a:	00 00                	add    %al,(%eax)
 e083f9c:	00 00                	add    %al,(%eax)
 e083f9e:	00 00                	add    %al,(%eax)
 e083fa0:	00 00                	add    %al,(%eax)
 e083fa2:	00 00                	add    %al,(%eax)
 e083fa4:	00 00                	add    %al,(%eax)
 e083fa6:	00 00                	add    %al,(%eax)
 e083fa8:	00 00                	add    %al,(%eax)
 e083faa:	00 00                	add    %al,(%eax)
 e083fac:	00 00                	add    %al,(%eax)
 e083fae:	00 00                	add    %al,(%eax)
 e083fb0:	00 00                	add    %al,(%eax)
 e083fb2:	00 00                	add    %al,(%eax)
 e083fb4:	00 00                	add    %al,(%eax)
 e083fb6:	00 00                	add    %al,(%eax)
 e083fb8:	00 00                	add    %al,(%eax)
 e083fba:	00 00                	add    %al,(%eax)
 e083fbc:	00 00                	add    %al,(%eax)
 e083fbe:	00 00                	add    %al,(%eax)
 e083fc0:	00 00                	add    %al,(%eax)
 e083fc2:	00 00                	add    %al,(%eax)
 e083fc4:	00 00                	add    %al,(%eax)
 e083fc6:	00 00                	add    %al,(%eax)
 e083fc8:	00 00                	add    %al,(%eax)
 e083fca:	00 00                	add    %al,(%eax)
 e083fcc:	00 00                	add    %al,(%eax)
 e083fce:	00 00                	add    %al,(%eax)
 e083fd0:	00 00                	add    %al,(%eax)
 e083fd2:	00 00                	add    %al,(%eax)
 e083fd4:	00 00                	add    %al,(%eax)
 e083fd6:	00 00                	add    %al,(%eax)
 e083fd8:	00 00                	add    %al,(%eax)
 e083fda:	00 00                	add    %al,(%eax)
 e083fdc:	00 00                	add    %al,(%eax)
 e083fde:	00 00                	add    %al,(%eax)
 e083fe0:	00 00                	add    %al,(%eax)
 e083fe2:	00 00                	add    %al,(%eax)
 e083fe4:	00 00                	add    %al,(%eax)
 e083fe6:	00 00                	add    %al,(%eax)
 e083fe8:	00 00                	add    %al,(%eax)
 e083fea:	00 00                	add    %al,(%eax)
 e083fec:	00 00                	add    %al,(%eax)
 e083fee:	00 00                	add    %al,(%eax)
 e083ff0:	00 00                	add    %al,(%eax)
 e083ff2:	00 00                	add    %al,(%eax)
 e083ff4:	00 00                	add    %al,(%eax)
 e083ff6:	00 00                	add    %al,(%eax)
 e083ff8:	00 00                	add    %al,(%eax)
 e083ffa:	00 00                	add    %al,(%eax)
 e083ffc:	00 00                	add    %al,(%eax)
 e083ffe:	00 00                	add    %al,(%eax)
 e084000:	00 00                	add    %al,(%eax)
 e084002:	00 00                	add    %al,(%eax)
 e084004:	00 00                	add    %al,(%eax)
 e084006:	00 00                	add    %al,(%eax)
 e084008:	ff                   	(bad)  
 e084009:	ff 00                	incl   (%eax)
 e08400b:	00 00                	add    %al,(%eax)
 e08400d:	9a bf 00 ff ff 00 00 	lcall  $0x0,$0xffff00bf
 e084014:	00 92 00 00 ff ff    	add    %dl,0xffff0000(%edx)
 e08401a:	00 a0 08 0b 00 fe    	add    %ah,0xfe000b08(%eax)
 e084020:	00 00                	add    %al,(%eax)
 e084022:	00 00                	add    %al,(%eax)
 e084024:	00 00                	add    %al,(%eax)
 e084026:	00 00                	add    %al,(%eax)

0e084028 <GDT_TMP>:
 e084028:	00 00                	add    %al,(%eax)
 e08402a:	00 00                	add    %al,(%eax)
 e08402c:	00 00                	add    %al,(%eax)
 e08402e:	00 00                	add    %al,(%eax)
 e084030:	00 00                	add    %al,(%eax)
 e084032:	00 00                	add    %al,(%eax)
 e084034:	00 00                	add    %al,(%eax)
 e084036:	00 00                	add    %al,(%eax)
 e084038:	00 00                	add    %al,(%eax)
 e08403a:	00 00                	add    %al,(%eax)
 e08403c:	00 00                	add    %al,(%eax)
 e08403e:	00 00                	add    %al,(%eax)
 e084040:	00 00                	add    %al,(%eax)
 e084042:	00 00                	add    %al,(%eax)
 e084044:	00 00                	add    %al,(%eax)
 e084046:	00 00                	add    %al,(%eax)
 e084048:	00 00                	add    %al,(%eax)
 e08404a:	00 00                	add    %al,(%eax)
 e08404c:	00 00                	add    %al,(%eax)
 e08404e:	00 00                	add    %al,(%eax)
 e084050:	00 00                	add    %al,(%eax)
 e084052:	00 00                	add    %al,(%eax)
 e084054:	00 00                	add    %al,(%eax)
 e084056:	00 00                	add    %al,(%eax)
 e084058:	00 00                	add    %al,(%eax)
 e08405a:	00 00                	add    %al,(%eax)
 e08405c:	00 00                	add    %al,(%eax)
 e08405e:	00 00                	add    %al,(%eax)
 e084060:	00 00                	add    %al,(%eax)
 e084062:	00 00                	add    %al,(%eax)
 e084064:	00 00                	add    %al,(%eax)
 e084066:	00 00                	add    %al,(%eax)
 e084068:	00 00                	add    %al,(%eax)
 e08406a:	00 00                	add    %al,(%eax)
 e08406c:	00 00                	add    %al,(%eax)
 e08406e:	00 00                	add    %al,(%eax)
 e084070:	00 00                	add    %al,(%eax)
 e084072:	00 00                	add    %al,(%eax)
 e084074:	00 00                	add    %al,(%eax)
 e084076:	00 00                	add    %al,(%eax)
 e084078:	00 00                	add    %al,(%eax)
 e08407a:	00 00                	add    %al,(%eax)
 e08407c:	00 00                	add    %al,(%eax)
 e08407e:	00 00                	add    %al,(%eax)
 e084080:	00 00                	add    %al,(%eax)
 e084082:	00 00                	add    %al,(%eax)
 e084084:	00 00                	add    %al,(%eax)
 e084086:	00 00                	add    %al,(%eax)
 e084088:	00 00                	add    %al,(%eax)
 e08408a:	00 00                	add    %al,(%eax)
 e08408c:	00 00                	add    %al,(%eax)
 e08408e:	00 00                	add    %al,(%eax)
 e084090:	00 00                	add    %al,(%eax)
 e084092:	00 00                	add    %al,(%eax)
 e084094:	00 00                	add    %al,(%eax)
 e084096:	00 00                	add    %al,(%eax)
 e084098:	00 00                	add    %al,(%eax)
 e08409a:	00 00                	add    %al,(%eax)
 e08409c:	00 00                	add    %al,(%eax)
 e08409e:	00 00                	add    %al,(%eax)
 e0840a0:	00 00                	add    %al,(%eax)
 e0840a2:	00 00                	add    %al,(%eax)
 e0840a4:	00 00                	add    %al,(%eax)
 e0840a6:	00 00                	add    %al,(%eax)
 e0840a8:	00 00                	add    %al,(%eax)
 e0840aa:	00 00                	add    %al,(%eax)
 e0840ac:	00 00                	add    %al,(%eax)
 e0840ae:	00 00                	add    %al,(%eax)
 e0840b0:	00 00                	add    %al,(%eax)
 e0840b2:	00 00                	add    %al,(%eax)
 e0840b4:	00 00                	add    %al,(%eax)
 e0840b6:	00 00                	add    %al,(%eax)
 e0840b8:	00 00                	add    %al,(%eax)
 e0840ba:	00 00                	add    %al,(%eax)
 e0840bc:	00 00                	add    %al,(%eax)
 e0840be:	00 00                	add    %al,(%eax)
 e0840c0:	00 00                	add    %al,(%eax)
 e0840c2:	00 00                	add    %al,(%eax)
 e0840c4:	00 00                	add    %al,(%eax)
 e0840c6:	00 00                	add    %al,(%eax)
 e0840c8:	00 00                	add    %al,(%eax)
 e0840ca:	00 00                	add    %al,(%eax)
 e0840cc:	00 00                	add    %al,(%eax)
 e0840ce:	00 00                	add    %al,(%eax)
 e0840d0:	00 00                	add    %al,(%eax)
 e0840d2:	00 00                	add    %al,(%eax)
 e0840d4:	00 00                	add    %al,(%eax)
 e0840d6:	00 00                	add    %al,(%eax)
 e0840d8:	00 00                	add    %al,(%eax)
 e0840da:	00 00                	add    %al,(%eax)
 e0840dc:	00 00                	add    %al,(%eax)
 e0840de:	00 00                	add    %al,(%eax)
 e0840e0:	00 00                	add    %al,(%eax)
 e0840e2:	00 00                	add    %al,(%eax)
 e0840e4:	00 00                	add    %al,(%eax)
 e0840e6:	00 00                	add    %al,(%eax)
 e0840e8:	00 00                	add    %al,(%eax)
 e0840ea:	00 00                	add    %al,(%eax)
 e0840ec:	00 00                	add    %al,(%eax)
 e0840ee:	00 00                	add    %al,(%eax)
 e0840f0:	00 00                	add    %al,(%eax)
 e0840f2:	00 00                	add    %al,(%eax)
 e0840f4:	00 00                	add    %al,(%eax)
 e0840f6:	00 00                	add    %al,(%eax)
 e0840f8:	00 00                	add    %al,(%eax)
 e0840fa:	00 00                	add    %al,(%eax)
 e0840fc:	00 00                	add    %al,(%eax)
 e0840fe:	00 00                	add    %al,(%eax)
 e084100:	00 00                	add    %al,(%eax)
 e084102:	00 00                	add    %al,(%eax)
 e084104:	00 00                	add    %al,(%eax)
 e084106:	00 00                	add    %al,(%eax)
 e084108:	00 00                	add    %al,(%eax)
 e08410a:	00 00                	add    %al,(%eax)
 e08410c:	00 00                	add    %al,(%eax)
 e08410e:	00 00                	add    %al,(%eax)
 e084110:	00 00                	add    %al,(%eax)
 e084112:	00 00                	add    %al,(%eax)
 e084114:	00 00                	add    %al,(%eax)
 e084116:	00 00                	add    %al,(%eax)
 e084118:	00 00                	add    %al,(%eax)
 e08411a:	00 00                	add    %al,(%eax)
 e08411c:	00 00                	add    %al,(%eax)
 e08411e:	00 00                	add    %al,(%eax)
 e084120:	00 00                	add    %al,(%eax)
 e084122:	00 00                	add    %al,(%eax)
 e084124:	00 00                	add    %al,(%eax)
 e084126:	00 00                	add    %al,(%eax)
 e084128:	00 00                	add    %al,(%eax)
 e08412a:	00 00                	add    %al,(%eax)
 e08412c:	00 00                	add    %al,(%eax)
 e08412e:	00 00                	add    %al,(%eax)
 e084130:	00 00                	add    %al,(%eax)
 e084132:	00 00                	add    %al,(%eax)
 e084134:	00 00                	add    %al,(%eax)
 e084136:	00 00                	add    %al,(%eax)
 e084138:	00 00                	add    %al,(%eax)
 e08413a:	00 00                	add    %al,(%eax)
 e08413c:	00 00                	add    %al,(%eax)
 e08413e:	00 00                	add    %al,(%eax)
 e084140:	00 00                	add    %al,(%eax)
 e084142:	00 00                	add    %al,(%eax)
 e084144:	00 00                	add    %al,(%eax)
 e084146:	00 00                	add    %al,(%eax)
 e084148:	00 00                	add    %al,(%eax)
 e08414a:	00 00                	add    %al,(%eax)
 e08414c:	00 00                	add    %al,(%eax)
 e08414e:	00 00                	add    %al,(%eax)
 e084150:	00 00                	add    %al,(%eax)
 e084152:	00 00                	add    %al,(%eax)
 e084154:	00 00                	add    %al,(%eax)
 e084156:	00 00                	add    %al,(%eax)
 e084158:	00 00                	add    %al,(%eax)
 e08415a:	00 00                	add    %al,(%eax)
 e08415c:	00 00                	add    %al,(%eax)
 e08415e:	00 00                	add    %al,(%eax)
 e084160:	00 00                	add    %al,(%eax)
 e084162:	00 00                	add    %al,(%eax)
 e084164:	00 00                	add    %al,(%eax)
 e084166:	00 00                	add    %al,(%eax)
 e084168:	00 00                	add    %al,(%eax)
 e08416a:	00 00                	add    %al,(%eax)
 e08416c:	00 00                	add    %al,(%eax)
 e08416e:	00 00                	add    %al,(%eax)
 e084170:	00 00                	add    %al,(%eax)
 e084172:	00 00                	add    %al,(%eax)
 e084174:	00 00                	add    %al,(%eax)
 e084176:	00 00                	add    %al,(%eax)
 e084178:	00 00                	add    %al,(%eax)
 e08417a:	00 00                	add    %al,(%eax)
 e08417c:	00 00                	add    %al,(%eax)
 e08417e:	00 00                	add    %al,(%eax)
 e084180:	00 00                	add    %al,(%eax)
 e084182:	00 00                	add    %al,(%eax)
 e084184:	00 00                	add    %al,(%eax)
 e084186:	00 00                	add    %al,(%eax)
 e084188:	00 00                	add    %al,(%eax)
 e08418a:	00 00                	add    %al,(%eax)
 e08418c:	00 00                	add    %al,(%eax)
 e08418e:	00 00                	add    %al,(%eax)
 e084190:	00 00                	add    %al,(%eax)
 e084192:	00 00                	add    %al,(%eax)
 e084194:	00 00                	add    %al,(%eax)
 e084196:	00 00                	add    %al,(%eax)
 e084198:	00 00                	add    %al,(%eax)
 e08419a:	00 00                	add    %al,(%eax)
 e08419c:	00 00                	add    %al,(%eax)
 e08419e:	00 00                	add    %al,(%eax)
 e0841a0:	00 00                	add    %al,(%eax)
 e0841a2:	00 00                	add    %al,(%eax)
 e0841a4:	00 00                	add    %al,(%eax)
 e0841a6:	00 00                	add    %al,(%eax)
 e0841a8:	00 00                	add    %al,(%eax)
 e0841aa:	00 00                	add    %al,(%eax)
 e0841ac:	00 00                	add    %al,(%eax)
 e0841ae:	00 00                	add    %al,(%eax)
 e0841b0:	00 00                	add    %al,(%eax)
 e0841b2:	00 00                	add    %al,(%eax)
 e0841b4:	00 00                	add    %al,(%eax)
 e0841b6:	00 00                	add    %al,(%eax)
 e0841b8:	00 00                	add    %al,(%eax)
 e0841ba:	00 00                	add    %al,(%eax)
 e0841bc:	00 00                	add    %al,(%eax)
 e0841be:	00 00                	add    %al,(%eax)
 e0841c0:	00 00                	add    %al,(%eax)
 e0841c2:	00 00                	add    %al,(%eax)
 e0841c4:	00 00                	add    %al,(%eax)
 e0841c6:	00 00                	add    %al,(%eax)
 e0841c8:	00 00                	add    %al,(%eax)
 e0841ca:	00 00                	add    %al,(%eax)
 e0841cc:	00 00                	add    %al,(%eax)
 e0841ce:	00 00                	add    %al,(%eax)
 e0841d0:	00 00                	add    %al,(%eax)
 e0841d2:	00 00                	add    %al,(%eax)
 e0841d4:	00 00                	add    %al,(%eax)
 e0841d6:	00 00                	add    %al,(%eax)
 e0841d8:	00 00                	add    %al,(%eax)
 e0841da:	00 00                	add    %al,(%eax)
 e0841dc:	00 00                	add    %al,(%eax)
 e0841de:	00 00                	add    %al,(%eax)
 e0841e0:	00 00                	add    %al,(%eax)
 e0841e2:	00 00                	add    %al,(%eax)
 e0841e4:	00 00                	add    %al,(%eax)
 e0841e6:	00 00                	add    %al,(%eax)
 e0841e8:	00 00                	add    %al,(%eax)
 e0841ea:	00 00                	add    %al,(%eax)
 e0841ec:	00 00                	add    %al,(%eax)
 e0841ee:	00 00                	add    %al,(%eax)
 e0841f0:	00 00                	add    %al,(%eax)
 e0841f2:	00 00                	add    %al,(%eax)
 e0841f4:	00 00                	add    %al,(%eax)
 e0841f6:	00 00                	add    %al,(%eax)
 e0841f8:	00 00                	add    %al,(%eax)
 e0841fa:	00 00                	add    %al,(%eax)
 e0841fc:	00 00                	add    %al,(%eax)
 e0841fe:	00 00                	add    %al,(%eax)
 e084200:	00 00                	add    %al,(%eax)
 e084202:	00 00                	add    %al,(%eax)
 e084204:	00 00                	add    %al,(%eax)
 e084206:	00 00                	add    %al,(%eax)
 e084208:	00 00                	add    %al,(%eax)
 e08420a:	00 00                	add    %al,(%eax)
 e08420c:	00 00                	add    %al,(%eax)
 e08420e:	00 00                	add    %al,(%eax)
 e084210:	00 00                	add    %al,(%eax)
 e084212:	00 00                	add    %al,(%eax)
 e084214:	00 00                	add    %al,(%eax)
 e084216:	00 00                	add    %al,(%eax)
 e084218:	00 00                	add    %al,(%eax)
 e08421a:	00 00                	add    %al,(%eax)
 e08421c:	00 00                	add    %al,(%eax)
 e08421e:	00 00                	add    %al,(%eax)
 e084220:	00 00                	add    %al,(%eax)
 e084222:	00 00                	add    %al,(%eax)
 e084224:	00 00                	add    %al,(%eax)
 e084226:	00 00                	add    %al,(%eax)
 e084228:	00 00                	add    %al,(%eax)
 e08422a:	00 00                	add    %al,(%eax)
 e08422c:	00 00                	add    %al,(%eax)
 e08422e:	00 00                	add    %al,(%eax)
 e084230:	00 00                	add    %al,(%eax)
 e084232:	00 00                	add    %al,(%eax)
 e084234:	00 00                	add    %al,(%eax)
 e084236:	00 00                	add    %al,(%eax)
 e084238:	00 00                	add    %al,(%eax)
 e08423a:	00 00                	add    %al,(%eax)
 e08423c:	00 00                	add    %al,(%eax)
 e08423e:	00 00                	add    %al,(%eax)
 e084240:	00 00                	add    %al,(%eax)
 e084242:	00 00                	add    %al,(%eax)
 e084244:	00 00                	add    %al,(%eax)
 e084246:	00 00                	add    %al,(%eax)
 e084248:	00 00                	add    %al,(%eax)
 e08424a:	00 00                	add    %al,(%eax)
 e08424c:	00 00                	add    %al,(%eax)
 e08424e:	00 00                	add    %al,(%eax)
 e084250:	00 00                	add    %al,(%eax)
 e084252:	00 00                	add    %al,(%eax)
 e084254:	00 00                	add    %al,(%eax)
 e084256:	00 00                	add    %al,(%eax)
 e084258:	00 00                	add    %al,(%eax)
 e08425a:	00 00                	add    %al,(%eax)
 e08425c:	00 00                	add    %al,(%eax)
 e08425e:	00 00                	add    %al,(%eax)
 e084260:	00 00                	add    %al,(%eax)
 e084262:	00 00                	add    %al,(%eax)
 e084264:	00 00                	add    %al,(%eax)
 e084266:	00 00                	add    %al,(%eax)
 e084268:	00 00                	add    %al,(%eax)
 e08426a:	00 00                	add    %al,(%eax)
 e08426c:	00 00                	add    %al,(%eax)
 e08426e:	00 00                	add    %al,(%eax)
 e084270:	00 00                	add    %al,(%eax)
 e084272:	00 00                	add    %al,(%eax)
 e084274:	00 00                	add    %al,(%eax)
 e084276:	00 00                	add    %al,(%eax)
 e084278:	00 00                	add    %al,(%eax)
 e08427a:	00 00                	add    %al,(%eax)
 e08427c:	00 00                	add    %al,(%eax)
 e08427e:	00 00                	add    %al,(%eax)
 e084280:	00 00                	add    %al,(%eax)
 e084282:	00 00                	add    %al,(%eax)
 e084284:	00 00                	add    %al,(%eax)
 e084286:	00 00                	add    %al,(%eax)
 e084288:	00 00                	add    %al,(%eax)
 e08428a:	00 00                	add    %al,(%eax)
 e08428c:	00 00                	add    %al,(%eax)
 e08428e:	00 00                	add    %al,(%eax)
 e084290:	00 00                	add    %al,(%eax)
 e084292:	00 00                	add    %al,(%eax)
 e084294:	00 00                	add    %al,(%eax)
 e084296:	00 00                	add    %al,(%eax)
 e084298:	00 00                	add    %al,(%eax)
 e08429a:	00 00                	add    %al,(%eax)
 e08429c:	00 00                	add    %al,(%eax)
 e08429e:	00 00                	add    %al,(%eax)
 e0842a0:	00 00                	add    %al,(%eax)
 e0842a2:	00 00                	add    %al,(%eax)
 e0842a4:	00 00                	add    %al,(%eax)
 e0842a6:	00 00                	add    %al,(%eax)
 e0842a8:	00 00                	add    %al,(%eax)
 e0842aa:	00 00                	add    %al,(%eax)
 e0842ac:	00 00                	add    %al,(%eax)
 e0842ae:	00 00                	add    %al,(%eax)
 e0842b0:	00 00                	add    %al,(%eax)
 e0842b2:	00 00                	add    %al,(%eax)
 e0842b4:	00 00                	add    %al,(%eax)
 e0842b6:	00 00                	add    %al,(%eax)
 e0842b8:	00 00                	add    %al,(%eax)
 e0842ba:	00 00                	add    %al,(%eax)
 e0842bc:	00 00                	add    %al,(%eax)
 e0842be:	00 00                	add    %al,(%eax)
 e0842c0:	00 00                	add    %al,(%eax)
 e0842c2:	00 00                	add    %al,(%eax)
 e0842c4:	00 00                	add    %al,(%eax)
 e0842c6:	00 00                	add    %al,(%eax)
 e0842c8:	00 00                	add    %al,(%eax)
 e0842ca:	00 00                	add    %al,(%eax)
 e0842cc:	00 00                	add    %al,(%eax)
 e0842ce:	00 00                	add    %al,(%eax)
 e0842d0:	00 00                	add    %al,(%eax)
 e0842d2:	00 00                	add    %al,(%eax)
 e0842d4:	00 00                	add    %al,(%eax)
 e0842d6:	00 00                	add    %al,(%eax)
 e0842d8:	00 00                	add    %al,(%eax)
 e0842da:	00 00                	add    %al,(%eax)
 e0842dc:	00 00                	add    %al,(%eax)
 e0842de:	00 00                	add    %al,(%eax)
 e0842e0:	00 00                	add    %al,(%eax)
 e0842e2:	00 00                	add    %al,(%eax)
 e0842e4:	00 00                	add    %al,(%eax)
 e0842e6:	00 00                	add    %al,(%eax)
 e0842e8:	00 00                	add    %al,(%eax)
 e0842ea:	00 00                	add    %al,(%eax)
 e0842ec:	00 00                	add    %al,(%eax)
 e0842ee:	00 00                	add    %al,(%eax)
 e0842f0:	00 00                	add    %al,(%eax)
 e0842f2:	00 00                	add    %al,(%eax)
 e0842f4:	00 00                	add    %al,(%eax)
 e0842f6:	00 00                	add    %al,(%eax)
 e0842f8:	00 00                	add    %al,(%eax)
 e0842fa:	00 00                	add    %al,(%eax)
 e0842fc:	00 00                	add    %al,(%eax)
 e0842fe:	00 00                	add    %al,(%eax)
 e084300:	00 00                	add    %al,(%eax)
 e084302:	00 00                	add    %al,(%eax)
 e084304:	00 00                	add    %al,(%eax)
 e084306:	00 00                	add    %al,(%eax)
 e084308:	00 00                	add    %al,(%eax)
 e08430a:	00 00                	add    %al,(%eax)
 e08430c:	00 00                	add    %al,(%eax)
 e08430e:	00 00                	add    %al,(%eax)
 e084310:	00 00                	add    %al,(%eax)
 e084312:	00 00                	add    %al,(%eax)
 e084314:	00 00                	add    %al,(%eax)
 e084316:	00 00                	add    %al,(%eax)
 e084318:	00 00                	add    %al,(%eax)
 e08431a:	00 00                	add    %al,(%eax)
 e08431c:	00 00                	add    %al,(%eax)
 e08431e:	00 00                	add    %al,(%eax)
 e084320:	00 00                	add    %al,(%eax)
 e084322:	00 00                	add    %al,(%eax)
 e084324:	00 00                	add    %al,(%eax)
 e084326:	00 00                	add    %al,(%eax)
 e084328:	00 00                	add    %al,(%eax)
 e08432a:	00 00                	add    %al,(%eax)
 e08432c:	00 00                	add    %al,(%eax)
 e08432e:	00 00                	add    %al,(%eax)
 e084330:	00 00                	add    %al,(%eax)
 e084332:	00 00                	add    %al,(%eax)
 e084334:	00 00                	add    %al,(%eax)
 e084336:	00 00                	add    %al,(%eax)
 e084338:	00 00                	add    %al,(%eax)
 e08433a:	00 00                	add    %al,(%eax)
 e08433c:	00 00                	add    %al,(%eax)
 e08433e:	00 00                	add    %al,(%eax)
 e084340:	00 00                	add    %al,(%eax)
 e084342:	00 00                	add    %al,(%eax)
 e084344:	00 00                	add    %al,(%eax)
 e084346:	00 00                	add    %al,(%eax)
 e084348:	00 00                	add    %al,(%eax)
 e08434a:	00 00                	add    %al,(%eax)
 e08434c:	00 00                	add    %al,(%eax)
 e08434e:	00 00                	add    %al,(%eax)
 e084350:	00 00                	add    %al,(%eax)
 e084352:	00 00                	add    %al,(%eax)
 e084354:	00 00                	add    %al,(%eax)
 e084356:	00 00                	add    %al,(%eax)
 e084358:	00 00                	add    %al,(%eax)
 e08435a:	00 00                	add    %al,(%eax)
 e08435c:	00 00                	add    %al,(%eax)
 e08435e:	00 00                	add    %al,(%eax)
 e084360:	00 00                	add    %al,(%eax)
 e084362:	00 00                	add    %al,(%eax)
 e084364:	00 00                	add    %al,(%eax)
 e084366:	00 00                	add    %al,(%eax)
 e084368:	00 00                	add    %al,(%eax)
 e08436a:	00 00                	add    %al,(%eax)
 e08436c:	00 00                	add    %al,(%eax)
 e08436e:	00 00                	add    %al,(%eax)
 e084370:	00 00                	add    %al,(%eax)
 e084372:	00 00                	add    %al,(%eax)
 e084374:	00 00                	add    %al,(%eax)
 e084376:	00 00                	add    %al,(%eax)
 e084378:	00 00                	add    %al,(%eax)
 e08437a:	00 00                	add    %al,(%eax)
 e08437c:	00 00                	add    %al,(%eax)
 e08437e:	00 00                	add    %al,(%eax)
 e084380:	00 00                	add    %al,(%eax)
 e084382:	00 00                	add    %al,(%eax)
 e084384:	00 00                	add    %al,(%eax)
 e084386:	00 00                	add    %al,(%eax)
 e084388:	00 00                	add    %al,(%eax)
 e08438a:	00 00                	add    %al,(%eax)
 e08438c:	00 00                	add    %al,(%eax)
 e08438e:	00 00                	add    %al,(%eax)
 e084390:	00 00                	add    %al,(%eax)
 e084392:	00 00                	add    %al,(%eax)
 e084394:	00 00                	add    %al,(%eax)
 e084396:	00 00                	add    %al,(%eax)
 e084398:	00 00                	add    %al,(%eax)
 e08439a:	00 00                	add    %al,(%eax)
 e08439c:	00 00                	add    %al,(%eax)
 e08439e:	00 00                	add    %al,(%eax)
 e0843a0:	00 00                	add    %al,(%eax)
 e0843a2:	00 00                	add    %al,(%eax)
 e0843a4:	00 00                	add    %al,(%eax)
 e0843a6:	00 00                	add    %al,(%eax)
 e0843a8:	00 00                	add    %al,(%eax)
 e0843aa:	00 00                	add    %al,(%eax)
 e0843ac:	00 00                	add    %al,(%eax)
 e0843ae:	00 00                	add    %al,(%eax)
 e0843b0:	00 00                	add    %al,(%eax)
 e0843b2:	00 00                	add    %al,(%eax)
 e0843b4:	00 00                	add    %al,(%eax)
 e0843b6:	00 00                	add    %al,(%eax)
 e0843b8:	00 00                	add    %al,(%eax)
 e0843ba:	00 00                	add    %al,(%eax)
 e0843bc:	00 00                	add    %al,(%eax)
 e0843be:	00 00                	add    %al,(%eax)
 e0843c0:	00 00                	add    %al,(%eax)
 e0843c2:	00 00                	add    %al,(%eax)
 e0843c4:	00 00                	add    %al,(%eax)
 e0843c6:	00 00                	add    %al,(%eax)
 e0843c8:	00 00                	add    %al,(%eax)
 e0843ca:	00 00                	add    %al,(%eax)
 e0843cc:	00 00                	add    %al,(%eax)
 e0843ce:	00 00                	add    %al,(%eax)
 e0843d0:	00 00                	add    %al,(%eax)
 e0843d2:	00 00                	add    %al,(%eax)
 e0843d4:	00 00                	add    %al,(%eax)
 e0843d6:	00 00                	add    %al,(%eax)
 e0843d8:	00 00                	add    %al,(%eax)
 e0843da:	00 00                	add    %al,(%eax)
 e0843dc:	00 00                	add    %al,(%eax)
 e0843de:	00 00                	add    %al,(%eax)
 e0843e0:	00 00                	add    %al,(%eax)
 e0843e2:	00 00                	add    %al,(%eax)
 e0843e4:	00 00                	add    %al,(%eax)
 e0843e6:	00 00                	add    %al,(%eax)
 e0843e8:	00 00                	add    %al,(%eax)
 e0843ea:	00 00                	add    %al,(%eax)
 e0843ec:	00 00                	add    %al,(%eax)
 e0843ee:	00 00                	add    %al,(%eax)
 e0843f0:	00 00                	add    %al,(%eax)
 e0843f2:	00 00                	add    %al,(%eax)
 e0843f4:	00 00                	add    %al,(%eax)
 e0843f6:	00 00                	add    %al,(%eax)
 e0843f8:	00 00                	add    %al,(%eax)
 e0843fa:	00 00                	add    %al,(%eax)
 e0843fc:	00 00                	add    %al,(%eax)
 e0843fe:	00 00                	add    %al,(%eax)
 e084400:	00 00                	add    %al,(%eax)
 e084402:	00 00                	add    %al,(%eax)
 e084404:	00 00                	add    %al,(%eax)
 e084406:	00 00                	add    %al,(%eax)
 e084408:	00 00                	add    %al,(%eax)
 e08440a:	00 00                	add    %al,(%eax)
 e08440c:	00 00                	add    %al,(%eax)
 e08440e:	00 00                	add    %al,(%eax)
 e084410:	00 00                	add    %al,(%eax)
 e084412:	00 00                	add    %al,(%eax)
 e084414:	00 00                	add    %al,(%eax)
 e084416:	00 00                	add    %al,(%eax)
 e084418:	00 00                	add    %al,(%eax)
 e08441a:	00 00                	add    %al,(%eax)
 e08441c:	00 00                	add    %al,(%eax)
 e08441e:	00 00                	add    %al,(%eax)
 e084420:	00 00                	add    %al,(%eax)
 e084422:	00 00                	add    %al,(%eax)
 e084424:	00 00                	add    %al,(%eax)
 e084426:	00 00                	add    %al,(%eax)
 e084428:	00 00                	add    %al,(%eax)
 e08442a:	00 00                	add    %al,(%eax)
 e08442c:	00 00                	add    %al,(%eax)
 e08442e:	00 00                	add    %al,(%eax)
 e084430:	00 00                	add    %al,(%eax)
 e084432:	00 00                	add    %al,(%eax)
 e084434:	00 00                	add    %al,(%eax)
 e084436:	00 00                	add    %al,(%eax)
 e084438:	00 00                	add    %al,(%eax)
 e08443a:	00 00                	add    %al,(%eax)
 e08443c:	00 00                	add    %al,(%eax)
 e08443e:	00 00                	add    %al,(%eax)
 e084440:	00 00                	add    %al,(%eax)
 e084442:	00 00                	add    %al,(%eax)
 e084444:	00 00                	add    %al,(%eax)
 e084446:	00 00                	add    %al,(%eax)
 e084448:	00 00                	add    %al,(%eax)
 e08444a:	00 00                	add    %al,(%eax)
 e08444c:	00 00                	add    %al,(%eax)
 e08444e:	00 00                	add    %al,(%eax)
 e084450:	00 00                	add    %al,(%eax)
 e084452:	00 00                	add    %al,(%eax)
 e084454:	00 00                	add    %al,(%eax)
 e084456:	00 00                	add    %al,(%eax)
 e084458:	00 00                	add    %al,(%eax)
 e08445a:	00 00                	add    %al,(%eax)
 e08445c:	00 00                	add    %al,(%eax)
 e08445e:	00 00                	add    %al,(%eax)
 e084460:	00 00                	add    %al,(%eax)
 e084462:	00 00                	add    %al,(%eax)
 e084464:	00 00                	add    %al,(%eax)
 e084466:	00 00                	add    %al,(%eax)
 e084468:	00 00                	add    %al,(%eax)
 e08446a:	00 00                	add    %al,(%eax)
 e08446c:	00 00                	add    %al,(%eax)
 e08446e:	00 00                	add    %al,(%eax)
 e084470:	00 00                	add    %al,(%eax)
 e084472:	00 00                	add    %al,(%eax)
 e084474:	00 00                	add    %al,(%eax)
 e084476:	00 00                	add    %al,(%eax)
 e084478:	00 00                	add    %al,(%eax)
 e08447a:	00 00                	add    %al,(%eax)
 e08447c:	00 00                	add    %al,(%eax)
 e08447e:	00 00                	add    %al,(%eax)
 e084480:	00 00                	add    %al,(%eax)
 e084482:	00 00                	add    %al,(%eax)
 e084484:	00 00                	add    %al,(%eax)
 e084486:	00 00                	add    %al,(%eax)
 e084488:	00 00                	add    %al,(%eax)
 e08448a:	00 00                	add    %al,(%eax)
 e08448c:	00 00                	add    %al,(%eax)
 e08448e:	00 00                	add    %al,(%eax)
 e084490:	00 00                	add    %al,(%eax)
 e084492:	00 00                	add    %al,(%eax)
 e084494:	00 00                	add    %al,(%eax)
 e084496:	00 00                	add    %al,(%eax)
 e084498:	00 00                	add    %al,(%eax)
 e08449a:	00 00                	add    %al,(%eax)
 e08449c:	00 00                	add    %al,(%eax)
 e08449e:	00 00                	add    %al,(%eax)
 e0844a0:	00 00                	add    %al,(%eax)
 e0844a2:	00 00                	add    %al,(%eax)
 e0844a4:	00 00                	add    %al,(%eax)
 e0844a6:	00 00                	add    %al,(%eax)
 e0844a8:	00 00                	add    %al,(%eax)
 e0844aa:	00 00                	add    %al,(%eax)
 e0844ac:	00 00                	add    %al,(%eax)
 e0844ae:	00 00                	add    %al,(%eax)
 e0844b0:	00 00                	add    %al,(%eax)
 e0844b2:	00 00                	add    %al,(%eax)
 e0844b4:	00 00                	add    %al,(%eax)
 e0844b6:	00 00                	add    %al,(%eax)
 e0844b8:	00 00                	add    %al,(%eax)
 e0844ba:	00 00                	add    %al,(%eax)
 e0844bc:	00 00                	add    %al,(%eax)
 e0844be:	00 00                	add    %al,(%eax)
 e0844c0:	00 00                	add    %al,(%eax)
 e0844c2:	00 00                	add    %al,(%eax)
 e0844c4:	00 00                	add    %al,(%eax)
 e0844c6:	00 00                	add    %al,(%eax)
 e0844c8:	00 00                	add    %al,(%eax)
 e0844ca:	00 00                	add    %al,(%eax)
 e0844cc:	00 00                	add    %al,(%eax)
 e0844ce:	00 00                	add    %al,(%eax)
 e0844d0:	00 00                	add    %al,(%eax)
 e0844d2:	00 00                	add    %al,(%eax)
 e0844d4:	00 00                	add    %al,(%eax)
 e0844d6:	00 00                	add    %al,(%eax)
 e0844d8:	00 00                	add    %al,(%eax)
 e0844da:	00 00                	add    %al,(%eax)
 e0844dc:	00 00                	add    %al,(%eax)
 e0844de:	00 00                	add    %al,(%eax)
 e0844e0:	00 00                	add    %al,(%eax)
 e0844e2:	00 00                	add    %al,(%eax)
 e0844e4:	00 00                	add    %al,(%eax)
 e0844e6:	00 00                	add    %al,(%eax)
 e0844e8:	00 00                	add    %al,(%eax)
 e0844ea:	00 00                	add    %al,(%eax)
 e0844ec:	00 00                	add    %al,(%eax)
 e0844ee:	00 00                	add    %al,(%eax)
 e0844f0:	00 00                	add    %al,(%eax)
 e0844f2:	00 00                	add    %al,(%eax)
 e0844f4:	00 00                	add    %al,(%eax)
 e0844f6:	00 00                	add    %al,(%eax)
 e0844f8:	00 00                	add    %al,(%eax)
 e0844fa:	00 00                	add    %al,(%eax)
 e0844fc:	00 00                	add    %al,(%eax)
 e0844fe:	00 00                	add    %al,(%eax)
 e084500:	00 00                	add    %al,(%eax)
 e084502:	00 00                	add    %al,(%eax)
 e084504:	00 00                	add    %al,(%eax)
 e084506:	00 00                	add    %al,(%eax)
 e084508:	00 00                	add    %al,(%eax)
 e08450a:	00 00                	add    %al,(%eax)
 e08450c:	00 00                	add    %al,(%eax)
 e08450e:	00 00                	add    %al,(%eax)
 e084510:	00 00                	add    %al,(%eax)
 e084512:	00 00                	add    %al,(%eax)
 e084514:	00 00                	add    %al,(%eax)
 e084516:	00 00                	add    %al,(%eax)
 e084518:	00 00                	add    %al,(%eax)
 e08451a:	00 00                	add    %al,(%eax)
 e08451c:	00 00                	add    %al,(%eax)
 e08451e:	00 00                	add    %al,(%eax)
 e084520:	00 00                	add    %al,(%eax)
 e084522:	00 00                	add    %al,(%eax)
 e084524:	00 00                	add    %al,(%eax)
 e084526:	00 00                	add    %al,(%eax)
 e084528:	00 00                	add    %al,(%eax)
 e08452a:	00 00                	add    %al,(%eax)
 e08452c:	00 00                	add    %al,(%eax)
 e08452e:	00 00                	add    %al,(%eax)
 e084530:	00 00                	add    %al,(%eax)
 e084532:	00 00                	add    %al,(%eax)
 e084534:	00 00                	add    %al,(%eax)
 e084536:	00 00                	add    %al,(%eax)
 e084538:	00 00                	add    %al,(%eax)
 e08453a:	00 00                	add    %al,(%eax)
 e08453c:	00 00                	add    %al,(%eax)
 e08453e:	00 00                	add    %al,(%eax)
 e084540:	00 00                	add    %al,(%eax)
 e084542:	00 00                	add    %al,(%eax)
 e084544:	00 00                	add    %al,(%eax)
 e084546:	00 00                	add    %al,(%eax)
 e084548:	00 00                	add    %al,(%eax)
 e08454a:	00 00                	add    %al,(%eax)
 e08454c:	00 00                	add    %al,(%eax)
 e08454e:	00 00                	add    %al,(%eax)
 e084550:	00 00                	add    %al,(%eax)
 e084552:	00 00                	add    %al,(%eax)
 e084554:	00 00                	add    %al,(%eax)
 e084556:	00 00                	add    %al,(%eax)
 e084558:	00 00                	add    %al,(%eax)
 e08455a:	00 00                	add    %al,(%eax)
 e08455c:	00 00                	add    %al,(%eax)
 e08455e:	00 00                	add    %al,(%eax)
 e084560:	00 00                	add    %al,(%eax)
 e084562:	00 00                	add    %al,(%eax)
 e084564:	00 00                	add    %al,(%eax)
 e084566:	00 00                	add    %al,(%eax)
 e084568:	00 00                	add    %al,(%eax)
 e08456a:	00 00                	add    %al,(%eax)
 e08456c:	00 00                	add    %al,(%eax)
 e08456e:	00 00                	add    %al,(%eax)
 e084570:	00 00                	add    %al,(%eax)
 e084572:	00 00                	add    %al,(%eax)
 e084574:	00 00                	add    %al,(%eax)
 e084576:	00 00                	add    %al,(%eax)
 e084578:	00 00                	add    %al,(%eax)
 e08457a:	00 00                	add    %al,(%eax)
 e08457c:	00 00                	add    %al,(%eax)
 e08457e:	00 00                	add    %al,(%eax)
 e084580:	00 00                	add    %al,(%eax)
 e084582:	00 00                	add    %al,(%eax)
 e084584:	00 00                	add    %al,(%eax)
 e084586:	00 00                	add    %al,(%eax)
 e084588:	00 00                	add    %al,(%eax)
 e08458a:	00 00                	add    %al,(%eax)
 e08458c:	00 00                	add    %al,(%eax)
 e08458e:	00 00                	add    %al,(%eax)
 e084590:	00 00                	add    %al,(%eax)
 e084592:	00 00                	add    %al,(%eax)
 e084594:	00 00                	add    %al,(%eax)
 e084596:	00 00                	add    %al,(%eax)
 e084598:	00 00                	add    %al,(%eax)
 e08459a:	00 00                	add    %al,(%eax)
 e08459c:	00 00                	add    %al,(%eax)
 e08459e:	00 00                	add    %al,(%eax)
 e0845a0:	00 00                	add    %al,(%eax)
 e0845a2:	00 00                	add    %al,(%eax)
 e0845a4:	00 00                	add    %al,(%eax)
 e0845a6:	00 00                	add    %al,(%eax)
 e0845a8:	00 00                	add    %al,(%eax)
 e0845aa:	00 00                	add    %al,(%eax)
 e0845ac:	00 00                	add    %al,(%eax)
 e0845ae:	00 00                	add    %al,(%eax)
 e0845b0:	00 00                	add    %al,(%eax)
 e0845b2:	00 00                	add    %al,(%eax)
 e0845b4:	00 00                	add    %al,(%eax)
 e0845b6:	00 00                	add    %al,(%eax)
 e0845b8:	00 00                	add    %al,(%eax)
 e0845ba:	00 00                	add    %al,(%eax)
 e0845bc:	00 00                	add    %al,(%eax)
 e0845be:	00 00                	add    %al,(%eax)
 e0845c0:	00 00                	add    %al,(%eax)
 e0845c2:	00 00                	add    %al,(%eax)
 e0845c4:	00 00                	add    %al,(%eax)
 e0845c6:	00 00                	add    %al,(%eax)
 e0845c8:	00 00                	add    %al,(%eax)
 e0845ca:	00 00                	add    %al,(%eax)
 e0845cc:	00 00                	add    %al,(%eax)
 e0845ce:	00 00                	add    %al,(%eax)
 e0845d0:	00 00                	add    %al,(%eax)
 e0845d2:	00 00                	add    %al,(%eax)
 e0845d4:	00 00                	add    %al,(%eax)
 e0845d6:	00 00                	add    %al,(%eax)
 e0845d8:	00 00                	add    %al,(%eax)
 e0845da:	00 00                	add    %al,(%eax)
 e0845dc:	00 00                	add    %al,(%eax)
 e0845de:	00 00                	add    %al,(%eax)
 e0845e0:	00 00                	add    %al,(%eax)
 e0845e2:	00 00                	add    %al,(%eax)
 e0845e4:	00 00                	add    %al,(%eax)
 e0845e6:	00 00                	add    %al,(%eax)
 e0845e8:	00 00                	add    %al,(%eax)
 e0845ea:	00 00                	add    %al,(%eax)
 e0845ec:	00 00                	add    %al,(%eax)
 e0845ee:	00 00                	add    %al,(%eax)
 e0845f0:	00 00                	add    %al,(%eax)
 e0845f2:	00 00                	add    %al,(%eax)
 e0845f4:	00 00                	add    %al,(%eax)
 e0845f6:	00 00                	add    %al,(%eax)
 e0845f8:	00 00                	add    %al,(%eax)
 e0845fa:	00 00                	add    %al,(%eax)
 e0845fc:	00 00                	add    %al,(%eax)
 e0845fe:	00 00                	add    %al,(%eax)
 e084600:	00 00                	add    %al,(%eax)
 e084602:	00 00                	add    %al,(%eax)
 e084604:	00 00                	add    %al,(%eax)
 e084606:	00 00                	add    %al,(%eax)
 e084608:	00 00                	add    %al,(%eax)
 e08460a:	00 00                	add    %al,(%eax)
 e08460c:	00 00                	add    %al,(%eax)
 e08460e:	00 00                	add    %al,(%eax)
 e084610:	00 00                	add    %al,(%eax)
 e084612:	00 00                	add    %al,(%eax)
 e084614:	00 00                	add    %al,(%eax)
 e084616:	00 00                	add    %al,(%eax)
 e084618:	00 00                	add    %al,(%eax)
 e08461a:	00 00                	add    %al,(%eax)
 e08461c:	00 00                	add    %al,(%eax)
 e08461e:	00 00                	add    %al,(%eax)
 e084620:	00 00                	add    %al,(%eax)
 e084622:	00 00                	add    %al,(%eax)
 e084624:	00 00                	add    %al,(%eax)
 e084626:	00 00                	add    %al,(%eax)
 e084628:	00 00                	add    %al,(%eax)
 e08462a:	00 00                	add    %al,(%eax)
 e08462c:	00 00                	add    %al,(%eax)
 e08462e:	00 00                	add    %al,(%eax)
 e084630:	00 00                	add    %al,(%eax)
 e084632:	00 00                	add    %al,(%eax)
 e084634:	00 00                	add    %al,(%eax)
 e084636:	00 00                	add    %al,(%eax)
 e084638:	00 00                	add    %al,(%eax)
 e08463a:	00 00                	add    %al,(%eax)
 e08463c:	00 00                	add    %al,(%eax)
 e08463e:	00 00                	add    %al,(%eax)
 e084640:	00 00                	add    %al,(%eax)
 e084642:	00 00                	add    %al,(%eax)
 e084644:	00 00                	add    %al,(%eax)
 e084646:	00 00                	add    %al,(%eax)
 e084648:	00 00                	add    %al,(%eax)
 e08464a:	00 00                	add    %al,(%eax)
 e08464c:	00 00                	add    %al,(%eax)
 e08464e:	00 00                	add    %al,(%eax)
 e084650:	00 00                	add    %al,(%eax)
 e084652:	00 00                	add    %al,(%eax)
 e084654:	00 00                	add    %al,(%eax)
 e084656:	00 00                	add    %al,(%eax)
 e084658:	00 00                	add    %al,(%eax)
 e08465a:	00 00                	add    %al,(%eax)
 e08465c:	00 00                	add    %al,(%eax)
 e08465e:	00 00                	add    %al,(%eax)
 e084660:	00 00                	add    %al,(%eax)
 e084662:	00 00                	add    %al,(%eax)
 e084664:	00 00                	add    %al,(%eax)
 e084666:	00 00                	add    %al,(%eax)
 e084668:	00 00                	add    %al,(%eax)
 e08466a:	00 00                	add    %al,(%eax)
 e08466c:	00 00                	add    %al,(%eax)
 e08466e:	00 00                	add    %al,(%eax)
 e084670:	00 00                	add    %al,(%eax)
 e084672:	00 00                	add    %al,(%eax)
 e084674:	00 00                	add    %al,(%eax)
 e084676:	00 00                	add    %al,(%eax)
 e084678:	00 00                	add    %al,(%eax)
 e08467a:	00 00                	add    %al,(%eax)
 e08467c:	00 00                	add    %al,(%eax)
 e08467e:	00 00                	add    %al,(%eax)
 e084680:	00 00                	add    %al,(%eax)
 e084682:	00 00                	add    %al,(%eax)
 e084684:	00 00                	add    %al,(%eax)
 e084686:	00 00                	add    %al,(%eax)
 e084688:	00 00                	add    %al,(%eax)
 e08468a:	00 00                	add    %al,(%eax)
 e08468c:	00 00                	add    %al,(%eax)
 e08468e:	00 00                	add    %al,(%eax)
 e084690:	00 00                	add    %al,(%eax)
 e084692:	00 00                	add    %al,(%eax)
 e084694:	00 00                	add    %al,(%eax)
 e084696:	00 00                	add    %al,(%eax)
 e084698:	00 00                	add    %al,(%eax)
 e08469a:	00 00                	add    %al,(%eax)
 e08469c:	00 00                	add    %al,(%eax)
 e08469e:	00 00                	add    %al,(%eax)
 e0846a0:	00 00                	add    %al,(%eax)
 e0846a2:	00 00                	add    %al,(%eax)
 e0846a4:	00 00                	add    %al,(%eax)
 e0846a6:	00 00                	add    %al,(%eax)
 e0846a8:	00 00                	add    %al,(%eax)
 e0846aa:	00 00                	add    %al,(%eax)
 e0846ac:	00 00                	add    %al,(%eax)
 e0846ae:	00 00                	add    %al,(%eax)
 e0846b0:	00 00                	add    %al,(%eax)
 e0846b2:	00 00                	add    %al,(%eax)
 e0846b4:	00 00                	add    %al,(%eax)
 e0846b6:	00 00                	add    %al,(%eax)
 e0846b8:	00 00                	add    %al,(%eax)
 e0846ba:	00 00                	add    %al,(%eax)
 e0846bc:	00 00                	add    %al,(%eax)
 e0846be:	00 00                	add    %al,(%eax)
 e0846c0:	00 00                	add    %al,(%eax)
 e0846c2:	00 00                	add    %al,(%eax)
 e0846c4:	00 00                	add    %al,(%eax)
 e0846c6:	00 00                	add    %al,(%eax)
 e0846c8:	00 00                	add    %al,(%eax)
 e0846ca:	00 00                	add    %al,(%eax)
 e0846cc:	00 00                	add    %al,(%eax)
 e0846ce:	00 00                	add    %al,(%eax)
 e0846d0:	00 00                	add    %al,(%eax)
 e0846d2:	00 00                	add    %al,(%eax)
 e0846d4:	00 00                	add    %al,(%eax)
 e0846d6:	00 00                	add    %al,(%eax)
 e0846d8:	00 00                	add    %al,(%eax)
 e0846da:	00 00                	add    %al,(%eax)
 e0846dc:	00 00                	add    %al,(%eax)
 e0846de:	00 00                	add    %al,(%eax)
 e0846e0:	00 00                	add    %al,(%eax)
 e0846e2:	00 00                	add    %al,(%eax)
 e0846e4:	00 00                	add    %al,(%eax)
 e0846e6:	00 00                	add    %al,(%eax)
 e0846e8:	00 00                	add    %al,(%eax)
 e0846ea:	00 00                	add    %al,(%eax)
 e0846ec:	00 00                	add    %al,(%eax)
 e0846ee:	00 00                	add    %al,(%eax)
 e0846f0:	00 00                	add    %al,(%eax)
 e0846f2:	00 00                	add    %al,(%eax)
 e0846f4:	00 00                	add    %al,(%eax)
 e0846f6:	00 00                	add    %al,(%eax)
 e0846f8:	00 00                	add    %al,(%eax)
 e0846fa:	00 00                	add    %al,(%eax)
 e0846fc:	00 00                	add    %al,(%eax)
 e0846fe:	00 00                	add    %al,(%eax)
 e084700:	00 00                	add    %al,(%eax)
 e084702:	00 00                	add    %al,(%eax)
 e084704:	00 00                	add    %al,(%eax)
 e084706:	00 00                	add    %al,(%eax)
 e084708:	00 00                	add    %al,(%eax)
 e08470a:	00 00                	add    %al,(%eax)
 e08470c:	00 00                	add    %al,(%eax)
 e08470e:	00 00                	add    %al,(%eax)
 e084710:	00 00                	add    %al,(%eax)
 e084712:	00 00                	add    %al,(%eax)
 e084714:	00 00                	add    %al,(%eax)
 e084716:	00 00                	add    %al,(%eax)
 e084718:	00 00                	add    %al,(%eax)
 e08471a:	00 00                	add    %al,(%eax)
 e08471c:	00 00                	add    %al,(%eax)
 e08471e:	00 00                	add    %al,(%eax)
 e084720:	00 00                	add    %al,(%eax)
 e084722:	00 00                	add    %al,(%eax)
 e084724:	00 00                	add    %al,(%eax)
 e084726:	00 00                	add    %al,(%eax)
 e084728:	00 00                	add    %al,(%eax)
 e08472a:	00 00                	add    %al,(%eax)
 e08472c:	00 00                	add    %al,(%eax)
 e08472e:	00 00                	add    %al,(%eax)
 e084730:	00 00                	add    %al,(%eax)
 e084732:	00 00                	add    %al,(%eax)
 e084734:	00 00                	add    %al,(%eax)
 e084736:	00 00                	add    %al,(%eax)
 e084738:	00 00                	add    %al,(%eax)
 e08473a:	00 00                	add    %al,(%eax)
 e08473c:	00 00                	add    %al,(%eax)
 e08473e:	00 00                	add    %al,(%eax)
 e084740:	00 00                	add    %al,(%eax)
 e084742:	00 00                	add    %al,(%eax)
 e084744:	00 00                	add    %al,(%eax)
 e084746:	00 00                	add    %al,(%eax)
 e084748:	00 00                	add    %al,(%eax)
 e08474a:	00 00                	add    %al,(%eax)
 e08474c:	00 00                	add    %al,(%eax)
 e08474e:	00 00                	add    %al,(%eax)
 e084750:	00 00                	add    %al,(%eax)
 e084752:	00 00                	add    %al,(%eax)
 e084754:	00 00                	add    %al,(%eax)
 e084756:	00 00                	add    %al,(%eax)
 e084758:	00 00                	add    %al,(%eax)
 e08475a:	00 00                	add    %al,(%eax)
 e08475c:	00 00                	add    %al,(%eax)
 e08475e:	00 00                	add    %al,(%eax)
 e084760:	00 00                	add    %al,(%eax)
 e084762:	00 00                	add    %al,(%eax)
 e084764:	00 00                	add    %al,(%eax)
 e084766:	00 00                	add    %al,(%eax)
 e084768:	00 00                	add    %al,(%eax)
 e08476a:	00 00                	add    %al,(%eax)
 e08476c:	00 00                	add    %al,(%eax)
 e08476e:	00 00                	add    %al,(%eax)
 e084770:	00 00                	add    %al,(%eax)
 e084772:	00 00                	add    %al,(%eax)
 e084774:	00 00                	add    %al,(%eax)
 e084776:	00 00                	add    %al,(%eax)
 e084778:	00 00                	add    %al,(%eax)
 e08477a:	00 00                	add    %al,(%eax)
 e08477c:	00 00                	add    %al,(%eax)
 e08477e:	00 00                	add    %al,(%eax)
 e084780:	00 00                	add    %al,(%eax)
 e084782:	00 00                	add    %al,(%eax)
 e084784:	00 00                	add    %al,(%eax)
 e084786:	00 00                	add    %al,(%eax)
 e084788:	00 00                	add    %al,(%eax)
 e08478a:	00 00                	add    %al,(%eax)
 e08478c:	00 00                	add    %al,(%eax)
 e08478e:	00 00                	add    %al,(%eax)
 e084790:	00 00                	add    %al,(%eax)
 e084792:	00 00                	add    %al,(%eax)
 e084794:	00 00                	add    %al,(%eax)
 e084796:	00 00                	add    %al,(%eax)
 e084798:	00 00                	add    %al,(%eax)
 e08479a:	00 00                	add    %al,(%eax)
 e08479c:	00 00                	add    %al,(%eax)
 e08479e:	00 00                	add    %al,(%eax)
 e0847a0:	00 00                	add    %al,(%eax)
 e0847a2:	00 00                	add    %al,(%eax)
 e0847a4:	00 00                	add    %al,(%eax)
 e0847a6:	00 00                	add    %al,(%eax)
 e0847a8:	00 00                	add    %al,(%eax)
 e0847aa:	00 00                	add    %al,(%eax)
 e0847ac:	00 00                	add    %al,(%eax)
 e0847ae:	00 00                	add    %al,(%eax)
 e0847b0:	00 00                	add    %al,(%eax)
 e0847b2:	00 00                	add    %al,(%eax)
 e0847b4:	00 00                	add    %al,(%eax)
 e0847b6:	00 00                	add    %al,(%eax)
 e0847b8:	00 00                	add    %al,(%eax)
 e0847ba:	00 00                	add    %al,(%eax)
 e0847bc:	00 00                	add    %al,(%eax)
 e0847be:	00 00                	add    %al,(%eax)
 e0847c0:	00 00                	add    %al,(%eax)
 e0847c2:	00 00                	add    %al,(%eax)
 e0847c4:	00 00                	add    %al,(%eax)
 e0847c6:	00 00                	add    %al,(%eax)
 e0847c8:	00 00                	add    %al,(%eax)
 e0847ca:	00 00                	add    %al,(%eax)
 e0847cc:	00 00                	add    %al,(%eax)
 e0847ce:	00 00                	add    %al,(%eax)
 e0847d0:	00 00                	add    %al,(%eax)
 e0847d2:	00 00                	add    %al,(%eax)
 e0847d4:	00 00                	add    %al,(%eax)
 e0847d6:	00 00                	add    %al,(%eax)
 e0847d8:	00 00                	add    %al,(%eax)
 e0847da:	00 00                	add    %al,(%eax)
 e0847dc:	00 00                	add    %al,(%eax)
 e0847de:	00 00                	add    %al,(%eax)
 e0847e0:	00 00                	add    %al,(%eax)
 e0847e2:	00 00                	add    %al,(%eax)
 e0847e4:	00 00                	add    %al,(%eax)
 e0847e6:	00 00                	add    %al,(%eax)
 e0847e8:	00 00                	add    %al,(%eax)
 e0847ea:	00 00                	add    %al,(%eax)
 e0847ec:	00 00                	add    %al,(%eax)
 e0847ee:	00 00                	add    %al,(%eax)
 e0847f0:	00 00                	add    %al,(%eax)
 e0847f2:	00 00                	add    %al,(%eax)
 e0847f4:	00 00                	add    %al,(%eax)
 e0847f6:	00 00                	add    %al,(%eax)
 e0847f8:	00 00                	add    %al,(%eax)
 e0847fa:	00 00                	add    %al,(%eax)
 e0847fc:	00 00                	add    %al,(%eax)
 e0847fe:	00 00                	add    %al,(%eax)
 e084800:	00 00                	add    %al,(%eax)
 e084802:	00 00                	add    %al,(%eax)
 e084804:	00 00                	add    %al,(%eax)
 e084806:	00 00                	add    %al,(%eax)
 e084808:	00 00                	add    %al,(%eax)
 e08480a:	00 00                	add    %al,(%eax)
 e08480c:	00 00                	add    %al,(%eax)
 e08480e:	00 00                	add    %al,(%eax)
 e084810:	00 00                	add    %al,(%eax)
 e084812:	00 00                	add    %al,(%eax)
 e084814:	00 00                	add    %al,(%eax)
 e084816:	00 00                	add    %al,(%eax)
 e084818:	00 00                	add    %al,(%eax)
 e08481a:	00 00                	add    %al,(%eax)
 e08481c:	00 00                	add    %al,(%eax)
 e08481e:	00 00                	add    %al,(%eax)
 e084820:	00 00                	add    %al,(%eax)
 e084822:	00 00                	add    %al,(%eax)
 e084824:	00 00                	add    %al,(%eax)
 e084826:	00 00                	add    %al,(%eax)
 e084828:	00 00                	add    %al,(%eax)
 e08482a:	00 00                	add    %al,(%eax)
 e08482c:	00 00                	add    %al,(%eax)
 e08482e:	00 00                	add    %al,(%eax)
 e084830:	00 00                	add    %al,(%eax)
 e084832:	00 00                	add    %al,(%eax)
 e084834:	00 00                	add    %al,(%eax)
 e084836:	00 00                	add    %al,(%eax)
 e084838:	00 00                	add    %al,(%eax)
 e08483a:	00 00                	add    %al,(%eax)
 e08483c:	00 00                	add    %al,(%eax)
 e08483e:	00 00                	add    %al,(%eax)
 e084840:	00 00                	add    %al,(%eax)
 e084842:	00 00                	add    %al,(%eax)
 e084844:	00 00                	add    %al,(%eax)
 e084846:	00 00                	add    %al,(%eax)
 e084848:	00 00                	add    %al,(%eax)
 e08484a:	00 00                	add    %al,(%eax)
 e08484c:	00 00                	add    %al,(%eax)
 e08484e:	00 00                	add    %al,(%eax)
 e084850:	00 00                	add    %al,(%eax)
 e084852:	00 00                	add    %al,(%eax)
 e084854:	00 00                	add    %al,(%eax)
 e084856:	00 00                	add    %al,(%eax)
 e084858:	00 00                	add    %al,(%eax)
 e08485a:	00 00                	add    %al,(%eax)
 e08485c:	00 00                	add    %al,(%eax)
 e08485e:	00 00                	add    %al,(%eax)
 e084860:	00 00                	add    %al,(%eax)
 e084862:	00 00                	add    %al,(%eax)
 e084864:	00 00                	add    %al,(%eax)
 e084866:	00 00                	add    %al,(%eax)
 e084868:	00 00                	add    %al,(%eax)
 e08486a:	00 00                	add    %al,(%eax)
 e08486c:	00 00                	add    %al,(%eax)
 e08486e:	00 00                	add    %al,(%eax)
 e084870:	00 00                	add    %al,(%eax)
 e084872:	00 00                	add    %al,(%eax)
 e084874:	00 00                	add    %al,(%eax)
 e084876:	00 00                	add    %al,(%eax)
 e084878:	00 00                	add    %al,(%eax)
 e08487a:	00 00                	add    %al,(%eax)
 e08487c:	00 00                	add    %al,(%eax)
 e08487e:	00 00                	add    %al,(%eax)
 e084880:	00 00                	add    %al,(%eax)
 e084882:	00 00                	add    %al,(%eax)
 e084884:	00 00                	add    %al,(%eax)
 e084886:	00 00                	add    %al,(%eax)
 e084888:	00 00                	add    %al,(%eax)
 e08488a:	00 00                	add    %al,(%eax)
 e08488c:	00 00                	add    %al,(%eax)
 e08488e:	00 00                	add    %al,(%eax)
 e084890:	00 00                	add    %al,(%eax)
 e084892:	00 00                	add    %al,(%eax)
 e084894:	00 00                	add    %al,(%eax)
 e084896:	00 00                	add    %al,(%eax)
 e084898:	00 00                	add    %al,(%eax)
 e08489a:	00 00                	add    %al,(%eax)
 e08489c:	00 00                	add    %al,(%eax)
 e08489e:	00 00                	add    %al,(%eax)
 e0848a0:	00 00                	add    %al,(%eax)
 e0848a2:	00 00                	add    %al,(%eax)
 e0848a4:	00 00                	add    %al,(%eax)
 e0848a6:	00 00                	add    %al,(%eax)
 e0848a8:	00 00                	add    %al,(%eax)
 e0848aa:	00 00                	add    %al,(%eax)
 e0848ac:	00 00                	add    %al,(%eax)
 e0848ae:	00 00                	add    %al,(%eax)
 e0848b0:	00 00                	add    %al,(%eax)
 e0848b2:	00 00                	add    %al,(%eax)
 e0848b4:	00 00                	add    %al,(%eax)
 e0848b6:	00 00                	add    %al,(%eax)
 e0848b8:	00 00                	add    %al,(%eax)
 e0848ba:	00 00                	add    %al,(%eax)
 e0848bc:	00 00                	add    %al,(%eax)
 e0848be:	00 00                	add    %al,(%eax)
 e0848c0:	00 00                	add    %al,(%eax)
 e0848c2:	00 00                	add    %al,(%eax)
 e0848c4:	00 00                	add    %al,(%eax)
 e0848c6:	00 00                	add    %al,(%eax)
 e0848c8:	00 00                	add    %al,(%eax)
 e0848ca:	00 00                	add    %al,(%eax)
 e0848cc:	00 00                	add    %al,(%eax)
 e0848ce:	00 00                	add    %al,(%eax)
 e0848d0:	00 00                	add    %al,(%eax)
 e0848d2:	00 00                	add    %al,(%eax)
 e0848d4:	00 00                	add    %al,(%eax)
 e0848d6:	00 00                	add    %al,(%eax)
 e0848d8:	00 00                	add    %al,(%eax)
 e0848da:	00 00                	add    %al,(%eax)
 e0848dc:	00 00                	add    %al,(%eax)
 e0848de:	00 00                	add    %al,(%eax)
 e0848e0:	00 00                	add    %al,(%eax)
 e0848e2:	00 00                	add    %al,(%eax)
 e0848e4:	00 00                	add    %al,(%eax)
 e0848e6:	00 00                	add    %al,(%eax)
 e0848e8:	00 00                	add    %al,(%eax)
 e0848ea:	00 00                	add    %al,(%eax)
 e0848ec:	00 00                	add    %al,(%eax)
 e0848ee:	00 00                	add    %al,(%eax)
 e0848f0:	00 00                	add    %al,(%eax)
 e0848f2:	00 00                	add    %al,(%eax)
 e0848f4:	00 00                	add    %al,(%eax)
 e0848f6:	00 00                	add    %al,(%eax)
 e0848f8:	00 00                	add    %al,(%eax)
 e0848fa:	00 00                	add    %al,(%eax)
 e0848fc:	00 00                	add    %al,(%eax)
 e0848fe:	00 00                	add    %al,(%eax)
 e084900:	00 00                	add    %al,(%eax)
 e084902:	00 00                	add    %al,(%eax)
 e084904:	00 00                	add    %al,(%eax)
 e084906:	00 00                	add    %al,(%eax)
 e084908:	00 00                	add    %al,(%eax)
 e08490a:	00 00                	add    %al,(%eax)
 e08490c:	00 00                	add    %al,(%eax)
 e08490e:	00 00                	add    %al,(%eax)
 e084910:	00 00                	add    %al,(%eax)
 e084912:	00 00                	add    %al,(%eax)
 e084914:	00 00                	add    %al,(%eax)
 e084916:	00 00                	add    %al,(%eax)
 e084918:	00 00                	add    %al,(%eax)
 e08491a:	00 00                	add    %al,(%eax)
 e08491c:	00 00                	add    %al,(%eax)
 e08491e:	00 00                	add    %al,(%eax)
 e084920:	00 00                	add    %al,(%eax)
 e084922:	00 00                	add    %al,(%eax)
 e084924:	00 00                	add    %al,(%eax)
 e084926:	00 00                	add    %al,(%eax)
 e084928:	00 00                	add    %al,(%eax)
 e08492a:	00 00                	add    %al,(%eax)
 e08492c:	00 00                	add    %al,(%eax)
 e08492e:	00 00                	add    %al,(%eax)
 e084930:	00 00                	add    %al,(%eax)
 e084932:	00 00                	add    %al,(%eax)
 e084934:	00 00                	add    %al,(%eax)
 e084936:	00 00                	add    %al,(%eax)
 e084938:	00 00                	add    %al,(%eax)
 e08493a:	00 00                	add    %al,(%eax)
 e08493c:	00 00                	add    %al,(%eax)
 e08493e:	00 00                	add    %al,(%eax)
 e084940:	00 00                	add    %al,(%eax)
 e084942:	00 00                	add    %al,(%eax)
 e084944:	00 00                	add    %al,(%eax)
 e084946:	00 00                	add    %al,(%eax)
 e084948:	00 00                	add    %al,(%eax)
 e08494a:	00 00                	add    %al,(%eax)
 e08494c:	00 00                	add    %al,(%eax)
 e08494e:	00 00                	add    %al,(%eax)
 e084950:	00 00                	add    %al,(%eax)
 e084952:	00 00                	add    %al,(%eax)
 e084954:	00 00                	add    %al,(%eax)
 e084956:	00 00                	add    %al,(%eax)
 e084958:	00 00                	add    %al,(%eax)
 e08495a:	00 00                	add    %al,(%eax)
 e08495c:	00 00                	add    %al,(%eax)
 e08495e:	00 00                	add    %al,(%eax)
 e084960:	00 00                	add    %al,(%eax)
 e084962:	00 00                	add    %al,(%eax)
 e084964:	00 00                	add    %al,(%eax)
 e084966:	00 00                	add    %al,(%eax)
 e084968:	00 00                	add    %al,(%eax)
 e08496a:	00 00                	add    %al,(%eax)
 e08496c:	00 00                	add    %al,(%eax)
 e08496e:	00 00                	add    %al,(%eax)
 e084970:	00 00                	add    %al,(%eax)
 e084972:	00 00                	add    %al,(%eax)
 e084974:	00 00                	add    %al,(%eax)
 e084976:	00 00                	add    %al,(%eax)
 e084978:	00 00                	add    %al,(%eax)
 e08497a:	00 00                	add    %al,(%eax)
 e08497c:	00 00                	add    %al,(%eax)
 e08497e:	00 00                	add    %al,(%eax)
 e084980:	00 00                	add    %al,(%eax)
 e084982:	00 00                	add    %al,(%eax)
 e084984:	00 00                	add    %al,(%eax)
 e084986:	00 00                	add    %al,(%eax)
 e084988:	00 00                	add    %al,(%eax)
 e08498a:	00 00                	add    %al,(%eax)
 e08498c:	00 00                	add    %al,(%eax)
 e08498e:	00 00                	add    %al,(%eax)
 e084990:	00 00                	add    %al,(%eax)
 e084992:	00 00                	add    %al,(%eax)
 e084994:	00 00                	add    %al,(%eax)
 e084996:	00 00                	add    %al,(%eax)
 e084998:	00 00                	add    %al,(%eax)
 e08499a:	00 00                	add    %al,(%eax)
 e08499c:	00 00                	add    %al,(%eax)
 e08499e:	00 00                	add    %al,(%eax)
 e0849a0:	00 00                	add    %al,(%eax)
 e0849a2:	00 00                	add    %al,(%eax)
 e0849a4:	00 00                	add    %al,(%eax)
 e0849a6:	00 00                	add    %al,(%eax)
 e0849a8:	00 00                	add    %al,(%eax)
 e0849aa:	00 00                	add    %al,(%eax)
 e0849ac:	00 00                	add    %al,(%eax)
 e0849ae:	00 00                	add    %al,(%eax)
 e0849b0:	00 00                	add    %al,(%eax)
 e0849b2:	00 00                	add    %al,(%eax)
 e0849b4:	00 00                	add    %al,(%eax)
 e0849b6:	00 00                	add    %al,(%eax)
 e0849b8:	00 00                	add    %al,(%eax)
 e0849ba:	00 00                	add    %al,(%eax)
 e0849bc:	00 00                	add    %al,(%eax)
 e0849be:	00 00                	add    %al,(%eax)
 e0849c0:	00 00                	add    %al,(%eax)
 e0849c2:	00 00                	add    %al,(%eax)
 e0849c4:	00 00                	add    %al,(%eax)
 e0849c6:	00 00                	add    %al,(%eax)
 e0849c8:	00 00                	add    %al,(%eax)
 e0849ca:	00 00                	add    %al,(%eax)
 e0849cc:	00 00                	add    %al,(%eax)
 e0849ce:	00 00                	add    %al,(%eax)
 e0849d0:	00 00                	add    %al,(%eax)
 e0849d2:	00 00                	add    %al,(%eax)
 e0849d4:	00 00                	add    %al,(%eax)
 e0849d6:	00 00                	add    %al,(%eax)
 e0849d8:	00 00                	add    %al,(%eax)
 e0849da:	00 00                	add    %al,(%eax)
 e0849dc:	00 00                	add    %al,(%eax)
 e0849de:	00 00                	add    %al,(%eax)
 e0849e0:	00 00                	add    %al,(%eax)
 e0849e2:	00 00                	add    %al,(%eax)
 e0849e4:	00 00                	add    %al,(%eax)
 e0849e6:	00 00                	add    %al,(%eax)
 e0849e8:	00 00                	add    %al,(%eax)
 e0849ea:	00 00                	add    %al,(%eax)
 e0849ec:	00 00                	add    %al,(%eax)
 e0849ee:	00 00                	add    %al,(%eax)
 e0849f0:	00 00                	add    %al,(%eax)
 e0849f2:	00 00                	add    %al,(%eax)
 e0849f4:	00 00                	add    %al,(%eax)
 e0849f6:	00 00                	add    %al,(%eax)
 e0849f8:	00 00                	add    %al,(%eax)
 e0849fa:	00 00                	add    %al,(%eax)
 e0849fc:	00 00                	add    %al,(%eax)
 e0849fe:	00 00                	add    %al,(%eax)
 e084a00:	00 00                	add    %al,(%eax)
 e084a02:	00 00                	add    %al,(%eax)
 e084a04:	00 00                	add    %al,(%eax)
 e084a06:	00 00                	add    %al,(%eax)
 e084a08:	00 00                	add    %al,(%eax)
 e084a0a:	00 00                	add    %al,(%eax)
 e084a0c:	00 00                	add    %al,(%eax)
 e084a0e:	00 00                	add    %al,(%eax)
 e084a10:	00 00                	add    %al,(%eax)
 e084a12:	00 00                	add    %al,(%eax)
 e084a14:	00 00                	add    %al,(%eax)
 e084a16:	00 00                	add    %al,(%eax)
 e084a18:	00 00                	add    %al,(%eax)
 e084a1a:	00 00                	add    %al,(%eax)
 e084a1c:	00 00                	add    %al,(%eax)
 e084a1e:	00 00                	add    %al,(%eax)
 e084a20:	00 00                	add    %al,(%eax)
 e084a22:	00 00                	add    %al,(%eax)
 e084a24:	00 00                	add    %al,(%eax)
 e084a26:	00 00                	add    %al,(%eax)
 e084a28:	00 00                	add    %al,(%eax)
 e084a2a:	00 00                	add    %al,(%eax)
 e084a2c:	00 00                	add    %al,(%eax)
 e084a2e:	00 00                	add    %al,(%eax)
 e084a30:	00 00                	add    %al,(%eax)
 e084a32:	00 00                	add    %al,(%eax)
 e084a34:	00 00                	add    %al,(%eax)
 e084a36:	00 00                	add    %al,(%eax)
 e084a38:	00 00                	add    %al,(%eax)
 e084a3a:	00 00                	add    %al,(%eax)
 e084a3c:	00 00                	add    %al,(%eax)
 e084a3e:	00 00                	add    %al,(%eax)
 e084a40:	00 00                	add    %al,(%eax)
 e084a42:	00 00                	add    %al,(%eax)
 e084a44:	00 00                	add    %al,(%eax)
 e084a46:	00 00                	add    %al,(%eax)
 e084a48:	00 00                	add    %al,(%eax)
 e084a4a:	00 00                	add    %al,(%eax)
 e084a4c:	00 00                	add    %al,(%eax)
 e084a4e:	00 00                	add    %al,(%eax)
 e084a50:	00 00                	add    %al,(%eax)
 e084a52:	00 00                	add    %al,(%eax)
 e084a54:	00 00                	add    %al,(%eax)
 e084a56:	00 00                	add    %al,(%eax)
 e084a58:	00 00                	add    %al,(%eax)
 e084a5a:	00 00                	add    %al,(%eax)
 e084a5c:	00 00                	add    %al,(%eax)
 e084a5e:	00 00                	add    %al,(%eax)
 e084a60:	00 00                	add    %al,(%eax)
 e084a62:	00 00                	add    %al,(%eax)
 e084a64:	00 00                	add    %al,(%eax)
 e084a66:	00 00                	add    %al,(%eax)
 e084a68:	00 00                	add    %al,(%eax)
 e084a6a:	00 00                	add    %al,(%eax)
 e084a6c:	00 00                	add    %al,(%eax)
 e084a6e:	00 00                	add    %al,(%eax)
 e084a70:	00 00                	add    %al,(%eax)
 e084a72:	00 00                	add    %al,(%eax)
 e084a74:	00 00                	add    %al,(%eax)
 e084a76:	00 00                	add    %al,(%eax)
 e084a78:	00 00                	add    %al,(%eax)
 e084a7a:	00 00                	add    %al,(%eax)
 e084a7c:	00 00                	add    %al,(%eax)
 e084a7e:	00 00                	add    %al,(%eax)
 e084a80:	00 00                	add    %al,(%eax)
 e084a82:	00 00                	add    %al,(%eax)
 e084a84:	00 00                	add    %al,(%eax)
 e084a86:	00 00                	add    %al,(%eax)
 e084a88:	00 00                	add    %al,(%eax)
 e084a8a:	00 00                	add    %al,(%eax)
 e084a8c:	00 00                	add    %al,(%eax)
 e084a8e:	00 00                	add    %al,(%eax)
 e084a90:	00 00                	add    %al,(%eax)
 e084a92:	00 00                	add    %al,(%eax)
 e084a94:	00 00                	add    %al,(%eax)
 e084a96:	00 00                	add    %al,(%eax)
 e084a98:	00 00                	add    %al,(%eax)
 e084a9a:	00 00                	add    %al,(%eax)
 e084a9c:	00 00                	add    %al,(%eax)
 e084a9e:	00 00                	add    %al,(%eax)
 e084aa0:	00 00                	add    %al,(%eax)
 e084aa2:	00 00                	add    %al,(%eax)
 e084aa4:	00 00                	add    %al,(%eax)
 e084aa6:	00 00                	add    %al,(%eax)
 e084aa8:	00 00                	add    %al,(%eax)
 e084aaa:	00 00                	add    %al,(%eax)
 e084aac:	00 00                	add    %al,(%eax)
 e084aae:	00 00                	add    %al,(%eax)
 e084ab0:	00 00                	add    %al,(%eax)
 e084ab2:	00 00                	add    %al,(%eax)
 e084ab4:	00 00                	add    %al,(%eax)
 e084ab6:	00 00                	add    %al,(%eax)
 e084ab8:	00 00                	add    %al,(%eax)
 e084aba:	00 00                	add    %al,(%eax)
 e084abc:	00 00                	add    %al,(%eax)
 e084abe:	00 00                	add    %al,(%eax)
 e084ac0:	00 00                	add    %al,(%eax)
 e084ac2:	00 00                	add    %al,(%eax)
 e084ac4:	00 00                	add    %al,(%eax)
 e084ac6:	00 00                	add    %al,(%eax)
 e084ac8:	00 00                	add    %al,(%eax)
 e084aca:	00 00                	add    %al,(%eax)
 e084acc:	00 00                	add    %al,(%eax)
 e084ace:	00 00                	add    %al,(%eax)
 e084ad0:	00 00                	add    %al,(%eax)
 e084ad2:	00 00                	add    %al,(%eax)
 e084ad4:	00 00                	add    %al,(%eax)
 e084ad6:	00 00                	add    %al,(%eax)
 e084ad8:	00 00                	add    %al,(%eax)
 e084ada:	00 00                	add    %al,(%eax)
 e084adc:	00 00                	add    %al,(%eax)
 e084ade:	00 00                	add    %al,(%eax)
 e084ae0:	00 00                	add    %al,(%eax)
 e084ae2:	00 00                	add    %al,(%eax)
 e084ae4:	00 00                	add    %al,(%eax)
 e084ae6:	00 00                	add    %al,(%eax)
 e084ae8:	00 00                	add    %al,(%eax)
 e084aea:	00 00                	add    %al,(%eax)
 e084aec:	00 00                	add    %al,(%eax)
 e084aee:	00 00                	add    %al,(%eax)
 e084af0:	00 00                	add    %al,(%eax)
 e084af2:	00 00                	add    %al,(%eax)
 e084af4:	00 00                	add    %al,(%eax)
 e084af6:	00 00                	add    %al,(%eax)
 e084af8:	00 00                	add    %al,(%eax)
 e084afa:	00 00                	add    %al,(%eax)
 e084afc:	00 00                	add    %al,(%eax)
 e084afe:	00 00                	add    %al,(%eax)
 e084b00:	00 00                	add    %al,(%eax)
 e084b02:	00 00                	add    %al,(%eax)
 e084b04:	00 00                	add    %al,(%eax)
 e084b06:	00 00                	add    %al,(%eax)
 e084b08:	00 00                	add    %al,(%eax)
 e084b0a:	00 00                	add    %al,(%eax)
 e084b0c:	00 00                	add    %al,(%eax)
 e084b0e:	00 00                	add    %al,(%eax)
 e084b10:	00 00                	add    %al,(%eax)
 e084b12:	00 00                	add    %al,(%eax)
 e084b14:	00 00                	add    %al,(%eax)
 e084b16:	00 00                	add    %al,(%eax)
 e084b18:	00 00                	add    %al,(%eax)
 e084b1a:	00 00                	add    %al,(%eax)
 e084b1c:	00 00                	add    %al,(%eax)
 e084b1e:	00 00                	add    %al,(%eax)
 e084b20:	00 00                	add    %al,(%eax)
 e084b22:	00 00                	add    %al,(%eax)
 e084b24:	00 00                	add    %al,(%eax)
 e084b26:	00 00                	add    %al,(%eax)
 e084b28:	00 00                	add    %al,(%eax)
 e084b2a:	00 00                	add    %al,(%eax)
 e084b2c:	00 00                	add    %al,(%eax)
 e084b2e:	00 00                	add    %al,(%eax)
 e084b30:	00 00                	add    %al,(%eax)
 e084b32:	00 00                	add    %al,(%eax)
 e084b34:	00 00                	add    %al,(%eax)
 e084b36:	00 00                	add    %al,(%eax)
 e084b38:	00 00                	add    %al,(%eax)
 e084b3a:	00 00                	add    %al,(%eax)
 e084b3c:	00 00                	add    %al,(%eax)
 e084b3e:	00 00                	add    %al,(%eax)
 e084b40:	00 00                	add    %al,(%eax)
 e084b42:	00 00                	add    %al,(%eax)
 e084b44:	00 00                	add    %al,(%eax)
 e084b46:	00 00                	add    %al,(%eax)
 e084b48:	00 00                	add    %al,(%eax)
 e084b4a:	00 00                	add    %al,(%eax)
 e084b4c:	00 00                	add    %al,(%eax)
 e084b4e:	00 00                	add    %al,(%eax)
 e084b50:	00 00                	add    %al,(%eax)
 e084b52:	00 00                	add    %al,(%eax)
 e084b54:	00 00                	add    %al,(%eax)
 e084b56:	00 00                	add    %al,(%eax)
 e084b58:	00 00                	add    %al,(%eax)
 e084b5a:	00 00                	add    %al,(%eax)
 e084b5c:	00 00                	add    %al,(%eax)
 e084b5e:	00 00                	add    %al,(%eax)
 e084b60:	00 00                	add    %al,(%eax)
 e084b62:	00 00                	add    %al,(%eax)
 e084b64:	00 00                	add    %al,(%eax)
 e084b66:	00 00                	add    %al,(%eax)
 e084b68:	00 00                	add    %al,(%eax)
 e084b6a:	00 00                	add    %al,(%eax)
 e084b6c:	00 00                	add    %al,(%eax)
 e084b6e:	00 00                	add    %al,(%eax)
 e084b70:	00 00                	add    %al,(%eax)
 e084b72:	00 00                	add    %al,(%eax)
 e084b74:	00 00                	add    %al,(%eax)
 e084b76:	00 00                	add    %al,(%eax)
 e084b78:	00 00                	add    %al,(%eax)
 e084b7a:	00 00                	add    %al,(%eax)
 e084b7c:	00 00                	add    %al,(%eax)
 e084b7e:	00 00                	add    %al,(%eax)
 e084b80:	00 00                	add    %al,(%eax)
 e084b82:	00 00                	add    %al,(%eax)
 e084b84:	00 00                	add    %al,(%eax)
 e084b86:	00 00                	add    %al,(%eax)
 e084b88:	00 00                	add    %al,(%eax)
 e084b8a:	00 00                	add    %al,(%eax)
 e084b8c:	00 00                	add    %al,(%eax)
 e084b8e:	00 00                	add    %al,(%eax)
 e084b90:	00 00                	add    %al,(%eax)
 e084b92:	00 00                	add    %al,(%eax)
 e084b94:	00 00                	add    %al,(%eax)
 e084b96:	00 00                	add    %al,(%eax)
 e084b98:	00 00                	add    %al,(%eax)
 e084b9a:	00 00                	add    %al,(%eax)
 e084b9c:	00 00                	add    %al,(%eax)
 e084b9e:	00 00                	add    %al,(%eax)
 e084ba0:	00 00                	add    %al,(%eax)
 e084ba2:	00 00                	add    %al,(%eax)
 e084ba4:	00 00                	add    %al,(%eax)
 e084ba6:	00 00                	add    %al,(%eax)
 e084ba8:	00 00                	add    %al,(%eax)
 e084baa:	00 00                	add    %al,(%eax)
 e084bac:	00 00                	add    %al,(%eax)
 e084bae:	00 00                	add    %al,(%eax)
 e084bb0:	00 00                	add    %al,(%eax)
 e084bb2:	00 00                	add    %al,(%eax)
 e084bb4:	00 00                	add    %al,(%eax)
 e084bb6:	00 00                	add    %al,(%eax)
 e084bb8:	00 00                	add    %al,(%eax)
 e084bba:	00 00                	add    %al,(%eax)
 e084bbc:	00 00                	add    %al,(%eax)
 e084bbe:	00 00                	add    %al,(%eax)
 e084bc0:	00 00                	add    %al,(%eax)
 e084bc2:	00 00                	add    %al,(%eax)
 e084bc4:	00 00                	add    %al,(%eax)
 e084bc6:	00 00                	add    %al,(%eax)
 e084bc8:	00 00                	add    %al,(%eax)
 e084bca:	00 00                	add    %al,(%eax)
 e084bcc:	00 00                	add    %al,(%eax)
 e084bce:	00 00                	add    %al,(%eax)
 e084bd0:	00 00                	add    %al,(%eax)
 e084bd2:	00 00                	add    %al,(%eax)
 e084bd4:	00 00                	add    %al,(%eax)
 e084bd6:	00 00                	add    %al,(%eax)
 e084bd8:	00 00                	add    %al,(%eax)
 e084bda:	00 00                	add    %al,(%eax)
 e084bdc:	00 00                	add    %al,(%eax)
 e084bde:	00 00                	add    %al,(%eax)
 e084be0:	00 00                	add    %al,(%eax)
 e084be2:	00 00                	add    %al,(%eax)
 e084be4:	00 00                	add    %al,(%eax)
 e084be6:	00 00                	add    %al,(%eax)
 e084be8:	00 00                	add    %al,(%eax)
 e084bea:	00 00                	add    %al,(%eax)
 e084bec:	00 00                	add    %al,(%eax)
 e084bee:	00 00                	add    %al,(%eax)
 e084bf0:	00 00                	add    %al,(%eax)
 e084bf2:	00 00                	add    %al,(%eax)
 e084bf4:	00 00                	add    %al,(%eax)
 e084bf6:	00 00                	add    %al,(%eax)
 e084bf8:	00 00                	add    %al,(%eax)
 e084bfa:	00 00                	add    %al,(%eax)
 e084bfc:	00 00                	add    %al,(%eax)
 e084bfe:	00 00                	add    %al,(%eax)
 e084c00:	00 00                	add    %al,(%eax)
 e084c02:	00 00                	add    %al,(%eax)
 e084c04:	00 00                	add    %al,(%eax)
 e084c06:	00 00                	add    %al,(%eax)
 e084c08:	00 00                	add    %al,(%eax)
 e084c0a:	00 00                	add    %al,(%eax)
 e084c0c:	00 00                	add    %al,(%eax)
 e084c0e:	00 00                	add    %al,(%eax)
 e084c10:	00 00                	add    %al,(%eax)
 e084c12:	00 00                	add    %al,(%eax)
 e084c14:	00 00                	add    %al,(%eax)
 e084c16:	00 00                	add    %al,(%eax)
 e084c18:	00 00                	add    %al,(%eax)
 e084c1a:	00 00                	add    %al,(%eax)
 e084c1c:	00 00                	add    %al,(%eax)
 e084c1e:	00 00                	add    %al,(%eax)
 e084c20:	00 00                	add    %al,(%eax)
 e084c22:	00 00                	add    %al,(%eax)
 e084c24:	00 00                	add    %al,(%eax)
 e084c26:	00 00                	add    %al,(%eax)
 e084c28:	00 00                	add    %al,(%eax)
 e084c2a:	00 00                	add    %al,(%eax)
 e084c2c:	00 00                	add    %al,(%eax)
 e084c2e:	00 00                	add    %al,(%eax)
 e084c30:	00 00                	add    %al,(%eax)
 e084c32:	00 00                	add    %al,(%eax)
 e084c34:	00 00                	add    %al,(%eax)
 e084c36:	00 00                	add    %al,(%eax)
 e084c38:	00 00                	add    %al,(%eax)
 e084c3a:	00 00                	add    %al,(%eax)
 e084c3c:	00 00                	add    %al,(%eax)
 e084c3e:	00 00                	add    %al,(%eax)
 e084c40:	00 00                	add    %al,(%eax)
 e084c42:	00 00                	add    %al,(%eax)
 e084c44:	00 00                	add    %al,(%eax)
 e084c46:	00 00                	add    %al,(%eax)
 e084c48:	00 00                	add    %al,(%eax)
 e084c4a:	00 00                	add    %al,(%eax)
 e084c4c:	00 00                	add    %al,(%eax)
 e084c4e:	00 00                	add    %al,(%eax)
 e084c50:	00 00                	add    %al,(%eax)
 e084c52:	00 00                	add    %al,(%eax)
 e084c54:	00 00                	add    %al,(%eax)
 e084c56:	00 00                	add    %al,(%eax)
 e084c58:	00 00                	add    %al,(%eax)
 e084c5a:	00 00                	add    %al,(%eax)
 e084c5c:	00 00                	add    %al,(%eax)
 e084c5e:	00 00                	add    %al,(%eax)
 e084c60:	00 00                	add    %al,(%eax)
 e084c62:	00 00                	add    %al,(%eax)
 e084c64:	00 00                	add    %al,(%eax)
 e084c66:	00 00                	add    %al,(%eax)
 e084c68:	00 00                	add    %al,(%eax)
 e084c6a:	00 00                	add    %al,(%eax)
 e084c6c:	00 00                	add    %al,(%eax)
 e084c6e:	00 00                	add    %al,(%eax)
 e084c70:	00 00                	add    %al,(%eax)
 e084c72:	00 00                	add    %al,(%eax)
 e084c74:	00 00                	add    %al,(%eax)
 e084c76:	00 00                	add    %al,(%eax)
 e084c78:	00 00                	add    %al,(%eax)
 e084c7a:	00 00                	add    %al,(%eax)
 e084c7c:	00 00                	add    %al,(%eax)
 e084c7e:	00 00                	add    %al,(%eax)
 e084c80:	00 00                	add    %al,(%eax)
 e084c82:	00 00                	add    %al,(%eax)
 e084c84:	00 00                	add    %al,(%eax)
 e084c86:	00 00                	add    %al,(%eax)
 e084c88:	00 00                	add    %al,(%eax)
 e084c8a:	00 00                	add    %al,(%eax)
 e084c8c:	00 00                	add    %al,(%eax)
 e084c8e:	00 00                	add    %al,(%eax)
 e084c90:	00 00                	add    %al,(%eax)
 e084c92:	00 00                	add    %al,(%eax)
 e084c94:	00 00                	add    %al,(%eax)
 e084c96:	00 00                	add    %al,(%eax)
 e084c98:	00 00                	add    %al,(%eax)
 e084c9a:	00 00                	add    %al,(%eax)
 e084c9c:	00 00                	add    %al,(%eax)
 e084c9e:	00 00                	add    %al,(%eax)
 e084ca0:	00 00                	add    %al,(%eax)
 e084ca2:	00 00                	add    %al,(%eax)
 e084ca4:	00 00                	add    %al,(%eax)
 e084ca6:	00 00                	add    %al,(%eax)
 e084ca8:	00 00                	add    %al,(%eax)
 e084caa:	00 00                	add    %al,(%eax)
 e084cac:	00 00                	add    %al,(%eax)
 e084cae:	00 00                	add    %al,(%eax)
 e084cb0:	00 00                	add    %al,(%eax)
 e084cb2:	00 00                	add    %al,(%eax)
 e084cb4:	00 00                	add    %al,(%eax)
 e084cb6:	00 00                	add    %al,(%eax)
 e084cb8:	00 00                	add    %al,(%eax)
 e084cba:	00 00                	add    %al,(%eax)
 e084cbc:	00 00                	add    %al,(%eax)
 e084cbe:	00 00                	add    %al,(%eax)
 e084cc0:	00 00                	add    %al,(%eax)
 e084cc2:	00 00                	add    %al,(%eax)
 e084cc4:	00 00                	add    %al,(%eax)
 e084cc6:	00 00                	add    %al,(%eax)
 e084cc8:	00 00                	add    %al,(%eax)
 e084cca:	00 00                	add    %al,(%eax)
 e084ccc:	00 00                	add    %al,(%eax)
 e084cce:	00 00                	add    %al,(%eax)
 e084cd0:	00 00                	add    %al,(%eax)
 e084cd2:	00 00                	add    %al,(%eax)
 e084cd4:	00 00                	add    %al,(%eax)
 e084cd6:	00 00                	add    %al,(%eax)
 e084cd8:	00 00                	add    %al,(%eax)
 e084cda:	00 00                	add    %al,(%eax)
 e084cdc:	00 00                	add    %al,(%eax)
 e084cde:	00 00                	add    %al,(%eax)
 e084ce0:	00 00                	add    %al,(%eax)
 e084ce2:	00 00                	add    %al,(%eax)
 e084ce4:	00 00                	add    %al,(%eax)
 e084ce6:	00 00                	add    %al,(%eax)
 e084ce8:	00 00                	add    %al,(%eax)
 e084cea:	00 00                	add    %al,(%eax)
 e084cec:	00 00                	add    %al,(%eax)
 e084cee:	00 00                	add    %al,(%eax)
 e084cf0:	00 00                	add    %al,(%eax)
 e084cf2:	00 00                	add    %al,(%eax)
 e084cf4:	00 00                	add    %al,(%eax)
 e084cf6:	00 00                	add    %al,(%eax)
 e084cf8:	00 00                	add    %al,(%eax)
 e084cfa:	00 00                	add    %al,(%eax)
 e084cfc:	00 00                	add    %al,(%eax)
 e084cfe:	00 00                	add    %al,(%eax)
 e084d00:	00 00                	add    %al,(%eax)
 e084d02:	00 00                	add    %al,(%eax)
 e084d04:	00 00                	add    %al,(%eax)
 e084d06:	00 00                	add    %al,(%eax)
 e084d08:	00 00                	add    %al,(%eax)
 e084d0a:	00 00                	add    %al,(%eax)
 e084d0c:	00 00                	add    %al,(%eax)
 e084d0e:	00 00                	add    %al,(%eax)
 e084d10:	00 00                	add    %al,(%eax)
 e084d12:	00 00                	add    %al,(%eax)
 e084d14:	00 00                	add    %al,(%eax)
 e084d16:	00 00                	add    %al,(%eax)
 e084d18:	00 00                	add    %al,(%eax)
 e084d1a:	00 00                	add    %al,(%eax)
 e084d1c:	00 00                	add    %al,(%eax)
 e084d1e:	00 00                	add    %al,(%eax)
 e084d20:	00 00                	add    %al,(%eax)
 e084d22:	00 00                	add    %al,(%eax)
 e084d24:	00 00                	add    %al,(%eax)
 e084d26:	00 00                	add    %al,(%eax)
 e084d28:	00 00                	add    %al,(%eax)
 e084d2a:	00 00                	add    %al,(%eax)
 e084d2c:	00 00                	add    %al,(%eax)
 e084d2e:	00 00                	add    %al,(%eax)
 e084d30:	00 00                	add    %al,(%eax)
 e084d32:	00 00                	add    %al,(%eax)
 e084d34:	00 00                	add    %al,(%eax)
 e084d36:	00 00                	add    %al,(%eax)
 e084d38:	00 00                	add    %al,(%eax)
 e084d3a:	00 00                	add    %al,(%eax)
 e084d3c:	00 00                	add    %al,(%eax)
 e084d3e:	00 00                	add    %al,(%eax)
 e084d40:	00 00                	add    %al,(%eax)
 e084d42:	00 00                	add    %al,(%eax)
 e084d44:	00 00                	add    %al,(%eax)
 e084d46:	00 00                	add    %al,(%eax)
 e084d48:	00 00                	add    %al,(%eax)
 e084d4a:	00 00                	add    %al,(%eax)
 e084d4c:	00 00                	add    %al,(%eax)
 e084d4e:	00 00                	add    %al,(%eax)
 e084d50:	00 00                	add    %al,(%eax)
 e084d52:	00 00                	add    %al,(%eax)
 e084d54:	00 00                	add    %al,(%eax)
 e084d56:	00 00                	add    %al,(%eax)
 e084d58:	00 00                	add    %al,(%eax)
 e084d5a:	00 00                	add    %al,(%eax)
 e084d5c:	00 00                	add    %al,(%eax)
 e084d5e:	00 00                	add    %al,(%eax)
 e084d60:	00 00                	add    %al,(%eax)
 e084d62:	00 00                	add    %al,(%eax)
 e084d64:	00 00                	add    %al,(%eax)
 e084d66:	00 00                	add    %al,(%eax)
 e084d68:	00 00                	add    %al,(%eax)
 e084d6a:	00 00                	add    %al,(%eax)
 e084d6c:	00 00                	add    %al,(%eax)
 e084d6e:	00 00                	add    %al,(%eax)
 e084d70:	00 00                	add    %al,(%eax)
 e084d72:	00 00                	add    %al,(%eax)
 e084d74:	00 00                	add    %al,(%eax)
 e084d76:	00 00                	add    %al,(%eax)
 e084d78:	00 00                	add    %al,(%eax)
 e084d7a:	00 00                	add    %al,(%eax)
 e084d7c:	00 00                	add    %al,(%eax)
 e084d7e:	00 00                	add    %al,(%eax)
 e084d80:	00 00                	add    %al,(%eax)
 e084d82:	00 00                	add    %al,(%eax)
 e084d84:	00 00                	add    %al,(%eax)
 e084d86:	00 00                	add    %al,(%eax)
 e084d88:	00 00                	add    %al,(%eax)
 e084d8a:	00 00                	add    %al,(%eax)
 e084d8c:	00 00                	add    %al,(%eax)
 e084d8e:	00 00                	add    %al,(%eax)
 e084d90:	00 00                	add    %al,(%eax)
 e084d92:	00 00                	add    %al,(%eax)
 e084d94:	00 00                	add    %al,(%eax)
 e084d96:	00 00                	add    %al,(%eax)
 e084d98:	00 00                	add    %al,(%eax)
 e084d9a:	00 00                	add    %al,(%eax)
 e084d9c:	00 00                	add    %al,(%eax)
 e084d9e:	00 00                	add    %al,(%eax)
 e084da0:	00 00                	add    %al,(%eax)
 e084da2:	00 00                	add    %al,(%eax)
 e084da4:	00 00                	add    %al,(%eax)
 e084da6:	00 00                	add    %al,(%eax)
 e084da8:	00 00                	add    %al,(%eax)
 e084daa:	00 00                	add    %al,(%eax)
 e084dac:	00 00                	add    %al,(%eax)
 e084dae:	00 00                	add    %al,(%eax)
 e084db0:	00 00                	add    %al,(%eax)
 e084db2:	00 00                	add    %al,(%eax)
 e084db4:	00 00                	add    %al,(%eax)
 e084db6:	00 00                	add    %al,(%eax)
 e084db8:	00 00                	add    %al,(%eax)
 e084dba:	00 00                	add    %al,(%eax)
 e084dbc:	00 00                	add    %al,(%eax)
 e084dbe:	00 00                	add    %al,(%eax)
 e084dc0:	00 00                	add    %al,(%eax)
 e084dc2:	00 00                	add    %al,(%eax)
 e084dc4:	00 00                	add    %al,(%eax)
 e084dc6:	00 00                	add    %al,(%eax)
 e084dc8:	00 00                	add    %al,(%eax)
 e084dca:	00 00                	add    %al,(%eax)
 e084dcc:	00 00                	add    %al,(%eax)
 e084dce:	00 00                	add    %al,(%eax)
 e084dd0:	00 00                	add    %al,(%eax)
 e084dd2:	00 00                	add    %al,(%eax)
 e084dd4:	00 00                	add    %al,(%eax)
 e084dd6:	00 00                	add    %al,(%eax)
 e084dd8:	00 00                	add    %al,(%eax)
 e084dda:	00 00                	add    %al,(%eax)
 e084ddc:	00 00                	add    %al,(%eax)
 e084dde:	00 00                	add    %al,(%eax)
 e084de0:	00 00                	add    %al,(%eax)
 e084de2:	00 00                	add    %al,(%eax)
 e084de4:	00 00                	add    %al,(%eax)
 e084de6:	00 00                	add    %al,(%eax)
 e084de8:	00 00                	add    %al,(%eax)
 e084dea:	00 00                	add    %al,(%eax)
 e084dec:	00 00                	add    %al,(%eax)
 e084dee:	00 00                	add    %al,(%eax)
 e084df0:	00 00                	add    %al,(%eax)
 e084df2:	00 00                	add    %al,(%eax)
 e084df4:	00 00                	add    %al,(%eax)
 e084df6:	00 00                	add    %al,(%eax)
 e084df8:	00 00                	add    %al,(%eax)
 e084dfa:	00 00                	add    %al,(%eax)
 e084dfc:	00 00                	add    %al,(%eax)
 e084dfe:	00 00                	add    %al,(%eax)
 e084e00:	00 00                	add    %al,(%eax)
 e084e02:	00 00                	add    %al,(%eax)
 e084e04:	00 00                	add    %al,(%eax)
 e084e06:	00 00                	add    %al,(%eax)
 e084e08:	00 00                	add    %al,(%eax)
 e084e0a:	00 00                	add    %al,(%eax)
 e084e0c:	00 00                	add    %al,(%eax)
 e084e0e:	00 00                	add    %al,(%eax)
 e084e10:	00 00                	add    %al,(%eax)
 e084e12:	00 00                	add    %al,(%eax)
 e084e14:	00 00                	add    %al,(%eax)
 e084e16:	00 00                	add    %al,(%eax)
 e084e18:	00 00                	add    %al,(%eax)
 e084e1a:	00 00                	add    %al,(%eax)
 e084e1c:	00 00                	add    %al,(%eax)
 e084e1e:	00 00                	add    %al,(%eax)
 e084e20:	00 00                	add    %al,(%eax)
 e084e22:	00 00                	add    %al,(%eax)
 e084e24:	00 00                	add    %al,(%eax)
 e084e26:	00 00                	add    %al,(%eax)
 e084e28:	00 00                	add    %al,(%eax)
 e084e2a:	00 00                	add    %al,(%eax)
 e084e2c:	00 00                	add    %al,(%eax)
 e084e2e:	00 00                	add    %al,(%eax)
 e084e30:	00 00                	add    %al,(%eax)
 e084e32:	00 00                	add    %al,(%eax)
 e084e34:	00 00                	add    %al,(%eax)
 e084e36:	00 00                	add    %al,(%eax)
 e084e38:	00 00                	add    %al,(%eax)
 e084e3a:	00 00                	add    %al,(%eax)
 e084e3c:	00 00                	add    %al,(%eax)
 e084e3e:	00 00                	add    %al,(%eax)
 e084e40:	00 00                	add    %al,(%eax)
 e084e42:	00 00                	add    %al,(%eax)
 e084e44:	00 00                	add    %al,(%eax)
 e084e46:	00 00                	add    %al,(%eax)
 e084e48:	00 00                	add    %al,(%eax)
 e084e4a:	00 00                	add    %al,(%eax)
 e084e4c:	00 00                	add    %al,(%eax)
 e084e4e:	00 00                	add    %al,(%eax)
 e084e50:	00 00                	add    %al,(%eax)
 e084e52:	00 00                	add    %al,(%eax)
 e084e54:	00 00                	add    %al,(%eax)
 e084e56:	00 00                	add    %al,(%eax)
 e084e58:	00 00                	add    %al,(%eax)
 e084e5a:	00 00                	add    %al,(%eax)
 e084e5c:	00 00                	add    %al,(%eax)
 e084e5e:	00 00                	add    %al,(%eax)
 e084e60:	00 00                	add    %al,(%eax)
 e084e62:	00 00                	add    %al,(%eax)
 e084e64:	00 00                	add    %al,(%eax)
 e084e66:	00 00                	add    %al,(%eax)
 e084e68:	00 00                	add    %al,(%eax)
 e084e6a:	00 00                	add    %al,(%eax)
 e084e6c:	00 00                	add    %al,(%eax)
 e084e6e:	00 00                	add    %al,(%eax)
 e084e70:	00 00                	add    %al,(%eax)
 e084e72:	00 00                	add    %al,(%eax)
 e084e74:	00 00                	add    %al,(%eax)
 e084e76:	00 00                	add    %al,(%eax)
 e084e78:	00 00                	add    %al,(%eax)
 e084e7a:	00 00                	add    %al,(%eax)
 e084e7c:	00 00                	add    %al,(%eax)
 e084e7e:	00 00                	add    %al,(%eax)
 e084e80:	00 00                	add    %al,(%eax)
 e084e82:	00 00                	add    %al,(%eax)
 e084e84:	00 00                	add    %al,(%eax)
 e084e86:	00 00                	add    %al,(%eax)
 e084e88:	00 00                	add    %al,(%eax)
 e084e8a:	00 00                	add    %al,(%eax)
 e084e8c:	00 00                	add    %al,(%eax)
 e084e8e:	00 00                	add    %al,(%eax)
 e084e90:	00 00                	add    %al,(%eax)
 e084e92:	00 00                	add    %al,(%eax)
 e084e94:	00 00                	add    %al,(%eax)
 e084e96:	00 00                	add    %al,(%eax)
 e084e98:	00 00                	add    %al,(%eax)
 e084e9a:	00 00                	add    %al,(%eax)
 e084e9c:	00 00                	add    %al,(%eax)
 e084e9e:	00 00                	add    %al,(%eax)
 e084ea0:	00 00                	add    %al,(%eax)
 e084ea2:	00 00                	add    %al,(%eax)
 e084ea4:	00 00                	add    %al,(%eax)
 e084ea6:	00 00                	add    %al,(%eax)
 e084ea8:	00 00                	add    %al,(%eax)
 e084eaa:	00 00                	add    %al,(%eax)
 e084eac:	00 00                	add    %al,(%eax)
 e084eae:	00 00                	add    %al,(%eax)
 e084eb0:	00 00                	add    %al,(%eax)
 e084eb2:	00 00                	add    %al,(%eax)
 e084eb4:	00 00                	add    %al,(%eax)
 e084eb6:	00 00                	add    %al,(%eax)
 e084eb8:	00 00                	add    %al,(%eax)
 e084eba:	00 00                	add    %al,(%eax)
 e084ebc:	00 00                	add    %al,(%eax)
 e084ebe:	00 00                	add    %al,(%eax)
 e084ec0:	00 00                	add    %al,(%eax)
 e084ec2:	00 00                	add    %al,(%eax)
 e084ec4:	00 00                	add    %al,(%eax)
 e084ec6:	00 00                	add    %al,(%eax)
 e084ec8:	00 00                	add    %al,(%eax)
 e084eca:	00 00                	add    %al,(%eax)
 e084ecc:	00 00                	add    %al,(%eax)
 e084ece:	00 00                	add    %al,(%eax)
 e084ed0:	00 00                	add    %al,(%eax)
 e084ed2:	00 00                	add    %al,(%eax)
 e084ed4:	00 00                	add    %al,(%eax)
 e084ed6:	00 00                	add    %al,(%eax)
 e084ed8:	00 00                	add    %al,(%eax)
 e084eda:	00 00                	add    %al,(%eax)
 e084edc:	00 00                	add    %al,(%eax)
 e084ede:	00 00                	add    %al,(%eax)
 e084ee0:	00 00                	add    %al,(%eax)
 e084ee2:	00 00                	add    %al,(%eax)
 e084ee4:	00 00                	add    %al,(%eax)
 e084ee6:	00 00                	add    %al,(%eax)
 e084ee8:	00 00                	add    %al,(%eax)
 e084eea:	00 00                	add    %al,(%eax)
 e084eec:	00 00                	add    %al,(%eax)
 e084eee:	00 00                	add    %al,(%eax)
 e084ef0:	00 00                	add    %al,(%eax)
 e084ef2:	00 00                	add    %al,(%eax)
 e084ef4:	00 00                	add    %al,(%eax)
 e084ef6:	00 00                	add    %al,(%eax)
 e084ef8:	00 00                	add    %al,(%eax)
 e084efa:	00 00                	add    %al,(%eax)
 e084efc:	00 00                	add    %al,(%eax)
 e084efe:	00 00                	add    %al,(%eax)
 e084f00:	00 00                	add    %al,(%eax)
 e084f02:	00 00                	add    %al,(%eax)
 e084f04:	00 00                	add    %al,(%eax)
 e084f06:	00 00                	add    %al,(%eax)
 e084f08:	00 00                	add    %al,(%eax)
 e084f0a:	00 00                	add    %al,(%eax)
 e084f0c:	00 00                	add    %al,(%eax)
 e084f0e:	00 00                	add    %al,(%eax)
 e084f10:	00 00                	add    %al,(%eax)
 e084f12:	00 00                	add    %al,(%eax)
 e084f14:	00 00                	add    %al,(%eax)
 e084f16:	00 00                	add    %al,(%eax)
 e084f18:	00 00                	add    %al,(%eax)
 e084f1a:	00 00                	add    %al,(%eax)
 e084f1c:	00 00                	add    %al,(%eax)
 e084f1e:	00 00                	add    %al,(%eax)
 e084f20:	00 00                	add    %al,(%eax)
 e084f22:	00 00                	add    %al,(%eax)
 e084f24:	00 00                	add    %al,(%eax)
 e084f26:	00 00                	add    %al,(%eax)
 e084f28:	00 00                	add    %al,(%eax)
 e084f2a:	00 00                	add    %al,(%eax)
 e084f2c:	00 00                	add    %al,(%eax)
 e084f2e:	00 00                	add    %al,(%eax)
 e084f30:	00 00                	add    %al,(%eax)
 e084f32:	00 00                	add    %al,(%eax)
 e084f34:	00 00                	add    %al,(%eax)
 e084f36:	00 00                	add    %al,(%eax)
 e084f38:	00 00                	add    %al,(%eax)
 e084f3a:	00 00                	add    %al,(%eax)
 e084f3c:	00 00                	add    %al,(%eax)
 e084f3e:	00 00                	add    %al,(%eax)
 e084f40:	00 00                	add    %al,(%eax)
 e084f42:	00 00                	add    %al,(%eax)
 e084f44:	00 00                	add    %al,(%eax)
 e084f46:	00 00                	add    %al,(%eax)
 e084f48:	00 00                	add    %al,(%eax)
 e084f4a:	00 00                	add    %al,(%eax)
 e084f4c:	00 00                	add    %al,(%eax)
 e084f4e:	00 00                	add    %al,(%eax)
 e084f50:	00 00                	add    %al,(%eax)
 e084f52:	00 00                	add    %al,(%eax)
 e084f54:	00 00                	add    %al,(%eax)
 e084f56:	00 00                	add    %al,(%eax)
 e084f58:	00 00                	add    %al,(%eax)
 e084f5a:	00 00                	add    %al,(%eax)
 e084f5c:	00 00                	add    %al,(%eax)
 e084f5e:	00 00                	add    %al,(%eax)
 e084f60:	00 00                	add    %al,(%eax)
 e084f62:	00 00                	add    %al,(%eax)
 e084f64:	00 00                	add    %al,(%eax)
 e084f66:	00 00                	add    %al,(%eax)
 e084f68:	00 00                	add    %al,(%eax)
 e084f6a:	00 00                	add    %al,(%eax)
 e084f6c:	00 00                	add    %al,(%eax)
 e084f6e:	00 00                	add    %al,(%eax)
 e084f70:	00 00                	add    %al,(%eax)
 e084f72:	00 00                	add    %al,(%eax)
 e084f74:	00 00                	add    %al,(%eax)
 e084f76:	00 00                	add    %al,(%eax)
 e084f78:	00 00                	add    %al,(%eax)
 e084f7a:	00 00                	add    %al,(%eax)
 e084f7c:	00 00                	add    %al,(%eax)
 e084f7e:	00 00                	add    %al,(%eax)
 e084f80:	00 00                	add    %al,(%eax)
 e084f82:	00 00                	add    %al,(%eax)
 e084f84:	00 00                	add    %al,(%eax)
 e084f86:	00 00                	add    %al,(%eax)
 e084f88:	00 00                	add    %al,(%eax)
 e084f8a:	00 00                	add    %al,(%eax)
 e084f8c:	00 00                	add    %al,(%eax)
 e084f8e:	00 00                	add    %al,(%eax)
 e084f90:	00 00                	add    %al,(%eax)
 e084f92:	00 00                	add    %al,(%eax)
 e084f94:	00 00                	add    %al,(%eax)
 e084f96:	00 00                	add    %al,(%eax)
 e084f98:	00 00                	add    %al,(%eax)
 e084f9a:	00 00                	add    %al,(%eax)
 e084f9c:	00 00                	add    %al,(%eax)
 e084f9e:	00 00                	add    %al,(%eax)
 e084fa0:	00 00                	add    %al,(%eax)
 e084fa2:	00 00                	add    %al,(%eax)
 e084fa4:	00 00                	add    %al,(%eax)
 e084fa6:	00 00                	add    %al,(%eax)
 e084fa8:	00 00                	add    %al,(%eax)
 e084faa:	00 00                	add    %al,(%eax)
 e084fac:	00 00                	add    %al,(%eax)
 e084fae:	00 00                	add    %al,(%eax)
 e084fb0:	00 00                	add    %al,(%eax)
 e084fb2:	00 00                	add    %al,(%eax)
 e084fb4:	00 00                	add    %al,(%eax)
 e084fb6:	00 00                	add    %al,(%eax)
 e084fb8:	00 00                	add    %al,(%eax)
 e084fba:	00 00                	add    %al,(%eax)
 e084fbc:	00 00                	add    %al,(%eax)
 e084fbe:	00 00                	add    %al,(%eax)
 e084fc0:	00 00                	add    %al,(%eax)
 e084fc2:	00 00                	add    %al,(%eax)
 e084fc4:	00 00                	add    %al,(%eax)
 e084fc6:	00 00                	add    %al,(%eax)
 e084fc8:	00 00                	add    %al,(%eax)
 e084fca:	00 00                	add    %al,(%eax)
 e084fcc:	00 00                	add    %al,(%eax)
 e084fce:	00 00                	add    %al,(%eax)
 e084fd0:	00 00                	add    %al,(%eax)
 e084fd2:	00 00                	add    %al,(%eax)
 e084fd4:	00 00                	add    %al,(%eax)
 e084fd6:	00 00                	add    %al,(%eax)
 e084fd8:	00 00                	add    %al,(%eax)
 e084fda:	00 00                	add    %al,(%eax)
 e084fdc:	00 00                	add    %al,(%eax)
 e084fde:	00 00                	add    %al,(%eax)
 e084fe0:	00 00                	add    %al,(%eax)
 e084fe2:	00 00                	add    %al,(%eax)
 e084fe4:	00 00                	add    %al,(%eax)
 e084fe6:	00 00                	add    %al,(%eax)
 e084fe8:	00 00                	add    %al,(%eax)
 e084fea:	00 00                	add    %al,(%eax)
 e084fec:	00 00                	add    %al,(%eax)
 e084fee:	00 00                	add    %al,(%eax)
 e084ff0:	00 00                	add    %al,(%eax)
 e084ff2:	00 00                	add    %al,(%eax)
 e084ff4:	00 00                	add    %al,(%eax)
 e084ff6:	00 00                	add    %al,(%eax)
 e084ff8:	00 00                	add    %al,(%eax)
 e084ffa:	00 00                	add    %al,(%eax)
 e084ffc:	00 00                	add    %al,(%eax)
 e084ffe:	00 00                	add    %al,(%eax)

0e085000 <GDT_VAL>:
 e085000:	ff                   	(bad)  
 e085001:	ff 00                	incl   (%eax)
 e085003:	40                   	inc    %eax
 e085004:	00 00                	add    %al,(%eax)
 e085006:	00 00                	add    %al,(%eax)
 e085008:	00 00                	add    %al,(%eax)
 e08500a:	00 00                	add    %al,(%eax)
 e08500c:	00 00                	add    %al,(%eax)
 e08500e:	00 00                	add    %al,(%eax)
 e085010:	08 00                	or     %al,(%eax)

0e085012 <switch_64bit>:
 e085012:	0f 22 c0             	mov    %eax,%cr0
 e085015:	90                   	nop    
 e085016:	90                   	nop    
 e085017:	90                   	nop    
 e085018:	90                   	nop    
 e085019:	90                   	nop    
 e08501a:	90                   	nop    
 e08501b:	a1 00 50 08 fe       	mov    0xfe085000,%eax
 e085020:	0f 01 15 00 50 08 fe 	lgdtl  0xfe085000

0e085027 <endloop2>:
 e085027:	eb fe                	jmp    e085027 <endloop2>
000000000e08502c <main64>:
 e08502c:	48 31 c0             	xor    %rax,%rax
 e08502f:	48 b8 34 12 ed fe ef 	mov    $0xdeadbeeffeed1234,%rax
 e085036:	be ad de 
 e085039:	8d 0c 25 bd 50 08 0e 	lea    0xe0850bd,%ecx
 e085040:	81 c9 00 00 00 f0    	or     $0xf0000000,%ecx

000000000e085046 <print_string_ser_poll>:
 e085046:	ba fd 03 00 00       	mov    $0x3fd,%edx
 e08504b:	ec                   	in     (%dx),%al
 e08504c:	a8 20                	test   $0x20,%al
 e08504e:	74 f6                	je     e085046 <print_string_ser_poll>
 e085050:	67 8a 01             	addr32 mov (%ecx),%al
 e085053:	ba f8 03 00 00       	mov    $0x3f8,%edx
 e085058:	ee                   	out    %al,(%dx)
 e085059:	ff c1                	inc    %ecx
 e08505b:	67 8a 01             	addr32 mov (%ecx),%al
 e08505e:	84 c0                	test   %al,%al
 e085060:	75 e4                	jne    e085046 <print_string_ser_poll>
 e085062:	90                   	nop    

000000000e085063 <clear_mcas>:
 e085063:	b9 79 01 00 00       	mov    $0x179,%ecx
 e085068:	0f 32                	rdmsr  
 e08506a:	25 ff 00 00 00       	and    $0xff,%eax
 e08506f:	89 c3                	mov    %eax,%ebx
 e085071:	31 d2                	xor    %edx,%edx
 e085073:	31 c0                	xor    %eax,%eax
 e085075:	b9 00 04 00 00       	mov    $0x400,%ecx

000000000e08507a <clear_mca_bank_loop>:
 e08507a:	ff c1                	inc    %ecx
 e08507c:	0f 30                	wrmsr  
 e08507e:	ff c1                	inc    %ecx
 e085080:	0f 30                	wrmsr  
 e085082:	ff c1                	inc    %ecx
 e085084:	0f 30                	wrmsr  
 e085086:	ff c1                	inc    %ecx
 e085088:	ff cb                	dec    %ebx
 e08508a:	75 ee                	jne    e08507a <clear_mca_bank_loop>

000000000e08508c <init_mcas>:
 e08508c:	b9 79 01 00 00       	mov    $0x179,%ecx
 e085091:	0f 32                	rdmsr  
 e085093:	25 ff 00 00 00       	and    $0xff,%eax
 e085098:	89 c3                	mov    %eax,%ebx
 e08509a:	ba ff ff ff ff       	mov    $0xffffffff,%edx
 e08509f:	b8 ff ff ff ff       	mov    $0xffffffff,%eax
 e0850a4:	b9 00 04 00 00       	mov    $0x400,%ecx

000000000e0850a9 <init_mca_bank_loop>:
 e0850a9:	0f 30                	wrmsr  
 e0850ab:	83 c1 04             	add    $0x4,%ecx
 e0850ae:	ff cb                	dec    %ebx
 e0850b0:	75 f7                	jne    e0850a9 <init_mca_bank_loop>
 e0850b2:	0f 20 e0             	mov    %cr4,%rax
 e0850b5:	83 c8 40             	or     $0x40,%eax
 e0850b8:	0f 22 e0             	mov    %rax,%cr4

000000000e0850bb <endloop3>:
 e0850bb:	eb fe                	jmp    e0850bb <endloop3>

000000000e0850bd <msg_64bit_started>:
 e0850bd:	36                   	ss
 e0850be:	34 20                	xor    $0x20,%al
 e0850c0:	62                   	(bad)  
 e0850c1:	69 74 20 6d 6f 64 65 	imul   $0x2065646f,0x6d(%rax),%esi
 e0850c8:	20 
 e0850c9:	73 74                	jae    e08513f <msg_64bit_started+0x82>
 e0850cb:	61                   	(bad)  
 e0850cc:	72 65                	jb     e085133 <msg_64bit_started+0x76>
 e0850ce:	64                   	fs
 e0850cf:	2e                   	cs
 e0850d0:	0d 0a 00 00 00       	or     $0xa,%eax
 e0850d5:	00 00                	add    %al,(%rax)
0e086000 <main>:
 e086000:	b9 80 00 00 c0       	mov    $0xc0000080,%ecx
 e086005:	0f 32                	rdmsr  
 e086007:	0d 01 01 00 00       	or     $0x101,%eax
 e08600c:	25 ff f7 ff ff       	and    $0xfffff7ff,%eax
 e086011:	0f 30                	wrmsr  
 e086013:	0f 20 e0             	mov    %cr4,%eax
 e086016:	83 c8 20             	or     $0x20,%eax
 e086019:	83 e0 ef             	and    $0xffffffef,%eax
 e08601c:	0f 22 e0             	mov    %eax,%cr4
 e08601f:	8d 05 00 10 08 0e    	lea    0xe081000,%eax
 e086025:	0d 00 00 00 f0       	or     $0xf0000000,%eax
 e08602a:	25 00 f0 ff ff       	and    $0xfffff000,%eax
 e08602f:	0f 22 d8             	mov    %eax,%cr3
 e086032:	0f 20 c0             	mov    %cr0,%eax
 e086035:	0d 00 00 00 80       	or     $0x80000000,%eax
 e08603a:	0f 22 c0             	mov    %eax,%cr0
 e08603d:	90                   	nop    
 e08603e:	90                   	nop    
 e08603f:	90                   	nop    
 e086040:	90                   	nop    
 e086041:	90                   	nop    
 e086042:	90                   	nop    
 e086043:	a1 00 50 08 fe       	mov    0xfe085000,%eax
 e086048:	0f 01 15 00 50 08 fe 	lgdtl  0xfe085000
 e08604f:	90                   	nop    
 e086050:	31 c0                	xor    %eax,%eax
 e086052:	40                   	inc    %eax
 e086053:	ea 5b 60 08 fe 08 00 	ljmp   $0x8,$0xfe08605b
 e08605a:	90                   	nop    

0e08605b <main_long_jump>:
 e08605b:	90                   	nop    

0e08605c <main_end>:
 e08605c:	eb fe                	jmp    e08605c <main_end>
