
SDC_AVF_virus_ww45_serial_delay_nosp.l:     file format elf64-x86-64

Disassembly of section .text:

0000000000006000 <main>:
    6000:	48 31 db             	xor    %rbx,%rbx
    6003:	48 31 c0             	xor    %rax,%rax
    6006:	b8 01 00 00 00       	mov    $0x1,%eax
    600b:	0f a2                	cpuid  
    600d:	c1 eb 18             	shr    $0x18,%ebx
    6010:	48 31 c9             	xor    %rcx,%rcx
    6013:	48 01 d9             	add    %rbx,%rcx
    6016:	48 c1 e1 19          	shl    $0x19,%rcx
    601a:	48 83 c1 07          	add    $0x7,%rcx

000000000000601e <loop_delay>:
    601e:	90                   	nop    
    601f:	e2 fd                	loop   601e <loop_delay>

0000000000006021 <no_delay>:
    6021:	48 31 c0             	xor    %rax,%rax
    6024:	48 31 c9             	xor    %rcx,%rcx
    6027:	48 31 d2             	xor    %rdx,%rdx
    602a:	48 31 ff             	xor    %rdi,%rdi
    602d:	48 31 f6             	xor    %rsi,%rsi
    6030:	48 31 ed             	xor    %rbp,%rbp
    6033:	4d 31 c0             	xor    %r8,%r8
    6036:	4d 31 c9             	xor    %r9,%r9
    6039:	4d 31 d2             	xor    %r10,%r10
    603c:	4d 31 db             	xor    %r11,%r11
    603f:	4d 31 e4             	xor    %r12,%r12
    6042:	4d 31 ed             	xor    %r13,%r13
    6045:	4d 31 f6             	xor    %r14,%r14
    6048:	4d 31 ff             	xor    %r15,%r15
    604b:	0f 57 c0             	xorps  %xmm0,%xmm0
    604e:	0f 57 c9             	xorps  %xmm1,%xmm1
    6051:	0f 57 d2             	xorps  %xmm2,%xmm2
    6054:	0f 57 db             	xorps  %xmm3,%xmm3
    6057:	0f 57 e4             	xorps  %xmm4,%xmm4
    605a:	0f 57 ed             	xorps  %xmm5,%xmm5
    605d:	0f 57 f6             	xorps  %xmm6,%xmm6
    6060:	0f 57 ff             	xorps  %xmm7,%xmm7
    6063:	45 0f 57 c0          	xorps  %xmm8,%xmm8
    6067:	45 0f 57 c9          	xorps  %xmm9,%xmm9
    606b:	45 0f 57 d2          	xorps  %xmm10,%xmm10
    606f:	45 0f 57 db          	xorps  %xmm11,%xmm11
    6073:	45 0f 57 e4          	xorps  %xmm12,%xmm12
    6077:	45 0f 57 ed          	xorps  %xmm13,%xmm13
    607b:	45 0f 57 f6          	xorps  %xmm14,%xmm14
    607f:	45 0f 57 ff          	xorps  %xmm15,%xmm15
    6083:	0f ef c0             	pxor   %mm0,%mm0
    6086:	0f ef c9             	pxor   %mm1,%mm1
    6089:	0f ef d2             	pxor   %mm2,%mm2
    608c:	0f ef db             	pxor   %mm3,%mm3
    608f:	0f ef e4             	pxor   %mm4,%mm4
    6092:	0f ef ed             	pxor   %mm5,%mm5
    6095:	0f ef f6             	pxor   %mm6,%mm6
    6098:	0f ef ff             	pxor   %mm7,%mm7
    609b:	c1 e3 0c             	shl    $0xc,%ebx
    609e:	4d 31 f6             	xor    %r14,%r14
    60a1:	49 01 de             	add    %rbx,%r14

00000000000060a4 <loop_outer>:
    60a4:	48 31 c0             	xor    %rax,%rax
    60a7:	48 31 db             	xor    %rbx,%rbx
    60aa:	48 31 c9             	xor    %rcx,%rcx
    60ad:	48 31 d2             	xor    %rdx,%rdx
    60b0:	4d 31 db             	xor    %r11,%r11
    60b3:	49 81 c3 00 09 3d 00 	add    $0x3d0900,%r11

00000000000060ba <loop_main>:
    60ba:	4c 8d 3c 25 00 70 00 	lea    0x7000,%r15
    60c1:	00 
    60c2:	4d 01 f7             	add    %r14,%r15
    60c5:	4c 8d 14 25 00 70 00 	lea    0x7000,%r10
    60cc:	00 
    60cd:	4d 01 f2             	add    %r14,%r10
    60d0:	48 31 c9             	xor    %rcx,%rcx
    60d3:	48 83 c1 02          	add    $0x2,%rcx

00000000000060d7 <sqrt_loop>:
    60d7:	f3 0f 51 c8          	sqrtss %xmm0,%xmm1
    60db:	f3 0f 51 d1          	sqrtss %xmm1,%xmm2
    60df:	f3 0f 51 da          	sqrtss %xmm2,%xmm3
    60e3:	f3 0f 51 e3          	sqrtss %xmm3,%xmm4
    60e7:	f3 0f 51 ec          	sqrtss %xmm4,%xmm5
    60eb:	f3 0f 51 f5          	sqrtss %xmm5,%xmm6
    60ef:	f3 0f 51 fe          	sqrtss %xmm6,%xmm7
    60f3:	f3 44 0f 51 c7       	sqrtss %xmm7,%xmm8
    60f8:	f3 45 0f 51 c8       	sqrtss %xmm8,%xmm9
    60fd:	f3 45 0f 51 d1       	sqrtss %xmm9,%xmm10
    6102:	f3 45 0f 51 da       	sqrtss %xmm10,%xmm11
    6107:	f3 45 0f 51 e3       	sqrtss %xmm11,%xmm12
    610c:	f3 45 0f 51 ec       	sqrtss %xmm12,%xmm13
    6111:	f3 45 0f 51 f5       	sqrtss %xmm13,%xmm14
    6116:	f3 45 0f 51 fe       	sqrtss %xmm14,%xmm15
    611b:	f3 41 0f 51 c7       	sqrtss %xmm15,%xmm0
    6120:	e2 b5                	loop   60d7 <sqrt_loop>
    6122:	f3 0f 51 c8          	sqrtss %xmm0,%xmm1
    6126:	f3 0f 51 d1          	sqrtss %xmm1,%xmm2
    612a:	f3 0f 51 da          	sqrtss %xmm2,%xmm3
    612e:	f3 0f 51 e3          	sqrtss %xmm3,%xmm4
    6132:	f3 0f 51 ec          	sqrtss %xmm4,%xmm5
    6136:	f3 0f 51 f5          	sqrtss %xmm5,%xmm6
    613a:	f3 0f 51 fe          	sqrtss %xmm6,%xmm7
    613e:	f3 44 0f 51 c7       	sqrtss %xmm7,%xmm8
    6143:	f3 45 0f 51 c8       	sqrtss %xmm8,%xmm9
    6148:	f3 45 0f 51 d1       	sqrtss %xmm9,%xmm10
    614d:	f3 45 0f 51 da       	sqrtss %xmm10,%xmm11
    6152:	f3 45 0f 51 e3       	sqrtss %xmm11,%xmm12
    6157:	f3 45 0f 51 ec       	sqrtss %xmm12,%xmm13
    615c:	f3 45 0f 51 f5       	sqrtss %xmm13,%xmm14
    6161:	f3 45 0f 51 fe       	sqrtss %xmm14,%xmm15
    6166:	f3 41 0f 51 c7       	sqrtss %xmm15,%xmm0
    616b:	4d 31 ed             	xor    %r13,%r13
    616e:	49 83 c5 04          	add    $0x4,%r13

0000000000006172 <store_loop>:
    6172:	4d 89 37             	mov    %r14,(%r15)
    6175:	49 83 c7 08          	add    $0x8,%r15
    6179:	49 ff cd             	dec    %r13
    617c:	49 83 fd 00          	cmp    $0x0,%r13
    6180:	75 f0                	jne    6172 <store_loop>
    6182:	4d 31 e4             	xor    %r12,%r12
    6185:	49 83 c4 01          	add    $0x1,%r12

0000000000006189 <inc_loop>:
    6189:	48 83 c0 02          	add    $0x2,%rax
    618d:	48 01 c3             	add    %rax,%rbx
    6190:	48 83 eb 02          	sub    $0x2,%rbx
    6194:	48 83 c3 03          	add    $0x3,%rbx
    6198:	48 01 da             	add    %rbx,%rdx
    619b:	48 83 ea 03          	sub    $0x3,%rdx
    619f:	48 83 c2 04          	add    $0x4,%rdx
    61a3:	48 01 d7             	add    %rdx,%rdi
    61a6:	48 83 ef 04          	sub    $0x4,%rdi
    61aa:	48 83 c7 05          	add    $0x5,%rdi
    61ae:	48 01 fe             	add    %rdi,%rsi
    61b1:	48 83 ee 05          	sub    $0x5,%rsi
    61b5:	48 83 c6 06          	add    $0x6,%rsi
    61b9:	48 01 f5             	add    %rsi,%rbp
    61bc:	48 83 ed 06          	sub    $0x6,%rbp
    61c0:	48 83 c5 07          	add    $0x7,%rbp
    61c4:	49 01 e8             	add    %rbp,%r8
    61c7:	49 83 e8 07          	sub    $0x7,%r8
    61cb:	49 83 c0 08          	add    $0x8,%r8
    61cf:	4d 01 c1             	add    %r8,%r9
    61d2:	49 83 e9 08          	sub    $0x8,%r9
    61d6:	49 83 c1 09          	add    $0x9,%r9
    61da:	49 83 e9 09          	sub    $0x9,%r9
    61de:	4d 01 c8             	add    %r9,%r8
    61e1:	49 83 e8 08          	sub    $0x8,%r8
    61e5:	4c 01 c5             	add    %r8,%rbp
    61e8:	48 83 ed 07          	sub    $0x7,%rbp
    61ec:	48 01 ee             	add    %rbp,%rsi
    61ef:	48 83 ee 06          	sub    $0x6,%rsi
    61f3:	48 01 f7             	add    %rsi,%rdi
    61f6:	48 83 ef 05          	sub    $0x5,%rdi
    61fa:	48 01 fa             	add    %rdi,%rdx
    61fd:	48 83 ea 04          	sub    $0x4,%rdx
    6201:	48 01 d3             	add    %rdx,%rbx
    6204:	48 83 eb 03          	sub    $0x3,%rbx
    6208:	48 01 d8             	add    %rbx,%rax
    620b:	48 83 e8 02          	sub    $0x2,%rax
    620f:	49 ff cc             	dec    %r12
    6212:	49 83 fc 00          	cmp    $0x0,%r12
    6216:	0f 85 6d ff ff ff    	jne    6189 <inc_loop>
    621c:	4d 89 37             	mov    %r14,(%r15)
    621f:	49 83 c7 08          	add    $0x8,%r15
    6223:	4d 89 37             	mov    %r14,(%r15)
    6226:	49 83 c7 08          	add    $0x8,%r15
    622a:	4d 89 37             	mov    %r14,(%r15)
    622d:	49 83 c7 08          	add    $0x8,%r15
    6231:	4d 89 37             	mov    %r14,(%r15)
    6234:	49 83 c7 08          	add    $0x8,%r15
    6238:	4d 89 37             	mov    %r14,(%r15)
    623b:	49 83 c7 08          	add    $0x8,%r15
    623f:	4d 89 37             	mov    %r14,(%r15)
    6242:	49 83 c7 08          	add    $0x8,%r15
    6246:	4d 89 37             	mov    %r14,(%r15)
    6249:	49 83 c7 08          	add    $0x8,%r15
    624d:	4d 89 37             	mov    %r14,(%r15)
    6250:	49 83 c7 08          	add    $0x8,%r15
    6254:	4d 89 37             	mov    %r14,(%r15)
    6257:	49 83 c7 08          	add    $0x8,%r15
    625b:	4d 89 37             	mov    %r14,(%r15)
    625e:	49 83 c7 08          	add    $0x8,%r15
    6262:	4d 89 37             	mov    %r14,(%r15)
    6265:	49 83 c7 08          	add    $0x8,%r15
    6269:	4d 89 37             	mov    %r14,(%r15)
    626c:	4d 89 37             	mov    %r14,(%r15)
    626f:	4d 89 37             	mov    %r14,(%r15)
    6272:	4d 89 37             	mov    %r14,(%r15)
    6275:	4d 89 37             	mov    %r14,(%r15)
    6278:	4d 89 37             	mov    %r14,(%r15)
    627b:	4d 89 37             	mov    %r14,(%r15)
    627e:	4d 89 37             	mov    %r14,(%r15)
    6281:	4d 89 37             	mov    %r14,(%r15)
    6284:	4d 89 37             	mov    %r14,(%r15)
    6287:	4d 89 37             	mov    %r14,(%r15)
    628a:	4d 89 37             	mov    %r14,(%r15)
    628d:	4d 89 37             	mov    %r14,(%r15)
    6290:	4d 89 37             	mov    %r14,(%r15)
    6293:	4d 89 37             	mov    %r14,(%r15)
    6296:	4d 89 37             	mov    %r14,(%r15)
    6299:	4d 89 37             	mov    %r14,(%r15)
    629c:	4d 89 37             	mov    %r14,(%r15)
    629f:	4d 89 37             	mov    %r14,(%r15)
    62a2:	4d 89 37             	mov    %r14,(%r15)
    62a5:	4d 89 37             	mov    %r14,(%r15)
    62a8:	4d 89 37             	mov    %r14,(%r15)
    62ab:	4d 89 37             	mov    %r14,(%r15)
    62ae:	4d 89 37             	mov    %r14,(%r15)
    62b1:	4d 89 37             	mov    %r14,(%r15)
    62b4:	48 0f 6e c0          	movd   %rax,%mm0
    62b8:	4d 31 e4             	xor    %r12,%r12
    62bb:	49 83 c4 01          	add    $0x1,%r12

00000000000062bf <padd_loop>:
    62bf:	0f fd c8             	paddw  %mm0,%mm1
    62c2:	0f fd d1             	paddw  %mm1,%mm2
    62c5:	0f fd da             	paddw  %mm2,%mm3
    62c8:	0f fd e3             	paddw  %mm3,%mm4
    62cb:	0f fd ec             	paddw  %mm4,%mm5
    62ce:	0f fd f5             	paddw  %mm5,%mm6
    62d1:	0f fd fe             	paddw  %mm6,%mm7
    62d4:	0f fd c7             	paddw  %mm7,%mm0
    62d7:	49 ff cc             	dec    %r12
    62da:	49 83 fc 00          	cmp    $0x0,%r12
    62de:	75 df                	jne    62bf <padd_loop>
    62e0:	4d 31 ff             	xor    %r15,%r15
    62e3:	4d 01 f7             	add    %r14,%r15
    62e6:	48 83 f8 00          	cmp    $0x0,%rax
    62ea:	0f 85 6c 02 00 00    	jne    655c <loop_wrong_int>
    62f0:	48 83 fb 00          	cmp    $0x0,%rbx
    62f4:	0f 85 62 02 00 00    	jne    655c <loop_wrong_int>
    62fa:	48 83 f9 00          	cmp    $0x0,%rcx
    62fe:	0f 85 58 02 00 00    	jne    655c <loop_wrong_int>
    6304:	48 83 fa 00          	cmp    $0x0,%rdx
    6308:	0f 85 4e 02 00 00    	jne    655c <loop_wrong_int>
    630e:	48 83 ff 00          	cmp    $0x0,%rdi
    6312:	0f 85 44 02 00 00    	jne    655c <loop_wrong_int>
    6318:	48 83 fe 00          	cmp    $0x0,%rsi
    631c:	0f 85 3a 02 00 00    	jne    655c <loop_wrong_int>
    6322:	48 83 fd 00          	cmp    $0x0,%rbp
    6326:	0f 85 30 02 00 00    	jne    655c <loop_wrong_int>
    632c:	49 83 f8 00          	cmp    $0x0,%r8
    6330:	0f 85 26 02 00 00    	jne    655c <loop_wrong_int>
    6336:	49 83 f9 00          	cmp    $0x0,%r9
    633a:	0f 85 1c 02 00 00    	jne    655c <loop_wrong_int>
    6340:	49 83 fc 00          	cmp    $0x0,%r12
    6344:	0f 85 12 02 00 00    	jne    655c <loop_wrong_int>
    634a:	49 83 fd 00          	cmp    $0x0,%r13
    634e:	0f 85 08 02 00 00    	jne    655c <loop_wrong_int>
    6354:	4d 39 fe             	cmp    %r15,%r14
    6357:	0f 85 ff 01 00 00    	jne    655c <loop_wrong_int>
    635d:	0f 56 c1             	orps   %xmm1,%xmm0
    6360:	0f 56 c2             	orps   %xmm2,%xmm0
    6363:	0f 56 c3             	orps   %xmm3,%xmm0
    6366:	0f 56 c4             	orps   %xmm4,%xmm0
    6369:	0f 56 c5             	orps   %xmm5,%xmm0
    636c:	0f 56 c6             	orps   %xmm6,%xmm0
    636f:	0f 56 c7             	orps   %xmm7,%xmm0
    6372:	41 0f 56 c0          	orps   %xmm8,%xmm0
    6376:	41 0f 56 c1          	orps   %xmm9,%xmm0
    637a:	41 0f 56 c2          	orps   %xmm10,%xmm0
    637e:	41 0f 56 c3          	orps   %xmm11,%xmm0
    6382:	41 0f 56 c4          	orps   %xmm12,%xmm0
    6386:	41 0f 56 c5          	orps   %xmm13,%xmm0
    638a:	41 0f 56 c6          	orps   %xmm14,%xmm0
    638e:	41 0f 56 c7          	orps   %xmm15,%xmm0
    6392:	66 0f c5 c0 00       	pextrw $0x0,%xmm0,%eax
    6397:	83 f8 00             	cmp    $0x0,%eax
    639a:	0f 85 d7 01 00 00    	jne    6577 <loop_wrong_fp>
    63a0:	66 0f c5 c0 01       	pextrw $0x1,%xmm0,%eax
    63a5:	83 f8 00             	cmp    $0x0,%eax
    63a8:	0f 85 c9 01 00 00    	jne    6577 <loop_wrong_fp>
    63ae:	66 0f c5 c0 02       	pextrw $0x2,%xmm0,%eax
    63b3:	83 f8 00             	cmp    $0x0,%eax
    63b6:	0f 85 bb 01 00 00    	jne    6577 <loop_wrong_fp>
    63bc:	66 0f c5 c0 03       	pextrw $0x3,%xmm0,%eax
    63c1:	83 f8 00             	cmp    $0x0,%eax
    63c4:	0f 85 ad 01 00 00    	jne    6577 <loop_wrong_fp>
    63ca:	66 0f c5 c0 04       	pextrw $0x4,%xmm0,%eax
    63cf:	83 f8 00             	cmp    $0x0,%eax
    63d2:	0f 85 9f 01 00 00    	jne    6577 <loop_wrong_fp>
    63d8:	66 0f c5 c0 05       	pextrw $0x5,%xmm0,%eax
    63dd:	83 f8 00             	cmp    $0x0,%eax
    63e0:	0f 85 91 01 00 00    	jne    6577 <loop_wrong_fp>
    63e6:	66 0f c5 c0 06       	pextrw $0x6,%xmm0,%eax
    63eb:	83 f8 00             	cmp    $0x0,%eax
    63ee:	0f 85 83 01 00 00    	jne    6577 <loop_wrong_fp>
    63f4:	66 0f c5 c0 07       	pextrw $0x7,%xmm0,%eax
    63f9:	83 f8 00             	cmp    $0x0,%eax
    63fc:	0f 85 75 01 00 00    	jne    6577 <loop_wrong_fp>
    6402:	4d 8b 22             	mov    (%r10),%r12
    6405:	4d 39 fc             	cmp    %r15,%r12
    6408:	0f 85 84 01 00 00    	jne    6592 <loop_wrong_mem>
    640e:	49 83 c2 08          	add    $0x8,%r10
    6412:	4d 8b 22             	mov    (%r10),%r12
    6415:	4d 39 fc             	cmp    %r15,%r12
    6418:	0f 85 74 01 00 00    	jne    6592 <loop_wrong_mem>
    641e:	49 83 c2 08          	add    $0x8,%r10
    6422:	4d 8b 22             	mov    (%r10),%r12
    6425:	4d 39 fc             	cmp    %r15,%r12
    6428:	0f 85 64 01 00 00    	jne    6592 <loop_wrong_mem>
    642e:	49 83 c2 08          	add    $0x8,%r10
    6432:	4d 8b 22             	mov    (%r10),%r12
    6435:	4d 39 fc             	cmp    %r15,%r12
    6438:	0f 85 54 01 00 00    	jne    6592 <loop_wrong_mem>
    643e:	49 83 c2 08          	add    $0x8,%r10
    6442:	4d 8b 22             	mov    (%r10),%r12
    6445:	4d 39 fc             	cmp    %r15,%r12
    6448:	0f 85 44 01 00 00    	jne    6592 <loop_wrong_mem>
    644e:	49 83 c2 08          	add    $0x8,%r10
    6452:	4d 8b 22             	mov    (%r10),%r12
    6455:	4d 39 fc             	cmp    %r15,%r12
    6458:	0f 85 34 01 00 00    	jne    6592 <loop_wrong_mem>
    645e:	49 83 c2 08          	add    $0x8,%r10
    6462:	4d 8b 22             	mov    (%r10),%r12
    6465:	4d 39 fc             	cmp    %r15,%r12
    6468:	0f 85 24 01 00 00    	jne    6592 <loop_wrong_mem>
    646e:	49 83 c2 08          	add    $0x8,%r10
    6472:	4d 8b 22             	mov    (%r10),%r12
    6475:	4d 39 fc             	cmp    %r15,%r12
    6478:	0f 85 14 01 00 00    	jne    6592 <loop_wrong_mem>
    647e:	49 83 c2 08          	add    $0x8,%r10
    6482:	4d 8b 22             	mov    (%r10),%r12
    6485:	4d 39 fc             	cmp    %r15,%r12
    6488:	0f 85 04 01 00 00    	jne    6592 <loop_wrong_mem>
    648e:	49 83 c2 08          	add    $0x8,%r10
    6492:	4d 8b 22             	mov    (%r10),%r12
    6495:	4d 39 fc             	cmp    %r15,%r12
    6498:	0f 85 f4 00 00 00    	jne    6592 <loop_wrong_mem>
    649e:	49 83 c2 08          	add    $0x8,%r10
    64a2:	4d 8b 22             	mov    (%r10),%r12
    64a5:	4d 39 fc             	cmp    %r15,%r12
    64a8:	0f 85 e4 00 00 00    	jne    6592 <loop_wrong_mem>
    64ae:	49 83 c2 08          	add    $0x8,%r10
    64b2:	4d 8b 22             	mov    (%r10),%r12
    64b5:	4d 39 fc             	cmp    %r15,%r12
    64b8:	0f 85 d4 00 00 00    	jne    6592 <loop_wrong_mem>
    64be:	49 83 c2 08          	add    $0x8,%r10
    64c2:	4d 8b 22             	mov    (%r10),%r12
    64c5:	4d 39 fc             	cmp    %r15,%r12
    64c8:	0f 85 c4 00 00 00    	jne    6592 <loop_wrong_mem>
    64ce:	49 83 c2 08          	add    $0x8,%r10
    64d2:	4d 8b 22             	mov    (%r10),%r12
    64d5:	4d 39 fc             	cmp    %r15,%r12
    64d8:	0f 85 b4 00 00 00    	jne    6592 <loop_wrong_mem>
    64de:	49 83 c2 08          	add    $0x8,%r10
    64e2:	4d 8b 22             	mov    (%r10),%r12
    64e5:	4d 39 fc             	cmp    %r15,%r12
    64e8:	0f 85 a4 00 00 00    	jne    6592 <loop_wrong_mem>
    64ee:	49 83 c2 08          	add    $0x8,%r10
    64f2:	4d 8b 22             	mov    (%r10),%r12
    64f5:	4d 39 fc             	cmp    %r15,%r12
    64f8:	0f 85 94 00 00 00    	jne    6592 <loop_wrong_mem>
    64fe:	49 83 c2 08          	add    $0x8,%r10
    6502:	0f eb c1             	por    %mm1,%mm0
    6505:	0f eb c2             	por    %mm2,%mm0
    6508:	0f eb c3             	por    %mm3,%mm0
    650b:	0f eb c4             	por    %mm4,%mm0
    650e:	0f eb c5             	por    %mm5,%mm0
    6511:	0f eb c6             	por    %mm6,%mm0
    6514:	0f eb c7             	por    %mm7,%mm0
    6517:	0f c5 c0 00          	pextrw $0x0,%mm0,%eax
    651b:	83 f8 00             	cmp    $0x0,%eax
    651e:	75 57                	jne    6577 <loop_wrong_fp>
    6520:	0f c5 c0 01          	pextrw $0x1,%mm0,%eax
    6524:	83 f8 00             	cmp    $0x0,%eax
    6527:	75 4e                	jne    6577 <loop_wrong_fp>
    6529:	0f c5 c0 02          	pextrw $0x2,%mm0,%eax
    652d:	83 f8 00             	cmp    $0x0,%eax
    6530:	75 45                	jne    6577 <loop_wrong_fp>
    6532:	0f c5 c0 03          	pextrw $0x3,%mm0,%eax
    6536:	83 f8 00             	cmp    $0x0,%eax
    6539:	75 3c                	jne    6577 <loop_wrong_fp>
    653b:	49 ff cb             	dec    %r11
    653e:	49 83 fb 00          	cmp    $0x0,%r11
    6542:	0f 85 72 fb ff ff    	jne    60ba <loop_main>
    6548:	48 31 c0             	xor    %rax,%rax
    654b:	4c 01 f0             	add    %r14,%rax
    654e:	48 c1 e8 0a          	shr    $0xa,%rax
    6552:	66 ba f8 03          	mov    $0x3f8,%dx
    6556:	ee                   	out    %al,(%dx)
    6557:	e9 48 fb ff ff       	jmpq   60a4 <loop_outer>

000000000000655c <loop_wrong_int>:
    655c:	48 31 c0             	xor    %rax,%rax
    655f:	4c 01 f0             	add    %r14,%rax
    6562:	48 c1 e8 0a          	shr    $0xa,%rax
    6566:	48 31 db             	xor    %rbx,%rbx
    6569:	48 83 c3 01          	add    $0x1,%rbx
    656d:	48 09 d8             	or     %rbx,%rax
    6570:	66 ba f8 03          	mov    $0x3f8,%dx
    6574:	ee                   	out    %al,(%dx)
    6575:	eb 36                	jmp    65ad <loop_exit>

0000000000006577 <loop_wrong_fp>:
    6577:	48 31 c0             	xor    %rax,%rax
    657a:	4c 01 f0             	add    %r14,%rax
    657d:	48 c1 e8 0a          	shr    $0xa,%rax
    6581:	48 31 db             	xor    %rbx,%rbx
    6584:	48 83 c3 02          	add    $0x2,%rbx
    6588:	48 09 d8             	or     %rbx,%rax
    658b:	66 ba f8 03          	mov    $0x3f8,%dx
    658f:	ee                   	out    %al,(%dx)
    6590:	eb 1b                	jmp    65ad <loop_exit>

0000000000006592 <loop_wrong_mem>:
    6592:	48 31 c0             	xor    %rax,%rax
    6595:	4c 01 f0             	add    %r14,%rax
    6598:	48 c1 e8 0a          	shr    $0xa,%rax
    659c:	48 31 db             	xor    %rbx,%rbx
    659f:	48 83 c3 03          	add    $0x3,%rbx
    65a3:	48 09 d8             	or     %rbx,%rax
    65a6:	66 ba f8 03          	mov    $0x3f8,%dx
    65aa:	ee                   	out    %al,(%dx)
    65ab:	eb 00                	jmp    65ad <loop_exit>

00000000000065ad <loop_exit>:
    65ad:	b8 01 00 00 00       	mov    $0x1,%eax
    65b2:	bb 00 00 00 00       	mov    $0x0,%ebx
    65b7:	cd 80                	int    $0x80